///////////////////////////////////////////////////////////////////////////////
//                                                                            /
// IAR C/C++ Compiler V8.10.4.40412/W32 for 8051        04/Dec/2016  22:37:58 /
// Copyright 2004-2011 IAR Systems AB.                                        /
//                                                                            /
//    Core               =  plain                                             /
//    Code model         =  banked                                            /
//    Data model         =  large                                             /
//    Calling convention =  xdata reentrant                                   /
//    Constant location  =  data                                              /
//    Dptr setup         =  1,16                                              /
//    Source file        =  C:\Users\freeman\Documents\work\NBK\Nikon\NikonSt /
//                          m32\Nikon_Rf\SimpliciTI-IAR-1.2.0\Components\simp /
//                          liciti\nwk_applications\nwk_ping.c                /
//    Command line       =  -f C:\Users\freeman\Documents\work\NBK\Nikon\Niko /
//                          nStm32\Nikon_Rf\SimpliciTI-IAR-1.2.0\Projects\Exa /
//                          mples\SRF05_8051\nik_sb5000\IAR\Configuration\Lin /
//                          kTo\smpl_config.dat ("-DTHIS_DEVICE_ADDRESS={0x79 /
//                          , 0x56, 0x34, 0x12}" -DxNWK_PLL_REFERENCE_CLOCK   /
//                          -DLINK_TO) -f C:\Users\freeman\Documents\work\NBK /
//                          \Nikon\NikonStm32\Nikon_Rf\SimpliciTI-IAR-1.2.0\P /
//                          rojects\Examples\SRF05_8051\nik_sb5000\IAR\Config /
//                          uration\smpl_nwk_config.dat (-DMAX_HOPS=3         /
//                          -DMAX_HOPS_FROM_AP=1 -DMAX_NWK_PAYLOAD=34         /
//                          -DMAX_APP_PAYLOAD=10 -DDEFAULT_LINK_TOKEN=0x01020 /
//                          304 -DDEFAULT_JOIN_TOKEN=0x05060708               /
//                          -DxFREQUENCY_AGILITY -DxAPP_AUTO_ACK              /
//                          -DxEXTENDED_API -DxSMPL_SECURE                    /
//                          -DxNVOBJECT_SUPPORT -DxSW_TIMER                   /
//                          -DNUM_CONNECTIONS=2 -DSIZE_INFRAME_Q=4            /
//                          -DSIZE_OUTFRAME_Q=2 -DxFREQUENCY_HOPPING          /
//                          -DNWK_PLL_SHOW_LOCATION_INDICATORS                /
//                          -DUART_NUMBER=UART_NUMBER_0                       /
//                          -DUART_LOCATION=UART_LOCATION_1                   /
//                          -DUART_BAUD_RATE=115200                           /
//                          -DUART_FLOW_CONTROL=UART_FLOW_CONTROL_OFF         /
//                          -DUART_PARITY_MODE=UART_PARITY_NONE               /
//                          -DUART_STOP_BITS=UART_1_STOP_BIT                  /
//                          -DBSP_TIMER_USED=1 -DEND_DEVICE)                  /
//                          C:\Users\freeman\Documents\work\NBK\Nikon\NikonSt /
//                          m32\Nikon_Rf\SimpliciTI-IAR-1.2.0\Components\simp /
//                          liciti\nwk_applications\nwk_ping.c -D             /
//                          MCU_H=<ioCC2530.h> -D MRFI_CC2530 -D ZTOOL_P1     /
//                          -lC C:\Users\freeman\Documents\work\NBK\Nikon\Nik /
//                          onStm32\Nikon_Rf\SimpliciTI-IAR-1.2.0\Projects\Ex /
//                          amples\SRF05_8051\nik_sb5000\IAR\LinkTo\List\     /
//                          -lA C:\Users\freeman\Documents\work\NBK\Nikon\Nik /
//                          onStm32\Nikon_Rf\SimpliciTI-IAR-1.2.0\Projects\Ex /
//                          amples\SRF05_8051\nik_sb5000\IAR\LinkTo\List\ -o  /
//                          C:\Users\freeman\Documents\work\NBK\Nikon\NikonSt /
//                          m32\Nikon_Rf\SimpliciTI-IAR-1.2.0\Projects\Exampl /
//                          es\SRF05_8051\nik_sb5000\IAR\LinkTo\Obj\ -e       /
//                          --debug --core=plain --dptr=16,1                  /
//                          --data_model=large --code_model=banked            /
//                          --calling_convention=xdata_reentrant              /
//                          --place_constants=data --nr_virtual_regs 16 -I    /
//                          C:\Users\freeman\Documents\work\NBK\Nikon\NikonSt /
//                          m32\Nikon_Rf\SimpliciTI-IAR-1.2.0\Projects\Exampl /
//                          es\SRF05_8051\nik_sb5000\IAR\..\..\..\..\..\Compo /
//                          nents\bsp\ -I C:\Users\freeman\Documents\work\NBK /
//                          \Nikon\NikonStm32\Nikon_Rf\SimpliciTI-IAR-1.2.0\P /
//                          rojects\Examples\SRF05_8051\nik_sb5000\IAR\..\..\ /
//                          ..\..\..\Components\bsp\drivers\ -I               /
//                          C:\Users\freeman\Documents\work\NBK\Nikon\NikonSt /
//                          m32\Nikon_Rf\SimpliciTI-IAR-1.2.0\Projects\Exampl /
//                          es\SRF05_8051\nik_sb5000\IAR\..\..\..\..\..\Compo /
//                          nents\bsp\boards\CC2530EM\ -I                     /
//                          C:\Users\freeman\Documents\work\NBK\Nikon\NikonSt /
//                          m32\Nikon_Rf\SimpliciTI-IAR-1.2.0\Projects\Exampl /
//                          es\SRF05_8051\nik_sb5000\IAR\..\..\..\..\..\Compo /
//                          nents\mrfi\ -I C:\Users\freeman\Documents\work\NB /
//                          K\Nikon\NikonStm32\Nikon_Rf\SimpliciTI-IAR-1.2.0\ /
//                          Projects\Examples\SRF05_8051\nik_sb5000\IAR\..\.. /
//                          \..\..\..\Components\SimpliciTI\nwk\ -I           /
//                          C:\Users\freeman\Documents\work\NBK\Nikon\NikonSt /
//                          m32\Nikon_Rf\SimpliciTI-IAR-1.2.0\Projects\Exampl /
//                          es\SRF05_8051\nik_sb5000\IAR\..\..\..\Application /
//                          s\ -I C:\Users\freeman\Documents\work\NBK\Nikon\N /
//                          ikonStm32\Nikon_Rf\SimpliciTI-IAR-1.2.0\Projects\ /
//                          Examples\SRF05_8051\nik_sb5000\IAR\..\..\..\..\.. /
//                          \Components\SimpliciTI\nwk_applications\ -I       /
//                          C:\Users\freeman\Documents\work\NBK\Nikon\NikonSt /
//                          m32\Nikon_Rf\SimpliciTI-IAR-1.2.0\Projects\Exampl /
//                          es\SRF05_8051\nik_sb5000\IAR\..\..\..\..\..\Compo /
//                          nents\OSAL\INCLUDE\ -I C:\Users\freeman\Documents /
//                          \work\NBK\Nikon\NikonStm32\Nikon_Rf\SimpliciTI-IA /
//                          R-1.2.0\Projects\Examples\SRF05_8051\nik_sb5000\I /
//                          AR\..\..\..\..\..\Components\OSAL\MCU\CCSOC\ -I   /
//                          C:\Users\freeman\Documents\work\NBK\Nikon\NikonSt /
//                          m32\Nikon_Rf\SimpliciTI-IAR-1.2.0\Projects\Exampl /
//                          es\SRF05_8051\nik_sb5000\IAR\..\..\..\..\..\Compo /
//                          nents\HAL\INCLUDE\ -I C:\Users\freeman\Documents\ /
//                          work\NBK\Nikon\NikonStm32\Nikon_Rf\SimpliciTI-IAR /
//                          -1.2.0\Projects\Examples\SRF05_8051\nik_sb5000\IA /
//                          R\..\..\..\..\..\Components\HAL\TARGET\CC2530EB\  /
//                          -I C:\Users\freeman\Documents\work\NBK\Nikon\Niko /
//                          nStm32\Nikon_Rf\SimpliciTI-IAR-1.2.0\Projects\Exa /
//                          mples\SRF05_8051\nik_sb5000\IAR\..\..\..\..\..\Co /
//                          mponents\SERVICES\SADDR\ -I                       /
//                          C:\Users\freeman\Documents\work\NBK\Nikon\NikonSt /
//                          m32\Nikon_Rf\SimpliciTI-IAR-1.2.0\Projects\Exampl /
//                          es\SRF05_8051\nik_sb5000\IAR\..\..\..\..\..\Compo /
//                          nents\SERVICES\SDATA\ -I                          /
//                          C:\Users\freeman\Documents\work\NBK\Nikon\NikonSt /
//                          m32\Nikon_Rf\SimpliciTI-IAR-1.2.0\Projects\Exampl /
//                          es\SRF05_8051\nik_sb5000\IAR\..\..\..\..\..\Compo /
//                          nents\MT\ -I C:\Users\freeman\Documents\work\NBK\ /
//                          Nikon\NikonStm32\Nikon_Rf\SimpliciTI-IAR-1.2.0\Pr /
//                          ojects\Examples\SRF05_8051\nik_sb5000\IAR\..\..\. /
//                          .\..\..\Components\STACK\AF\ -I                   /
//                          C:\Users\freeman\Documents\work\NBK\Nikon\NikonSt /
//                          m32\Nikon_Rf\SimpliciTI-IAR-1.2.0\Projects\Exampl /
//                          es\SRF05_8051\nik_sb5000\IAR\..\..\..\..\..\Compo /
//                          nents\STACK\NWK\ -I C:\Users\freeman\Documents\wo /
//                          rk\NBK\Nikon\NikonStm32\Nikon_Rf\SimpliciTI-IAR-1 /
//                          .2.0\Projects\Examples\SRF05_8051\nik_sb5000\IAR\ /
//                          ..\..\..\..\..\Components\STACK\SEC\ -I           /
//                          C:\Users\freeman\Documents\work\NBK\Nikon\NikonSt /
//                          m32\Nikon_Rf\SimpliciTI-IAR-1.2.0\Projects\Exampl /
//                          es\SRF05_8051\nik_sb5000\IAR\..\..\..\..\..\Compo /
//                          nents\STACK\SAPI\ -I C:\Users\freeman\Documents\w /
//                          ork\NBK\Nikon\NikonStm32\Nikon_Rf\SimpliciTI-IAR- /
//                          1.2.0\Projects\Examples\SRF05_8051\nik_sb5000\IAR /
//                          \..\..\..\..\..\Components\STACK\SYS\ -I          /
//                          C:\Users\freeman\Documents\work\NBK\Nikon\NikonSt /
//                          m32\Nikon_Rf\SimpliciTI-IAR-1.2.0\Projects\Exampl /
//                          es\SRF05_8051\nik_sb5000\IAR\..\..\..\..\..\Compo /
//                          nents\STACK\ZDO\ -I C:\Users\freeman\Documents\wo /
//                          rk\NBK\Nikon\NikonStm32\Nikon_Rf\SimpliciTI-IAR-1 /
//                          .2.0\Projects\Examples\SRF05_8051\nik_sb5000\IAR\ /
//                          ..\..\..\..\..\Components\MAC\INCLUDE\ -I         /
//                          C:\Users\freeman\Documents\work\NBK\Nikon\NikonSt /
//                          m32\Nikon_Rf\SimpliciTI-IAR-1.2.0\Projects\Exampl /
//                          es\SRF05_8051\nik_sb5000\IAR\..\..\..\..\..\Compo /
//                          nents\MAC\HIGH_LEVEL\ -I                          /
//                          C:\Users\freeman\Documents\work\NBK\Nikon\NikonSt /
//                          m32\Nikon_Rf\SimpliciTI-IAR-1.2.0\Projects\Exampl /
//                          es\SRF05_8051\nik_sb5000\IAR\..\..\..\..\..\Compo /
//                          nents\MAC\LOW_LEVEL\srf04\ -I                     /
//                          C:\Users\freeman\Documents\work\NBK\Nikon\NikonSt /
//                          m32\Nikon_Rf\SimpliciTI-IAR-1.2.0\Projects\Exampl /
//                          es\SRF05_8051\nik_sb5000\IAR\..\..\..\..\..\Compo /
//                          nents\MAC\LOW_LEVEL\srf04\SINGLE_CHIP\ -Ohz       /
//                          --require_prototypes                              /
//    List file          =  C:\Users\freeman\Documents\work\NBK\Nikon\NikonSt /
//                          m32\Nikon_Rf\SimpliciTI-IAR-1.2.0\Projects\Exampl /
//                          es\SRF05_8051\nik_sb5000\IAR\LinkTo\List\nwk_ping /
//                          .s51                                              /
//                                                                            /
//                                                                            /
///////////////////////////////////////////////////////////////////////////////

        NAME nwk_ping

        RTMODEL "__SystemLibrary", "CLib"
        RTMODEL "__calling_convention", "xdata_reentrant"
        RTMODEL "__code_model", "banked"
        RTMODEL "__core", "plain"
        RTMODEL "__data_model", "large"
        RTMODEL "__dptr_size", "16"
        RTMODEL "__extended_stack", "disabled"
        RTMODEL "__location_for_constants", "data"
        RTMODEL "__number_of_dptrs", "1"
        RTMODEL "__rt_version", "1"

        RSEG DOVERLAY:DATA:NOROOT(0)
        RSEG IOVERLAY:IDATA:NOROOT(0)
        RSEG ISTACK:IDATA:NOROOT(0)
        RSEG PSTACK:XDATA:NOROOT(0)
        RSEG XSTACK:XDATA:NOROOT(0)

        EXTERN ?ALLOC_XSTACK8
        EXTERN ?BANKED_ENTER_XDATA
        EXTERN ?BANKED_LEAVE_XDATA
        EXTERN ?BDISPATCH
        EXTERN ?BRET
        EXTERN ?DEALLOC_XSTACK8
        EXTERN ?PUSH_XSTACK_I_TWO
        EXTERN ?V0
        EXTERN ?XSP
        EXTERN ?XSTACK_DISP0_8
        EXTERN __INIT_XDATA_Z

        PUBLIC ??nwk_ping?relay
        FUNCTION ??nwk_ping?relay,0203H
        PUBLIC ??nwk_pingInit?relay
        FUNCTION ??nwk_pingInit?relay,0203H
        PUBLIC ??nwk_processPing?relay
        FUNCTION ??nwk_processPing?relay,0203H
        PUBLIC nwk_ping
        FUNCTION nwk_ping,021203H
        ARGFRAME XSTACK, 0, STACK
        LOCFRAME ISTACK, 1, STACK
        LOCFRAME XSTACK, 21, STACK
        PUBLIC nwk_pingInit
        FUNCTION nwk_pingInit,021203H
        ARGFRAME XSTACK, 0, STACK
        LOCFRAME ISTACK, 2, STACK
        PUBLIC nwk_processPing
        FUNCTION nwk_processPing,021203H
        ARGFRAME XSTACK, 0, STACK
        LOCFRAME XSTACK, 14, STACK
        
        CFI Names cfiNames0
        CFI StackFrame CFA_SP SP IDATA
        CFI StackFrame CFA_PSP16 PSP16 XDATA
        CFI StackFrame CFA_XSP16 XSP16 XDATA
        CFI StaticOverlayFrame CFA_IOVERLAY IOVERLAY
        CFI StaticOverlayFrame CFA_DOVERLAY DOVERLAY
        CFI Resource `PSW.CY`:1, `B.BR0`:1, `B.BR1`:1, `B.BR2`:1, `B.BR3`:1
        CFI Resource `B.BR4`:1, `B.BR5`:1, `B.BR6`:1, `B.BR7`:1, `VB.BR8`:1
        CFI Resource `VB.BR9`:1, `VB.BR10`:1, `VB.BR11`:1, `VB.BR12`:1
        CFI Resource `VB.BR13`:1, `VB.BR14`:1, `VB.BR15`:1, VB:8, B:8, A:8
        CFI Resource PSW:8, DPL0:8, DPH0:8, R0:8, R1:8, R2:8, R3:8, R4:8, R5:8
        CFI Resource R6:8, R7:8, V0:8, V1:8, V2:8, V3:8, V4:8, V5:8, V6:8, V7:8
        CFI Resource V8:8, V9:8, V10:8, V11:8, V12:8, V13:8, V14:8, V15:8, SP:8
        CFI Resource PSPH:8, PSPL:8, PSP16:16, XSPH:8, XSPL:8, XSP16:16
        CFI VirtualResource ?RET:24
        CFI Resource ?BRET_EXT:8
        CFI VirtualResource ?RET_HIGH:8, ?RET_LOW:8
        CFI ResourceParts PSP16 PSPH, PSPL
        CFI ResourceParts XSP16 XSPH, XSPL
        CFI ResourceParts ?RET ?BRET_EXT, ?RET_HIGH, ?RET_LOW
        CFI EndNames cfiNames0
        
        CFI Common cfiCommon0 Using cfiNames0
        CFI CodeAlign 1
        CFI DataAlign -1
        CFI ReturnAddress ?RET CODE
        CFI CFA_DOVERLAY Used
        CFI CFA_IOVERLAY Used
        CFI CFA_SP SP+-3
        CFI CFA_PSP16 PSP16+0
        CFI CFA_XSP16 XSP16+0
        CFI `PSW.CY` SameValue
        CFI `B.BR0` SameValue
        CFI `B.BR1` SameValue
        CFI `B.BR2` SameValue
        CFI `B.BR3` SameValue
        CFI `B.BR4` SameValue
        CFI `B.BR5` SameValue
        CFI `B.BR6` SameValue
        CFI `B.BR7` SameValue
        CFI `VB.BR8` SameValue
        CFI `VB.BR9` SameValue
        CFI `VB.BR10` SameValue
        CFI `VB.BR11` SameValue
        CFI `VB.BR12` SameValue
        CFI `VB.BR13` SameValue
        CFI `VB.BR14` SameValue
        CFI `VB.BR15` SameValue
        CFI VB SameValue
        CFI B Undefined
        CFI A Undefined
        CFI PSW SameValue
        CFI DPL0 SameValue
        CFI DPH0 SameValue
        CFI R0 Undefined
        CFI R1 Undefined
        CFI R2 Undefined
        CFI R3 Undefined
        CFI R4 Undefined
        CFI R5 Undefined
        CFI R6 SameValue
        CFI R7 SameValue
        CFI V0 SameValue
        CFI V1 SameValue
        CFI V2 SameValue
        CFI V3 SameValue
        CFI V4 SameValue
        CFI V5 SameValue
        CFI V6 SameValue
        CFI V7 SameValue
        CFI V8 SameValue
        CFI V9 SameValue
        CFI V10 SameValue
        CFI V11 SameValue
        CFI V12 SameValue
        CFI V13 SameValue
        CFI V14 SameValue
        CFI V15 SameValue
        CFI PSPH Undefined
        CFI PSPL Undefined
        CFI XSPH Undefined
        CFI XSPL Undefined
        CFI ?RET Concat
        CFI ?BRET_EXT Frame(CFA_SP, 3)
        CFI ?RET_HIGH Frame(CFA_SP, 2)
        CFI ?RET_LOW Frame(CFA_SP, 1)
        CFI EndCommon cfiCommon0
        
        
        CFI Common cfiCommon1 Using cfiNames0
        CFI CodeAlign 1
        CFI DataAlign -1
        CFI ReturnAddress ?RET CODE
        CFI CFA_DOVERLAY Used
        CFI CFA_IOVERLAY Used
        CFI CFA_SP SP+-2
        CFI CFA_PSP16 PSP16+0
        CFI CFA_XSP16 XSP16+0
        CFI `PSW.CY` SameValue
        CFI `B.BR0` SameValue
        CFI `B.BR1` SameValue
        CFI `B.BR2` SameValue
        CFI `B.BR3` SameValue
        CFI `B.BR4` SameValue
        CFI `B.BR5` SameValue
        CFI `B.BR6` SameValue
        CFI `B.BR7` SameValue
        CFI `VB.BR8` SameValue
        CFI `VB.BR9` SameValue
        CFI `VB.BR10` SameValue
        CFI `VB.BR11` SameValue
        CFI `VB.BR12` SameValue
        CFI `VB.BR13` SameValue
        CFI `VB.BR14` SameValue
        CFI `VB.BR15` SameValue
        CFI VB SameValue
        CFI B SameValue
        CFI A SameValue
        CFI PSW SameValue
        CFI DPL0 SameValue
        CFI DPH0 SameValue
        CFI R0 SameValue
        CFI R1 SameValue
        CFI R2 SameValue
        CFI R3 SameValue
        CFI R4 SameValue
        CFI R5 SameValue
        CFI R6 SameValue
        CFI R7 SameValue
        CFI V0 SameValue
        CFI V1 SameValue
        CFI V2 SameValue
        CFI V3 SameValue
        CFI V4 SameValue
        CFI V5 SameValue
        CFI V6 SameValue
        CFI V7 SameValue
        CFI V8 SameValue
        CFI V9 SameValue
        CFI V10 SameValue
        CFI V11 SameValue
        CFI V12 SameValue
        CFI V13 SameValue
        CFI V14 SameValue
        CFI V15 SameValue
        CFI PSPH Undefined
        CFI PSPL Undefined
        CFI XSPH Undefined
        CFI XSPL Undefined
        CFI ?RET Concat
        CFI ?BRET_EXT SameValue
        CFI ?RET_HIGH Frame(CFA_SP, 2)
        CFI ?RET_LOW Frame(CFA_SP, 1)
        CFI EndCommon cfiCommon1
        
MRFI_RandomByte     SYMBOL "MRFI_RandomByte"
nwk_getConnInfo     SYMBOL "nwk_getConnInfo"
MRFI_GetRadioState  SYMBOL "MRFI_GetRadioState"
SMPL_Ioctl          SYMBOL "SMPL_Ioctl"
MRFI_WakeUp         SYMBOL "MRFI_WakeUp"
MRFI_RxOn           SYMBOL "MRFI_RxOn"
MRFI_ReplyDelay     SYMBOL "MRFI_ReplyDelay"
MRFI_Sleep          SYMBOL "MRFI_Sleep"
MRFI_RxIdle         SYMBOL "MRFI_RxIdle"
nwk_isValidReply    SYMBOL "nwk_isValidReply"
MRFI_PostKillSem    SYMBOL "MRFI_PostKillSem"
nwk_buildFrame      SYMBOL "nwk_buildFrame"
memcpy              SYMBOL "memcpy"
nwk_sendFrame       SYMBOL "nwk_sendFrame"
??MRFI_GetRadioState?relay SYMBOL "?relay", MRFI_GetRadioState
??MRFI_PostKillSem?relay SYMBOL "?relay", MRFI_PostKillSem
??MRFI_RandomByte?relay SYMBOL "?relay", MRFI_RandomByte
??MRFI_ReplyDelay?relay SYMBOL "?relay", MRFI_ReplyDelay
??MRFI_RxIdle?relay SYMBOL "?relay", MRFI_RxIdle
??MRFI_RxOn?relay   SYMBOL "?relay", MRFI_RxOn
??MRFI_Sleep?relay  SYMBOL "?relay", MRFI_Sleep
??MRFI_WakeUp?relay SYMBOL "?relay", MRFI_WakeUp
??SMPL_Ioctl?relay  SYMBOL "?relay", SMPL_Ioctl
??memcpy?relay      SYMBOL "?relay", memcpy
??nwk_buildFrame?relay SYMBOL "?relay", nwk_buildFrame
??nwk_getConnInfo?relay SYMBOL "?relay", nwk_getConnInfo
??nwk_isValidReply?relay SYMBOL "?relay", nwk_isValidReply
??nwk_sendFrame?relay SYMBOL "?relay", nwk_sendFrame
nwk_ping            SYMBOL "nwk_ping"
??nwk_ping?relay    SYMBOL "?relay", nwk_ping
nwk_pingInit        SYMBOL "nwk_pingInit"
??nwk_pingInit?relay SYMBOL "?relay", nwk_pingInit
nwk_processPing     SYMBOL "nwk_processPing"
??nwk_processPing?relay SYMBOL "?relay", nwk_processPing

        EXTERN MRFI_RandomByte
        FUNCTION MRFI_RandomByte,0202H
        ARGFRAME ISTACK, 2, STACK
        ARGFRAME PSTACK, 0, STACK
        ARGFRAME XSTACK, 0, STACK
        ARGFRAME IOVERLAY, 0, STATIC
        ARGFRAME DOVERLAY, 0, STATIC
        EXTERN nwk_getConnInfo
        FUNCTION nwk_getConnInfo,0202H
        ARGFRAME ISTACK, 0, STACK
        ARGFRAME PSTACK, 0, STACK
        ARGFRAME XSTACK, 21, STACK
        ARGFRAME IOVERLAY, 0, STATIC
        ARGFRAME DOVERLAY, 0, STATIC
        EXTERN MRFI_GetRadioState
        FUNCTION MRFI_GetRadioState,0202H
        ARGFRAME ISTACK, 0, STACK
        ARGFRAME PSTACK, 0, STACK
        ARGFRAME XSTACK, 21, STACK
        ARGFRAME IOVERLAY, 0, STATIC
        ARGFRAME DOVERLAY, 0, STATIC
        EXTERN SMPL_Ioctl
        FUNCTION SMPL_Ioctl,0202H
        ARGFRAME ISTACK, 0, STACK
        ARGFRAME PSTACK, 0, STACK
        ARGFRAME XSTACK, 21, STACK
        ARGFRAME IOVERLAY, 0, STATIC
        ARGFRAME DOVERLAY, 0, STATIC
        EXTERN MRFI_WakeUp
        FUNCTION MRFI_WakeUp,0202H
        ARGFRAME ISTACK, 0, STACK
        ARGFRAME PSTACK, 0, STACK
        ARGFRAME XSTACK, 21, STACK
        ARGFRAME IOVERLAY, 0, STATIC
        ARGFRAME DOVERLAY, 0, STATIC
        EXTERN MRFI_RxOn
        FUNCTION MRFI_RxOn,0202H
        ARGFRAME ISTACK, 0, STACK
        ARGFRAME PSTACK, 0, STACK
        ARGFRAME XSTACK, 21, STACK
        ARGFRAME IOVERLAY, 0, STATIC
        ARGFRAME DOVERLAY, 0, STATIC
        EXTERN MRFI_ReplyDelay
        FUNCTION MRFI_ReplyDelay,0202H
        ARGFRAME ISTACK, 0, STACK
        ARGFRAME PSTACK, 0, STACK
        ARGFRAME XSTACK, 21, STACK
        ARGFRAME IOVERLAY, 0, STATIC
        ARGFRAME DOVERLAY, 0, STATIC
        EXTERN MRFI_Sleep
        FUNCTION MRFI_Sleep,0202H
        ARGFRAME ISTACK, 0, STACK
        ARGFRAME PSTACK, 0, STACK
        ARGFRAME XSTACK, 21, STACK
        ARGFRAME IOVERLAY, 0, STATIC
        ARGFRAME DOVERLAY, 0, STATIC
        EXTERN MRFI_RxIdle
        FUNCTION MRFI_RxIdle,0202H
        ARGFRAME ISTACK, 0, STACK
        ARGFRAME PSTACK, 0, STACK
        ARGFRAME XSTACK, 21, STACK
        ARGFRAME IOVERLAY, 0, STATIC
        ARGFRAME DOVERLAY, 0, STATIC
        EXTERN nwk_isValidReply
        FUNCTION nwk_isValidReply,0202H
        ARGFRAME ISTACK, 0, STACK
        ARGFRAME PSTACK, 0, STACK
        ARGFRAME XSTACK, 12, STACK
        ARGFRAME IOVERLAY, 0, STATIC
        ARGFRAME DOVERLAY, 0, STATIC
        EXTERN MRFI_PostKillSem
        FUNCTION MRFI_PostKillSem,0202H
        ARGFRAME ISTACK, 0, STACK
        ARGFRAME PSTACK, 0, STACK
        ARGFRAME XSTACK, 12, STACK
        ARGFRAME IOVERLAY, 0, STATIC
        ARGFRAME DOVERLAY, 0, STATIC
        EXTERN nwk_buildFrame
        FUNCTION nwk_buildFrame,0202H
        ARGFRAME ISTACK, 0, STACK
        ARGFRAME PSTACK, 0, STACK
        ARGFRAME XSTACK, 12, STACK
        ARGFRAME IOVERLAY, 0, STATIC
        ARGFRAME DOVERLAY, 0, STATIC
        EXTERN memcpy
        FUNCTION memcpy,010202H
        ARGFRAME ISTACK, 0, STACK
        ARGFRAME PSTACK, 0, STACK
        ARGFRAME XSTACK, 14, STACK
        ARGFRAME IOVERLAY, 0, STATIC
        ARGFRAME DOVERLAY, 0, STATIC
        EXTERN nwk_sendFrame
        FUNCTION nwk_sendFrame,0202H
        ARGFRAME ISTACK, 0, STACK
        ARGFRAME PSTACK, 0, STACK
        ARGFRAME XSTACK, 12, STACK
        ARGFRAME IOVERLAY, 0, STATIC
        ARGFRAME DOVERLAY, 0, STATIC
        EXTERN ??MRFI_GetRadioState?relay
        FUNCTION ??MRFI_GetRadioState?relay,00H
        EXTERN ??MRFI_PostKillSem?relay
        FUNCTION ??MRFI_PostKillSem?relay,00H
        EXTERN ??MRFI_RandomByte?relay
        FUNCTION ??MRFI_RandomByte?relay,00H
        EXTERN ??MRFI_ReplyDelay?relay
        FUNCTION ??MRFI_ReplyDelay?relay,00H
        EXTERN ??MRFI_RxIdle?relay
        FUNCTION ??MRFI_RxIdle?relay,00H
        EXTERN ??MRFI_RxOn?relay
        FUNCTION ??MRFI_RxOn?relay,00H
        EXTERN ??MRFI_Sleep?relay
        FUNCTION ??MRFI_Sleep?relay,00H
        EXTERN ??MRFI_WakeUp?relay
        FUNCTION ??MRFI_WakeUp?relay,00H
        EXTERN ??SMPL_Ioctl?relay
        FUNCTION ??SMPL_Ioctl?relay,00H
        EXTERN ??memcpy?relay
        FUNCTION ??memcpy?relay,00H
        EXTERN ??nwk_buildFrame?relay
        FUNCTION ??nwk_buildFrame?relay,00H
        EXTERN ??nwk_getConnInfo?relay
        FUNCTION ??nwk_getConnInfo?relay,00H
        EXTERN ??nwk_isValidReply?relay
        FUNCTION ??nwk_isValidReply?relay,00H
        EXTERN ??nwk_sendFrame?relay
        FUNCTION ??nwk_sendFrame?relay,00H

// C:\Users\freeman\Documents\work\NBK\Nikon\NikonStm32\Nikon_Rf\SimpliciTI-IAR-1.2.0\Components\simpliciti\nwk_applications\nwk_ping.c
//    1 /**************************************************************************************************
//    2   Filename:       nwk_ping.c
//    3   Revised:        $Date: 2009-01-18 16:01:08 -0800 (Sun, 18 Jan 2009) $
//    4   Revision:       $Revision: 18796 $
//    5   Author:         $Author: lfriedman $
//    6 
//    7   Description:    This file supports the SimpliciTI Ping network application.
//    8 
//    9   Copyright 2007-2009 Texas Instruments Incorporated. All rights reserved.
//   10 
//   11   IMPORTANT: Your use of this Software is limited to those specific rights granted under
//   12   the terms of a software license agreement between the user who downloaded the software,
//   13   his/her employer (which must be your employer) and Texas Instruments Incorporated (the
//   14   "License"). You may not use this Software unless you agree to abide by the terms of the
//   15   License. The License limits your use, and you acknowledge, that the Software may not be
//   16   modified, copied or distributed unless embedded on a Texas Instruments microcontroller
//   17   or used solely and exclusively in conjunction with a Texas Instruments radio frequency
//   18   transceiver, which is integrated into your product. Other than for the foregoing purpose,
//   19   you may not use, reproduce, copy, prepare derivative works of, modify, distribute,
//   20   perform, display or sell this Software and/or its documentation for any purpose.
//   21 
//   22   YOU FURTHER ACKNOWLEDGE AND AGREE THAT THE SOFTWARE AND DOCUMENTATION ARE PROVIDED “AS IS”
//   23   WITHOUT WARRANTY OF ANY KIND, EITHER EXPRESS OR IMPLIED, INCLUDING WITHOUT LIMITATION, ANY
//   24   WARRANTY OF MERCHANTABILITY, TITLE, NON-INFRINGEMENT AND FITNESS FOR A PARTICULAR PURPOSE.
//   25   IN NO EVENT SHALL TEXAS INSTRUMENTS OR ITS LICENSORS BE LIABLE OR OBLIGATED UNDER CONTRACT,
//   26   NEGLIGENCE, STRICT LIABILITY, CONTRIBUTION, BREACH OF WARRANTY, OR OTHER LEGAL EQUITABLE
//   27   THEORY ANY DIRECT OR INDIRECT DAMAGES OR EXPENSES INCLUDING BUT NOT LIMITED TO ANY
//   28   INCIDENTAL, SPECIAL, INDIRECT, PUNITIVE OR CONSEQUENTIAL DAMAGES, LOST PROFITS OR LOST
//   29   DATA, COST OF PROCUREMENT OF SUBSTITUTE GOODS, TECHNOLOGY, SERVICES, OR ANY CLAIMS BY
//   30   THIRD PARTIES (INCLUDING BUT NOT LIMITED TO ANY DEFENSE THEREOF), OR OTHER SIMILAR COSTS.
//   31 
//   32   Should you have any questions regarding your right to use this Software,
//   33   contact Texas Instruments Incorporated at www.TI.com.
//   34 **************************************************************************************************/
//   35 
//   36 
//   37 /******************************************************************************
//   38  * INCLUDES
//   39  */
//   40 #include <string.h>
//   41 #include "bsp.h"
//   42 #include "mrfi.h"
//   43 #include "nwk_types.h"
//   44 #include "nwk_frame.h"
//   45 #include "nwk.h"
//   46 #include "nwk_ping.h"
//   47 #include "nwk_globals.h"
//   48 #include "nwk_api.h"
//   49 #include "nwk_freq.h"
//   50 #include "nwk_security.h"
//   51 
//   52 /******************************************************************************
//   53  * MACROS
//   54  */
//   55 
//   56 /******************************************************************************
//   57  * CONSTANTS AND DEFINES
//   58  */
//   59 
//   60 /******************************************************************************
//   61  * TYPEDEFS
//   62  */
//   63 
//   64 /******************************************************************************
//   65  * LOCAL VARIABLES
//   66  */
//   67 

        RSEG XDATA_Z:XDATA:NOROOT(0)
        DATA8
//   68 static volatile uint8_t sTid = 0;
sTid:
        DS 1
        REQUIRE __INIT_XDATA_Z
//   69 
//   70 /******************************************************************************
//   71  * LOCAL FUNCTIONS
//   72  */
//   73 static void smpl_send_ping_reply(mrfiPacket_t *);
//   74 static void handlePingRequest(mrfiPacket_t *);
//   75 
//   76 /******************************************************************************
//   77  * GLOBAL VARIABLES
//   78  */
//   79 
//   80 /******************************************************************************
//   81  * GLOBAL FUNCTIONS
//   82  */
//   83 
//   84 /******************************************************************************
//   85  * @fn          nwk_pingInit
//   86  *
//   87  * @brief       Initialize Ping application.
//   88  *
//   89  * input parameters
//   90  *
//   91  * output parameters
//   92  *
//   93  * @return   void
//   94  */

        RSEG BANKED_CODE:CODE:NOROOT(0)
//   95 void nwk_pingInit(void)
nwk_pingInit:
        CFI Block cfiBlock0 Using cfiCommon0
        CFI Function nwk_pingInit
        CODE
//   96 {
        FUNCALL nwk_pingInit, MRFI_RandomByte
        LOCFRAME ISTACK, 2, STACK
        LOCFRAME PSTACK, 0, STACK
        LOCFRAME XSTACK, 0, STACK
        LOCFRAME IOVERLAY, 0, STATIC
        LOCFRAME DOVERLAY, 0, STATIC
        ARGFRAME ISTACK, 2, STACK
        ARGFRAME PSTACK, 0, STACK
        ARGFRAME XSTACK, 0, STACK
        ARGFRAME IOVERLAY, 0, STATIC
        ARGFRAME DOVERLAY, 0, STATIC
        PUSH    DPL
        CFI DPL0 Frame(CFA_SP, 4)
        CFI CFA_SP SP+-4
        PUSH    DPH
        CFI DPH0 Frame(CFA_SP, 5)
        CFI CFA_SP SP+-5
        ; Saved register size: 2
        ; Auto size: 0
//   97   sTid = MRFI_RandomByte();
        ; Setup parameters for call to function MRFI_RandomByte
        LCALL   ??MRFI_RandomByte?relay
        MOV     A,R1
        MOV     DPTR,#sTid
        MOVX    @DPTR,A
//   98 
//   99   return;
        POP     DPH
        CFI DPH0 SameValue
        CFI CFA_SP SP+-4
        POP     DPL
        CFI DPL0 SameValue
        CFI CFA_SP SP+-3
        LJMP    ?BRET
        CFI EndBlock cfiBlock0
//  100 }
//  101 
//  102 /******************************************************************************
//  103  * @fn          nwk_ping
//  104  *
//  105  * @brief       Called from the application level to ping a peer. A small
//  106  *              payload is sent that includes a tid to detect correct reply.
//  107  *              Caller does not supply payload.
//  108  *
//  109  * input parameters
//  110  * @param   lid     - Link ID representing peer to ping
//  111  *
//  112  * output parameters
//  113  *
//  114  * @return   SMPL_SUCCESS   valid reply received
//  115  *           SMPL_TIMEOUT   no valid reply received
//  116  *           SMPL_NO_CHANNEL  no channels returned on a scan
//  117  */

        RSEG BANKED_CODE:CODE:NOROOT(0)
//  118 smplStatus_t nwk_ping(linkID_t lid)
nwk_ping:
        CFI Block cfiBlock1 Using cfiCommon0
        CFI Function nwk_ping
        CODE
//  119 {
        FUNCALL nwk_ping, nwk_getConnInfo
        LOCFRAME ISTACK, 0, STACK
        LOCFRAME PSTACK, 0, STACK
        LOCFRAME XSTACK, 21, STACK
        LOCFRAME IOVERLAY, 0, STATIC
        LOCFRAME DOVERLAY, 0, STATIC
        ARGFRAME ISTACK, 0, STACK
        ARGFRAME PSTACK, 0, STACK
        ARGFRAME XSTACK, 21, STACK
        ARGFRAME IOVERLAY, 0, STATIC
        ARGFRAME DOVERLAY, 0, STATIC
        FUNCALL nwk_ping, MRFI_GetRadioState
        LOCFRAME ISTACK, 0, STACK
        LOCFRAME PSTACK, 0, STACK
        LOCFRAME XSTACK, 21, STACK
        LOCFRAME IOVERLAY, 0, STATIC
        LOCFRAME DOVERLAY, 0, STATIC
        ARGFRAME ISTACK, 0, STACK
        ARGFRAME PSTACK, 0, STACK
        ARGFRAME XSTACK, 21, STACK
        ARGFRAME IOVERLAY, 0, STATIC
        ARGFRAME DOVERLAY, 0, STATIC
        FUNCALL nwk_ping, SMPL_Ioctl
        LOCFRAME ISTACK, 0, STACK
        LOCFRAME PSTACK, 0, STACK
        LOCFRAME XSTACK, 21, STACK
        LOCFRAME IOVERLAY, 0, STATIC
        LOCFRAME DOVERLAY, 0, STATIC
        ARGFRAME ISTACK, 0, STACK
        ARGFRAME PSTACK, 0, STACK
        ARGFRAME XSTACK, 21, STACK
        ARGFRAME IOVERLAY, 0, STATIC
        ARGFRAME DOVERLAY, 0, STATIC
        FUNCALL nwk_ping, MRFI_WakeUp
        LOCFRAME ISTACK, 0, STACK
        LOCFRAME PSTACK, 0, STACK
        LOCFRAME XSTACK, 21, STACK
        LOCFRAME IOVERLAY, 0, STATIC
        LOCFRAME DOVERLAY, 0, STATIC
        ARGFRAME ISTACK, 0, STACK
        ARGFRAME PSTACK, 0, STACK
        ARGFRAME XSTACK, 21, STACK
        ARGFRAME IOVERLAY, 0, STATIC
        ARGFRAME DOVERLAY, 0, STATIC
        FUNCALL nwk_ping, MRFI_RxOn
        LOCFRAME ISTACK, 0, STACK
        LOCFRAME PSTACK, 0, STACK
        LOCFRAME XSTACK, 21, STACK
        LOCFRAME IOVERLAY, 0, STATIC
        LOCFRAME DOVERLAY, 0, STATIC
        ARGFRAME ISTACK, 0, STACK
        ARGFRAME PSTACK, 0, STACK
        ARGFRAME XSTACK, 21, STACK
        ARGFRAME IOVERLAY, 0, STATIC
        ARGFRAME DOVERLAY, 0, STATIC
        FUNCALL nwk_ping, MRFI_ReplyDelay
        LOCFRAME ISTACK, 0, STACK
        LOCFRAME PSTACK, 0, STACK
        LOCFRAME XSTACK, 21, STACK
        LOCFRAME IOVERLAY, 0, STATIC
        LOCFRAME DOVERLAY, 0, STATIC
        ARGFRAME ISTACK, 0, STACK
        ARGFRAME PSTACK, 0, STACK
        ARGFRAME XSTACK, 21, STACK
        ARGFRAME IOVERLAY, 0, STATIC
        ARGFRAME DOVERLAY, 0, STATIC
        FUNCALL nwk_ping, MRFI_Sleep
        LOCFRAME ISTACK, 0, STACK
        LOCFRAME PSTACK, 0, STACK
        LOCFRAME XSTACK, 21, STACK
        LOCFRAME IOVERLAY, 0, STATIC
        LOCFRAME DOVERLAY, 0, STATIC
        ARGFRAME ISTACK, 0, STACK
        ARGFRAME PSTACK, 0, STACK
        ARGFRAME XSTACK, 21, STACK
        ARGFRAME IOVERLAY, 0, STATIC
        ARGFRAME DOVERLAY, 0, STATIC
        FUNCALL nwk_ping, MRFI_RxIdle
        LOCFRAME ISTACK, 0, STACK
        LOCFRAME PSTACK, 0, STACK
        LOCFRAME XSTACK, 21, STACK
        LOCFRAME IOVERLAY, 0, STATIC
        LOCFRAME DOVERLAY, 0, STATIC
        ARGFRAME ISTACK, 0, STACK
        ARGFRAME PSTACK, 0, STACK
        ARGFRAME XSTACK, 21, STACK
        ARGFRAME IOVERLAY, 0, STATIC
        ARGFRAME DOVERLAY, 0, STATIC
        FUNCALL nwk_ping, SMPL_Ioctl
        LOCFRAME ISTACK, 0, STACK
        LOCFRAME PSTACK, 0, STACK
        LOCFRAME XSTACK, 21, STACK
        LOCFRAME IOVERLAY, 0, STATIC
        LOCFRAME DOVERLAY, 0, STATIC
        ARGFRAME ISTACK, 0, STACK
        ARGFRAME PSTACK, 0, STACK
        ARGFRAME XSTACK, 21, STACK
        ARGFRAME IOVERLAY, 0, STATIC
        ARGFRAME DOVERLAY, 0, STATIC
        MOV     A,#-0xc
        LCALL   ?BANKED_ENTER_XDATA
        CFI DPH0 load(1, XDATA, add(CFA_XSP16, literal(-1)))
        CFI DPL0 load(1, XDATA, add(CFA_XSP16, literal(-2)))
        CFI ?BRET_EXT load(1, XDATA, add(CFA_XSP16, literal(-3)))
        CFI ?RET_HIGH load(1, XDATA, add(CFA_XSP16, literal(-4)))
        CFI ?RET_LOW load(1, XDATA, add(CFA_XSP16, literal(-5)))
        CFI R7 load(1, XDATA, add(CFA_XSP16, literal(-6)))
        CFI V3 load(1, XDATA, add(CFA_XSP16, literal(-7)))
        CFI V2 load(1, XDATA, add(CFA_XSP16, literal(-8)))
        CFI V1 load(1, XDATA, add(CFA_XSP16, literal(-9)))
        CFI V0 load(1, XDATA, add(CFA_XSP16, literal(-10)))
        CFI VB load(1, XDATA, add(CFA_XSP16, literal(-11)))
        CFI R6 load(1, XDATA, add(CFA_XSP16, literal(-12)))
        CFI CFA_SP SP+0
        CFI CFA_XSP16 add(XSP16, 12)
        ; Saved register size: 12
        ; Auto size: 9
        MOV     A,#-0x9
        LCALL   ?ALLOC_XSTACK8
        CFI CFA_XSP16 add(XSP16, 21)
        MOV     ?V0 + 0,R1
//  120   connInfo_t  *pCInfo   = nwk_getConnInfo(lid);
        ; Setup parameters for call to function nwk_getConnInfo
        LCALL   ??nwk_getConnInfo?relay
        MOV     ?V0 + 2,R2
        MOV     ?V0 + 3,R3
        MOV     R6,?V0 + 2
        MOV     R7,?V0 + 3
//  121   smplStatus_t rc       = SMPL_BAD_PARAM;
//  122   uint8_t      done     = 0;
        MOV     ?V0 + 1,#0x0
//  123   uint8_t      repeatIt = 2;
//  124   uint8_t      msg[MAX_PING_APP_FRAME];
//  125   uint8_t      radioState = MRFI_GetRadioState();
        ; Setup parameters for call to function MRFI_GetRadioState
        LCALL   ??MRFI_GetRadioState?relay
        MOV     A,R1
        MOV     ?V0 + 2,A
//  126   union
//  127   {
//  128     ioctlRawSend_t    send;
//  129     ioctlRawReceive_t recv;
//  130   } ioctl_info;
//  131 
//  132   if (!pCInfo || (SMPL_LINKID_USER_UUD == lid))
        MOV     A,R6
        ORL     A,R7
        JZ      ??nwk_ping_0
        MOV     A,#-0x1
        XRL     A,?V0 + 0
        JNZ     ??nwk_ping_1
//  133   {
//  134     /* either link ID bogus or tried to ping the unconnected user datagram link ID. */
//  135     return rc;
??nwk_ping_0:
        MOV     R1,#0x2
        LJMP    ??nwk_ping_2 & 0xFFFF
//  136   }
//  137 
//  138   do
//  139   {
//  140 #if defined(FREQUENCY_AGILITY) && !defined(ACCESS_POINT)
//  141     uint8_t     i, numChan;
//  142     freqEntry_t channels[NWK_FREQ_TBL_SIZE];
//  143 
//  144     if (repeatIt == 2)
//  145     {
//  146       /* If FA enabled, first time through set up so that the 'for'
//  147        * loop checks the current channel. This saves time (no scan)
//  148        * and is very likely to succeed. Populate the proper strucure.
//  149        */
//  150       SMPL_Ioctl(IOCTL_OBJ_FREQ, IOCTL_ACT_GET, channels);
//  151       numChan = 1;
//  152     }
//  153     else
//  154     {
//  155       /* If we get here we must scan for the channel we're now on */
//  156       if (!(numChan=nwk_scanForChannels(channels)))
//  157       {
//  158         return SMPL_NO_CHANNEL;
//  159       }
//  160     }
//  161     /* Either we scan next time through or we're done */
//  162     repeatIt--;
//  163 
//  164     /* this loop Pings on each channel (probably only 1) looking
//  165      * for peer.
//  166      */
//  167     for (i=0; i<numChan && !done; ++i)
//  168     {
//  169       nwk_setChannel(&channels[i]);
//  170 #else
//  171     {
//  172       repeatIt = 0;
//  173 #endif  /* defined(FREQUENCY_AGILITY) && !defined(ACCESS_POINT) */
//  174 
//  175       ioctl_info.send.addr = (addr_t *)pCInfo->peerAddr;
??nwk_ping_1:
        MOV     A,R6
        ADD     A,#0x2
        MOV     R0,A
        MOV     A,R7
        ADDC    A,#0x0
        MOV     R1,A
        MOV     A,#0x2
        LCALL   ?XSTACK_DISP0_8
        MOV     A,R0
        MOVX    @DPTR,A
        INC     DPTR
        MOV     A,R1
        LCALL   ?Subroutine1 & 0xFFFF
//  176       ioctl_info.send.msg  = msg;
??CrossCallReturnLabel_0:
        LCALL   ?XSTACK_DISP0_8
        MOV     A,R0
        MOVX    @DPTR,A
        INC     DPTR
        MOV     A,R1
        MOVX    @DPTR,A
//  177       ioctl_info.send.len  = sizeof(msg);
        MOV     A,#0x6
        LCALL   ?XSTACK_DISP0_8
        MOV     A,#0x2
        MOVX    @DPTR,A
//  178       ioctl_info.send.port = SMPL_PORT_PING;
        MOV     A,#0x7
        LCALL   ?XSTACK_DISP0_8
        MOV     A,#0x1
        MOVX    @DPTR,A
//  179 
//  180       /* fill in msg */
//  181       msg[PB_REQ_OS] = PING_REQ_PING;
        MOV     DPL,?XSP + 0
        MOV     DPH,?XSP + 1
        MOVX    @DPTR,A
//  182       msg[PB_TID_OS] = sTid;
        MOV     DPTR,#sTid
        MOVX    A,@DPTR
        PUSH    A
        CFI CFA_SP SP+-1
        MOV     A,#0x1
        LCALL   ?XSTACK_DISP0_8
        POP     A
        CFI CFA_SP SP+0
        MOVX    @DPTR,A
//  183 
//  184       SMPL_Ioctl(IOCTL_OBJ_RAW_IO, IOCTL_ACT_WRITE, &ioctl_info.send);
        ; Setup parameters for call to function SMPL_Ioctl
        MOV     A,#0x2
        LCALL   ?XSTACK_DISP0_8
        MOV     R4,DPL
        MOV     R5,DPH
        MOV     R2,#0x3
        MOV     R1,#0x2
        LCALL   ??SMPL_Ioctl?relay
//  185 
//  186       ioctl_info.recv.port = SMPL_PORT_PING;
        MOV     A,#0x7
        LCALL   ?XSTACK_DISP0_8
        MOV     A,#0x1
        LCALL   ?Subroutine1 & 0xFFFF
//  187       ioctl_info.recv.msg  = msg;
??CrossCallReturnLabel_1:
        LCALL   ?XSTACK_DISP0_8
        MOV     A,R0
        MOVX    @DPTR,A
        INC     DPTR
        MOV     A,R1
        MOVX    @DPTR,A
//  188       ioctl_info.recv.addr = 0;
        MOV     A,#0x2
        LCALL   ?XSTACK_DISP0_8
        CLR     A
        MOVX    @DPTR,A
        INC     DPTR
        MOVX    @DPTR,A
//  189 
//  190       NWK_CHECK_FOR_SETRX(radioState);
        MOV     A,#0x3
        XRL     A,?V0 + 2
        JZ      ??nwk_ping_3
        MOV     A,#0x1
        XRL     A,?V0 + 2
        JNZ     ??nwk_ping_4
        ; Setup parameters for call to function MRFI_WakeUp
        LCALL   ??MRFI_WakeUp?relay
??nwk_ping_4:
        ; Setup parameters for call to function MRFI_RxOn
        LCALL   ??MRFI_RxOn?relay
//  191       NWK_REPLY_DELAY();
??nwk_ping_3:
        ; Setup parameters for call to function MRFI_ReplyDelay
        LCALL   ??MRFI_ReplyDelay?relay
//  192       NWK_CHECK_FOR_RESTORE_STATE(radioState);
        MOV     A,#0x3
        XRL     A,?V0 + 2
        JZ      ??nwk_ping_5
        MOV     A,#0x1
        XRL     A,?V0 + 2
        JNZ     ??nwk_ping_6
        ; Setup parameters for call to function MRFI_Sleep
        LCALL   ??MRFI_Sleep?relay
        SJMP    ??nwk_ping_5
??nwk_ping_6:
        ; Setup parameters for call to function MRFI_RxIdle
        LCALL   ??MRFI_RxIdle?relay
//  193 
//  194       if (SMPL_SUCCESS == SMPL_Ioctl(IOCTL_OBJ_RAW_IO, IOCTL_ACT_READ, &ioctl_info.recv))
??nwk_ping_5:
        ; Setup parameters for call to function SMPL_Ioctl
        MOV     A,#0x2
        LCALL   ?XSTACK_DISP0_8
        MOV     R4,DPL
        MOV     R5,DPH
        MOV     R2,#0x2
        MOV     R1,#0x2
        LCALL   ??SMPL_Ioctl?relay
        MOV     A,R1
        JNZ     ??nwk_ping_7
//  195       {
//  196         repeatIt = 0;
//  197         done     = 1;
        MOV     ?V0 + 1,#0x1
//  198         sTid++;   /* guard against duplicates */
        MOV     DPTR,#sTid
        MOVX    A,@DPTR
        INC     A
        MOVX    @DPTR,A
//  199       }
//  200     }
//  201   } while (repeatIt);
//  202 
//  203   return done ? SMPL_SUCCESS : SMPL_TIMEOUT;
??nwk_ping_7:
        MOV     A,?V0 + 1
        MOV     C,0xE0 /* A   */.0
        CPL     C
        CLR     A
        RLC     A
        MOV     R1,A
??nwk_ping_2:
        MOV     A,#0x9
        LCALL   ?DEALLOC_XSTACK8
        CFI EndBlock cfiBlock1
        REQUIRE ?Subroutine0
        ; // Fall through to label ?Subroutine0
//  204 
//  205 }

        RSEG BANKED_CODE:CODE:NOROOT(0)
?Subroutine0:
        CFI Block cfiBlock2 Using cfiCommon0
        CFI NoFunction
        CFI CFA_SP SP+0
        CFI CFA_XSP16 add(XSP16, 12)
        CFI VB load(1, XDATA, add(CFA_XSP16, literal(-11)))
        CFI DPL0 load(1, XDATA, add(CFA_XSP16, literal(-2)))
        CFI DPH0 load(1, XDATA, add(CFA_XSP16, literal(-1)))
        CFI R6 load(1, XDATA, add(CFA_XSP16, literal(-12)))
        CFI R7 load(1, XDATA, add(CFA_XSP16, literal(-6)))
        CFI V0 load(1, XDATA, add(CFA_XSP16, literal(-10)))
        CFI V1 load(1, XDATA, add(CFA_XSP16, literal(-9)))
        CFI V2 load(1, XDATA, add(CFA_XSP16, literal(-8)))
        CFI V3 load(1, XDATA, add(CFA_XSP16, literal(-7)))
        CFI ?BRET_EXT load(1, XDATA, add(CFA_XSP16, literal(-3)))
        CFI ?RET_HIGH load(1, XDATA, add(CFA_XSP16, literal(-4)))
        CFI ?RET_LOW load(1, XDATA, add(CFA_XSP16, literal(-5)))
        MOV     R7,#0x4
        LJMP    ?BANKED_LEAVE_XDATA
        CFI EndBlock cfiBlock2

        RSEG BANKED_CODE:CODE:NOROOT(0)
?Subroutine1:
        CFI Block cfiCond3 Using cfiCommon0
        CFI NoFunction
        CFI Conditional ??CrossCallReturnLabel_0
        CFI R6 load(1, XDATA, add(CFA_XSP16, literal(-12)))
        CFI VB load(1, XDATA, add(CFA_XSP16, literal(-11)))
        CFI V0 load(1, XDATA, add(CFA_XSP16, literal(-10)))
        CFI V1 load(1, XDATA, add(CFA_XSP16, literal(-9)))
        CFI V2 load(1, XDATA, add(CFA_XSP16, literal(-8)))
        CFI V3 load(1, XDATA, add(CFA_XSP16, literal(-7)))
        CFI R7 load(1, XDATA, add(CFA_XSP16, literal(-6)))
        CFI ?RET_LOW load(1, XDATA, add(CFA_XSP16, literal(-5)))
        CFI ?RET_HIGH load(1, XDATA, add(CFA_XSP16, literal(-4)))
        CFI ?BRET_EXT load(1, XDATA, add(CFA_XSP16, literal(-3)))
        CFI DPL0 load(1, XDATA, add(CFA_XSP16, literal(-2)))
        CFI DPH0 load(1, XDATA, add(CFA_XSP16, literal(-1)))
        CFI CFA_SP SP+0
        CFI CFA_XSP16 add(XSP16, 21)
        CFI Block cfiCond4 Using cfiCommon0
        CFI (cfiCond4) NoFunction
        CFI (cfiCond4) Conditional ??CrossCallReturnLabel_1
        CFI (cfiCond4) R6 load(1, XDATA, add(CFA_XSP16, literal(-12)))
        CFI (cfiCond4) VB load(1, XDATA, add(CFA_XSP16, literal(-11)))
        CFI (cfiCond4) V0 load(1, XDATA, add(CFA_XSP16, literal(-10)))
        CFI (cfiCond4) V1 load(1, XDATA, add(CFA_XSP16, literal(-9)))
        CFI (cfiCond4) V2 load(1, XDATA, add(CFA_XSP16, literal(-8)))
        CFI (cfiCond4) V3 load(1, XDATA, add(CFA_XSP16, literal(-7)))
        CFI (cfiCond4) R7 load(1, XDATA, add(CFA_XSP16, literal(-6)))
        CFI (cfiCond4) ?RET_LOW load(1, XDATA, add(CFA_XSP16, literal(-5)))
        CFI (cfiCond4) ?RET_HIGH load(1, XDATA, add(CFA_XSP16, literal(-4)))
        CFI (cfiCond4) ?BRET_EXT load(1, XDATA, add(CFA_XSP16, literal(-3)))
        CFI (cfiCond4) DPL0 load(1, XDATA, add(CFA_XSP16, literal(-2)))
        CFI (cfiCond4) DPH0 load(1, XDATA, add(CFA_XSP16, literal(-1)))
        CFI (cfiCond4) CFA_SP SP+0
        CFI (cfiCond4) CFA_XSP16 add(XSP16, 21)
        CFI Block cfiPicker5 Using cfiCommon1
        CFI (cfiPicker5) NoFunction
        CFI (cfiPicker5) Picker
        MOVX    @DPTR,A
        MOV     DPL,?XSP + 0
        MOV     DPH,?XSP + 1
        MOV     R0,DPL
        MOV     R1,DPH
        MOV     A,#0x4
        RET
        CFI EndBlock cfiCond3
        CFI EndBlock cfiCond4
        CFI EndBlock cfiPicker5
//  206 
//  207 /******************************************************************************
//  208  * @fn          smpl_send_ping_reply
//  209  *
//  210  * @brief       Send a reply to a ping request.
//  211  *
//  212  * input parameters
//  213  * @param   frame     - pointer to frame containing request
//  214  *
//  215  * output parameters
//  216  *
//  217  * @return   void
//  218  */
//  219 static void smpl_send_ping_reply(mrfiPacket_t *frame)
//  220 {
//  221   frameInfo_t *pOutFrame;
//  222 
//  223   /* Build the reply frame. The application payload is the one included in the
//  224    * received frame payload.
//  225    */
//  226   if (pOutFrame = nwk_buildFrame(SMPL_PORT_PING, MRFI_P_PAYLOAD(frame)+F_APP_PAYLOAD_OS, MRFI_GET_PAYLOAD_LEN(frame)-F_APP_PAYLOAD_OS, MAX_HOPS))
//  227   {
//  228     /* destination address is the source adddress of the received frame. */
//  229     memcpy(MRFI_P_DST_ADDR(&pOutFrame->mrfiPkt), MRFI_P_SRC_ADDR(frame), NET_ADDR_SIZE);
//  230 
//  231     /* turn on the reply bit in the application payload */
//  232     *(MRFI_P_PAYLOAD(&pOutFrame->mrfiPkt)+F_APP_PAYLOAD_OS+PB_REQ_OS) |= NWK_APP_REPLY_BIT;
//  233 #ifdef SMPL_SECURE
//  234     nwk_setSecureFrame(&pOutFrame->mrfiPkt, MRFI_GET_PAYLOAD_LEN(frame)-F_APP_PAYLOAD_OS, 0);
//  235 #endif  /* SMPL_SECURE */
//  236     nwk_sendFrame(pOutFrame, MRFI_TX_TYPE_FORCED);
//  237   }
//  238 }
//  239 
//  240 /******************************************************************************
//  241  * @fn          nwk_processPing
//  242  *
//  243  * @brief       Ping network application frame handler.
//  244  *
//  245  * input parameters
//  246  * @param   frame   - pointer to frame in question
//  247  *
//  248  * output parameters
//  249  *
//  250  * @return    Keep frame for application, release frame, or replay frame.
//  251  */

        RSEG BANKED_CODE:CODE:NOROOT(0)
//  252 fhStatus_t nwk_processPing(mrfiPacket_t *frame)
nwk_processPing:
        CFI Block cfiBlock6 Using cfiCommon0
        CFI Function nwk_processPing
        CODE
//  253 {
        FUNCALL nwk_processPing, nwk_isValidReply
        LOCFRAME ISTACK, 0, STACK
        LOCFRAME PSTACK, 0, STACK
        LOCFRAME XSTACK, 12, STACK
        LOCFRAME IOVERLAY, 0, STATIC
        LOCFRAME DOVERLAY, 0, STATIC
        ARGFRAME ISTACK, 0, STACK
        ARGFRAME PSTACK, 0, STACK
        ARGFRAME XSTACK, 12, STACK
        ARGFRAME IOVERLAY, 0, STATIC
        ARGFRAME DOVERLAY, 0, STATIC
        FUNCALL nwk_processPing, MRFI_PostKillSem
        LOCFRAME ISTACK, 0, STACK
        LOCFRAME PSTACK, 0, STACK
        LOCFRAME XSTACK, 12, STACK
        LOCFRAME IOVERLAY, 0, STATIC
        LOCFRAME DOVERLAY, 0, STATIC
        ARGFRAME ISTACK, 0, STACK
        ARGFRAME PSTACK, 0, STACK
        ARGFRAME XSTACK, 12, STACK
        ARGFRAME IOVERLAY, 0, STATIC
        ARGFRAME DOVERLAY, 0, STATIC
        FUNCALL nwk_processPing, nwk_buildFrame
        LOCFRAME ISTACK, 0, STACK
        LOCFRAME PSTACK, 0, STACK
        LOCFRAME XSTACK, 12, STACK
        LOCFRAME IOVERLAY, 0, STATIC
        LOCFRAME DOVERLAY, 0, STATIC
        ARGFRAME ISTACK, 0, STACK
        ARGFRAME PSTACK, 0, STACK
        ARGFRAME XSTACK, 12, STACK
        ARGFRAME IOVERLAY, 0, STATIC
        ARGFRAME DOVERLAY, 0, STATIC
        FUNCALL nwk_processPing, memcpy
        LOCFRAME ISTACK, 0, STACK
        LOCFRAME PSTACK, 0, STACK
        LOCFRAME XSTACK, 14, STACK
        LOCFRAME IOVERLAY, 0, STATIC
        LOCFRAME DOVERLAY, 0, STATIC
        ARGFRAME ISTACK, 0, STACK
        ARGFRAME PSTACK, 0, STACK
        ARGFRAME XSTACK, 14, STACK
        ARGFRAME IOVERLAY, 0, STATIC
        ARGFRAME DOVERLAY, 0, STATIC
        FUNCALL nwk_processPing, nwk_sendFrame
        LOCFRAME ISTACK, 0, STACK
        LOCFRAME PSTACK, 0, STACK
        LOCFRAME XSTACK, 12, STACK
        LOCFRAME IOVERLAY, 0, STATIC
        LOCFRAME DOVERLAY, 0, STATIC
        ARGFRAME ISTACK, 0, STACK
        ARGFRAME PSTACK, 0, STACK
        ARGFRAME XSTACK, 12, STACK
        ARGFRAME IOVERLAY, 0, STATIC
        ARGFRAME DOVERLAY, 0, STATIC
        MOV     A,#-0xc
        LCALL   ?BANKED_ENTER_XDATA
        CFI DPH0 load(1, XDATA, add(CFA_XSP16, literal(-1)))
        CFI DPL0 load(1, XDATA, add(CFA_XSP16, literal(-2)))
        CFI ?BRET_EXT load(1, XDATA, add(CFA_XSP16, literal(-3)))
        CFI ?RET_HIGH load(1, XDATA, add(CFA_XSP16, literal(-4)))
        CFI ?RET_LOW load(1, XDATA, add(CFA_XSP16, literal(-5)))
        CFI R7 load(1, XDATA, add(CFA_XSP16, literal(-6)))
        CFI V3 load(1, XDATA, add(CFA_XSP16, literal(-7)))
        CFI V2 load(1, XDATA, add(CFA_XSP16, literal(-8)))
        CFI V1 load(1, XDATA, add(CFA_XSP16, literal(-9)))
        CFI V0 load(1, XDATA, add(CFA_XSP16, literal(-10)))
        CFI VB load(1, XDATA, add(CFA_XSP16, literal(-11)))
        CFI R6 load(1, XDATA, add(CFA_XSP16, literal(-12)))
        CFI CFA_SP SP+0
        CFI CFA_XSP16 add(XSP16, 12)
        ; Saved register size: 12
        ; Auto size: 0
        MOV     A,R2
        MOV     R6,A
        MOV     A,R3
        MOV     R7,A
//  254   fhStatus_t   rc;
//  255   uint8_t      replyType;
//  256 
//  257   /* If we sent this then this is the reply. Validate the
//  258    * packet for reception by client app. If we didn't send
//  259    * it then we are the target. Send the reply.
//  260    */
//  261   replyType = nwk_isValidReply(frame, sTid, PB_REQ_OS, PB_TID_OS);
//  262   if (SMPL_MY_REPLY == replyType)
        ; Setup parameters for call to function nwk_isValidReply
        MOV     R5,#0x1
        MOV     R4,#0x0
        MOV     DPTR,#sTid
        MOVX    A,@DPTR
        MOV     R1,A
        LCALL   ??nwk_isValidReply?relay
        MOV     A,R1
        JNZ     ??nwk_processPing_0
//  263   {
//  264     /* It's a match and it's a reply. Validate the received packet by
//  265      * returning a 1 so it can be received by the client app.
//  266      */
//  267     MRFI_PostKillSem();
        ; Setup parameters for call to function MRFI_PostKillSem
        LCALL   ??MRFI_PostKillSem?relay
//  268     rc = FHS_KEEP;
        MOV     R1,#0x1
        SJMP    ??nwk_processPing_1
//  269   }
//  270 #if !defined( END_DEVICE )
//  271   else if (SMPL_A_REPLY == replyType)
//  272   {
//  273     /* no match. If I'm not an ED this is a reply that should be passed on. */
//  274     rc = FHS_REPLAY;
//  275   }
//  276 #endif  /* !END_DEVICE */
//  277   else
//  278   {
//  279     /* No, we didn't send it. Send reply assuming it's a Ping intended for us. */
//  280     handlePingRequest(frame);
??nwk_processPing_0:
        MOV     A,R6
        ADD     A,#0xf
        MOV     R2,A
        MOV     A,R7
        ADDC    A,#0x0
        MOV     R3,A
        MOV     DPL,R2
        MOV     DPH,R3
        MOVX    A,@DPTR
        XRL     A,#0x1
        JNZ     ??nwk_processPing_2
        ; Setup parameters for call to function nwk_buildFrame
        MOV     R5,#0x3
        MOV     DPL,R6
        MOV     DPH,R7
        MOVX    A,@DPTR
        ADD     A,#-0xe
        MOV     R4,A
        MOV     R1,#0x1
        LCALL   ??nwk_buildFrame?relay
        MOV     ?V0 + 0,R2
        MOV     ?V0 + 1,R3
        MOV     R1,?V0 + 1
        MOV     A,R2
        ORL     A,R1
        JZ      ??nwk_processPing_2
        ; Setup parameters for call to function memcpy
        MOV     ?V0 + 2,#0x4
        MOV     ?V0 + 3,#0x0
        MOV     R0,#?V0 + 2
        LCALL   ?PUSH_XSTACK_I_TWO
        CFI CFA_XSP16 add(XSP16, 14)
        MOV     A,R6
        ADD     A,#0x8
        MOV     R4,A
        MOV     A,R7
        ADDC    A,#0x0
        MOV     R5,A
        MOV     A,R2
        ADD     A,#0x6
        MOV     R2,A
        MOV     A,R1
        ADDC    A,#0x0
        MOV     R3,A
        LCALL   ??memcpy?relay
        MOV     A,#0x2
        LCALL   ?DEALLOC_XSTACK8
        CFI CFA_XSP16 add(XSP16, 12)
        MOV     A,?V0 + 0
        ADD     A,#0x11
        MOV     DPL,A
        MOV     A,?V0 + 1
        ADDC    A,#0x0
        MOV     DPH,A
        MOVX    A,@DPTR
        SETB    0xE0 /* A   */.7
        MOVX    @DPTR,A
        ; Setup parameters for call to function nwk_sendFrame
        MOV     R1,#0x0
        MOV     R2,?V0 + 0
        MOV     R3,?V0 + 1
        LCALL   ??nwk_sendFrame?relay
//  281 
//  282     rc = FHS_RELEASE;
??nwk_processPing_2:
        MOV     R1,#0x0
//  283   }
//  284 
//  285   return rc;
??nwk_processPing_1:
        LJMP    ?Subroutine0 & 0xFFFF
        CFI EndBlock cfiBlock6
//  286 }

        RSEG BANK_RELAYS:CODE:REORDER:NOROOT(0)
??nwk_pingInit?relay:
        LCALL   ?BDISPATCH
        DATA
        DC24    nwk_pingInit

        RSEG BANK_RELAYS:CODE:REORDER:NOROOT(0)
??nwk_ping?relay:
        LCALL   ?BDISPATCH
        DATA
        DC24    nwk_ping

        RSEG BANK_RELAYS:CODE:REORDER:NOROOT(0)
??nwk_processPing?relay:
        LCALL   ?BDISPATCH
        DATA
        DC24    nwk_processPing

        END
//  287 
//  288 /******************************************************************************
//  289  * @fn          handlePingRequest
//  290  *
//  291  * @brief       Dispatches handler for specfic Ping request
//  292  *
//  293  * input parameters
//  294  *
//  295  * @param   frame - Ping frame received
//  296  *
//  297  * output parameters
//  298  *
//  299  * @return   void
//  300  */
//  301 static void handlePingRequest(mrfiPacket_t *frame)
//  302 {
//  303   switch (*(MRFI_P_PAYLOAD(frame)+F_APP_PAYLOAD_OS))
//  304   {
//  305     case PING_REQ_PING:
//  306       smpl_send_ping_reply(frame);
//  307       break;
//  308 
//  309     default:
//  310       break;
//  311   }
//  312 
//  313   return;
//  314 }
// 
// 413 bytes in segment BANKED_CODE
//  18 bytes in segment BANK_RELAYS
//   1 byte  in segment XDATA_Z
// 
// 431 bytes of CODE  memory
//   1 byte  of XDATA memory
//
//Errors: none
//Warnings: none
