###############################################################################
#                                                                             #
# IAR C/C++ Compiler V8.10.4.40412/W32 for 8051         04/Dec/2016  22:38:10 #
# Copyright 2004-2011 IAR Systems AB.                                         #
#                                                                             #
#    Core               =  plain                                              #
#    Code model         =  banked                                             #
#    Data model         =  large                                              #
#    Calling convention =  xdata reentrant                                    #
#    Constant location  =  data                                               #
#    Dptr setup         =  1,16                                               #
#    Source file        =  C:\Users\freeman\Documents\work\NBK\Nikon\NikonStm #
#                          32\Nikon_Rf\SimpliciTI-IAR-1.2.0\Components\servic #
#                          es\saddr\saddr.c                                   #
#    Command line       =  -f C:\Users\freeman\Documents\work\NBK\Nikon\Nikon #
#                          Stm32\Nikon_Rf\SimpliciTI-IAR-1.2.0\Projects\Examp #
#                          les\SRF05_8051\nik_sb5000\IAR\Configuration\LinkTo #
#                          \smpl_config.dat ("-DTHIS_DEVICE_ADDRESS={0x79,    #
#                          0x56, 0x34, 0x12}" -DxNWK_PLL_REFERENCE_CLOCK      #
#                          -DLINK_TO) -f C:\Users\freeman\Documents\work\NBK\ #
#                          Nikon\NikonStm32\Nikon_Rf\SimpliciTI-IAR-1.2.0\Pro #
#                          jects\Examples\SRF05_8051\nik_sb5000\IAR\Configura #
#                          tion\smpl_nwk_config.dat (-DMAX_HOPS=3             #
#                          -DMAX_HOPS_FROM_AP=1 -DMAX_NWK_PAYLOAD=34          #
#                          -DMAX_APP_PAYLOAD=10 -DDEFAULT_LINK_TOKEN=0x010203 #
#                          04 -DDEFAULT_JOIN_TOKEN=0x05060708                 #
#                          -DxFREQUENCY_AGILITY -DxAPP_AUTO_ACK               #
#                          -DxEXTENDED_API -DxSMPL_SECURE                     #
#                          -DxNVOBJECT_SUPPORT -DxSW_TIMER                    #
#                          -DNUM_CONNECTIONS=2 -DSIZE_INFRAME_Q=4             #
#                          -DSIZE_OUTFRAME_Q=2 -DxFREQUENCY_HOPPING           #
#                          -DNWK_PLL_SHOW_LOCATION_INDICATORS                 #
#                          -DUART_NUMBER=UART_NUMBER_0                        #
#                          -DUART_LOCATION=UART_LOCATION_1                    #
#                          -DUART_BAUD_RATE=115200 -DUART_FLOW_CONTROL=UART_F #
#                          LOW_CONTROL_OFF -DUART_PARITY_MODE=UART_PARITY_NON #
#                          E -DUART_STOP_BITS=UART_1_STOP_BIT                 #
#                          -DBSP_TIMER_USED=1 -DEND_DEVICE)                   #
#                          C:\Users\freeman\Documents\work\NBK\Nikon\NikonStm #
#                          32\Nikon_Rf\SimpliciTI-IAR-1.2.0\Components\servic #
#                          es\saddr\saddr.c -D MCU_H=<ioCC2530.h> -D          #
#                          MRFI_CC2530 -D ZTOOL_P1 -lC                        #
#                          C:\Users\freeman\Documents\work\NBK\Nikon\NikonStm #
#                          32\Nikon_Rf\SimpliciTI-IAR-1.2.0\Projects\Examples #
#                          \SRF05_8051\nik_sb5000\IAR\LinkTo\List\ -lA        #
#                          C:\Users\freeman\Documents\work\NBK\Nikon\NikonStm #
#                          32\Nikon_Rf\SimpliciTI-IAR-1.2.0\Projects\Examples #
#                          \SRF05_8051\nik_sb5000\IAR\LinkTo\List\ -o         #
#                          C:\Users\freeman\Documents\work\NBK\Nikon\NikonStm #
#                          32\Nikon_Rf\SimpliciTI-IAR-1.2.0\Projects\Examples #
#                          \SRF05_8051\nik_sb5000\IAR\LinkTo\Obj\ -e --debug  #
#                          --core=plain --dptr=16,1 --data_model=large        #
#                          --code_model=banked --calling_convention=xdata_ree #
#                          ntrant --place_constants=data --nr_virtual_regs    #
#                          16 -I C:\Users\freeman\Documents\work\NBK\Nikon\Ni #
#                          konStm32\Nikon_Rf\SimpliciTI-IAR-1.2.0\Projects\Ex #
#                          amples\SRF05_8051\nik_sb5000\IAR\..\..\..\..\..\Co #
#                          mponents\bsp\ -I C:\Users\freeman\Documents\work\N #
#                          BK\Nikon\NikonStm32\Nikon_Rf\SimpliciTI-IAR-1.2.0\ #
#                          Projects\Examples\SRF05_8051\nik_sb5000\IAR\..\..\ #
#                          ..\..\..\Components\bsp\drivers\ -I                #
#                          C:\Users\freeman\Documents\work\NBK\Nikon\NikonStm #
#                          32\Nikon_Rf\SimpliciTI-IAR-1.2.0\Projects\Examples #
#                          \SRF05_8051\nik_sb5000\IAR\..\..\..\..\..\Componen #
#                          ts\bsp\boards\CC2530EM\ -I                         #
#                          C:\Users\freeman\Documents\work\NBK\Nikon\NikonStm #
#                          32\Nikon_Rf\SimpliciTI-IAR-1.2.0\Projects\Examples #
#                          \SRF05_8051\nik_sb5000\IAR\..\..\..\..\..\Componen #
#                          ts\mrfi\ -I C:\Users\freeman\Documents\work\NBK\Ni #
#                          kon\NikonStm32\Nikon_Rf\SimpliciTI-IAR-1.2.0\Proje #
#                          cts\Examples\SRF05_8051\nik_sb5000\IAR\..\..\..\.. #
#                          \..\Components\SimpliciTI\nwk\ -I                  #
#                          C:\Users\freeman\Documents\work\NBK\Nikon\NikonStm #
#                          32\Nikon_Rf\SimpliciTI-IAR-1.2.0\Projects\Examples #
#                          \SRF05_8051\nik_sb5000\IAR\..\..\..\Applications\  #
#                          -I C:\Users\freeman\Documents\work\NBK\Nikon\Nikon #
#                          Stm32\Nikon_Rf\SimpliciTI-IAR-1.2.0\Projects\Examp #
#                          les\SRF05_8051\nik_sb5000\IAR\..\..\..\..\..\Compo #
#                          nents\SimpliciTI\nwk_applications\ -I              #
#                          C:\Users\freeman\Documents\work\NBK\Nikon\NikonStm #
#                          32\Nikon_Rf\SimpliciTI-IAR-1.2.0\Projects\Examples #
#                          \SRF05_8051\nik_sb5000\IAR\..\..\..\..\..\Componen #
#                          ts\OSAL\INCLUDE\ -I C:\Users\freeman\Documents\wor #
#                          k\NBK\Nikon\NikonStm32\Nikon_Rf\SimpliciTI-IAR-1.2 #
#                          .0\Projects\Examples\SRF05_8051\nik_sb5000\IAR\..\ #
#                          ..\..\..\..\Components\OSAL\MCU\CCSOC\ -I          #
#                          C:\Users\freeman\Documents\work\NBK\Nikon\NikonStm #
#                          32\Nikon_Rf\SimpliciTI-IAR-1.2.0\Projects\Examples #
#                          \SRF05_8051\nik_sb5000\IAR\..\..\..\..\..\Componen #
#                          ts\HAL\INCLUDE\ -I C:\Users\freeman\Documents\work #
#                          \NBK\Nikon\NikonStm32\Nikon_Rf\SimpliciTI-IAR-1.2. #
#                          0\Projects\Examples\SRF05_8051\nik_sb5000\IAR\..\. #
#                          .\..\..\..\Components\HAL\TARGET\CC2530EB\ -I      #
#                          C:\Users\freeman\Documents\work\NBK\Nikon\NikonStm #
#                          32\Nikon_Rf\SimpliciTI-IAR-1.2.0\Projects\Examples #
#                          \SRF05_8051\nik_sb5000\IAR\..\..\..\..\..\Componen #
#                          ts\SERVICES\SADDR\ -I C:\Users\freeman\Documents\w #
#                          ork\NBK\Nikon\NikonStm32\Nikon_Rf\SimpliciTI-IAR-1 #
#                          .2.0\Projects\Examples\SRF05_8051\nik_sb5000\IAR\. #
#                          .\..\..\..\..\Components\SERVICES\SDATA\ -I        #
#                          C:\Users\freeman\Documents\work\NBK\Nikon\NikonStm #
#                          32\Nikon_Rf\SimpliciTI-IAR-1.2.0\Projects\Examples #
#                          \SRF05_8051\nik_sb5000\IAR\..\..\..\..\..\Componen #
#                          ts\MT\ -I C:\Users\freeman\Documents\work\NBK\Niko #
#                          n\NikonStm32\Nikon_Rf\SimpliciTI-IAR-1.2.0\Project #
#                          s\Examples\SRF05_8051\nik_sb5000\IAR\..\..\..\..\. #
#                          .\Components\STACK\AF\ -I                          #
#                          C:\Users\freeman\Documents\work\NBK\Nikon\NikonStm #
#                          32\Nikon_Rf\SimpliciTI-IAR-1.2.0\Projects\Examples #
#                          \SRF05_8051\nik_sb5000\IAR\..\..\..\..\..\Componen #
#                          ts\STACK\NWK\ -I C:\Users\freeman\Documents\work\N #
#                          BK\Nikon\NikonStm32\Nikon_Rf\SimpliciTI-IAR-1.2.0\ #
#                          Projects\Examples\SRF05_8051\nik_sb5000\IAR\..\..\ #
#                          ..\..\..\Components\STACK\SEC\ -I                  #
#                          C:\Users\freeman\Documents\work\NBK\Nikon\NikonStm #
#                          32\Nikon_Rf\SimpliciTI-IAR-1.2.0\Projects\Examples #
#                          \SRF05_8051\nik_sb5000\IAR\..\..\..\..\..\Componen #
#                          ts\STACK\SAPI\ -I C:\Users\freeman\Documents\work\ #
#                          NBK\Nikon\NikonStm32\Nikon_Rf\SimpliciTI-IAR-1.2.0 #
#                          \Projects\Examples\SRF05_8051\nik_sb5000\IAR\..\.. #
#                          \..\..\..\Components\STACK\SYS\ -I                 #
#                          C:\Users\freeman\Documents\work\NBK\Nikon\NikonStm #
#                          32\Nikon_Rf\SimpliciTI-IAR-1.2.0\Projects\Examples #
#                          \SRF05_8051\nik_sb5000\IAR\..\..\..\..\..\Componen #
#                          ts\STACK\ZDO\ -I C:\Users\freeman\Documents\work\N #
#                          BK\Nikon\NikonStm32\Nikon_Rf\SimpliciTI-IAR-1.2.0\ #
#                          Projects\Examples\SRF05_8051\nik_sb5000\IAR\..\..\ #
#                          ..\..\..\Components\MAC\INCLUDE\ -I                #
#                          C:\Users\freeman\Documents\work\NBK\Nikon\NikonStm #
#                          32\Nikon_Rf\SimpliciTI-IAR-1.2.0\Projects\Examples #
#                          \SRF05_8051\nik_sb5000\IAR\..\..\..\..\..\Componen #
#                          ts\MAC\HIGH_LEVEL\ -I C:\Users\freeman\Documents\w #
#                          ork\NBK\Nikon\NikonStm32\Nikon_Rf\SimpliciTI-IAR-1 #
#                          .2.0\Projects\Examples\SRF05_8051\nik_sb5000\IAR\. #
#                          .\..\..\..\..\Components\MAC\LOW_LEVEL\srf04\ -I   #
#                          C:\Users\freeman\Documents\work\NBK\Nikon\NikonStm #
#                          32\Nikon_Rf\SimpliciTI-IAR-1.2.0\Projects\Examples #
#                          \SRF05_8051\nik_sb5000\IAR\..\..\..\..\..\Componen #
#                          ts\MAC\LOW_LEVEL\srf04\SINGLE_CHIP\ -Ohz           #
#                          --require_prototypes                               #
#    List file          =  C:\Users\freeman\Documents\work\NBK\Nikon\NikonStm #
#                          32\Nikon_Rf\SimpliciTI-IAR-1.2.0\Projects\Examples #
#                          \SRF05_8051\nik_sb5000\IAR\LinkTo\List\saddr.lst   #
#    Object file        =  C:\Users\freeman\Documents\work\NBK\Nikon\NikonStm #
#                          32\Nikon_Rf\SimpliciTI-IAR-1.2.0\Projects\Examples #
#                          \SRF05_8051\nik_sb5000\IAR\LinkTo\Obj\saddr.r51    #
#                                                                             #
#                                                                             #
###############################################################################

C:\Users\freeman\Documents\work\NBK\Nikon\NikonStm32\Nikon_Rf\SimpliciTI-IAR-1.2.0\Components\services\saddr\saddr.c
      1          /****************************************************************************
      2            Filename:       saddr.c
      3            Revised:        $Date: 2009-12-10 08:32:15 -0800 (Thu, 10 Dec 2009) $
      4            Revision:       $Revision: 21311 $
      5          
      6            Description:    Zigbee and 802.15.4 device address utility functions.
      7          
      8          
      9            Copyright 2005-2010 Texas Instruments Incorporated. All rights reserved.
     10          
     11            IMPORTANT: Your use of this Software is limited to those specific rights
     12            granted under the terms of a software license agreement between the user
     13            who downloaded the software, his/her employer (which must be your employer)
     14            and Texas Instruments Incorporated (the "License").  You may not use this
     15            Software unless you agree to abide by the terms of the License. The License
     16            limits your use, and you acknowledge, that the Software may not be modified,
     17            copied or distributed unless embedded on a Texas Instruments microcontroller
     18            or used solely and exclusively in conjunction with a Texas Instruments radio
     19            frequency transceiver, which is integrated into your product.  Other than for
     20            the foregoing purpose, you may not use, reproduce, copy, prepare derivative
     21            works of, modify, distribute, perform, display or sell this Software and/or
     22            its documentation for any purpose.
     23          
     24            YOU FURTHER ACKNOWLEDGE AND AGREE THAT THE SOFTWARE AND DOCUMENTATION ARE
     25            PROVIDED “AS IS” WITHOUT WARRANTY OF ANY KIND, EITHER EXPRESS OR IMPLIED,
     26            INCLUDING WITHOUT LIMITATION, ANY WARRANTY OF MERCHANTABILITY, TITLE,
     27            NON-INFRINGEMENT AND FITNESS FOR A PARTICULAR PURPOSE. IN NO EVENT SHALL
     28            TEXAS INSTRUMENTS OR ITS LICENSORS BE LIABLE OR OBLIGATED UNDER CONTRACT,
     29            NEGLIGENCE, STRICT LIABILITY, CONTRIBUTION, BREACH OF WARRANTY, OR OTHER
     30            LEGAL EQUITABLE THEORY ANY DIRECT OR INDIRECT DAMAGES OR EXPENSES
     31            INCLUDING BUT NOT LIMITED TO ANY INCIDENTAL, SPECIAL, INDIRECT, PUNITIVE
     32            OR CONSEQUENTIAL DAMAGES, LOST PROFITS OR LOST DATA, COST OF PROCUREMENT
     33            OF SUBSTITUTE GOODS, TECHNOLOGY, SERVICES, OR ANY CLAIMS BY THIRD PARTIES
     34            (INCLUDING BUT NOT LIMITED TO ANY DEFENSE THEREOF), OR OTHER SIMILAR COSTS.
     35          
     36            Should you have any questions regarding your right to use this Software,
     37            contact Texas Instruments Incorporated at www.TI.com.
     38          ****************************************************************************/
     39          
     40          /****************************************************************************
     41           * INCLUDES
     42           */
     43          #include "hal_types.h"
     44          #include "OSAL.h"
     45          #include "saddr.h"
     46          
     47          /****************************************************************************
     48           * @fn          sAddrCmp
     49           *
     50           * @brief       Compare two device addresses.
     51           *
     52           * input parameters
     53           *
     54           * @param       pAddr1        - Pointer to first address.
     55           * @param       pAddr2        - Pointer to second address.
     56           *
     57           * output parameters
     58           *
     59           * @return      TRUE if addresses are equal, FALSE otherwise
     60           */

   \                                 In  segment BANKED_CODE, align 1, keep-with-next
     61          bool sAddrCmp(const sAddr_t *pAddr1, const sAddr_t *pAddr2)
   \                     sAddrCmp:
     62          {
   \   000000   C082         PUSH    DPL
   \   000002   C083         PUSH    DPH
   \   000004                ; Saved register size: 2
   \   000004                ; Auto size: 0
     63            if (pAddr1->addrMode != pAddr2->addrMode)
   \   000004   12....       LCALL   ?Subroutine2 & 0xFFFF
   \                     ??CrossCallReturnLabel_0:
   \   000007   6004         JZ      ??sAddrCmp_0
     64            {
     65              return FALSE;
   \                     ??sAddrCmp_1:
   \   000009   7900         MOV     R1,#0x0
   \   00000B   801E         SJMP    ??sAddrCmp_2
     66            }
     67            else if (pAddr1->addrMode == SADDR_MODE_NONE)
   \                     ??sAddrCmp_0:
   \   00000D   E8           MOV     A,R0
   \   00000E   60F9         JZ      ??sAddrCmp_1
     68            {
     69              return FALSE;
     70            }
     71            else if (pAddr1->addrMode == SADDR_MODE_SHORT)
   \   000010   7402         MOV     A,#0x2
   \   000012   68           XRL     A,R0
   \   000013   700E         JNZ     ??sAddrCmp_3
     72            {
     73              return (bool) (pAddr1->addr.shortAddr == pAddr2->addr.shortAddr);
   \   000015   12....       LCALL   ?Subroutine3 & 0xFFFF
     74            }
   \                     ??CrossCallReturnLabel_2:
   \   000018   7003         JNZ     ??sAddrCmp_4
   \   00001A   A3           INC     DPTR
   \   00001B   E0           MOVX    A,@DPTR
   \   00001C   69           XRL     A,R1
   \                     ??sAddrCmp_4:
   \   00001D   70EA         JNZ     ??sAddrCmp_1
   \   00001F   7901         MOV     R1,#0x1
   \   000021   8008         SJMP    ??sAddrCmp_2
     75            else if (pAddr1->addrMode == SADDR_MODE_EXT)
   \                     ??sAddrCmp_3:
   \   000023   7403         MOV     A,#0x3
   \   000025   68           XRL     A,R0
   \   000026   70E1         JNZ     ??sAddrCmp_1
     76            {
     77              return (sAddrExtCmp(pAddr1->addr.extAddr, pAddr2->addr.extAddr));
   \   000028                ; Setup parameters for call to function sAddrExtCmp
   \   000028   12....       LCALL   ??sAddrExtCmp?relay
     78            }
   \                     ??sAddrCmp_2:
   \   00002B                REQUIRE ?Subroutine0
   \   00002B                ; // Fall through to label ?Subroutine0
     79            else
     80            {
     81              return FALSE;
     82            }
     83          }

   \                                 In  segment BANKED_CODE, align 1, keep-with-next
   \                     ?Subroutine0:
   \   000000   D083         POP     DPH
   \   000002   D082         POP     DPL
   \   000004   02....       LJMP    ?BRET

   \                                 In  segment BANKED_CODE, align 1, keep-with-next
   \                     ?Subroutine3:
   \   000000   8A82         MOV     DPL,R2
   \   000002   8B83         MOV     DPH,R3
   \   000004   E0           MOVX    A,@DPTR
   \   000005   F8           MOV     R0,A
   \   000006   A3           INC     DPTR
   \   000007   E0           MOVX    A,@DPTR
   \   000008   F9           MOV     R1,A
   \   000009   8C82         MOV     DPL,R4
   \   00000B   8D83         MOV     DPH,R5
   \   00000D   E0           MOVX    A,@DPTR
   \   00000E   68           XRL     A,R0
   \   00000F   22           RET

   \                                 In  segment BANKED_CODE, align 1, keep-with-next
   \                     ?Subroutine2:
   \   000000   8A82         MOV     DPL,R2
   \   000002   8B83         MOV     DPH,R3
   \   000004   A3           INC     DPTR
   \   000005   A3           INC     DPTR
   \   000006   A3           INC     DPTR
   \   000007   A3           INC     DPTR
   \   000008   A3           INC     DPTR
   \   000009   A3           INC     DPTR
   \   00000A   A3           INC     DPTR
   \   00000B   A3           INC     DPTR
   \   00000C   E0           MOVX    A,@DPTR
   \   00000D   F8           MOV     R0,A
   \   00000E   8C82         MOV     DPL,R4
   \   000010   8D83         MOV     DPH,R5
   \   000012   A3           INC     DPTR
   \   000013   A3           INC     DPTR
   \   000014   A3           INC     DPTR
   \   000015   A3           INC     DPTR
   \   000016   A3           INC     DPTR
   \   000017   A3           INC     DPTR
   \   000018   A3           INC     DPTR
   \   000019   A3           INC     DPTR
   \   00001A   E0           MOVX    A,@DPTR
   \   00001B   68           XRL     A,R0
   \   00001C   22           RET
     84          
     85          /****************************************************************************
     86           * @fn          sAddrIden
     87           *
     88           * @brief       Check if two device addresses are identical.
     89           *
     90           *              This routine is virtually the same as sAddrCmp, which is used
     91           *              to determine if two different addresses are the same. However,
     92           *              this routine can be used to determine if an address is the
     93           *              same as a previously stored address. The key difference is in
     94           *              the former case, if the address mode is "none", then the
     95           *              assumption is that the two addresses can not be the same. But
     96           *              in the latter case, the address mode itself is being compared.
     97           *              So two addresses can be identical even if the address mode is
     98           *              "none", as long as the address mode of both addresses being
     99           *              compared is "none".
    100           *
    101           * input parameters
    102           *
    103           * @param       pAddr1        - Pointer to first address.
    104           * @param       pAddr2        - Pointer to second address.
    105           *
    106           * output parameters
    107           *
    108           * @return      TRUE if addresses are identical, FALSE otherwise
    109           */

   \                                 In  segment BANKED_CODE, align 1, keep-with-next
    110          bool sAddrIden(const sAddr_t *pAddr1, const sAddr_t *pAddr2)
   \                     sAddrIden:
    111          {
   \   000000   C082         PUSH    DPL
   \   000002   C083         PUSH    DPH
   \   000004                ; Saved register size: 2
   \   000004                ; Auto size: 0
    112            // first check if the address modes are the same
    113            if (pAddr1->addrMode != pAddr2->addrMode)
   \   000004   12....       LCALL   ?Subroutine2 & 0xFFFF
   \                     ??CrossCallReturnLabel_1:
   \   000007   6004         JZ      ??sAddrIden_0
    114            {
    115              // no, so no point in comparing any further
    116              return FALSE;
   \                     ??sAddrIden_1:
   \   000009   7900         MOV     R1,#0x0
   \   00000B   8020         SJMP    ??sAddrIden_2
    117            }
    118            // the address modes are the same; check if there is no address
    119            else if (pAddr1->addrMode == SADDR_MODE_NONE)
   \                     ??sAddrIden_0:
   \   00000D   E8           MOV     A,R0
   \   00000E   7004         JNZ     ??sAddrIden_3
    120            {
    121              // no address, so no need to compare any further as both addresses have the
    122              // same address mode but no address, so they are identical
    123              return TRUE;
   \                     ??sAddrIden_4:
   \   000010   7901         MOV     R1,#0x1
   \   000012   8019         SJMP    ??sAddrIden_2
    124            }
    125            // there's an address; check if it is short
    126            else if (pAddr1->addrMode == SADDR_MODE_SHORT)
   \                     ??sAddrIden_3:
   \   000014   7402         MOV     A,#0x2
   \   000016   68           XRL     A,R0
   \   000017   700C         JNZ     ??sAddrIden_5
    127            {
    128              // compare short addresses
    129              return (bool) (pAddr1->addr.shortAddr == pAddr2->addr.shortAddr);
   \   000019   12....       LCALL   ?Subroutine3 & 0xFFFF
    130            }
   \                     ??CrossCallReturnLabel_3:
   \   00001C   7003         JNZ     ??sAddrIden_6
   \   00001E   A3           INC     DPTR
   \   00001F   E0           MOVX    A,@DPTR
   \   000020   69           XRL     A,R1
   \                     ??sAddrIden_6:
   \   000021   70E6         JNZ     ??sAddrIden_1
   \   000023   80EB         SJMP    ??sAddrIden_4
    131            // there's an address; check if it is extended
    132            else if (pAddr1->addrMode == SADDR_MODE_EXT)
   \                     ??sAddrIden_5:
   \   000025   7403         MOV     A,#0x3
   \   000027   68           XRL     A,R0
   \   000028   70DF         JNZ     ??sAddrIden_1
    133            {
    134              // compare extended addresses
    135              return (sAddrExtCmp(pAddr1->addr.extAddr, pAddr2->addr.extAddr));
   \   00002A                ; Setup parameters for call to function sAddrExtCmp
   \   00002A   12....       LCALL   ??sAddrExtCmp?relay
    136            }
   \                     ??sAddrIden_2:
   \   00002D   80..         SJMP    ?Subroutine0
    137            else // unknown error
    138            {
    139              return FALSE;
    140            }
    141          }
    142          
    143          /****************************************************************************
    144           * @fn          sAddrCpy
    145           *
    146           * @brief       Copy a device address.
    147           *
    148           * input parameters
    149           *
    150           * @param       pSrc         - Pointer to address to copy.
    151           *
    152           * output parameters
    153           *
    154           * @param       pDest        - Pointer to address of copy.
    155           *
    156           * @return      None.
    157           */

   \                                 In  segment BANKED_CODE, align 1, keep-with-next
    158          void sAddrCpy(sAddr_t *pDest, const sAddr_t *pSrc)
   \                     sAddrCpy:
    159          {
   \   000000   C082         PUSH    DPL
   \   000002   C083         PUSH    DPH
   \   000004                ; Saved register size: 2
   \   000004                ; Auto size: 0
    160            pDest->addrMode = pSrc->addrMode;
   \   000004   8C82         MOV     DPL,R4
   \   000006   8D83         MOV     DPH,R5
   \   000008   A3           INC     DPTR
   \   000009   A3           INC     DPTR
   \   00000A   A3           INC     DPTR
   \   00000B   A3           INC     DPTR
   \   00000C   A3           INC     DPTR
   \   00000D   A3           INC     DPTR
   \   00000E   A3           INC     DPTR
   \   00000F   A3           INC     DPTR
   \   000010   E0           MOVX    A,@DPTR
   \   000011   F8           MOV     R0,A
   \   000012   8A82         MOV     DPL,R2
   \   000014   8B83         MOV     DPH,R3
   \   000016   A3           INC     DPTR
   \   000017   A3           INC     DPTR
   \   000018   A3           INC     DPTR
   \   000019   A3           INC     DPTR
   \   00001A   A3           INC     DPTR
   \   00001B   A3           INC     DPTR
   \   00001C   A3           INC     DPTR
   \   00001D   A3           INC     DPTR
   \   00001E   F0           MOVX    @DPTR,A
    161          
    162            if (pDest->addrMode == SADDR_MODE_EXT)
   \   00001F   7403         MOV     A,#0x3
   \   000021   68           XRL     A,R0
   \   000022   7005         JNZ     ??sAddrCpy_0
    163            {
    164              sAddrExtCpy(pDest->addr.extAddr, pSrc->addr.extAddr);
   \   000024                ; Setup parameters for call to function sAddrExtCpy
   \   000024   12....       LCALL   ??sAddrExtCpy?relay
   \   000027   8012         SJMP    ??sAddrCpy_1
    165            }
    166            else
    167            {
    168              pDest->addr.shortAddr = pSrc->addr.shortAddr;
   \                     ??sAddrCpy_0:
   \   000029   8C82         MOV     DPL,R4
   \   00002B   8D83         MOV     DPH,R5
   \   00002D   E0           MOVX    A,@DPTR
   \   00002E   F8           MOV     R0,A
   \   00002F   A3           INC     DPTR
   \   000030   E0           MOVX    A,@DPTR
   \   000031   F9           MOV     R1,A
   \   000032   8A82         MOV     DPL,R2
   \   000034   8B83         MOV     DPH,R3
   \   000036   E8           MOV     A,R0
   \   000037   F0           MOVX    @DPTR,A
   \   000038   A3           INC     DPTR
   \   000039   E9           MOV     A,R1
   \   00003A   F0           MOVX    @DPTR,A
    169            }
    170          }
   \                     ??sAddrCpy_1:
   \   00003B   02....       LJMP    ?Subroutine0 & 0xFFFF
    171          
    172          /****************************************************************************
    173           * @fn          sAddrExtCmp
    174           *
    175           * @brief       Compare two extended addresses.
    176           *
    177           * input parameters
    178           *
    179           * @param       pAddr1        - Pointer to first address.
    180           * @param       pAddr2        - Pointer to second address.
    181           *
    182           * output parameters
    183           *
    184           * @return      TRUE if addresses are equal, FALSE otherwise
    185           */

   \                                 In  segment BANKED_CODE, align 1, keep-with-next
    186          bool sAddrExtCmp(const uint8 * pAddr1, const uint8 * pAddr2)
   \                     sAddrExtCmp:
    187          {
   \   000000   74F6         MOV     A,#-0xa
   \   000002   12....       LCALL   ?BANKED_ENTER_XDATA
   \   000005                ; Saved register size: 10
   \   000005                ; Auto size: 0
    188            uint8 i;
    189          
    190            for (i = SADDR_EXT_LEN; i != 0; i--)
   \   000005   75..08       MOV     ?V0 + 0,#0x8
    191            {
    192              if (*pAddr1++ != *pAddr2++)
   \                     ??sAddrExtCmp_0:
   \   000008   EA           MOV     A,R2
   \   000009   FE           MOV     R6,A
   \   00000A   EB           MOV     A,R3
   \   00000B   FF           MOV     R7,A
   \   00000C   8E82         MOV     DPL,R6
   \   00000E   8F83         MOV     DPH,R7
   \   000010   A3           INC     DPTR
   \   000011   AA82         MOV     R2,DPL
   \   000013   AB83         MOV     R3,DPH
   \   000015   EC           MOV     A,R4
   \   000016   F8           MOV     R0,A
   \   000017   ED           MOV     A,R5
   \   000018   F9           MOV     R1,A
   \   000019   8882         MOV     DPL,R0
   \   00001B   8983         MOV     DPH,R1
   \   00001D   A3           INC     DPTR
   \   00001E   AC82         MOV     R4,DPL
   \   000020   AD83         MOV     R5,DPH
   \   000022   8E82         MOV     DPL,R6
   \   000024   8F83         MOV     DPH,R7
   \   000026   E0           MOVX    A,@DPTR
   \   000027   FE           MOV     R6,A
   \   000028   8882         MOV     DPL,R0
   \   00002A   8983         MOV     DPH,R1
   \   00002C   E0           MOVX    A,@DPTR
   \   00002D   6E           XRL     A,R6
   \   00002E   6004         JZ      ??sAddrExtCmp_1
    193              {
    194                return FALSE;
   \   000030   7900         MOV     R1,#0x0
   \   000032   8008         SJMP    ??sAddrExtCmp_2
    195              }
    196            }
   \                     ??sAddrExtCmp_1:
   \   000034   15..         DEC     ?V0 + 0
   \   000036   E5..         MOV     A,?V0 + 0
   \   000038   70CE         JNZ     ??sAddrExtCmp_0
    197            return TRUE;
   \   00003A   7901         MOV     R1,#0x1
   \                     ??sAddrExtCmp_2:
   \   00003C                REQUIRE ?Subroutine1
   \   00003C                ; // Fall through to label ?Subroutine1
    198          }

   \                                 In  segment BANKED_CODE, align 1, keep-with-next
   \                     ?Subroutine1:
   \   000000   7F02         MOV     R7,#0x2
   \   000002   02....       LJMP    ?BANKED_LEAVE_XDATA
    199          
    200          /****************************************************************************
    201           * @fn          sAddrExtCpy
    202           *
    203           * @brief       Copy an extended address.
    204           *
    205           * input parameters
    206           *
    207           * @param       pSrc         - Pointer to address to copy.
    208           *
    209           * output parameters
    210           *
    211           * @param       pDest        - Pointer to address of copy.
    212           *
    213           * @return      pDest + SADDR_EXT_LEN.
    214           */

   \                                 In  segment BANKED_CODE, align 1, keep-with-next
    215          void *sAddrExtCpy(uint8 * pDest, const uint8 * pSrc)
   \                     sAddrExtCpy:
    216          {
   \   000000   74F6         MOV     A,#-0xa
   \   000002   12....       LCALL   ?BANKED_ENTER_XDATA
   \   000005                ; Saved register size: 10
   \   000005                ; Auto size: 0
    217            return osal_memcpy(pDest, pSrc, SADDR_EXT_LEN);
   \   000005                ; Setup parameters for call to function osal_memcpy
   \   000005   75..08       MOV     ?V0 + 0,#0x8
   \   000008   75..00       MOV     ?V0 + 1,#0x0
   \   00000B   78..         MOV     R0,#?V0 + 0
   \   00000D   12....       LCALL   ?PUSH_XSTACK_I_TWO
   \   000010   12....       LCALL   ??osal_memcpy?relay
   \   000013   7402         MOV     A,#0x2
   \   000015   12....       LCALL   ?DEALLOC_XSTACK8
   \   000018   80..         SJMP    ?Subroutine1
    218          }

   \                                 In  segment BANK_RELAYS, align 1
   \                     ??sAddrCmp?relay:
   \   000000   12....       LCALL   ?BDISPATCH
   \   000003   ......       DC24    sAddrCmp

   \                                 In  segment BANK_RELAYS, align 1
   \                     ??sAddrIden?relay:
   \   000000   12....       LCALL   ?BDISPATCH
   \   000003   ......       DC24    sAddrIden

   \                                 In  segment BANK_RELAYS, align 1
   \                     ??sAddrCpy?relay:
   \   000000   12....       LCALL   ?BDISPATCH
   \   000003   ......       DC24    sAddrCpy

   \                                 In  segment BANK_RELAYS, align 1
   \                     ??sAddrExtCmp?relay:
   \   000000   12....       LCALL   ?BDISPATCH
   \   000003   ......       DC24    sAddrExtCmp

   \                                 In  segment BANK_RELAYS, align 1
   \                     ??sAddrExtCpy?relay:
   \   000000   12....       LCALL   ?BDISPATCH
   \   000003   ......       DC24    sAddrExtCpy
    219          
    220          
    221          
    222          

   Maximum stack usage in bytes:

     Function         ISTACK PSTACK XSTACK
     --------         ------ ------ ------
     sAddrCmp             2      0      0
       -> sAddrExtCmp     4      0      0
     sAddrCpy             3      0      0
       -> sAddrExtCpy     4      0      0
     sAddrExtCmp          0      0     10
     sAddrExtCpy          0      0     12
       -> osal_memcpy     0      0     24
     sAddrIden            2      0      0
       -> sAddrExtCmp     4      0      0


   Segment part sizes:

     Function/Label      Bytes
     --------------      -----
     sAddrCmp              43
     ?Subroutine0           7
     ?Subroutine3          16
     ?Subroutine2          29
     sAddrIden             47
     sAddrCpy              62
     sAddrExtCmp           60
     ?Subroutine1           5
     sAddrExtCpy           26
     ??sAddrCmp?relay       6
     ??sAddrIden?relay      6
     ??sAddrCpy?relay       6
     ??sAddrExtCmp?relay    6
     ??sAddrExtCpy?relay    6

 
 295 bytes in segment BANKED_CODE
  30 bytes in segment BANK_RELAYS
 
 325 bytes of CODE memory

Errors: none
Warnings: none
