///////////////////////////////////////////////////////////////////////////////
//                                                                            /
// IAR C/C++ Compiler V8.10.4.40412/W32 for 8051        21/Jul/2016  23:24:20 /
// Copyright 2004-2011 IAR Systems AB.                                        /
//                                                                            /
//    Core               =  plain                                             /
//    Code model         =  banked                                            /
//    Data model         =  large                                             /
//    Calling convention =  xdata reentrant                                   /
//    Constant location  =  data                                              /
//    Dptr setup         =  1,16                                              /
//    Source file        =  C:\Users\freeman\Documents\work\NBK\Nikon\Nikon_R /
//                          f\SimpliciTI-IAR-1.2.0\Components\mac\low_level\s /
//                          rf04\single_chip\mac_mcu.c                        /
//    Command line       =  -f C:\Users\freeman\Documents\work\NBK\Nikon\Niko /
//                          n_Rf\SimpliciTI-IAR-1.2.0\Projects\Examples\SRF05 /
//                          _8051\nik_sb5000\IAR\Configuration\LinkTo\smpl_co /
//                          nfig.dat ("-DTHIS_DEVICE_ADDRESS={0x79, 0x56,     /
//                          0x34, 0x12}" -DxNWK_PLL_REFERENCE_CLOCK           /
//                          -DLINK_TO) -f C:\Users\freeman\Documents\work\NBK /
//                          \Nikon\Nikon_Rf\SimpliciTI-IAR-1.2.0\Projects\Exa /
//                          mples\SRF05_8051\nik_sb5000\IAR\Configuration\smp /
//                          l_nwk_config.dat (-DMAX_HOPS=3                    /
//                          -DMAX_HOPS_FROM_AP=1 -DMAX_NWK_PAYLOAD=34         /
//                          -DMAX_APP_PAYLOAD=10 -DDEFAULT_LINK_TOKEN=0x01020 /
//                          304 -DDEFAULT_JOIN_TOKEN=0x05060708               /
//                          -DxFREQUENCY_AGILITY -DxAPP_AUTO_ACK              /
//                          -DxEXTENDED_API -DxSMPL_SECURE                    /
//                          -DxNVOBJECT_SUPPORT -DxSW_TIMER                   /
//                          -DNUM_CONNECTIONS=2 -DSIZE_INFRAME_Q=4            /
//                          -DSIZE_OUTFRAME_Q=2 -DxFREQUENCY_HOPPING          /
//                          -DNWK_PLL_SHOW_LOCATION_INDICATORS                /
//                          -DUART_NUMBER=UART_NUMBER_0                       /
//                          -DUART_LOCATION=UART_LOCATION_1                   /
//                          -DUART_BAUD_RATE=115200                           /
//                          -DUART_FLOW_CONTROL=UART_FLOW_CONTROL_OFF         /
//                          -DUART_PARITY_MODE=UART_PARITY_NONE               /
//                          -DUART_STOP_BITS=UART_1_STOP_BIT                  /
//                          -DBSP_TIMER_USED=1 -DEND_DEVICE)                  /
//                          C:\Users\freeman\Documents\work\NBK\Nikon\Nikon_R /
//                          f\SimpliciTI-IAR-1.2.0\Components\mac\low_level\s /
//                          rf04\single_chip\mac_mcu.c -D MCU_H=<ioCC2530.h>  /
//                          -D MRFI_CC2530 -D ZTOOL_P1 -lC                    /
//                          C:\Users\freeman\Documents\work\NBK\Nikon\Nikon_R /
//                          f\SimpliciTI-IAR-1.2.0\Projects\Examples\SRF05_80 /
//                          51\nik_sb5000\IAR\LinkTo\List\ -lA                /
//                          C:\Users\freeman\Documents\work\NBK\Nikon\Nikon_R /
//                          f\SimpliciTI-IAR-1.2.0\Projects\Examples\SRF05_80 /
//                          51\nik_sb5000\IAR\LinkTo\List\ -o                 /
//                          C:\Users\freeman\Documents\work\NBK\Nikon\Nikon_R /
//                          f\SimpliciTI-IAR-1.2.0\Projects\Examples\SRF05_80 /
//                          51\nik_sb5000\IAR\LinkTo\Obj\ -e --debug          /
//                          --core=plain --dptr=16,1 --data_model=large       /
//                          --code_model=banked --calling_convention=xdata_re /
//                          entrant --place_constants=data --nr_virtual_regs  /
//                          16 -I C:\Users\freeman\Documents\work\NBK\Nikon\N /
//                          ikon_Rf\SimpliciTI-IAR-1.2.0\Projects\Examples\SR /
//                          F05_8051\nik_sb5000\IAR\..\..\..\..\..\Components /
//                          \bsp\ -I C:\Users\freeman\Documents\work\NBK\Niko /
//                          n\Nikon_Rf\SimpliciTI-IAR-1.2.0\Projects\Examples /
//                          \SRF05_8051\nik_sb5000\IAR\..\..\..\..\..\Compone /
//                          nts\bsp\drivers\ -I C:\Users\freeman\Documents\wo /
//                          rk\NBK\Nikon\Nikon_Rf\SimpliciTI-IAR-1.2.0\Projec /
//                          ts\Examples\SRF05_8051\nik_sb5000\IAR\..\..\..\.. /
//                          \..\Components\bsp\boards\CC2530EM\ -I            /
//                          C:\Users\freeman\Documents\work\NBK\Nikon\Nikon_R /
//                          f\SimpliciTI-IAR-1.2.0\Projects\Examples\SRF05_80 /
//                          51\nik_sb5000\IAR\..\..\..\..\..\Components\mrfi\ /
//                           -I C:\Users\freeman\Documents\work\NBK\Nikon\Nik /
//                          on_Rf\SimpliciTI-IAR-1.2.0\Projects\Examples\SRF0 /
//                          5_8051\nik_sb5000\IAR\..\..\..\..\..\Components\S /
//                          impliciTI\nwk\ -I C:\Users\freeman\Documents\work /
//                          \NBK\Nikon\Nikon_Rf\SimpliciTI-IAR-1.2.0\Projects /
//                          \Examples\SRF05_8051\nik_sb5000\IAR\..\..\..\Appl /
//                          ications\ -I C:\Users\freeman\Documents\work\NBK\ /
//                          Nikon\Nikon_Rf\SimpliciTI-IAR-1.2.0\Projects\Exam /
//                          ples\SRF05_8051\nik_sb5000\IAR\..\..\..\..\..\Com /
//                          ponents\SimpliciTI\nwk_applications\ -I           /
//                          C:\Users\freeman\Documents\work\NBK\Nikon\Nikon_R /
//                          f\SimpliciTI-IAR-1.2.0\Projects\Examples\SRF05_80 /
//                          51\nik_sb5000\IAR\..\..\..\..\..\Components\OSAL\ /
//                          INCLUDE\ -I C:\Users\freeman\Documents\work\NBK\N /
//                          ikon\Nikon_Rf\SimpliciTI-IAR-1.2.0\Projects\Examp /
//                          les\SRF05_8051\nik_sb5000\IAR\..\..\..\..\..\Comp /
//                          onents\OSAL\MCU\CCSOC\ -I                         /
//                          C:\Users\freeman\Documents\work\NBK\Nikon\Nikon_R /
//                          f\SimpliciTI-IAR-1.2.0\Projects\Examples\SRF05_80 /
//                          51\nik_sb5000\IAR\..\..\..\..\..\Components\HAL\I /
//                          NCLUDE\ -I C:\Users\freeman\Documents\work\NBK\Ni /
//                          kon\Nikon_Rf\SimpliciTI-IAR-1.2.0\Projects\Exampl /
//                          es\SRF05_8051\nik_sb5000\IAR\..\..\..\..\..\Compo /
//                          nents\HAL\TARGET\CC2530EB\ -I                     /
//                          C:\Users\freeman\Documents\work\NBK\Nikon\Nikon_R /
//                          f\SimpliciTI-IAR-1.2.0\Projects\Examples\SRF05_80 /
//                          51\nik_sb5000\IAR\..\..\..\..\..\Components\SERVI /
//                          CES\SADDR\ -I C:\Users\freeman\Documents\work\NBK /
//                          \Nikon\Nikon_Rf\SimpliciTI-IAR-1.2.0\Projects\Exa /
//                          mples\SRF05_8051\nik_sb5000\IAR\..\..\..\..\..\Co /
//                          mponents\SERVICES\SDATA\ -I                       /
//                          C:\Users\freeman\Documents\work\NBK\Nikon\Nikon_R /
//                          f\SimpliciTI-IAR-1.2.0\Projects\Examples\SRF05_80 /
//                          51\nik_sb5000\IAR\..\..\..\..\..\Components\MT\   /
//                          -I C:\Users\freeman\Documents\work\NBK\Nikon\Niko /
//                          n_Rf\SimpliciTI-IAR-1.2.0\Projects\Examples\SRF05 /
//                          _8051\nik_sb5000\IAR\..\..\..\..\..\Components\ST /
//                          ACK\AF\ -I C:\Users\freeman\Documents\work\NBK\Ni /
//                          kon\Nikon_Rf\SimpliciTI-IAR-1.2.0\Projects\Exampl /
//                          es\SRF05_8051\nik_sb5000\IAR\..\..\..\..\..\Compo /
//                          nents\STACK\NWK\ -I C:\Users\freeman\Documents\wo /
//                          rk\NBK\Nikon\Nikon_Rf\SimpliciTI-IAR-1.2.0\Projec /
//                          ts\Examples\SRF05_8051\nik_sb5000\IAR\..\..\..\.. /
//                          \..\Components\STACK\SEC\ -I                      /
//                          C:\Users\freeman\Documents\work\NBK\Nikon\Nikon_R /
//                          f\SimpliciTI-IAR-1.2.0\Projects\Examples\SRF05_80 /
//                          51\nik_sb5000\IAR\..\..\..\..\..\Components\STACK /
//                          \SAPI\ -I C:\Users\freeman\Documents\work\NBK\Nik /
//                          on\Nikon_Rf\SimpliciTI-IAR-1.2.0\Projects\Example /
//                          s\SRF05_8051\nik_sb5000\IAR\..\..\..\..\..\Compon /
//                          ents\STACK\SYS\ -I C:\Users\freeman\Documents\wor /
//                          k\NBK\Nikon\Nikon_Rf\SimpliciTI-IAR-1.2.0\Project /
//                          s\Examples\SRF05_8051\nik_sb5000\IAR\..\..\..\..\ /
//                          ..\Components\STACK\ZDO\ -I                       /
//                          C:\Users\freeman\Documents\work\NBK\Nikon\Nikon_R /
//                          f\SimpliciTI-IAR-1.2.0\Projects\Examples\SRF05_80 /
//                          51\nik_sb5000\IAR\..\..\..\..\..\Components\MAC\I /
//                          NCLUDE\ -I C:\Users\freeman\Documents\work\NBK\Ni /
//                          kon\Nikon_Rf\SimpliciTI-IAR-1.2.0\Projects\Exampl /
//                          es\SRF05_8051\nik_sb5000\IAR\..\..\..\..\..\Compo /
//                          nents\MAC\HIGH_LEVEL\ -I                          /
//                          C:\Users\freeman\Documents\work\NBK\Nikon\Nikon_R /
//                          f\SimpliciTI-IAR-1.2.0\Projects\Examples\SRF05_80 /
//                          51\nik_sb5000\IAR\..\..\..\..\..\Components\MAC\L /
//                          OW_LEVEL\srf04\ -I C:\Users\freeman\Documents\wor /
//                          k\NBK\Nikon\Nikon_Rf\SimpliciTI-IAR-1.2.0\Project /
//                          s\Examples\SRF05_8051\nik_sb5000\IAR\..\..\..\..\ /
//                          ..\Components\MAC\LOW_LEVEL\srf04\SINGLE_CHIP\    /
//                          -Ohz --require_prototypes                         /
//    List file          =  C:\Users\freeman\Documents\work\NBK\Nikon\Nikon_R /
//                          f\SimpliciTI-IAR-1.2.0\Projects\Examples\SRF05_80 /
//                          51\nik_sb5000\IAR\LinkTo\List\mac_mcu.s51         /
//                                                                            /
//                                                                            /
///////////////////////////////////////////////////////////////////////////////

        NAME mac_mcu

        RTMODEL "__SystemLibrary", "CLib"
        RTMODEL "__calling_convention", "xdata_reentrant"
        RTMODEL "__code_model", "banked"
        RTMODEL "__core", "plain"
        RTMODEL "__data_model", "large"
        RTMODEL "__dptr_size", "16"
        RTMODEL "__extended_stack", "disabled"
        RTMODEL "__location_for_constants", "data"
        RTMODEL "__number_of_dptrs", "1"
        RTMODEL "__rt_version", "1"

        RSEG DOVERLAY:DATA:NOROOT(0)
        RSEG IOVERLAY:IDATA:NOROOT(0)
        RSEG ISTACK:IDATA:NOROOT(0)
        RSEG PSTACK:XDATA:NOROOT(0)
        RSEG XSTACK:XDATA:NOROOT(0)

        EXTERN ?ALLOC_XSTACK8
        EXTERN ?BANKED_ENTER_XDATA
        EXTERN ?BANKED_LEAVE_XDATA
        EXTERN ?BDISPATCH
        EXTERN ?BRET
        EXTERN ?CALL_IND
        EXTERN ?DEALLOC_XSTACK8
        EXTERN ?INTERRUPT_ENTER_XSP
        EXTERN ?INTERRUPT_LEAVE_XSP
        EXTERN ?L_ADD_X
        EXTERN ?L_AND_X
        EXTERN ?L_MOV_TO_X
        EXTERN ?L_MOV_X
        EXTERN ?L_SUB_X
        EXTERN ?POP_BIT_ISP
        EXTERN ?UL_GT_X
        EXTERN ?V0
        EXTERN ?XLOAD_R2345
        EXTERN ?XSP
        EXTERN ?XSTACK_DISP0_8
        EXTERN __INIT_XDATA_I
        EXTERN __INIT_XDATA_Z

        PUBLIC ??MAC_SetRandomSeedCB?relay
        FUNCTION ??MAC_SetRandomSeedCB?relay,0203H
        PUBLIC ??macMcuInit?relay
        FUNCTION ??macMcuInit?relay,0203H
        PUBLIC ??macMcuOverflowCapture?relay
        FUNCTION ??macMcuOverflowCapture?relay,0203H
        PUBLIC ??macMcuOverflowCount?relay
        FUNCTION ??macMcuOverflowCount?relay,0203H
        PUBLIC ??macMcuOverflowSetCompare?relay
        FUNCTION ??macMcuOverflowSetCompare?relay,0203H
        PUBLIC ??macMcuOverflowSetCount?relay
        FUNCTION ??macMcuOverflowSetCount?relay,0203H
        PUBLIC ??macMcuPrecisionCount?relay
        FUNCTION ??macMcuPrecisionCount?relay,0203H
        PUBLIC ??macMcuRandomByte?relay
        FUNCTION ??macMcuRandomByte?relay,0203H
        PUBLIC ??macMcuRandomWord?relay
        FUNCTION ??macMcuRandomWord?relay,0203H
        PUBLIC ??macMcuRecordMaxRssiStart?relay
        FUNCTION ??macMcuRecordMaxRssiStart?relay,0203H
        PUBLIC ??macMcuRecordMaxRssiStop?relay
        FUNCTION ??macMcuRecordMaxRssiStop?relay,0203H
        PUBWEAK `??macMcuRfErrIsr??INTVEC 3`
        PUBWEAK `??macMcuTimer2Isr??INTVEC 83`
        PUBLIC ??macMcuTimer2OverflowWorkaround?relay
        FUNCTION ??macMcuTimer2OverflowWorkaround?relay,0203H
        PUBLIC ??macMcuTimerCapture?relay
        FUNCTION ??macMcuTimerCapture?relay,0203H
        PUBLIC ??macMcuTimerForceDelay?relay
        FUNCTION ??macMcuTimerForceDelay?relay,0203H
        PUBWEAK ADCCON1
        PUBWEAK IEN2
        PUBWEAK IP0
        PUBWEAK IP1
        PUBLIC MAC_SetRandomSeedCB
        FUNCTION MAC_SetRandomSeedCB,0203H
        ARGFRAME XSTACK, 0, STACK
        LOCFRAME ISTACK, 2, STACK
        PUBWEAK RFERRF
        PUBWEAK RNDH
        PUBWEAK RNDL
        PUBWEAK T2CTRL
        PUBWEAK T2IRQF
        PUBWEAK T2IRQM
        PUBWEAK T2M0
        PUBWEAK T2M1
        PUBWEAK T2MOVF0
        PUBWEAK T2MOVF1
        PUBWEAK T2MOVF2
        PUBWEAK T2MSEL
        PUBWEAK _A_IEN0
        PUBWEAK _A_IEN1
        PUBWEAK __Constant_ff000000
        PUBLIC macChipVersion
        PUBLIC macMcuInit
        FUNCTION macMcuInit,021203H
        ARGFRAME XSTACK, 0, STACK
        LOCFRAME ISTACK, 1, STACK
        LOCFRAME XSTACK, 26, STACK
        PUBLIC macMcuOverflowCapture
        FUNCTION macMcuOverflowCapture,0203H
        ARGFRAME XSTACK, 0, STACK
        LOCFRAME ISTACK, 3, STACK
        LOCFRAME XSTACK, 4, STACK
        PUBLIC macMcuOverflowCount
        FUNCTION macMcuOverflowCount,0203H
        ARGFRAME XSTACK, 16, STACK
        ARGFRAME IOVERLAY, 0, STATIC
        ARGFRAME DOVERLAY, 0, STATIC
        LOCFRAME ISTACK, 3, STACK
        LOCFRAME XSTACK, 4, STACK
        PUBLIC macMcuOverflowSetCompare
        FUNCTION macMcuOverflowSetCompare,021203H
        ARGFRAME XSTACK, 0, STACK
        LOCFRAME XSTACK, 16, STACK
        PUBLIC macMcuOverflowSetCount
        FUNCTION macMcuOverflowSetCount,021203H
        ARGFRAME XSTACK, 0, STACK
        LOCFRAME ISTACK, 2, STACK
        LOCFRAME XSTACK, 16, STACK
        PUBLIC macMcuPrecisionCount
        FUNCTION macMcuPrecisionCount,0203H
        ARGFRAME XSTACK, 0, STACK
        LOCFRAME ISTACK, 2, STACK
        LOCFRAME XSTACK, 14, STACK
        PUBLIC macMcuRandomByte
        FUNCTION macMcuRandomByte,0203H
        ARGFRAME XSTACK, 0, STACK
        PUBLIC macMcuRandomWord
        FUNCTION macMcuRandomWord,0203H
        ARGFRAME XSTACK, 0, STACK
        LOCFRAME ISTACK, 2, STACK
        PUBLIC macMcuRecordMaxRssiStart
        FUNCTION macMcuRecordMaxRssiStart,0203H
        ARGFRAME XSTACK, 0, STACK
        LOCFRAME ISTACK, 2, STACK
        PUBLIC macMcuRecordMaxRssiStop
        FUNCTION macMcuRecordMaxRssiStop,0203H
        ARGFRAME XSTACK, 0, STACK
        LOCFRAME ISTACK, 2, STACK
        PUBLIC macMcuRfErrIsr
        FUNCTION macMcuRfErrIsr,021233H
        ARGFRAME XSTACK, 0, STACK
        LOCFRAME XSTACK, 14, STACK
        PUBLIC macMcuTimer2Isr
        FUNCTION macMcuTimer2Isr,021233H
        ARGFRAME XSTACK, 0, STACK
        LOCFRAME ISTACK, 1, STACK
        LOCFRAME XSTACK, 14, STACK
        PUBLIC macMcuTimer2OverflowWorkaround
        FUNCTION macMcuTimer2OverflowWorkaround,021203H
        ARGFRAME XSTACK, 0, STACK
        LOCFRAME ISTACK, 2, STACK
        LOCFRAME XSTACK, 16, STACK
        PUBLIC macMcuTimerCapture
        FUNCTION macMcuTimerCapture,0203H
        ARGFRAME XSTACK, 0, STACK
        LOCFRAME ISTACK, 2, STACK
        PUBLIC macMcuTimerForceDelay
        FUNCTION macMcuTimerForceDelay,0203H
        ARGFRAME XSTACK, 0, STACK
        
        CFI Names cfiNames0
        CFI StackFrame CFA_SP SP IDATA
        CFI StackFrame CFA_PSP16 PSP16 XDATA
        CFI StackFrame CFA_XSP16 XSP16 XDATA
        CFI StaticOverlayFrame CFA_IOVERLAY IOVERLAY
        CFI StaticOverlayFrame CFA_DOVERLAY DOVERLAY
        CFI Resource `PSW.CY`:1, `B.BR0`:1, `B.BR1`:1, `B.BR2`:1, `B.BR3`:1
        CFI Resource `B.BR4`:1, `B.BR5`:1, `B.BR6`:1, `B.BR7`:1, `VB.BR8`:1
        CFI Resource `VB.BR9`:1, `VB.BR10`:1, `VB.BR11`:1, `VB.BR12`:1
        CFI Resource `VB.BR13`:1, `VB.BR14`:1, `VB.BR15`:1, VB:8, B:8, A:8
        CFI Resource PSW:8, DPL0:8, DPH0:8, R0:8, R1:8, R2:8, R3:8, R4:8, R5:8
        CFI Resource R6:8, R7:8, V0:8, V1:8, V2:8, V3:8, V4:8, V5:8, V6:8, V7:8
        CFI Resource V8:8, V9:8, V10:8, V11:8, V12:8, V13:8, V14:8, V15:8, SP:8
        CFI Resource PSPH:8, PSPL:8, PSP16:16, XSPH:8, XSPL:8, XSP16:16
        CFI VirtualResource ?RET:24
        CFI Resource ?BRET_EXT:8
        CFI VirtualResource ?RET_HIGH:8, ?RET_LOW:8
        CFI ResourceParts PSP16 PSPH, PSPL
        CFI ResourceParts XSP16 XSPH, XSPL
        CFI ResourceParts ?RET ?BRET_EXT, ?RET_HIGH, ?RET_LOW
        CFI EndNames cfiNames0
        
        CFI Common cfiCommon0 Using cfiNames0
        CFI CodeAlign 1
        CFI DataAlign -1
        CFI ReturnAddress ?RET CODE
        CFI CFA_DOVERLAY Used
        CFI CFA_IOVERLAY Used
        CFI CFA_SP SP+-3
        CFI CFA_PSP16 PSP16+0
        CFI CFA_XSP16 XSP16+0
        CFI `PSW.CY` SameValue
        CFI `B.BR0` SameValue
        CFI `B.BR1` SameValue
        CFI `B.BR2` SameValue
        CFI `B.BR3` SameValue
        CFI `B.BR4` SameValue
        CFI `B.BR5` SameValue
        CFI `B.BR6` SameValue
        CFI `B.BR7` SameValue
        CFI `VB.BR8` SameValue
        CFI `VB.BR9` SameValue
        CFI `VB.BR10` SameValue
        CFI `VB.BR11` SameValue
        CFI `VB.BR12` SameValue
        CFI `VB.BR13` SameValue
        CFI `VB.BR14` SameValue
        CFI `VB.BR15` SameValue
        CFI VB SameValue
        CFI B Undefined
        CFI A Undefined
        CFI PSW SameValue
        CFI DPL0 SameValue
        CFI DPH0 SameValue
        CFI R0 Undefined
        CFI R1 Undefined
        CFI R2 Undefined
        CFI R3 Undefined
        CFI R4 Undefined
        CFI R5 Undefined
        CFI R6 SameValue
        CFI R7 SameValue
        CFI V0 SameValue
        CFI V1 SameValue
        CFI V2 SameValue
        CFI V3 SameValue
        CFI V4 SameValue
        CFI V5 SameValue
        CFI V6 SameValue
        CFI V7 SameValue
        CFI V8 SameValue
        CFI V9 SameValue
        CFI V10 SameValue
        CFI V11 SameValue
        CFI V12 SameValue
        CFI V13 SameValue
        CFI V14 SameValue
        CFI V15 SameValue
        CFI PSPH Undefined
        CFI PSPL Undefined
        CFI XSPH Undefined
        CFI XSPL Undefined
        CFI ?RET Concat
        CFI ?BRET_EXT Frame(CFA_SP, 3)
        CFI ?RET_HIGH Frame(CFA_SP, 2)
        CFI ?RET_LOW Frame(CFA_SP, 1)
        CFI EndCommon cfiCommon0
        
        
        CFI Common cfiCommon1 Using cfiNames0
        CFI CodeAlign 1
        CFI DataAlign -1
        CFI ReturnAddress ?RET CODE
        CFI CFA_DOVERLAY Used
        CFI CFA_IOVERLAY Used
        CFI CFA_SP SP+-2
        CFI CFA_PSP16 PSP16+0
        CFI CFA_XSP16 XSP16+0
        CFI `PSW.CY` SameValue
        CFI `B.BR0` SameValue
        CFI `B.BR1` SameValue
        CFI `B.BR2` SameValue
        CFI `B.BR3` SameValue
        CFI `B.BR4` SameValue
        CFI `B.BR5` SameValue
        CFI `B.BR6` SameValue
        CFI `B.BR7` SameValue
        CFI `VB.BR8` SameValue
        CFI `VB.BR9` SameValue
        CFI `VB.BR10` SameValue
        CFI `VB.BR11` SameValue
        CFI `VB.BR12` SameValue
        CFI `VB.BR13` SameValue
        CFI `VB.BR14` SameValue
        CFI `VB.BR15` SameValue
        CFI VB SameValue
        CFI B SameValue
        CFI A SameValue
        CFI PSW SameValue
        CFI DPL0 SameValue
        CFI DPH0 SameValue
        CFI R0 SameValue
        CFI R1 SameValue
        CFI R2 SameValue
        CFI R3 SameValue
        CFI R4 SameValue
        CFI R5 SameValue
        CFI R6 SameValue
        CFI R7 SameValue
        CFI V0 SameValue
        CFI V1 SameValue
        CFI V2 SameValue
        CFI V3 SameValue
        CFI V4 SameValue
        CFI V5 SameValue
        CFI V6 SameValue
        CFI V7 SameValue
        CFI V8 SameValue
        CFI V9 SameValue
        CFI V10 SameValue
        CFI V11 SameValue
        CFI V12 SameValue
        CFI V13 SameValue
        CFI V14 SameValue
        CFI V15 SameValue
        CFI PSPH Undefined
        CFI PSPL Undefined
        CFI XSPH Undefined
        CFI XSPL Undefined
        CFI ?RET Concat
        CFI ?BRET_EXT SameValue
        CFI ?RET_HIGH Frame(CFA_SP, 2)
        CFI ?RET_LOW Frame(CFA_SP, 1)
        CFI EndCommon cfiCommon1
        
macRxOn             SYMBOL "macRxOn"
macRxOff            SYMBOL "macRxOff"
halAssertHandler    SYMBOL "halAssertHandler"
macBackoffTimerCompareIsr SYMBOL "macBackoffTimerCompareIsr"
macRxFifoOverflowIsr SYMBOL "macRxFifoOverflowIsr"
??halAssertHandler?relay SYMBOL "?relay", halAssertHandler
??macBackoffTimerCompareIsr?relay SYMBOL "?relay", macBackoffTimerCompareIsr
??macRxFifoOverflowIsr?relay SYMBOL "?relay", macRxFifoOverflowIsr
??macRxOff?relay    SYMBOL "?relay", macRxOff
??macRxOn?relay     SYMBOL "?relay", macRxOn
MAC_SetRandomSeedCB SYMBOL "MAC_SetRandomSeedCB"
??MAC_SetRandomSeedCB?relay SYMBOL "?relay", MAC_SetRandomSeedCB
macMcuInit          SYMBOL "macMcuInit"
??macMcuInit?relay  SYMBOL "?relay", macMcuInit
macMcuOverflowCapture SYMBOL "macMcuOverflowCapture"
??macMcuOverflowCapture?relay SYMBOL "?relay", macMcuOverflowCapture
macMcuOverflowCount SYMBOL "macMcuOverflowCount"
??macMcuOverflowCount?relay SYMBOL "?relay", macMcuOverflowCount
macMcuOverflowSetCompare SYMBOL "macMcuOverflowSetCompare"
??macMcuOverflowSetCompare?relay SYMBOL "?relay", macMcuOverflowSetCompare
macMcuOverflowSetCount SYMBOL "macMcuOverflowSetCount"
??macMcuOverflowSetCount?relay SYMBOL "?relay", macMcuOverflowSetCount
macMcuPrecisionCount SYMBOL "macMcuPrecisionCount"
??macMcuPrecisionCount?relay SYMBOL "?relay", macMcuPrecisionCount
macMcuRandomByte    SYMBOL "macMcuRandomByte"
??macMcuRandomByte?relay SYMBOL "?relay", macMcuRandomByte
macMcuRandomWord    SYMBOL "macMcuRandomWord"
??macMcuRandomWord?relay SYMBOL "?relay", macMcuRandomWord
macMcuRecordMaxRssiStart SYMBOL "macMcuRecordMaxRssiStart"
??macMcuRecordMaxRssiStart?relay SYMBOL "?relay", macMcuRecordMaxRssiStart
macMcuRecordMaxRssiStop SYMBOL "macMcuRecordMaxRssiStop"
??macMcuRecordMaxRssiStop?relay SYMBOL "?relay", macMcuRecordMaxRssiStop
macMcuRfErrIsr      SYMBOL "macMcuRfErrIsr"
`??macMcuRfErrIsr??INTVEC 3` SYMBOL "??INTVEC 3", macMcuRfErrIsr
macMcuTimer2Isr     SYMBOL "macMcuTimer2Isr"
`??macMcuTimer2Isr??INTVEC 83` SYMBOL "??INTVEC 83", macMcuTimer2Isr
macMcuTimer2OverflowWorkaround SYMBOL "macMcuTimer2OverflowWorkaround"
??macMcuTimer2OverflowWorkaround?relay SYMBOL "?relay", macMcuTimer2OverflowWorkaround
macMcuTimerCapture  SYMBOL "macMcuTimerCapture"
??macMcuTimerCapture?relay SYMBOL "?relay", macMcuTimerCapture
macMcuTimerForceDelay SYMBOL "macMcuTimerForceDelay"
??macMcuTimerForceDelay?relay SYMBOL "?relay", macMcuTimerForceDelay

        EXTERN macRxOn
        FUNCTION macRxOn,0202H
        ARGFRAME ISTACK, 0, STACK
        ARGFRAME PSTACK, 0, STACK
        ARGFRAME XSTACK, 26, STACK
        ARGFRAME IOVERLAY, 0, STATIC
        ARGFRAME DOVERLAY, 0, STATIC
        EXTERN macRxOff
        FUNCTION macRxOff,0202H
        ARGFRAME ISTACK, 0, STACK
        ARGFRAME PSTACK, 0, STACK
        ARGFRAME XSTACK, 26, STACK
        ARGFRAME IOVERLAY, 0, STATIC
        ARGFRAME DOVERLAY, 0, STATIC
        EXTERN halAssertHandler
        FUNCTION halAssertHandler,0202H
        ARGFRAME ISTACK, 0, STACK
        ARGFRAME PSTACK, 0, STACK
        ARGFRAME XSTACK, 16, STACK
        ARGFRAME IOVERLAY, 0, STATIC
        ARGFRAME DOVERLAY, 0, STATIC
        EXTERN macBackoffTimerCompareIsr
        FUNCTION macBackoffTimerCompareIsr,0202H
        ARGFRAME ISTACK, 0, STACK
        ARGFRAME PSTACK, 0, STACK
        ARGFRAME XSTACK, 16, STACK
        ARGFRAME IOVERLAY, 0, STATIC
        ARGFRAME DOVERLAY, 0, STATIC
        EXTERN macRxFifoOverflowIsr
        FUNCTION macRxFifoOverflowIsr,0202H
        ARGFRAME ISTACK, 0, STACK
        ARGFRAME PSTACK, 0, STACK
        ARGFRAME XSTACK, 14, STACK
        ARGFRAME IOVERLAY, 0, STATIC
        ARGFRAME DOVERLAY, 0, STATIC
        EXTERN ??halAssertHandler?relay
        FUNCTION ??halAssertHandler?relay,00H
        EXTERN ??macBackoffTimerCompareIsr?relay
        FUNCTION ??macBackoffTimerCompareIsr?relay,00H
        EXTERN ??macRxFifoOverflowIsr?relay
        FUNCTION ??macRxFifoOverflowIsr?relay,00H
        EXTERN ??macRxOff?relay
        FUNCTION ??macRxOff?relay,00H
        EXTERN ??macRxOn?relay
        FUNCTION ??macRxOn?relay,00H

// C:\Users\freeman\Documents\work\NBK\Nikon\Nikon_Rf\SimpliciTI-IAR-1.2.0\Components\mac\low_level\srf04\single_chip\mac_mcu.c
//    1 /**************************************************************************************************
//    2   Filename:       mac_mcu.c
//    3   Revised:        $Date: 2010-01-08 14:36:19 -0800 (Fri, 08 Jan 2010) $
//    4   Revision:       $Revision: 21466 $
//    5 
//    6   Description:    Describe the purpose and contents of the file.
//    7 
//    8 
//    9   Copyright 2006-2010 Texas Instruments Incorporated. All rights reserved.
//   10 
//   11   IMPORTANT: Your use of this Software is limited to those specific rights
//   12   granted under the terms of a software license agreement between the user
//   13   who downloaded the software, his/her employer (which must be your employer)
//   14   and Texas Instruments Incorporated (the "License").  You may not use this
//   15   Software unless you agree to abide by the terms of the License. The License
//   16   limits your use, and you acknowledge, that the Software may not be modified,
//   17   copied or distributed unless embedded on a Texas Instruments microcontroller
//   18   or used solely and exclusively in conjunction with a Texas Instruments radio
//   19   frequency transceiver, which is integrated into your product.  Other than for
//   20   the foregoing purpose, you may not use, reproduce, copy, prepare derivative
//   21   works of, modify, distribute, perform, display or sell this Software and/or
//   22   its documentation for any purpose.
//   23 
//   24   YOU FURTHER ACKNOWLEDGE AND AGREE THAT THE SOFTWARE AND DOCUMENTATION ARE
//   25   PROVIDED AS IS?WITHOUT WARRANTY OF ANY KIND, EITHER EXPRESS OR IMPLIED,
//   26   INCLUDING WITHOUT LIMITATION, ANY WARRANTY OF MERCHANTABILITY, TITLE,
//   27   NON-INFRINGEMENT AND FITNESS FOR A PARTICULAR PURPOSE. IN NO EVENT SHALL
//   28   TEXAS INSTRUMENTS OR ITS LICENSORS BE LIABLE OR OBLIGATED UNDER CONTRACT,
//   29   NEGLIGENCE, STRICT LIABILITY, CONTRIBUTION, BREACH OF WARRANTY, OR OTHER
//   30   LEGAL EQUITABLE THEORY ANY DIRECT OR INDIRECT DAMAGES OR EXPENSES
//   31   INCLUDING BUT NOT LIMITED TO ANY INCIDENTAL, SPECIAL, INDIRECT, PUNITIVE
//   32   OR CONSEQUENTIAL DAMAGES, LOST PROFITS OR LOST DATA, COST OF PROCUREMENT
//   33   OF SUBSTITUTE GOODS, TECHNOLOGY, SERVICES, OR ANY CLAIMS BY THIRD PARTIES
//   34   (INCLUDING BUT NOT LIMITED TO ANY DEFENSE THEREOF), OR OTHER SIMILAR COSTS.
//   35 
//   36   Should you have any questions regarding your right to use this Software,
//   37   contact Texas Instruments Incorporated at www.TI.com.
//   38 **************************************************************************************************/
//   39 
//   40 /* ------------------------------------------------------------------------------------------------
//   41  *                                          Includes
//   42  * ------------------------------------------------------------------------------------------------
//   43  */
//   44 
//   45 /* hal */
//   46 #include "hal_defs.h"
//   47 #include "hal_mcu.h"

        ASEGN SFR_AN:DATA:NOROOT,094H
// unsigned char volatile __sfr T2CTRL
T2CTRL:
        DATA8
        DS 1

        ASEGN SFR_AN:DATA:NOROOT,09aH
// unsigned char volatile __sfr IEN2
IEN2:
        DATA8
        DS 1

        ASEGN SFR_AN:DATA:NOROOT,0a1H
// unsigned char volatile __sfr T2IRQF
T2IRQF:
        DATA8
        DS 1

        ASEGN SFR_AN:DATA:NOROOT,0a2H
// unsigned char volatile __sfr T2M0
T2M0:
        DATA8
        DS 1

        ASEGN SFR_AN:DATA:NOROOT,0a3H
// unsigned char volatile __sfr T2M1
T2M1:
        DATA8
        DS 1

        ASEGN SFR_AN:DATA:NOROOT,0a4H
// unsigned char volatile __sfr T2MOVF0
T2MOVF0:
        DATA8
        DS 1

        ASEGN SFR_AN:DATA:NOROOT,0a5H
// unsigned char volatile __sfr T2MOVF1
T2MOVF1:
        DATA8
        DS 1

        ASEGN SFR_AN:DATA:NOROOT,0a6H
// unsigned char volatile __sfr T2MOVF2
T2MOVF2:
        DATA8
        DS 1

        ASEGN SFR_AN:DATA:NOROOT,0a7H
// unsigned char volatile __sfr T2IRQM
T2IRQM:
        DATA8
        DS 1

        ASEGN SFR_AN:DATA:NOROOT,0a8H
// union <unnamed> volatile __sfr _A_IEN0
_A_IEN0:
        DATA8
        DS 1

        ASEGN SFR_AN:DATA:NOROOT,0a9H
// unsigned char volatile __sfr IP0
IP0:
        DATA8
        DS 1

        ASEGN SFR_AN:DATA:NOROOT,0b4H
// unsigned char volatile __sfr ADCCON1
ADCCON1:
        DATA8
        DS 1

        ASEGN SFR_AN:DATA:NOROOT,0b8H
// union <unnamed> volatile __sfr _A_IEN1
_A_IEN1:
        DATA8
        DS 1

        ASEGN SFR_AN:DATA:NOROOT,0b9H
// unsigned char volatile __sfr IP1
IP1:
        DATA8
        DS 1

        ASEGN SFR_AN:DATA:NOROOT,0bcH
// unsigned char volatile __sfr RNDL
RNDL:
        DATA8
        DS 1

        ASEGN SFR_AN:DATA:NOROOT,0bdH
// unsigned char volatile __sfr RNDH
RNDH:
        DATA8
        DS 1

        ASEGN SFR_AN:DATA:NOROOT,0bfH
// unsigned char volatile __sfr RFERRF
RFERRF:
        DATA8
        DS 1

        ASEGN SFR_AN:DATA:NOROOT,0c3H
// unsigned char volatile __sfr T2MSEL
T2MSEL:
        DATA8
        DS 1
//   48 
//   49 /* low-level specific */
//   50 #include "mac_rx.h"
//   51 #include "mac_tx.h"
//   52 #include "mac_backoff_timer.h"
//   53 #include "mac_csp_tx.h"
//   54 #include "mac_rx_onoff.h"
//   55 #include "mac_low_level.h"
//   56 
//   57 /* target specific */
//   58 #include "mac_mcu.h"
//   59 #include "mac_radio_defs.h"
//   60 
//   61 /* debug */
//   62 #include "mac_assert.h"
//   63 
//   64 
//   65 
//   66 /* ------------------------------------------------------------------------------------------------
//   67  *                                           Defines
//   68  * ------------------------------------------------------------------------------------------------
//   69  */
//   70 
//   71 #if !defined (OSC32K_CRYSTAL_INSTALLED) || (defined (OSC32K_CRYSTAL_INSTALLED) && (OSC32K_CRYSTAL_INSTALLED == TRUE))
//   72 #define T2CNF_BASE_VALUE    (RUN | SYNC)
//   73 #else
//   74 #define T2CNF_BASE_VALUE     RUN
//   75 #endif
//   76 
//   77 /* for optimized indexing of uint32's */
//   78 #if HAL_MCU_LITTLE_ENDIAN()
//   79 #define UINT32_NDX0   0
//   80 #define UINT32_NDX1   1
//   81 #define UINT32_NDX2   2
//   82 #define UINT32_NDX3   3
//   83 #else
//   84 #define UINT32_NDX0   3
//   85 #define UINT32_NDX1   2
//   86 #define UINT32_NDX2   1
//   87 #define UINT32_NDX3   0
//   88 #endif
//   89 
//   90 /* ------------------------------------------------------------------------------------------------
//   91  *                                        Local Variables
//   92  * ------------------------------------------------------------------------------------------------
//   93  */

        RSEG XDATA_Z:XDATA:NOROOT(0)
        DATA8
//   94 uint8       macChipVersion = 0;
macChipVersion:
        DS 1
        REQUIRE __INIT_XDATA_Z

        RSEG XDATA_Z:XDATA:NOROOT(0)
        DATA8
//   95 static int8 maxRssi;
maxRssi:
        DS 1
        REQUIRE __INIT_XDATA_Z

        RSEG XDATA_Z:XDATA:NOROOT(0)
        DATA8
//   96 static int8 rssiRecordFlag=0;
rssiRecordFlag:
        DS 1
        REQUIRE __INIT_XDATA_Z
//   97 
//   98 
//   99 /*
//  100  *  This number is used to calculate the precision count for OSAL timer update. In Beacon mode,
//  101  *  the overflow count may be initialized to zero or to a constant. The "skip" in overflow count
//  102  *  needs to be accounted for in this variable.
//  103  */

        RSEG XDATA_Z:XDATA:NOROOT(0)
        DATA32
//  104 static uint32 accumulatedOverflowCount = 0;
accumulatedOverflowCount:
        DS 4
        REQUIRE __INIT_XDATA_Z
//  105 
//  106 /* Function pointer for the random seed callback */

        RSEG XDATA_Z:XDATA:NOROOT(0)
        DATA16
//  107 static macRNGFcn_t pRandomSeedCB = NULL;
pRandomSeedCB:
        DS 2
        REQUIRE __INIT_XDATA_Z
//  108 /* ------------------------------------------------------------------------------------------------
//  109  *                                       Local Prototypes
//  110  * ------------------------------------------------------------------------------------------------
//  111  */
//  112 static void mcuRecordMaxRssiIsr(void);
//  113 static uint32 macMcuOverflowGetCompare(void);
//  114 
//  115 void MAC_SetRandomSeedCB(macRNGFcn_t pCBFcn);
//  116 
//  117 /**************************************************************************************************
//  118  * @fn          MAC_SetRandomSeedCB
//  119  *
//  120  * @brief       Set the function pointer for the random seed callback.
//  121  *
//  122  * @param       pCBFcn - function pointer of the random seed callback
//  123  *
//  124  * @return      none
//  125  **************************************************************************************************
//  126  */

        RSEG BANKED_CODE:CODE:NOROOT(0)
//  127 void MAC_SetRandomSeedCB(macRNGFcn_t pCBFcn)
MAC_SetRandomSeedCB:
        CFI Block cfiBlock0 Using cfiCommon0
        CFI Function MAC_SetRandomSeedCB
        CODE
//  128 {
        PUSH    DPL
        CFI DPL0 Frame(CFA_SP, 4)
        CFI CFA_SP SP+-4
        PUSH    DPH
        CFI DPH0 Frame(CFA_SP, 5)
        CFI CFA_SP SP+-5
        ; Saved register size: 2
        ; Auto size: 0
//  129   pRandomSeedCB = pCBFcn;
        MOV     DPTR,#pRandomSeedCB
        MOV     A,R2
        MOVX    @DPTR,A
        INC     DPTR
        MOV     A,R3
        MOVX    @DPTR,A
//  130 }
        SJMP    ??Subroutine6_0
        CFI EndBlock cfiBlock0

        RSEG BANKED_CODE:CODE:NOROOT(0)
?Subroutine0:
        CFI Block cfiBlock1 Using cfiCommon0
        CFI NoFunction
        CFI CFA_SP SP+-5
        CFI CFA_XSP16 add(XSP16, 4)
        CFI DPL0 Frame(CFA_SP, 4)
        CFI DPH0 Frame(CFA_SP, 5)
        MOV     A,0xa4
        MOV     DPL,?XSP + 0
        MOV     DPH,?XSP + 1
        MOVX    @DPTR,A
        MOV     A,0xa5
        PUSH    A
        CFI CFA_SP SP+-6
        MOV     A,#0x1
        LCALL   ?XSTACK_DISP0_8
        POP     A
        CFI CFA_SP SP+-5
        MOVX    @DPTR,A
        MOV     A,0xa6
        PUSH    A
        CFI CFA_SP SP+-6
        MOV     A,#0x2
        LCALL   ?XSTACK_DISP0_8
        POP     A
        CFI CFA_SP SP+-5
        MOVX    @DPTR,A
        MOV     A,#0x3
        LCALL   ?XSTACK_DISP0_8
        LCALL   ?Subroutine3 & 0xFFFF
??CrossCallReturnLabel_4:
        LCALL   ?XLOAD_R2345
        MOV     A,#0x4
        LCALL   ?DEALLOC_XSTACK8
        CFI EndBlock cfiBlock1
        REQUIRE ??Subroutine6_0
        ; // Fall through to label ??Subroutine6_0

        RSEG BANKED_CODE:CODE:NOROOT(0)
??Subroutine6_0:
        CFI Block cfiBlock2 Using cfiCommon0
        CFI NoFunction
        CFI CFA_SP SP+-5
        CFI DPL0 Frame(CFA_SP, 4)
        CFI DPH0 Frame(CFA_SP, 5)
        POP     DPH
        CFI CFA_SP SP+-4
        CFI DPH0 SameValue
        POP     DPL
        CFI CFA_SP SP+-3
        CFI DPL0 SameValue
        LJMP    ?BRET
        CFI EndBlock cfiBlock2

        RSEG BANKED_CODE:CODE:NOROOT(0)
?Subroutine3:
        CFI Block cfiCond3 Using cfiCommon0
        CFI NoFunction
        CFI Conditional ??CrossCallReturnLabel_4
        CFI DPL0 Frame(CFA_SP, 4)
        CFI DPH0 Frame(CFA_SP, 5)
        CFI CFA_SP SP+-5
        CFI CFA_XSP16 add(XSP16, 4)
        CFI Block cfiCond4 Using cfiCommon0
        CFI (cfiCond4) NoFunction
        CFI (cfiCond4) Conditional ??CrossCallReturnLabel_4
        CFI (cfiCond4) DPL0 Frame(CFA_SP, 4)
        CFI (cfiCond4) DPH0 Frame(CFA_SP, 5)
        CFI (cfiCond4) CFA_SP SP+-5
        CFI (cfiCond4) CFA_XSP16 add(XSP16, 4)
        CFI Block cfiCond5 Using cfiCommon0
        CFI (cfiCond5) NoFunction
        CFI (cfiCond5) Conditional ??CrossCallReturnLabel_5
        CFI (cfiCond5) R6 load(1, XDATA, add(CFA_XSP16, literal(-12)))
        CFI (cfiCond5) VB load(1, XDATA, add(CFA_XSP16, literal(-11)))
        CFI (cfiCond5) V0 load(1, XDATA, add(CFA_XSP16, literal(-10)))
        CFI (cfiCond5) V1 load(1, XDATA, add(CFA_XSP16, literal(-9)))
        CFI (cfiCond5) V2 load(1, XDATA, add(CFA_XSP16, literal(-8)))
        CFI (cfiCond5) V3 load(1, XDATA, add(CFA_XSP16, literal(-7)))
        CFI (cfiCond5) R7 load(1, XDATA, add(CFA_XSP16, literal(-6)))
        CFI (cfiCond5) ?RET_LOW load(1, XDATA, add(CFA_XSP16, literal(-5)))
        CFI (cfiCond5) ?RET_HIGH load(1, XDATA, add(CFA_XSP16, literal(-4)))
        CFI (cfiCond5) ?BRET_EXT load(1, XDATA, add(CFA_XSP16, literal(-3)))
        CFI (cfiCond5) DPL0 load(1, XDATA, add(CFA_XSP16, literal(-2)))
        CFI (cfiCond5) DPH0 load(1, XDATA, add(CFA_XSP16, literal(-1)))
        CFI (cfiCond5) CFA_SP SP+0
        CFI (cfiCond5) CFA_XSP16 add(XSP16, 16)
        CFI Block cfiPicker6 Using cfiCommon1
        CFI (cfiPicker6) NoFunction
        CFI (cfiPicker6) Picker
        CLR     A
        CFI EndBlock cfiCond3
        CFI EndBlock cfiCond4
        CFI EndBlock cfiCond5
        CFI EndBlock cfiPicker6
        REQUIRE ??Subroutine7_0
        ; // Fall through to label ??Subroutine7_0

        RSEG BANKED_CODE:CODE:NOROOT(0)
??Subroutine7_0:
        CFI Block cfiCond7 Using cfiCommon0
        CFI NoFunction
        CFI Conditional ??CrossCallReturnLabel_6
        CFI R6 load(1, XDATA, add(CFA_XSP16, literal(-12)))
        CFI VB load(1, XDATA, add(CFA_XSP16, literal(-11)))
        CFI V0 load(1, XDATA, add(CFA_XSP16, literal(-10)))
        CFI V1 load(1, XDATA, add(CFA_XSP16, literal(-9)))
        CFI V2 load(1, XDATA, add(CFA_XSP16, literal(-8)))
        CFI V3 load(1, XDATA, add(CFA_XSP16, literal(-7)))
        CFI R7 load(1, XDATA, add(CFA_XSP16, literal(-6)))
        CFI ?RET_LOW load(1, XDATA, add(CFA_XSP16, literal(-5)))
        CFI ?RET_HIGH load(1, XDATA, add(CFA_XSP16, literal(-4)))
        CFI ?BRET_EXT load(1, XDATA, add(CFA_XSP16, literal(-3)))
        CFI DPL0 load(1, XDATA, add(CFA_XSP16, literal(-2)))
        CFI DPH0 load(1, XDATA, add(CFA_XSP16, literal(-1)))
        CFI CFA_SP SP+0
        CFI CFA_XSP16 add(XSP16, 14)
        CFI Block cfiCond8 Using cfiCommon0
        CFI (cfiCond8) NoFunction
        CFI (cfiCond8) Conditional ??CrossCallReturnLabel_4
        CFI (cfiCond8) DPL0 Frame(CFA_SP, 4)
        CFI (cfiCond8) DPH0 Frame(CFA_SP, 5)
        CFI (cfiCond8) CFA_SP SP+-5
        CFI (cfiCond8) CFA_XSP16 add(XSP16, 4)
        CFI Block cfiCond9 Using cfiCommon0
        CFI (cfiCond9) NoFunction
        CFI (cfiCond9) Conditional ??CrossCallReturnLabel_4
        CFI (cfiCond9) DPL0 Frame(CFA_SP, 4)
        CFI (cfiCond9) DPH0 Frame(CFA_SP, 5)
        CFI (cfiCond9) CFA_SP SP+-5
        CFI (cfiCond9) CFA_XSP16 add(XSP16, 4)
        CFI Block cfiCond10 Using cfiCommon0
        CFI (cfiCond10) NoFunction
        CFI (cfiCond10) Conditional ??CrossCallReturnLabel_5
        CFI (cfiCond10) R6 load(1, XDATA, add(CFA_XSP16, literal(-12)))
        CFI (cfiCond10) VB load(1, XDATA, add(CFA_XSP16, literal(-11)))
        CFI (cfiCond10) V0 load(1, XDATA, add(CFA_XSP16, literal(-10)))
        CFI (cfiCond10) V1 load(1, XDATA, add(CFA_XSP16, literal(-9)))
        CFI (cfiCond10) V2 load(1, XDATA, add(CFA_XSP16, literal(-8)))
        CFI (cfiCond10) V3 load(1, XDATA, add(CFA_XSP16, literal(-7)))
        CFI (cfiCond10) R7 load(1, XDATA, add(CFA_XSP16, literal(-6)))
        CFI (cfiCond10) ?RET_LOW load(1, XDATA, add(CFA_XSP16, literal(-5)))
        CFI (cfiCond10) ?RET_HIGH load(1, XDATA, add(CFA_XSP16, literal(-4)))
        CFI (cfiCond10) ?BRET_EXT load(1, XDATA, add(CFA_XSP16, literal(-3)))
        CFI (cfiCond10) DPL0 load(1, XDATA, add(CFA_XSP16, literal(-2)))
        CFI (cfiCond10) DPH0 load(1, XDATA, add(CFA_XSP16, literal(-1)))
        CFI (cfiCond10) CFA_SP SP+0
        CFI (cfiCond10) CFA_XSP16 add(XSP16, 16)
        CFI Block cfiPicker11 Using cfiCommon1
        CFI (cfiPicker11) NoFunction
        CFI (cfiPicker11) Picker
        MOVX    @DPTR,A
        MOV     A,R0
        MOV     C,0xE0 /* A   */.7
        MOV     0xa8.7,C
        MOV     DPL,?XSP + 0
        MOV     DPH,?XSP + 1
        RET
        CFI EndBlock cfiCond7
        CFI EndBlock cfiCond8
        CFI EndBlock cfiCond9
        CFI EndBlock cfiCond10
        CFI EndBlock cfiPicker11
//  131 
//  132 /**************************************************************************************************
//  133  * @fn          macMcuInit
//  134  *
//  135  * @brief       Initialize the MCU.
//  136  *
//  137  * @param       none
//  138  *
//  139  * @return      none
//  140  **************************************************************************************************
//  141  */

        RSEG BANKED_CODE:CODE:NOROOT(0)
//  142 MAC_INTERNAL_API void macMcuInit(void)
macMcuInit:
        CFI Block cfiBlock12 Using cfiCommon0
        CFI Function macMcuInit
        CODE
//  143 {
        FUNCALL macMcuInit, macRxOn
        LOCFRAME ISTACK, 0, STACK
        LOCFRAME PSTACK, 0, STACK
        LOCFRAME XSTACK, 26, STACK
        LOCFRAME IOVERLAY, 0, STATIC
        LOCFRAME DOVERLAY, 0, STATIC
        ARGFRAME ISTACK, 0, STACK
        ARGFRAME PSTACK, 0, STACK
        ARGFRAME XSTACK, 26, STACK
        ARGFRAME IOVERLAY, 0, STATIC
        ARGFRAME DOVERLAY, 0, STATIC
        FUNCALL macMcuInit, macRxOff
        LOCFRAME ISTACK, 0, STACK
        LOCFRAME PSTACK, 0, STACK
        LOCFRAME XSTACK, 26, STACK
        LOCFRAME IOVERLAY, 0, STATIC
        LOCFRAME DOVERLAY, 0, STATIC
        ARGFRAME ISTACK, 0, STACK
        ARGFRAME PSTACK, 0, STACK
        ARGFRAME XSTACK, 26, STACK
        ARGFRAME IOVERLAY, 0, STATIC
        ARGFRAME DOVERLAY, 0, STATIC
        MOV     A,#-0xa
        LCALL   ?BANKED_ENTER_XDATA
        CFI DPH0 load(1, XDATA, add(CFA_XSP16, literal(-1)))
        CFI DPL0 load(1, XDATA, add(CFA_XSP16, literal(-2)))
        CFI ?BRET_EXT load(1, XDATA, add(CFA_XSP16, literal(-3)))
        CFI ?RET_HIGH load(1, XDATA, add(CFA_XSP16, literal(-4)))
        CFI ?RET_LOW load(1, XDATA, add(CFA_XSP16, literal(-5)))
        CFI R7 load(1, XDATA, add(CFA_XSP16, literal(-6)))
        CFI V1 load(1, XDATA, add(CFA_XSP16, literal(-7)))
        CFI V0 load(1, XDATA, add(CFA_XSP16, literal(-8)))
        CFI VB load(1, XDATA, add(CFA_XSP16, literal(-9)))
        CFI R6 load(1, XDATA, add(CFA_XSP16, literal(-10)))
        CFI CFA_SP SP+0
        CFI CFA_XSP16 add(XSP16, 10)
        ; Saved register size: 10
        ; Auto size: 16
        MOV     A,#-0x10
        LCALL   ?ALLOC_XSTACK8
        CFI CFA_XSP16 add(XSP16, 26)
//  144   halIntState_t  s;
//  145 
//  146   /* This CORR_THR value should be changed to 0x14 before attempting RX. Testing has shown that
//  147    * too many false frames are received if the reset value is used. Make it more likely to detect
//  148    * sync by removing the requirement that both symbols in the SFD must have a correlation value
//  149    * above the correlation threshold, and make sync word detection less likely by raising the
//  150    * correlation threshold.
//  151    */
//  152   MDMCTRL1 = CORR_THR;
        MOV     DPTR,#0x61a9
        MOV     A,#0x14
        MOVX    @DPTR,A
//  153 
//  154   /* tuning adjustments for optimal radio performance; details available in datasheet */
//  155   RXCTRL = 0x3F;
        MOV     DPTR,#0x61ab
        MOV     A,#0x3f
        MOVX    @DPTR,A
//  156 
//  157   /* Raises the CCA threshold from about -108dBm to about -80 dBm input level.
//  158    */
//  159   CCACTRL0 = CCA_THR;
        MOV     DPTR,#0x6196
        MOV     A,#-0x8
        MOVX    @DPTR,A
//  160 
//  161   /* Makes sync word detection less likely by requiring two zero symbols before the sync word.
//  162    * details available in datasheet.
//  163    */
//  164   MDMCTRL0 = 0x85;
        MOV     DPTR,#0x61a8
        MOV     A,#-0x7b
        MOVX    @DPTR,A
//  165 
//  166   /* Adjust current in synthesizer; details available in datasheet. */
//  167   FSCTRL = 0x5A;
        MOV     DPTR,#0x61ac
        MOV     A,#0x5a
        MOVX    @DPTR,A
//  168 
//  169   /* Adjust current in VCO; details available in datasheet. */
//  170   FSCAL1 = 0x00;
        MOV     DPTR,#0x61ae
        CLR     A
        MOVX    @DPTR,A
//  171 
//  172   /* Adjust target value for AGC control loop; details available in datasheet. */
//  173   AGCCTRL1 = 0x15;
        MOV     DPTR,#0x61b2
        MOV     A,#0x15
        MOVX    @DPTR,A
//  174 
//  175   /* Disable source address matching an autopend for now */
//  176   SRCMATCH = 0;
        MOV     DPTR,#0x6182
        CLR     A
        MOVX    @DPTR,A
//  177 
//  178   /* Tune ADC performance, details available in datasheet. */
//  179   ADCTEST0 = 0x10;
        MOV     DPTR,#0x61b5
        MOV     A,#0x10
        MOVX    @DPTR,A
//  180   ADCTEST1 = 0x0E;
        INC     DPTR
        MOV     A,#0xe
        MOVX    @DPTR,A
//  181   ADCTEST2 = 0x03;
        INC     DPTR
        MOV     A,#0x3
        MOVX    @DPTR,A
//  182 
//  183   /* Sets TX anti-aliasing filter to appropriate bandwidth.
//  184    * Reduces spurious emissions close to signal.
//  185    */
//  186   TXFILTCFG = TXFILTCFG_RESET_VALUE;
        MOV     DPTR,#0x61fa
        MOV     A,#0x9
        MOVX    @DPTR,A
//  187 
//  188   /* disable the CSPT register compare function */
//  189   CSPT = 0xFF;
        MOV     DPTR,#0x61e5
        MOV     A,#-0x1
        MOVX    @DPTR,A
//  190 
//  191   /* enable general RF interrupts */
//  192   IEN2 |= RFIE;
        ORL     0x9a,#0x1
//  193 
//  194   /* enable general REERR interrupts */
//  195   IEN0 |= RFERRIE;
        SETB    0xa8.0
//  196 
//  197   /* set RF interrupts one notch above lowest priority (four levels available) */
//  198   IP0 |=  IP_RFERR_RF_DMA_BV;
        ORL     0xa9,#0x1
//  199   IP1 &= ~IP_RFERR_RF_DMA_BV;
        ANL     0xb9,#0xfe
//  200 
//  201   /* read chip version */
//  202   macChipVersion = CHVER;
        MOV     DPTR,#0x6249
        MOVX    A,@DPTR
        MOV     DPTR,#macChipVersion
        MOVX    @DPTR,A
//  203 
//  204 #if 1
//  205 
//  206   /*-------------------------------------------------------------------------------
//  207    *  Initialize MAC timer.
//  208    */
//  209 
//  210   /* set timer rollover */
//  211   HAL_ENTER_CRITICAL_SECTION(s);
        MOV     A,0xa8
        CLR     0xa8.7
//  212   MAC_MCU_T2_ACCESS_PERIOD_VALUE();
        MOV     0xc3,#0x2
//  213   T2M0 = MAC_RADIO_TIMER_TICKS_PER_BACKOFF() & 0xFF;
        MOV     0xa2,#0x0
//  214   T2M1 = MAC_RADIO_TIMER_TICKS_PER_BACKOFF() >> 8;
        MOV     0xa3,#0x28
//  215   HAL_EXIT_CRITICAL_SECTION(s);
        MOV     C,0xE0 /* A   */.7
        MOV     0xa8.7,C
//  216 
//  217   /* start timer */
//  218   MAC_RADIO_TIMER_WAKE_UP();				//启动时会经常停在此处，
        ORL     0x94,#0x1
//  219 
//  220   /* Enable latch mode */
//  221   T2CTRL |= LATCH_MODE;
        ORL     0x94,#0x8
//  222 
//  223   /* enable timer interrupts */
//  224  T2IE = 1;
        SETB    0xb8.2
//  225 
//  226 #endif
//  227 
//  228  /*----------------------------------------------------------------------------------------------
//  229   *  Initialize random seed value.
//  230   */
//  231 
//  232   /*
//  233    *  Set radio for infinite reception.  Once radio reaches this state,
//  234    *  it will stay in receive mode regardless RF activity.
//  235    */
//  236   FRMCTRL0 = FRMCTRL0_RESET_VALUE | RX_MODE_INFINITE_RECEPTION;
        MOV     DPTR,#0x6189
        MOV     A,#0x48
        MOVX    @DPTR,A
//  237 
//  238   /* turn on the receiver */
//  239   macRxOn();
        ; Setup parameters for call to function macRxOn
        LCALL   ??macRxOn?relay
//  240 
//  241 
//  242   /*
//  243    *  Wait for radio to reach infinite reception state by checking RSSI valid flag.
//  244    *  Once it does, the least significant bit of ADTSTH should be pretty random.
//  245    */
//  246 
//  247 #if 1			//debug for power up
//  248   while (!(RSSISTAT & 0x01));
??macMcuInit_0:
        MOV     DPTR,#0x6199
        MOVX    A,@DPTR
        MOV     C,0xE0 /* A   */.0
        JNC     ??macMcuInit_0
//  249 
//  250   /* put 16 random bits into the seed value */
//  251   {
//  252     uint16 rndSeed;
//  253     uint8  i;
//  254 
//  255     rndSeed = 0;
        MOV     R0,#0x0
        MOV     R1,#0x0
//  256 
//  257     for(i=0; i<16; i++)
        MOV     R4,#0x10
//  258     {
//  259       /* use most random bit of analog to digital receive conversion to populate the random seed */
//  260       rndSeed = (rndSeed << 1) | (RFRND & 0x01);
??macMcuInit_1:
        MOV     A,R0
        CLR     C
        RLC     A
        MOV     R0,A
        MOV     A,R1
        RLC     A
        MOV     R1,A
        MOV     DPTR,#0x61a7
        MOVX    A,@DPTR
        MOV     C,0xE0 /* A   */.0
        CLR     A
        RLC     A
        MOV     R2,A
        MOV     A,R0
        ORL     A,R2
        MOV     R0,A
//  261     }
        DEC     R4
        MOV     A,R4
        JNZ     ??macMcuInit_1
//  262 
//  263     /*
//  264      *  The seed value must not be zero or 0x0380 (0x8003 in the polynomial).  If it is, the psuedo
//  265      *  random sequence wont be random.  There is an extremely small chance this seed could randomly
//  266      *  be zero or 0x0380.  The following check makes sure this does not happen.
//  267      */
//  268     if (rndSeed == 0x0000 || rndSeed == 0x0380)
        MOV     A,R0
        ORL     A,R1
        JZ      ??macMcuInit_2
        MOV     A,#-0x80
        XRL     A,R0
        JNZ     ??macMcuInit_3
        MOV     A,#0x3
        XRL     A,R1
??macMcuInit_3:
        JNZ     ??macMcuInit_4
//  269     {
//  270       rndSeed = 0xBABE; /* completely arbitrary "random" value */
??macMcuInit_2:
        MOV     R0,#-0x42
        MOV     R1,#-0x46
//  271     }
//  272 
//  273     /*
//  274      *  Two writes to RNDL will set the random seed.  A write to RNDL copies current contents
//  275      *  of RNDL to RNDH before writing new the value to RNDL.
//  276      */
//  277     RNDL = rndSeed & 0xFF;
??macMcuInit_4:
        MOV     A,R0
        MOV     0xbc,A
//  278     RNDL = rndSeed >> 8;
        MOV     A,R1
        MOV     0xbc,A
//  279   }
//  280   
//  281   /* Read 16*8 random bits and store them in flash for future use in random
//  282      key generation for CBKE key establishment */
//  283   if( pRandomSeedCB )
        MOV     DPTR,#pRandomSeedCB
        MOVX    A,@DPTR
        MOV     R0,A
        INC     DPTR
        MOVX    A,@DPTR
        MOV     R1,A
        MOV     A,R0
        ORL     A,R1
        JZ      ??macMcuInit_5
//  284   {
//  285     uint8 randomSeed[MAC_RANDOM_SEED_LEN];
//  286     uint8 i,j;
//  287     
//  288     for(i = 0; i < 16; i++)
        MOV     R0,#0x0
//  289     {
//  290       uint8 rndByte = 0;
??macMcuInit_6:
        MOV     R3,#0x0
//  291       for(j = 0; j < 8; j++)
        MOV     R2,#0x8
//  292       {
//  293         /* use most random bit of analog to digital receive conversion to 
//  294            populate the random seed */
//  295         rndByte = (rndByte << 1) | (RFRND & 0x01);
??macMcuInit_7:
        MOV     DPTR,#0x61a7
        MOVX    A,@DPTR
        MOV     C,0xE0 /* A   */.0
        CLR     A
        RLC     A
        MOV     R1,A
        MOV     A,R3
        RLC     A
        ORL     A,R1
        MOV     R3,A
//  296       }
        DEC     R2
        MOV     A,R2
        JNZ     ??macMcuInit_7
//  297       randomSeed[i] = rndByte;
        MOV     ?V0 + 0,R0
        MOV     DPL,?XSP + 0
        MOV     DPH,?XSP + 1
        MOV     A,DPL
        ADD     A,?V0 + 0
        MOV     DPL,A
        MOV     A,DPH
        ADDC    A,#0x0
        MOV     DPH,A
        MOV     A,R3
        MOVX    @DPTR,A
//  298       
//  299     }
        INC     R0
        MOV     A,R0
        CLR     C
        SUBB    A,#0x10
        JC      ??macMcuInit_6
//  300     pRandomSeedCB( randomSeed ); 
        ; Setup parameters for indirect call
        MOV     DPL,?XSP + 0
        MOV     DPH,?XSP + 1
        MOV     R2,DPL
        MOV     R3,DPH
        MOV     DPTR,#pRandomSeedCB
        MOVX    A,@DPTR
        MOV     R0,A
        INC     DPTR
        MOVX    A,@DPTR
        MOV     DPH,A
        MOV     DPL,R0
        LCALL   ?CALL_IND
//  301   }
//  302 
//  303 #endif
//  304     
//  305   /* turn off the receiver */
//  306   macRxOff();
??macMcuInit_5:
        ; Setup parameters for call to function macRxOff
        LCALL   ??macRxOff?relay
//  307 
//  308   /* take receiver out of infinite reception mode; set back to normal operation */
//  309   FRMCTRL0 = FRMCTRL0_RESET_VALUE | RX_MODE_NORMAL_OPERATION;
        MOV     DPTR,#0x6189
        MOV     A,#0x40
        MOVX    @DPTR,A
//  310 
//  311   /* Turn on autoack */
//  312   MAC_RADIO_TURN_ON_AUTO_ACK();
        MOVX    A,@DPTR
        SETB    0xE0 /* A   */.5
        MOVX    @DPTR,A
//  313 
//  314   /* Initialize SRCEXTPENDEN and SRCSHORTPENDEN to zeros */
//  315   MAC_RADIO_SRC_MATCH_INIT_EXTPENDEN();
        MOV     DPTR,#0x6164
        CLR     A
        MOVX    @DPTR,A
        INC     DPTR
        MOVX    @DPTR,A
        INC     DPTR
        MOVX    @DPTR,A
//  316   MAC_RADIO_SRC_MATCH_INIT_SHORTPENDEN();
        INC     DPTR
        MOVX    @DPTR,A
        INC     DPTR
        MOVX    @DPTR,A
        INC     DPTR
        MOVX    @DPTR,A
//  317 }
        MOV     A,#0x10
        LCALL   ?DEALLOC_XSTACK8
        CFI CFA_XSP16 add(XSP16, 10)
        MOV     R7,#0x2
        LJMP    ?BANKED_LEAVE_XDATA
        CFI EndBlock cfiBlock12
        REQUIRE IEN2
        REQUIRE _A_IEN0
        REQUIRE IP0
        REQUIRE IP1
        REQUIRE T2MSEL
        REQUIRE T2M0
        REQUIRE T2M1
        REQUIRE T2CTRL
        REQUIRE _A_IEN1
        REQUIRE RNDL
//  318 
//  319 
//  320 /**************************************************************************************************
//  321  * @fn          macMcuRandomByte
//  322  *
//  323  * @brief       Returns a random byte using a special hardware feature that generates new
//  324  *              random values based on the truly random seed set earlier.
//  325  *
//  326  * @param       none
//  327  *
//  328  * @return      a random byte
//  329  **************************************************************************************************
//  330  */

        RSEG BANKED_CODE:CODE:NOROOT(0)
//  331 MAC_INTERNAL_API uint8 macMcuRandomByte(void)
macMcuRandomByte:
        CFI Block cfiBlock13 Using cfiCommon0
        CFI Function macMcuRandomByte
        CODE
//  332 {
        ; Saved register size: 0
        ; Auto size: 0
//  333   /* clock the random generator to get a new random value */
//  334   ADCCON1 = (ADCCON1 & ~RCTRL_BITS) | RCTRL_CLOCK_LFSR;
        MOV     A,0xb4
        ANL     A,#0xf3
        ORL     A,#0x4
        MOV     0xb4,A
//  335 
//  336   /* return new randomized value from hardware */
//  337   return(RNDH);
        MOV     R1,0xbd
        LJMP    ?BRET
        CFI EndBlock cfiBlock13
        REQUIRE ADCCON1
        REQUIRE RNDH
//  338 }
//  339 
//  340 
//  341 /**************************************************************************************************
//  342  * @fn          macMcuRandomWord
//  343  *
//  344  * @brief       Returns a random word using a special hardware feature that generates new
//  345  *              random values based on the truly random seed set earlier.
//  346  *
//  347  * @param       none
//  348  *
//  349  * @return      a random word
//  350  **************************************************************************************************
//  351  */

        RSEG BANKED_CODE:CODE:NOROOT(0)
//  352 MAC_INTERNAL_API uint16 macMcuRandomWord(void)
macMcuRandomWord:
        CFI Block cfiBlock14 Using cfiCommon0
        CFI Function macMcuRandomWord
        CODE
//  353 {
        ; Saved register size: 2
        ; Auto size: 0
//  354   uint16 random_word;
//  355 
//  356   /* clock the random generator to get a new random value */
//  357   ADCCON1 = (ADCCON1 & ~RCTRL_BITS) | RCTRL_CLOCK_LFSR;
        MOV     A,0xb4
        ANL     A,#0xf3
        ORL     A,#0x4
        MOV     0xb4,A
//  358 
//  359   /* read random word */
//  360   random_word  = (RNDH << 8);
        MOV     A,0xbd
//  361   random_word +=  RNDL;
//  362 
//  363   /* return new randomized value from hardware */
//  364   return(random_word);
        MOV     R1,A
        MOV     A,0xbc
        MOV     R2,A
        MOV     A,R1
        MOV     R3,A
        LJMP    ?BRET
        CFI EndBlock cfiBlock14
        REQUIRE ADCCON1
        REQUIRE RNDH
        REQUIRE RNDL
//  365 }
//  366 
//  367 
//  368 /**************************************************************************************************
//  369  * @fn          macMcuTimerForceDelay
//  370  *
//  371  * @brief       Delay the timer by the requested number of ticks.
//  372  *
//  373  * @param       none
//  374  *
//  375  * @return      none
//  376  **************************************************************************************************
//  377  */

        RSEG BANKED_CODE:CODE:NOROOT(0)
//  378 MAC_INTERNAL_API void macMcuTimerForceDelay(uint16 x)
macMcuTimerForceDelay:
        CFI Block cfiBlock15 Using cfiCommon0
        CFI Function macMcuTimerForceDelay
        CODE
//  379 {
        ; Saved register size: 0
        ; Auto size: 0
//  380   halIntState_t  s;
//  381 
//  382   HAL_ENTER_CRITICAL_SECTION(s);
        MOV     A,0xa8
        MOV     R0,A
        CLR     0xa8.7
//  383   MAC_MCU_T2_ACCESS_COUNT_VALUE();
        MOV     0xc3,#0x0
//  384   T2M0 = (x) & 0xFF;
        MOV     A,R2
        MOV     0xa2,A
//  385   T2M1 = (x) >> 8;
        MOV     A,R3
        MOV     0xa3,A
//  386   HAL_EXIT_CRITICAL_SECTION(s);
        MOV     A,R0
        MOV     C,0xE0 /* A   */.7
        MOV     0xa8.7,C
//  387 }
        LJMP    ?BRET
        CFI EndBlock cfiBlock15
        REQUIRE _A_IEN0
        REQUIRE T2MSEL
        REQUIRE T2M0
        REQUIRE T2M1
//  388 
//  389 /**************************************************************************************************
//  390  * @fn          macMcuTimerCapture
//  391  *
//  392  * @brief       Returns the last timer capture.  This capture should have occurred at the
//  393  *              receive time of the last frame (the last time SFD transitioned to active).
//  394  *
//  395  * @param       none
//  396  *
//  397  * @return      last capture of hardware timer (full 16-bit value)
//  398  **************************************************************************************************
//  399  */

        RSEG BANKED_CODE:CODE:NOROOT(0)
//  400 MAC_INTERNAL_API uint16 macMcuTimerCapture(void)
macMcuTimerCapture:
        CFI Block cfiBlock16 Using cfiCommon0
        CFI Function macMcuTimerCapture
        CODE
//  401 {
        PUSH    ?V0 + 0
        CFI V0 Frame(CFA_SP, 4)
        CFI CFA_SP SP+-4
        ; Saved register size: 2
        ; Auto size: 0
//  402   uint16         timerCapture;
//  403   halIntState_t  s;
//  404 
//  405   HAL_ENTER_CRITICAL_SECTION(s);
        MOV     A,0xa8
        MOV     R0,A
        CLR     0xa8.7
//  406   MAC_MCU_T2_ACCESS_CAPTURE_VALUE();
        MOV     0xc3,#0x1
//  407   timerCapture = T2M1 << 8;
        MOV     A,0xa3
        MOV     R1,A
//  408   timerCapture |= T2M0;
        MOV     A,0xa2
        MOV     ?V0 + 0,A
//  409   HAL_EXIT_CRITICAL_SECTION(s);
        MOV     A,R0
        MOV     C,0xE0 /* A   */.7
        MOV     0xa8.7,C
//  410 
//  411   return (timerCapture);
        MOV     R2,?V0 + 0
        MOV     A,R1
        MOV     R3,A
        POP     ?V0 + 0
        CFI V0 SameValue
        CFI CFA_SP SP+-3
        LJMP    ?BRET
        CFI EndBlock cfiBlock16
        REQUIRE _A_IEN0
        REQUIRE T2MSEL
        REQUIRE T2M1
        REQUIRE T2M0
//  412 }
//  413 
//  414 
//  415 /**************************************************************************************************
//  416  * @fn          macMcuOverflowCount
//  417  *
//  418  * @brief       Returns the value of the overflow counter which is a special hardware feature.
//  419  *              The overflow count actually is 24 bits of information.
//  420  *
//  421  * @param       none
//  422  *
//  423  * @return      value of overflow counter
//  424  **************************************************************************************************
//  425  */

        RSEG BANKED_CODE:CODE:NOROOT(0)
//  426 MAC_INTERNAL_API uint32 macMcuOverflowCount(void)
macMcuOverflowCount:
        CFI Block cfiBlock17 Using cfiCommon0
        CFI Function macMcuOverflowCount
        CODE
//  427 {
        PUSH    DPL
        CFI DPL0 Frame(CFA_SP, 4)
        CFI CFA_SP SP+-4
        PUSH    DPH
        CFI DPH0 Frame(CFA_SP, 5)
        CFI CFA_SP SP+-5
        ; Saved register size: 2
        ; Auto size: 4
        MOV     A,#-0x4
        LCALL   ?ALLOC_XSTACK8
        CFI CFA_XSP16 add(XSP16, 4)
//  428   uint32         overflowCount;
//  429   halIntState_t  s;
//  430 
//  431   /* for efficiency, the 32-bit value is encoded using endian abstracted indexing */
//  432 
//  433   HAL_ENTER_CRITICAL_SECTION(s);
        MOV     A,0xa8
        MOV     R0,A
        CLR     0xa8.7
//  434 
//  435   /* This T2 access macro allows accessing both T2MOVFx and T2Mx */
//  436   MAC_MCU_T2_ACCESS_OVF_COUNT_VALUE();
        MOV     0xc3,#0x0
//  437 
//  438   /* Latch the entire T2MOVFx first by reading T2M0. */
//  439   T2M0;
        MOV     A,0xa2
//  440   ((uint8 *)&overflowCount)[UINT32_NDX0] = T2MOVF0;
        LJMP    ?Subroutine0 & 0xFFFF
        CFI EndBlock cfiBlock17
        REQUIRE _A_IEN0
        REQUIRE T2MSEL
        REQUIRE T2M0
        REQUIRE T2MOVF0
        REQUIRE T2MOVF1
        REQUIRE T2MOVF2
//  441   ((uint8 *)&overflowCount)[UINT32_NDX1] = T2MOVF1;
//  442   ((uint8 *)&overflowCount)[UINT32_NDX2] = T2MOVF2;
//  443   ((uint8 *)&overflowCount)[UINT32_NDX3] = 0;
//  444   HAL_EXIT_CRITICAL_SECTION(s);
//  445 
//  446   return (overflowCount);
//  447 }
//  448 
//  449 
//  450 /**************************************************************************************************
//  451  * @fn          macMcuOverflowCapture
//  452  *
//  453  * @brief       Returns the last capture of the overflow counter.  A special hardware feature
//  454  *              captures the overflow counter when the regular hardware timer is captured.
//  455  *
//  456  * @param       none
//  457  *
//  458  * @return      last capture of overflow count
//  459  **************************************************************************************************
//  460  */

        RSEG BANKED_CODE:CODE:NOROOT(0)
//  461 MAC_INTERNAL_API uint32 macMcuOverflowCapture(void)
macMcuOverflowCapture:
        CFI Block cfiBlock18 Using cfiCommon0
        CFI Function macMcuOverflowCapture
        CODE
//  462 {
        PUSH    DPL
        CFI DPL0 Frame(CFA_SP, 4)
        CFI CFA_SP SP+-4
        PUSH    DPH
        CFI DPH0 Frame(CFA_SP, 5)
        CFI CFA_SP SP+-5
        ; Saved register size: 2
        ; Auto size: 4
        MOV     A,#-0x4
        LCALL   ?ALLOC_XSTACK8
        CFI CFA_XSP16 add(XSP16, 4)
//  463   uint32         overflowCapture;
//  464   halIntState_t  s;
//  465 
//  466   /* for efficiency, the 32-bit value is encoded using endian abstracted indexing */
//  467   HAL_ENTER_CRITICAL_SECTION(s);
        MOV     A,0xa8
        MOV     R0,A
        CLR     0xa8.7
//  468   MAC_MCU_T2_ACCESS_OVF_CAPTURE_VALUE();
        MOV     0xc3,#0x10
//  469   ((uint8 *)&overflowCapture)[UINT32_NDX0] = T2MOVF0;
        LJMP    ?Subroutine0 & 0xFFFF
        CFI EndBlock cfiBlock18
        REQUIRE _A_IEN0
        REQUIRE T2MSEL
        REQUIRE T2MOVF0
        REQUIRE T2MOVF1
        REQUIRE T2MOVF2
//  470   ((uint8 *)&overflowCapture)[UINT32_NDX1] = T2MOVF1;
//  471   ((uint8 *)&overflowCapture)[UINT32_NDX2] = T2MOVF2;
//  472   ((uint8 *)&overflowCapture)[UINT32_NDX3] = 0;
//  473   HAL_EXIT_CRITICAL_SECTION(s);
//  474 
//  475   return (overflowCapture);
//  476 }
//  477 
//  478 
//  479 /**************************************************************************************************
//  480  * @fn          macMcuOverflowSetCount
//  481  *
//  482  * @brief       Sets the value of the hardware overflow counter.
//  483  *
//  484  * @param       count - new overflow count value
//  485  *
//  486  * @return      none
//  487  **************************************************************************************************
//  488  */

        RSEG BANKED_CODE:CODE:NOROOT(0)
//  489 MAC_INTERNAL_API void macMcuOverflowSetCount(uint32 count)
macMcuOverflowSetCount:
        CFI Block cfiBlock19 Using cfiCommon0
        CFI Function macMcuOverflowSetCount
        CODE
//  490 {
        FUNCALL macMcuOverflowSetCount, halAssertHandler
        LOCFRAME ISTACK, 0, STACK
        LOCFRAME PSTACK, 0, STACK
        LOCFRAME XSTACK, 16, STACK
        LOCFRAME IOVERLAY, 0, STATIC
        LOCFRAME DOVERLAY, 0, STATIC
        ARGFRAME ISTACK, 0, STACK
        ARGFRAME PSTACK, 0, STACK
        ARGFRAME XSTACK, 16, STACK
        ARGFRAME IOVERLAY, 0, STATIC
        ARGFRAME DOVERLAY, 0, STATIC
        FUNCALL macMcuOverflowSetCount, macMcuOverflowCount
        LOCFRAME ISTACK, 2, STACK
        LOCFRAME PSTACK, 0, STACK
        LOCFRAME XSTACK, 16, STACK
        LOCFRAME IOVERLAY, 0, STATIC
        LOCFRAME DOVERLAY, 0, STATIC
        ARGFRAME ISTACK, 2, STACK
        ARGFRAME PSTACK, 0, STACK
        ARGFRAME XSTACK, 16, STACK
        ARGFRAME IOVERLAY, 0, STATIC
        ARGFRAME DOVERLAY, 0, STATIC
        MOV     A,#-0xc
        LCALL   ?BANKED_ENTER_XDATA
        CFI DPH0 load(1, XDATA, add(CFA_XSP16, literal(-1)))
        CFI DPL0 load(1, XDATA, add(CFA_XSP16, literal(-2)))
        CFI ?BRET_EXT load(1, XDATA, add(CFA_XSP16, literal(-3)))
        CFI ?RET_HIGH load(1, XDATA, add(CFA_XSP16, literal(-4)))
        CFI ?RET_LOW load(1, XDATA, add(CFA_XSP16, literal(-5)))
        CFI R7 load(1, XDATA, add(CFA_XSP16, literal(-6)))
        CFI V3 load(1, XDATA, add(CFA_XSP16, literal(-7)))
        CFI V2 load(1, XDATA, add(CFA_XSP16, literal(-8)))
        CFI V1 load(1, XDATA, add(CFA_XSP16, literal(-9)))
        CFI V0 load(1, XDATA, add(CFA_XSP16, literal(-10)))
        CFI VB load(1, XDATA, add(CFA_XSP16, literal(-11)))
        CFI R6 load(1, XDATA, add(CFA_XSP16, literal(-12)))
        CFI CFA_SP SP+0
        CFI CFA_XSP16 add(XSP16, 12)
        ; Saved register size: 12
        ; Auto size: 4
        MOV     A,#-0x4
        LCALL   ?ALLOC_XSTACK8
        CFI CFA_XSP16 add(XSP16, 16)
        LCALL   ?Subroutine5 & 0xFFFF
//  491   halIntState_t  s;
//  492 
//  493   MAC_ASSERT(! (count >> 24) );   /* illegal count value */
??CrossCallReturnLabel_2:
        MOV     DPL,?XSP + 0
        MOV     DPH,?XSP + 1
        MOV     R0,#?V0 + 0
        LCALL   ?L_MOV_X
        MOV     DPTR,#__Constant_ff000000
        MOV     R0,#?V0 + 0
        LCALL   ?L_AND_X
        MOV     A,?V0 + 0
        ORL     A,?V0 + 1
        ORL     A,?V0 + 2
        ORL     A,?V0 + 3
        JZ      ??macMcuOverflowSetCount_0
        ; Setup parameters for call to function halAssertHandler
        LCALL   ??halAssertHandler?relay
//  494 
//  495   /* save the current overflow count */
//  496   accumulatedOverflowCount += macMcuOverflowCount();
//  497 
//  498   /* deduct the initial count */
//  499   accumulatedOverflowCount -= count;
??macMcuOverflowSetCount_0:
        MOV     DPTR,#accumulatedOverflowCount
        PUSH    DPL
        CFI CFA_SP SP+-1
        PUSH    DPH
        CFI CFA_SP SP+-2
        ; Setup parameters for call to function macMcuOverflowCount
        LCALL   ?Subroutine4 & 0xFFFF
??CrossCallReturnLabel_0:
        POP     DPH
        CFI CFA_SP SP+-1
        POP     DPL
        CFI CFA_SP SP+0
        MOV     R0,#?V0 + 0
        LCALL   ?L_ADD_X
        MOV     DPL,?XSP + 0
        MOV     DPH,?XSP + 1
        MOV     R0,#?V0 + 0
        LCALL   ?L_SUB_X
        MOV     DPTR,#accumulatedOverflowCount
        MOV     R0,#?V0 + 0
        LCALL   ?L_MOV_TO_X
//  500 
//  501   HAL_ENTER_CRITICAL_SECTION(s);
        MOV     A,0xa8
        MOV     R0,A
        CLR     0xa8.7
//  502   MAC_MCU_T2_ACCESS_OVF_COUNT_VALUE();
        MOV     0xc3,#0x0
//  503 
//  504   /* for efficiency, the 32-bit value is decoded using endian abstracted indexing */
//  505   /* T2OF2 must be written last */
//  506   T2MOVF0 = ((uint8 *)&count)[UINT32_NDX0];
        MOV     DPL,?XSP + 0
        MOV     DPH,?XSP + 1
        MOVX    A,@DPTR
        MOV     0xa4,A
//  507   T2MOVF1 = ((uint8 *)&count)[UINT32_NDX1];
        MOV     A,#0x1
        LCALL   ?XSTACK_DISP0_8
        MOVX    A,@DPTR
        MOV     0xa5,A
//  508   T2MOVF2 = ((uint8 *)&count)[UINT32_NDX2];
        MOV     A,#0x2
        LCALL   ?XSTACK_DISP0_8
        MOVX    A,@DPTR
        MOV     0xa6,A
//  509   HAL_EXIT_CRITICAL_SECTION(s);
        MOV     A,R0
        MOV     C,0xE0 /* A   */.7
        LJMP    ?Subroutine1 & 0xFFFF
        CFI EndBlock cfiBlock19
        REQUIRE _A_IEN0
        REQUIRE T2MSEL
        REQUIRE T2MOVF0
        REQUIRE T2MOVF1
        REQUIRE T2MOVF2
//  510 }
//  511 
//  512 
//  513 /**************************************************************************************************
//  514  * @fn          macMcuOverflowSetCompare
//  515  *
//  516  * @brief       Set overflow count compare value.  An interrupt is triggered when the overflow
//  517  *              count equals this compare value.
//  518  *
//  519  * @param       count - overflow count compare value
//  520  *
//  521  * @return      none
//  522  **************************************************************************************************
//  523  */

        RSEG BANKED_CODE:CODE:NOROOT(0)
//  524 MAC_INTERNAL_API void macMcuOverflowSetCompare(uint32 count)
macMcuOverflowSetCompare:
        CFI Block cfiBlock20 Using cfiCommon0
        CFI Function macMcuOverflowSetCompare
        CODE
//  525 {
        FUNCALL macMcuOverflowSetCompare, halAssertHandler
        LOCFRAME ISTACK, 0, STACK
        LOCFRAME PSTACK, 0, STACK
        LOCFRAME XSTACK, 16, STACK
        LOCFRAME IOVERLAY, 0, STATIC
        LOCFRAME DOVERLAY, 0, STATIC
        ARGFRAME ISTACK, 0, STACK
        ARGFRAME PSTACK, 0, STACK
        ARGFRAME XSTACK, 16, STACK
        ARGFRAME IOVERLAY, 0, STATIC
        ARGFRAME DOVERLAY, 0, STATIC
        MOV     A,#-0xc
        LCALL   ?BANKED_ENTER_XDATA
        CFI DPH0 load(1, XDATA, add(CFA_XSP16, literal(-1)))
        CFI DPL0 load(1, XDATA, add(CFA_XSP16, literal(-2)))
        CFI ?BRET_EXT load(1, XDATA, add(CFA_XSP16, literal(-3)))
        CFI ?RET_HIGH load(1, XDATA, add(CFA_XSP16, literal(-4)))
        CFI ?RET_LOW load(1, XDATA, add(CFA_XSP16, literal(-5)))
        CFI R7 load(1, XDATA, add(CFA_XSP16, literal(-6)))
        CFI V3 load(1, XDATA, add(CFA_XSP16, literal(-7)))
        CFI V2 load(1, XDATA, add(CFA_XSP16, literal(-8)))
        CFI V1 load(1, XDATA, add(CFA_XSP16, literal(-9)))
        CFI V0 load(1, XDATA, add(CFA_XSP16, literal(-10)))
        CFI VB load(1, XDATA, add(CFA_XSP16, literal(-11)))
        CFI R6 load(1, XDATA, add(CFA_XSP16, literal(-12)))
        CFI CFA_SP SP+0
        CFI CFA_XSP16 add(XSP16, 12)
        ; Saved register size: 12
        ; Auto size: 4
        MOV     A,#-0x4
        LCALL   ?ALLOC_XSTACK8
        CFI CFA_XSP16 add(XSP16, 16)
        LCALL   ?Subroutine5 & 0xFFFF
//  526   halIntState_t  s;
//  527   uint8 enableCompareInt = 0;
??CrossCallReturnLabel_3:
        MOV     R6,#0x0
//  528 
//  529   MAC_ASSERT( !(count >> 24) );   /* illegal count value */
        MOV     DPL,?XSP + 0
        MOV     DPH,?XSP + 1
        MOV     R0,#?V0 + 0
        LCALL   ?L_MOV_X
        MOV     DPTR,#__Constant_ff000000
        MOV     R0,#?V0 + 0
        LCALL   ?L_AND_X
        MOV     A,?V0 + 0
        ORL     A,?V0 + 1
        ORL     A,?V0 + 2
        ORL     A,?V0 + 3
        JZ      ??macMcuOverflowSetCompare_0
        ; Setup parameters for call to function halAssertHandler
        LCALL   ??halAssertHandler?relay
//  530 
//  531   HAL_ENTER_CRITICAL_SECTION(s);
??macMcuOverflowSetCompare_0:
        MOV     C,0xa8.7
        CLR     A
        RLC     A
        MOV     R0,A
        CLR     0xa8.7
//  532 
//  533   /*  Disable overflow compare interrupts. */
//  534   if (T2IRQM & TIMER2_OVF_COMPARE1M)
        MOV     A,0xa7
        MOV     C,0xE0 /* A   */.4
        JNC     ??macMcuOverflowSetCompare_1
//  535   {
//  536     enableCompareInt = 1;
        INC     R6
//  537     T2IRQM &= ~TIMER2_OVF_COMPARE1M;
        ANL     0xa7,#0xef
//  538   }
//  539 
//  540   MAC_MCU_T2_ACCESS_OVF_CMP1_VALUE();
??macMcuOverflowSetCompare_1:
        MOV     0xc3,#0x30
//  541 
//  542   /* for efficiency, the 32-bit value is decoded using endian abstracted indexing */
//  543   T2MOVF0 = ((uint8 *)&count)[UINT32_NDX0];
        MOV     DPL,?XSP + 0
        MOV     DPH,?XSP + 1
        MOVX    A,@DPTR
        MOV     0xa4,A
//  544   T2MOVF1 = ((uint8 *)&count)[UINT32_NDX1];
        MOV     A,#0x1
        LCALL   ?XSTACK_DISP0_8
        MOVX    A,@DPTR
        MOV     0xa5,A
//  545   T2MOVF2 = ((uint8 *)&count)[UINT32_NDX2];
        MOV     A,#0x2
        LCALL   ?XSTACK_DISP0_8
        MOVX    A,@DPTR
        MOV     0xa6,A
//  546 
//  547   /*
//  548    *  Now that new compare value is stored, clear the interrupt flag.  This is important just
//  549    *  in case a false match was generated as the multi-byte compare value was written.
//  550    */
//  551   T2IRQF &= ~TIMER2_OVF_COMPARE1F;
        ANL     0xa1,#0xef
//  552 
//  553   /* re-enable overflow compare interrupts if they were previously enabled */
//  554   if (enableCompareInt)
        MOV     A,R6
        MOV     C,0xE0 /* A   */.0
        JNC     ??macMcuOverflowSetCompare_2
//  555   {
//  556     T2IRQM |= TIMER2_OVF_COMPARE1M;
        ORL     0xa7,#0x10
//  557   }
//  558 
//  559   HAL_EXIT_CRITICAL_SECTION(s);
??macMcuOverflowSetCompare_2:
        MOV     A,R0
        MOV     C,0xE0 /* A   */.0
        SJMP    ?Subroutine1
        CFI EndBlock cfiBlock20
        REQUIRE _A_IEN0
        REQUIRE T2IRQM
        REQUIRE T2MSEL
        REQUIRE T2MOVF0
        REQUIRE T2MOVF1
        REQUIRE T2MOVF2
        REQUIRE T2IRQF
//  560 }

        RSEG BANKED_CODE:CODE:NOROOT(0)
?Subroutine5:
        CFI Block cfiCond21 Using cfiCommon0
        CFI NoFunction
        CFI Conditional ??CrossCallReturnLabel_2
        CFI R6 load(1, XDATA, add(CFA_XSP16, literal(-12)))
        CFI VB load(1, XDATA, add(CFA_XSP16, literal(-11)))
        CFI V0 load(1, XDATA, add(CFA_XSP16, literal(-10)))
        CFI V1 load(1, XDATA, add(CFA_XSP16, literal(-9)))
        CFI V2 load(1, XDATA, add(CFA_XSP16, literal(-8)))
        CFI V3 load(1, XDATA, add(CFA_XSP16, literal(-7)))
        CFI R7 load(1, XDATA, add(CFA_XSP16, literal(-6)))
        CFI ?RET_LOW load(1, XDATA, add(CFA_XSP16, literal(-5)))
        CFI ?RET_HIGH load(1, XDATA, add(CFA_XSP16, literal(-4)))
        CFI ?BRET_EXT load(1, XDATA, add(CFA_XSP16, literal(-3)))
        CFI DPL0 load(1, XDATA, add(CFA_XSP16, literal(-2)))
        CFI DPH0 load(1, XDATA, add(CFA_XSP16, literal(-1)))
        CFI CFA_SP SP+0
        CFI CFA_XSP16 add(XSP16, 16)
        CFI Block cfiCond22 Using cfiCommon0
        CFI (cfiCond22) NoFunction
        CFI (cfiCond22) Conditional ??CrossCallReturnLabel_3
        CFI (cfiCond22) R6 load(1, XDATA, add(CFA_XSP16, literal(-12)))
        CFI (cfiCond22) VB load(1, XDATA, add(CFA_XSP16, literal(-11)))
        CFI (cfiCond22) V0 load(1, XDATA, add(CFA_XSP16, literal(-10)))
        CFI (cfiCond22) V1 load(1, XDATA, add(CFA_XSP16, literal(-9)))
        CFI (cfiCond22) V2 load(1, XDATA, add(CFA_XSP16, literal(-8)))
        CFI (cfiCond22) V3 load(1, XDATA, add(CFA_XSP16, literal(-7)))
        CFI (cfiCond22) R7 load(1, XDATA, add(CFA_XSP16, literal(-6)))
        CFI (cfiCond22) ?RET_LOW load(1, XDATA, add(CFA_XSP16, literal(-5)))
        CFI (cfiCond22) ?RET_HIGH load(1, XDATA, add(CFA_XSP16, literal(-4)))
        CFI (cfiCond22) ?BRET_EXT load(1, XDATA, add(CFA_XSP16, literal(-3)))
        CFI (cfiCond22) DPL0 load(1, XDATA, add(CFA_XSP16, literal(-2)))
        CFI (cfiCond22) DPH0 load(1, XDATA, add(CFA_XSP16, literal(-1)))
        CFI (cfiCond22) CFA_SP SP+0
        CFI (cfiCond22) CFA_XSP16 add(XSP16, 16)
        CFI Block cfiPicker23 Using cfiCommon1
        CFI (cfiPicker23) NoFunction
        CFI (cfiPicker23) Picker
        MOV     DPL,?XSP + 0
        MOV     DPH,?XSP + 1
        MOV     A,R2
        MOVX    @DPTR,A
        INC     DPTR
        MOV     A,R3
        MOVX    @DPTR,A
        INC     DPTR
        MOV     A,R4
        MOVX    @DPTR,A
        INC     DPTR
        MOV     A,R5
        MOVX    @DPTR,A
        RET
        CFI EndBlock cfiCond21
        CFI EndBlock cfiCond22
        CFI EndBlock cfiPicker23
//  561 
//  562 
//  563 /**************************************************************************************************
//  564  * @fn          macMcuOverflowGetCompare
//  565  *
//  566  * @brief       Get overflow count compare value.
//  567  *
//  568  * @param       none
//  569  *
//  570  * @return      overflow count compare value
//  571  **************************************************************************************************
//  572  */
//  573 MAC_INTERNAL_API uint32 macMcuOverflowGetCompare(void)
//  574 {
//  575   halIntState_t  s;
//  576   uint32         compare;
//  577 
//  578   HAL_ENTER_CRITICAL_SECTION(s);
//  579 
//  580   MAC_MCU_T2_ACCESS_OVF_CMP1_VALUE();
//  581 
//  582   /* for efficiency, the 32-bit value is decoded using endian abstracted indexing */
//  583   ((uint8 *)&compare)[UINT32_NDX0] = T2MOVF0;
//  584   ((uint8 *)&compare)[UINT32_NDX1] = T2MOVF1;
//  585   ((uint8 *)&compare)[UINT32_NDX2] = T2MOVF2;
//  586   ((uint8 *)&compare)[UINT32_NDX3] = 0;
//  587 
//  588   HAL_EXIT_CRITICAL_SECTION(s);
//  589 
//  590   return(compare);
//  591 }
//  592 
//  593 
//  594 /**************************************************************************************************
//  595  * @fn          macMcuTimer2Isr
//  596  *
//  597  * @brief       Interrupt service routine for timer2, the MAC timer.
//  598  *
//  599  * @param       none
//  600  *
//  601  * @return      none
//  602  **************************************************************************************************
//  603  */

        RSEG NEAR_CODE:CODE:NOROOT(0)
//  604 HAL_ISR_FUNCTION( macMcuTimer2Isr, T2_VECTOR )
macMcuTimer2Isr:
        CFI Block cfiBlock24 Using cfiCommon1
        CFI Function macMcuTimer2Isr
        CODE
//  605 {
        FUNCALL macMcuTimer2Isr, macBackoffTimerCompareIsr
        LOCFRAME ISTACK, 0, STACK
        LOCFRAME PSTACK, 0, STACK
        LOCFRAME XSTACK, 14, STACK
        LOCFRAME IOVERLAY, 0, STATIC
        LOCFRAME DOVERLAY, 0, STATIC
        ARGFRAME ISTACK, 0, STACK
        ARGFRAME PSTACK, 0, STACK
        ARGFRAME XSTACK, 14, STACK
        ARGFRAME IOVERLAY, 0, STATIC
        ARGFRAME DOVERLAY, 0, STATIC
        PUSH    A
        CFI A Frame(CFA_SP, 3)
        CFI CFA_SP SP+-3
        MOV     A,#-0xe
        LCALL   ?INTERRUPT_ENTER_XSP
        CFI B load(1, XDATA, add(CFA_XSP16, literal(-1)))
        CFI VB load(1, XDATA, add(CFA_XSP16, literal(-2)))
        CFI PSW load(1, XDATA, add(CFA_XSP16, literal(-3)))
        CFI DPL0 load(1, XDATA, add(CFA_XSP16, literal(-4)))
        CFI DPH0 load(1, XDATA, add(CFA_XSP16, literal(-5)))
        CFI R7 load(1, XDATA, add(CFA_XSP16, literal(-6)))
        CFI R6 load(1, XDATA, add(CFA_XSP16, literal(-7)))
        CFI R5 load(1, XDATA, add(CFA_XSP16, literal(-8)))
        CFI R4 load(1, XDATA, add(CFA_XSP16, literal(-9)))
        CFI V0 load(1, XDATA, add(CFA_XSP16, literal(-10)))
        CFI R3 load(1, XDATA, add(CFA_XSP16, literal(-11)))
        CFI R2 load(1, XDATA, add(CFA_XSP16, literal(-12)))
        CFI R1 load(1, XDATA, add(CFA_XSP16, literal(-13)))
        CFI R0 load(1, XDATA, add(CFA_XSP16, literal(-14)))
        CFI CFA_XSP16 add(XSP16, 14)
        ; Saved register size: 14
        ; Auto size: 0
//  606   uint8 t2irqm = T2IRQM;
        MOV     A,0xa7
        MOV     R0,A
//  607   uint8 t2irqf = T2IRQF;
        MOV     A,0xa1
        MOV     R1,A
//  608 
//  609   /*------------------------------------------------------------------------------------------------
//  610    *  Overflow compare interrupt - triggers when then overflow counter is
//  611    *  equal to the overflow compare register.
//  612    */
//  613   if ((t2irqf & TIMER2_OVF_COMPARE1F) & t2irqm)
        ANL     A,R0
        ANL     A,#0x10
        JZ      ??macMcuTimer2Isr_0
//  614   {
//  615 
//  616     /* call function for dealing with the timer compare interrupt */
//  617     macBackoffTimerCompareIsr();
        ; Setup parameters for call to function macBackoffTimerCompareIsr
        LCALL   ??macBackoffTimerCompareIsr?relay
//  618 
//  619     /* clear overflow compare interrupt flag */
//  620     T2IRQF &= ~TIMER2_OVF_COMPARE1F;
        ANL     0xa1,#0xef
        SJMP    ??macMcuTimer2Isr_1
//  621   }
//  622 
//  623   /*------------------------------------------------------------------------------------------------
//  624    *  Overflow interrupt - triggers when the hardware timer rolls over.
//  625    */
//  626   else if ((t2irqf & TIMER2_PERF) & t2irqm)
??macMcuTimer2Isr_0:
        MOV     A,R0
        MOV     C,0xE0 /* A   */.0
        PUSH    PSW
        CFI CFA_SP SP+-4
        MOV     A,R1
        MOV     C,0xE0 /* A   */.0
        MOV     B.0,C
        LCALL   ?POP_BIT_ISP
        DEC     SP
        CFI CFA_SP SP+-3
        ANL     C,B.0
        JNC     ??macMcuTimer2Isr_1
//  627   {
//  628     /* call energy detect interrupt function, this interrupt not used for any other functionality */
//  629     mcuRecordMaxRssiIsr();
        MOV     DPTR,#0x6198
        MOVX    A,@DPTR
        MOV     R0,A
        MOV     DPTR,#rssiRecordFlag
        CLR     A
        MOVX    @DPTR,A
        MOV     DPTR,#maxRssi
        MOVX    A,@DPTR
        CLR     C
        SUBB    A,R0
        MOV     C,0xD0 /* PSW */.2
        XRL     A,PSW
        RLC     A
        JNC     ??macMcuTimer2Isr_2
        MOV     A,R0
        MOVX    @DPTR,A
//  630 
//  631     /* clear the interrupt flag */
//  632     T2IRQF &= ~TIMER2_PERF;
??macMcuTimer2Isr_2:
        ANL     0xa1,#0xfe
        CFI EndBlock cfiBlock24
//  633   }
//  634 }
??macMcuTimer2Isr_1:
        REQUIRE ?Subroutine2
        REQUIRE T2IRQM
        REQUIRE T2IRQF
        ; // Fall through to label ?Subroutine2

        RSEG NEAR_CODE:CODE:NOROOT(0)
?Subroutine2:
        CFI Block cfiBlock25 Using cfiCommon1
        CFI NoFunction
        CFI CFA_SP SP+-3
        CFI CFA_XSP16 add(XSP16, 14)
        CFI VB load(1, XDATA, add(CFA_XSP16, literal(-2)))
        CFI B load(1, XDATA, add(CFA_XSP16, literal(-1)))
        CFI A Frame(CFA_SP, 3)
        CFI PSW load(1, XDATA, add(CFA_XSP16, literal(-3)))
        CFI DPL0 load(1, XDATA, add(CFA_XSP16, literal(-4)))
        CFI DPH0 load(1, XDATA, add(CFA_XSP16, literal(-5)))
        CFI R0 load(1, XDATA, add(CFA_XSP16, literal(-14)))
        CFI R1 load(1, XDATA, add(CFA_XSP16, literal(-13)))
        CFI R2 load(1, XDATA, add(CFA_XSP16, literal(-12)))
        CFI R3 load(1, XDATA, add(CFA_XSP16, literal(-11)))
        CFI R4 load(1, XDATA, add(CFA_XSP16, literal(-9)))
        CFI R5 load(1, XDATA, add(CFA_XSP16, literal(-8)))
        CFI R6 load(1, XDATA, add(CFA_XSP16, literal(-7)))
        CFI R7 load(1, XDATA, add(CFA_XSP16, literal(-6)))
        CFI V0 load(1, XDATA, add(CFA_XSP16, literal(-10)))
        MOV     R7,#0x1
        LJMP    ?INTERRUPT_LEAVE_XSP
        CFI EndBlock cfiBlock25
//  635 
//  636 
//  637 /**************************************************************************************************
//  638  * @fn          macMcuTimer2OverflowWorkaround
//  639  *
//  640  * @brief       For CC2530, T2 interrupt wont be generated when the current count is greater than
//  641  *              the comparator. The interrupt is only generated when the current count is equal to
//  642  *              the comparator. When the CC2530 is waking up from sleep, there is a small window
//  643  *              that the count may be grater than the comparator, therefore, missing the interrupt.
//  644  *              This workaround will call the T2 ISR when the current T2 count is greater than the
//  645  *              comparator.
//  646  *
//  647  * @param       none
//  648  *
//  649  * @return      none
//  650  **************************************************************************************************
//  651  */

        RSEG BANKED_CODE:CODE:NOROOT(0)
//  652 void macMcuTimer2OverflowWorkaround(void)
macMcuTimer2OverflowWorkaround:
        CFI Block cfiBlock26 Using cfiCommon0
        CFI Function macMcuTimer2OverflowWorkaround
        CODE
//  653 {
        FUNCALL macMcuTimer2OverflowWorkaround, macMcuOverflowCount
        LOCFRAME ISTACK, 2, STACK
        LOCFRAME PSTACK, 0, STACK
        LOCFRAME XSTACK, 16, STACK
        LOCFRAME IOVERLAY, 0, STATIC
        LOCFRAME DOVERLAY, 0, STATIC
        ARGFRAME ISTACK, 2, STACK
        ARGFRAME PSTACK, 0, STACK
        ARGFRAME XSTACK, 16, STACK
        ARGFRAME IOVERLAY, 0, STATIC
        ARGFRAME DOVERLAY, 0, STATIC
        FUNCALL macMcuTimer2OverflowWorkaround, macBackoffTimerCompareIsr
        LOCFRAME ISTACK, 0, STACK
        LOCFRAME PSTACK, 0, STACK
        LOCFRAME XSTACK, 16, STACK
        LOCFRAME IOVERLAY, 0, STATIC
        LOCFRAME DOVERLAY, 0, STATIC
        ARGFRAME ISTACK, 0, STACK
        ARGFRAME PSTACK, 0, STACK
        ARGFRAME XSTACK, 16, STACK
        ARGFRAME IOVERLAY, 0, STATIC
        ARGFRAME DOVERLAY, 0, STATIC
        MOV     A,#-0xc
        LCALL   ?BANKED_ENTER_XDATA
        CFI DPH0 load(1, XDATA, add(CFA_XSP16, literal(-1)))
        CFI DPL0 load(1, XDATA, add(CFA_XSP16, literal(-2)))
        CFI ?BRET_EXT load(1, XDATA, add(CFA_XSP16, literal(-3)))
        CFI ?RET_HIGH load(1, XDATA, add(CFA_XSP16, literal(-4)))
        CFI ?RET_LOW load(1, XDATA, add(CFA_XSP16, literal(-5)))
        CFI R7 load(1, XDATA, add(CFA_XSP16, literal(-6)))
        CFI V3 load(1, XDATA, add(CFA_XSP16, literal(-7)))
        CFI V2 load(1, XDATA, add(CFA_XSP16, literal(-8)))
        CFI V1 load(1, XDATA, add(CFA_XSP16, literal(-9)))
        CFI V0 load(1, XDATA, add(CFA_XSP16, literal(-10)))
        CFI VB load(1, XDATA, add(CFA_XSP16, literal(-11)))
        CFI R6 load(1, XDATA, add(CFA_XSP16, literal(-12)))
        CFI CFA_SP SP+0
        CFI CFA_XSP16 add(XSP16, 12)
        ; Saved register size: 12
        ; Auto size: 4
        MOV     A,#-0x4
        LCALL   ?ALLOC_XSTACK8
        CFI CFA_XSP16 add(XSP16, 16)
//  654   if (T2IRQM & TIMER2_OVF_COMPARE1F)
        MOV     A,0xa7
        MOV     C,0xE0 /* A   */.4
        JNC     ??macMcuTimer2OverflowWorkaround_0
//  655   {
//  656     /* T2 comapre 1 interrupt is enabled but T2 compare 1 intererrupt is not generated */
//  657     if (!(T2IRQF & TIMER2_OVF_COMPARE1F))
        MOV     A,0xa1
        MOV     C,0xE0 /* A   */.4
        JC      ??macMcuTimer2OverflowWorkaround_0
//  658     {
//  659       if (MAC_RADIO_BACKOFF_COUNT() > macMcuOverflowGetCompare())
        MOV     A,0xa8
        MOV     R0,A
        CLR     0xa8.7
        MOV     0xc3,#0x30
        MOV     A,0xa4
        MOV     DPL,?XSP + 0
        MOV     DPH,?XSP + 1
        MOVX    @DPTR,A
        MOV     A,0xa5
        PUSH    A
        CFI CFA_SP SP+-1
        MOV     A,#0x1
        LCALL   ?XSTACK_DISP0_8
        POP     A
        CFI CFA_SP SP+0
        MOVX    @DPTR,A
        MOV     A,0xa6
        PUSH    A
        CFI CFA_SP SP+-1
        MOV     A,#0x2
        LCALL   ?XSTACK_DISP0_8
        POP     A
        CFI CFA_SP SP+0
        MOVX    @DPTR,A
        MOV     A,#0x3
        LCALL   ?XSTACK_DISP0_8
        LCALL   ?Subroutine3 & 0xFFFF
??CrossCallReturnLabel_5:
        PUSH    DPL
        CFI CFA_SP SP+-1
        PUSH    DPH
        CFI CFA_SP SP+-2
        ; Setup parameters for call to function macMcuOverflowCount
        LCALL   ?Subroutine4 & 0xFFFF
??CrossCallReturnLabel_1:
        POP     DPH
        CFI CFA_SP SP+-1
        POP     DPL
        CFI CFA_SP SP+0
        MOV     R0,#?V0 + 0
        LCALL   ?UL_GT_X
        JNC     ??macMcuTimer2OverflowWorkaround_0
//  660       {
//  661         /* Set the flag to trigger the timer compare interrupt */
//  662         macBackoffTimerCompareIsr();
        ; Setup parameters for call to function macBackoffTimerCompareIsr
        LCALL   ??macBackoffTimerCompareIsr?relay
//  663         T2IRQF &= ~TIMER2_OVF_COMPARE1F;
        ANL     0xa1,#0xef
//  664       }
//  665     }
//  666   }
//  667 }
??macMcuTimer2OverflowWorkaround_0:
        SJMP    ??Subroutine8_0
        CFI EndBlock cfiBlock26
        REQUIRE T2IRQM
        REQUIRE T2IRQF
        REQUIRE _A_IEN0
        REQUIRE T2MSEL
        REQUIRE T2MOVF0
        REQUIRE T2MOVF1
        REQUIRE T2MOVF2

        RSEG BANKED_CODE:CODE:NOROOT(0)
?Subroutine4:
        CFI Block cfiCond27 Using cfiCommon0
        CFI NoFunction
        CFI Conditional ??CrossCallReturnLabel_0
        CFI R6 load(1, XDATA, add(CFA_XSP16, literal(-12)))
        CFI VB load(1, XDATA, add(CFA_XSP16, literal(-11)))
        CFI V0 load(1, XDATA, add(CFA_XSP16, literal(-10)))
        CFI V1 load(1, XDATA, add(CFA_XSP16, literal(-9)))
        CFI V2 load(1, XDATA, add(CFA_XSP16, literal(-8)))
        CFI V3 load(1, XDATA, add(CFA_XSP16, literal(-7)))
        CFI R7 load(1, XDATA, add(CFA_XSP16, literal(-6)))
        CFI ?RET_LOW load(1, XDATA, add(CFA_XSP16, literal(-5)))
        CFI ?RET_HIGH load(1, XDATA, add(CFA_XSP16, literal(-4)))
        CFI ?BRET_EXT load(1, XDATA, add(CFA_XSP16, literal(-3)))
        CFI DPL0 load(1, XDATA, add(CFA_XSP16, literal(-2)))
        CFI DPH0 load(1, XDATA, add(CFA_XSP16, literal(-1)))
        CFI CFA_SP SP+-2
        CFI CFA_XSP16 add(XSP16, 16)
        CFI Block cfiCond28 Using cfiCommon0
        CFI (cfiCond28) NoFunction
        CFI (cfiCond28) Conditional ??CrossCallReturnLabel_1
        CFI (cfiCond28) R6 load(1, XDATA, add(CFA_XSP16, literal(-12)))
        CFI (cfiCond28) VB load(1, XDATA, add(CFA_XSP16, literal(-11)))
        CFI (cfiCond28) V0 load(1, XDATA, add(CFA_XSP16, literal(-10)))
        CFI (cfiCond28) V1 load(1, XDATA, add(CFA_XSP16, literal(-9)))
        CFI (cfiCond28) V2 load(1, XDATA, add(CFA_XSP16, literal(-8)))
        CFI (cfiCond28) V3 load(1, XDATA, add(CFA_XSP16, literal(-7)))
        CFI (cfiCond28) R7 load(1, XDATA, add(CFA_XSP16, literal(-6)))
        CFI (cfiCond28) ?RET_LOW load(1, XDATA, add(CFA_XSP16, literal(-5)))
        CFI (cfiCond28) ?RET_HIGH load(1, XDATA, add(CFA_XSP16, literal(-4)))
        CFI (cfiCond28) ?BRET_EXT load(1, XDATA, add(CFA_XSP16, literal(-3)))
        CFI (cfiCond28) DPL0 load(1, XDATA, add(CFA_XSP16, literal(-2)))
        CFI (cfiCond28) DPH0 load(1, XDATA, add(CFA_XSP16, literal(-1)))
        CFI (cfiCond28) CFA_SP SP+-2
        CFI (cfiCond28) CFA_XSP16 add(XSP16, 16)
        CFI Block cfiPicker29 Using cfiCommon1
        CFI (cfiPicker29) NoFunction
        CFI (cfiPicker29) Picker
        LCALL   ??macMcuOverflowCount?relay
        MOV     ?V0 + 0,R2
        MOV     ?V0 + 1,R3
        MOV     ?V0 + 2,R4
        MOV     ?V0 + 3,R5
        RET
        CFI EndBlock cfiCond27
        CFI EndBlock cfiCond28
        CFI EndBlock cfiPicker29

        RSEG BANKED_CODE:CODE:NOROOT(0)
?Subroutine1:
        CFI Block cfiBlock30 Using cfiCommon0
        CFI NoFunction
        CFI CFA_SP SP+0
        CFI CFA_XSP16 add(XSP16, 16)
        CFI VB load(1, XDATA, add(CFA_XSP16, literal(-11)))
        CFI DPL0 load(1, XDATA, add(CFA_XSP16, literal(-2)))
        CFI DPH0 load(1, XDATA, add(CFA_XSP16, literal(-1)))
        CFI R6 load(1, XDATA, add(CFA_XSP16, literal(-12)))
        CFI R7 load(1, XDATA, add(CFA_XSP16, literal(-6)))
        CFI V0 load(1, XDATA, add(CFA_XSP16, literal(-10)))
        CFI V1 load(1, XDATA, add(CFA_XSP16, literal(-9)))
        CFI V2 load(1, XDATA, add(CFA_XSP16, literal(-8)))
        CFI V3 load(1, XDATA, add(CFA_XSP16, literal(-7)))
        CFI ?BRET_EXT load(1, XDATA, add(CFA_XSP16, literal(-3)))
        CFI ?RET_HIGH load(1, XDATA, add(CFA_XSP16, literal(-4)))
        CFI ?RET_LOW load(1, XDATA, add(CFA_XSP16, literal(-5)))
        MOV     0xa8.7,C
        CFI EndBlock cfiBlock30
        REQUIRE ??Subroutine8_0
        ; // Fall through to label ??Subroutine8_0

        RSEG BANKED_CODE:CODE:NOROOT(0)
??Subroutine8_0:
        CFI Block cfiBlock31 Using cfiCommon0
        CFI NoFunction
        CFI CFA_SP SP+0
        CFI CFA_XSP16 add(XSP16, 16)
        CFI VB load(1, XDATA, add(CFA_XSP16, literal(-11)))
        CFI DPL0 load(1, XDATA, add(CFA_XSP16, literal(-2)))
        CFI DPH0 load(1, XDATA, add(CFA_XSP16, literal(-1)))
        CFI R6 load(1, XDATA, add(CFA_XSP16, literal(-12)))
        CFI R7 load(1, XDATA, add(CFA_XSP16, literal(-6)))
        CFI V0 load(1, XDATA, add(CFA_XSP16, literal(-10)))
        CFI V1 load(1, XDATA, add(CFA_XSP16, literal(-9)))
        CFI V2 load(1, XDATA, add(CFA_XSP16, literal(-8)))
        CFI V3 load(1, XDATA, add(CFA_XSP16, literal(-7)))
        CFI ?BRET_EXT load(1, XDATA, add(CFA_XSP16, literal(-3)))
        CFI ?RET_HIGH load(1, XDATA, add(CFA_XSP16, literal(-4)))
        CFI ?RET_LOW load(1, XDATA, add(CFA_XSP16, literal(-5)))
        MOV     A,#0x4
        CFI EndBlock cfiBlock31
        REQUIRE ??Subroutine9_0
        ; // Fall through to label ??Subroutine9_0

        RSEG BANKED_CODE:CODE:NOROOT(0)
??Subroutine9_0:
        CFI Block cfiBlock32 Using cfiCommon0
        CFI NoFunction
        CFI CFA_SP SP+0
        CFI CFA_XSP16 add(XSP16, 14)
        CFI VB load(1, XDATA, add(CFA_XSP16, literal(-11)))
        CFI DPL0 load(1, XDATA, add(CFA_XSP16, literal(-2)))
        CFI DPH0 load(1, XDATA, add(CFA_XSP16, literal(-1)))
        CFI R6 load(1, XDATA, add(CFA_XSP16, literal(-12)))
        CFI R7 load(1, XDATA, add(CFA_XSP16, literal(-6)))
        CFI V0 load(1, XDATA, add(CFA_XSP16, literal(-10)))
        CFI V1 load(1, XDATA, add(CFA_XSP16, literal(-9)))
        CFI V2 load(1, XDATA, add(CFA_XSP16, literal(-8)))
        CFI V3 load(1, XDATA, add(CFA_XSP16, literal(-7)))
        CFI ?BRET_EXT load(1, XDATA, add(CFA_XSP16, literal(-3)))
        CFI ?RET_HIGH load(1, XDATA, add(CFA_XSP16, literal(-4)))
        CFI ?RET_LOW load(1, XDATA, add(CFA_XSP16, literal(-5)))
        CFI Invalid
        LCALL   ?DEALLOC_XSTACK8
        CFI CFA_XSP16 add(XSP16, 12)
        CFI Valid
        MOV     R7,#0x4
        LJMP    ?BANKED_LEAVE_XDATA
        CFI EndBlock cfiBlock32
//  668 
//  669 
//  670 /**************************************************************************************************
//  671  * @fn          macMcuPrecisionCount
//  672  *
//  673  * @brief       This function is used by higher layer to read a free running counter driven by
//  674  *              MAC timer.
//  675  *
//  676  * @param       none
//  677  *
//  678  * @return      overflowCount
//  679  **************************************************************************************************
//  680  */

        RSEG BANKED_CODE:CODE:NOROOT(0)
//  681 uint16 macMcuPrecisionCount(void)
macMcuPrecisionCount:
        CFI Block cfiBlock33 Using cfiCommon0
        CFI Function macMcuPrecisionCount
        CODE
//  682 {
        MOV     A,#-0xc
        LCALL   ?BANKED_ENTER_XDATA
        CFI DPH0 load(1, XDATA, add(CFA_XSP16, literal(-1)))
        CFI DPL0 load(1, XDATA, add(CFA_XSP16, literal(-2)))
        CFI ?BRET_EXT load(1, XDATA, add(CFA_XSP16, literal(-3)))
        CFI ?RET_HIGH load(1, XDATA, add(CFA_XSP16, literal(-4)))
        CFI ?RET_LOW load(1, XDATA, add(CFA_XSP16, literal(-5)))
        CFI R7 load(1, XDATA, add(CFA_XSP16, literal(-6)))
        CFI V3 load(1, XDATA, add(CFA_XSP16, literal(-7)))
        CFI V2 load(1, XDATA, add(CFA_XSP16, literal(-8)))
        CFI V1 load(1, XDATA, add(CFA_XSP16, literal(-9)))
        CFI V0 load(1, XDATA, add(CFA_XSP16, literal(-10)))
        CFI VB load(1, XDATA, add(CFA_XSP16, literal(-11)))
        CFI R6 load(1, XDATA, add(CFA_XSP16, literal(-12)))
        CFI CFA_SP SP+0
        CFI CFA_XSP16 add(XSP16, 12)
        ; Saved register size: 12
        ; Auto size: 2
        MOV     A,#-0x2
        LCALL   ?ALLOC_XSTACK8
        CFI CFA_XSP16 add(XSP16, 14)
//  683   uint16         overflowCount;
//  684   halIntState_t  s;
//  685 
//  686   HAL_ENTER_CRITICAL_SECTION(s);
        MOV     A,0xa8
        MOV     R0,A
        CLR     0xa8.7
//  687 
//  688   /* This T2 access macro allows accessing both T2MOVFx and T2Mx */
//  689   MAC_MCU_T2_ACCESS_OVF_COUNT_VALUE();
        MOV     0xc3,#0x0
//  690 
//  691   /* Latch the entire T2MOVFx first by reading T2M0.
//  692    * T2M0 and T2MOVF2 are discarded.
//  693    */
//  694   T2M0;
        MOV     A,0xa2
//  695   ((uint8 *)&overflowCount)[UINT32_NDX0] = T2MOVF0;
        MOV     A,0xa4
        MOV     DPL,?XSP + 0
        MOV     DPH,?XSP + 1
        MOVX    @DPTR,A
//  696   ((uint8 *)&overflowCount)[UINT32_NDX1] = T2MOVF1;
        MOV     A,0xa5
        PUSH    A
        CFI CFA_SP SP+-1
        MOV     A,#0x1
        LCALL   ?XSTACK_DISP0_8
        POP     A
        CFI CFA_SP SP+0
        LCALL   ??Subroutine7_0 & 0xFFFF
//  697   HAL_EXIT_CRITICAL_SECTION(s);
//  698 
//  699   /* the overflowCount needs to account for the accumulated overflow count in Beacon mode.
//  700    * It's okay to let it overflow since only LSBs are used.
//  701    */
//  702   overflowCount += (uint16)accumulatedOverflowCount;
//  703 
//  704   return(overflowCount);
??CrossCallReturnLabel_6:
        PUSH    DPL
        CFI CFA_SP SP+-1
        PUSH    DPH
        CFI CFA_SP SP+-2
        MOV     DPTR,#accumulatedOverflowCount
        MOV     R0,#?V0 + 0
        LCALL   ?L_MOV_X
        POP     DPH
        CFI CFA_SP SP+-1
        POP     DPL
        CFI CFA_SP SP+0
        MOVX    A,@DPTR
        ADD     A,?V0 + 0
        MOV     R2,A
        INC     DPTR
        MOVX    A,@DPTR
        ADDC    A,?V0 + 1
        MOV     R3,A
        MOV     A,#0x2
        SJMP    ??Subroutine9_0
        CFI EndBlock cfiBlock33
        REQUIRE _A_IEN0
        REQUIRE T2MSEL
        REQUIRE T2M0
        REQUIRE T2MOVF0
        REQUIRE T2MOVF1
//  705 }
//  706 
//  707 
//  708 /**************************************************************************************************
//  709  * @fn          macMcuRfIsr
//  710  *
//  711  * @brief       Interrupt service routine that handles all RF interrupts.  There are a number
//  712  *              of conditions "ganged" onto this one ISR so each condition must be tested for.
//  713  *
//  714  * @param       none
//  715  *
//  716  * @return      none
//  717  **************************************************************************************************
//  718  */
//  719  #if 0
//  720 HAL_ISR_FUNCTION( macMcuRfIsr, RF_VECTOR )
//  721 {
//  722   uint8 rfim;
//  723   //static unsigned char rcvCnt=0;
//  724 
//  725   rfim = RFIRQM1;
//  726 
//  727   /*  The CPU level RF interrupt flag must be cleared here (before clearing RFIRQFx).
//  728    *  to allow the interrupts to be nested.
//  729    */
//  730   S1CON = 0x00;
//  731 
//  732   if ((RFIRQF1 & IRQ_CSP_MANINT) & rfim)
//  733   {
//  734     /*
//  735      *  Important!  Because of how the CSP programs are written, CSP_INT interrupts should
//  736      *  be processed before CSP_STOP interrupts.  This becomes an issue when there are
//  737      *  long critical sections.
//  738      */
//  739     /* clear flag */
//  740     RFIRQF1 = ~IRQ_CSP_MANINT;
//  741     macCspTxIntIsr();
//  742   }
//  743   else if ((RFIRQF1 & IRQ_CSP_STOP) & rfim)
//  744   {
//  745     /* clear flag */
//  746     RFIRQF1 = ~IRQ_CSP_STOP;
//  747     macCspTxStopIsr();
//  748   }
//  749   else if ((RFIRQF1 & IRQ_TXACKDONE) & rfim)			//SEND_OBEY_ZSTACK, 2014/11/5, I forget why delete here long time ago
//  750   {
//  751     /* disable interrupt - set up is for "one shot" operation */
//  752     RFIRQM1 &= ~IM_TXACKDONE;
//  753     macRxAckTxDoneCallback();
//  754   }/*
//  755   else if((RFIRQF1 & IRQ_TXDONE) & rfim)
//  756   {
//  757 	RFIRQF1 &= ~IRQ_TXDONE;
//  758 	macExTxDoneCallback();
//  759   }else if((RFIRQF1 & IRQ_TXACKDONE) & rfim)
//  760   {
//  761 	RFIRQF1 &= ~IRQ_TXACKDONE;
//  762 	macExTxAckDoneCallback();
//  763   }*/
//  764 
//  765   rfim = RFIRQM0;
//  766 
//  767   /* process RFIRQF0 next */
//  768   if ((RFIRQF0 & IRQ_FIFOP) & rfim)
//  769   {
//  770     /* continue to execute interrup                                                                                                                                                                                                                                                                                                                                                                                                                                                                                                                                                                                        t handler as long as FIFOP is active */
//  771     do
//  772     {
//  773       macRxThresholdIsr();
//  774       RFIRQF0 = ~IRQ_FIFOP;
//  775     } while (FSMSTAT1 & FIFOP);
//  776   }
//  777 }
//  778 #endif
//  779 
//  780 /**************************************************************************************************
//  781  * @fn          macMcuRfErrIsr
//  782  *
//  783  * @brief       Interrupt service routine that handles all RF Error interrupts.  Only the RX FIFO
//  784  *              overflow condition is handled.
//  785  *
//  786  * @param       none
//  787  *
//  788  * @return      none
//  789  **************************************************************************************************
//  790  */

        RSEG NEAR_CODE:CODE:NOROOT(0)
//  791 HAL_ISR_FUNCTION( macMcuRfErrIsr, RFERR_VECTOR )
macMcuRfErrIsr:
        CFI Block cfiBlock34 Using cfiCommon1
        CFI Function macMcuRfErrIsr
        CODE
//  792 {
        FUNCALL macMcuRfErrIsr, macRxFifoOverflowIsr
        LOCFRAME ISTACK, 0, STACK
        LOCFRAME PSTACK, 0, STACK
        LOCFRAME XSTACK, 14, STACK
        LOCFRAME IOVERLAY, 0, STATIC
        LOCFRAME DOVERLAY, 0, STATIC
        ARGFRAME ISTACK, 0, STACK
        ARGFRAME PSTACK, 0, STACK
        ARGFRAME XSTACK, 14, STACK
        ARGFRAME IOVERLAY, 0, STATIC
        ARGFRAME DOVERLAY, 0, STATIC
        PUSH    A
        CFI A Frame(CFA_SP, 3)
        CFI CFA_SP SP+-3
        MOV     A,#-0xe
        LCALL   ?INTERRUPT_ENTER_XSP
        CFI B load(1, XDATA, add(CFA_XSP16, literal(-1)))
        CFI VB load(1, XDATA, add(CFA_XSP16, literal(-2)))
        CFI PSW load(1, XDATA, add(CFA_XSP16, literal(-3)))
        CFI DPL0 load(1, XDATA, add(CFA_XSP16, literal(-4)))
        CFI DPH0 load(1, XDATA, add(CFA_XSP16, literal(-5)))
        CFI R7 load(1, XDATA, add(CFA_XSP16, literal(-6)))
        CFI R6 load(1, XDATA, add(CFA_XSP16, literal(-7)))
        CFI R5 load(1, XDATA, add(CFA_XSP16, literal(-8)))
        CFI R4 load(1, XDATA, add(CFA_XSP16, literal(-9)))
        CFI V0 load(1, XDATA, add(CFA_XSP16, literal(-10)))
        CFI R3 load(1, XDATA, add(CFA_XSP16, literal(-11)))
        CFI R2 load(1, XDATA, add(CFA_XSP16, literal(-12)))
        CFI R1 load(1, XDATA, add(CFA_XSP16, literal(-13)))
        CFI R0 load(1, XDATA, add(CFA_XSP16, literal(-14)))
        CFI CFA_XSP16 add(XSP16, 14)
        ; Saved register size: 14
        ; Auto size: 0
//  793   uint8 rferrm = RFERRM;
        MOV     DPTR,#0x61a5
        MOVX    A,@DPTR
        MOV     R0,A
//  794 
//  795   if ((RFERRF & RFERR_RXOVERF) & rferrm)
        MOV     A,0xbf
        ANL     A,R0
        ANL     A,#0x4
        JZ      ??macMcuRfErrIsr_0
//  796   {
//  797     RFERRF &= ~RFERR_RXOVERF;
        ANL     0xbf,#0xfb
//  798     macRxFifoOverflowIsr();
        ; Setup parameters for call to function macRxFifoOverflowIsr
        LCALL   ??macRxFifoOverflowIsr?relay
//  799   }
//  800 }
??macMcuRfErrIsr_0:
        SJMP    ?Subroutine2
        CFI EndBlock cfiBlock34
        REQUIRE RFERRF
//  801 
//  802 
//  803 /**************************************************************************************************
//  804  * @fn          macMcuRecordMaxRssiStart
//  805  *
//  806  * @brief       Starts recording of the maximum received RSSI value.
//  807  *
//  808  * @param       none
//  809  *
//  810  * @return      none
//  811  **************************************************************************************************
//  812  */

        RSEG BANKED_CODE:CODE:NOROOT(0)
//  813 MAC_INTERNAL_API void macMcuRecordMaxRssiStart(void)
macMcuRecordMaxRssiStart:
        CFI Block cfiBlock35 Using cfiCommon0
        CFI Function macMcuRecordMaxRssiStart
        CODE
//  814 {
        PUSH    DPL
        CFI DPL0 Frame(CFA_SP, 4)
        CFI CFA_SP SP+-4
        PUSH    DPH
        CFI DPH0 Frame(CFA_SP, 5)
        CFI CFA_SP SP+-5
        ; Saved register size: 2
        ; Auto size: 0
//  815   /* start maximum recorded value at the lowest possible value */
//  816   maxRssi = -128;
        MOV     DPTR,#maxRssi
        MOV     A,#-0x80
        MOVX    @DPTR,A
//  817   rssiRecordFlag = 1;
        MOV     DPTR,#rssiRecordFlag
        MOV     A,#0x1
        MOVX    @DPTR,A
//  818 
//  819   /* enable timer overflow interrupt */
//  820   T2IRQM |= TIMER2_PERM;
        ORL     0xa7,#0x1
//  821 }
        LJMP    ??Subroutine6_0 & 0xFFFF
        CFI EndBlock cfiBlock35
        REQUIRE T2IRQM
//  822 
//  823 
//  824 /**************************************************************************************************
//  825  * @fn          macMcuRecordMaxRssiStop
//  826  *
//  827  * @brief       Stops recording of the maximum received RSSI.  It returns the maximum value
//  828  *              received since starting the recording.
//  829  *
//  830  * @param       none
//  831  *
//  832  * @return      maximum received RSSI value
//  833  **************************************************************************************************
//  834  */

        RSEG BANKED_CODE:CODE:NOROOT(0)
//  835 MAC_INTERNAL_API int8 macMcuRecordMaxRssiStop(void)
macMcuRecordMaxRssiStop:
        CFI Block cfiBlock36 Using cfiCommon0
        CFI Function macMcuRecordMaxRssiStop
        CODE
//  836 {
        PUSH    DPL
        CFI DPL0 Frame(CFA_SP, 4)
        CFI CFA_SP SP+-4
        PUSH    DPH
        CFI DPH0 Frame(CFA_SP, 5)
        CFI CFA_SP SP+-5
        ; Saved register size: 2
        ; Auto size: 0
//  837   /* disable timer overflow interrupt */
//  838   while(rssiRecordFlag);
??macMcuRecordMaxRssiStop_0:
        MOV     DPTR,#rssiRecordFlag
        MOVX    A,@DPTR
        JNZ     ??macMcuRecordMaxRssiStop_0
//  839   
//  840   T2IRQM &= ~TIMER2_PERM;
        ANL     0xa7,#0xfe
//  841 
//  842   return(maxRssi);
        MOV     DPTR,#maxRssi
        MOVX    A,@DPTR
        MOV     R1,A
        LJMP    ??Subroutine6_0 & 0xFFFF
        CFI EndBlock cfiBlock36
        REQUIRE T2IRQM
//  843 }

        COMMON INTVEC:CODE:ROOT(0)
        ORG 3
`??macMcuRfErrIsr??INTVEC 3`:
        LJMP       (macMcuRfErrIsr)

        COMMON INTVEC:CODE:ROOT(0)
        ORG 83
`??macMcuTimer2Isr??INTVEC 83`:
        LJMP       (macMcuTimer2Isr)

        RSEG XDATA_I:XDATA:NOROOT(0)
        DATA32
__Constant_ff000000:
        DS 4
        REQUIRE `?<Initializer for __Constant_ff000000>`
        REQUIRE __INIT_XDATA_I

        RSEG XDATA_ID:CODE:NOROOT(0)
`?<Initializer for __Constant_ff000000>`:
        DATA32
        DD 4278190080

        RSEG BANK_RELAYS:CODE:REORDER:NOROOT(0)
??MAC_SetRandomSeedCB?relay:
        LCALL   ?BDISPATCH
        DATA
        DC24    MAC_SetRandomSeedCB

        RSEG BANK_RELAYS:CODE:REORDER:NOROOT(0)
??macMcuInit?relay:
        LCALL   ?BDISPATCH
        DATA
        DC24    macMcuInit

        RSEG BANK_RELAYS:CODE:REORDER:NOROOT(0)
??macMcuRandomByte?relay:
        LCALL   ?BDISPATCH
        DATA
        DC24    macMcuRandomByte

        RSEG BANK_RELAYS:CODE:REORDER:NOROOT(0)
??macMcuRandomWord?relay:
        LCALL   ?BDISPATCH
        DATA
        DC24    macMcuRandomWord

        RSEG BANK_RELAYS:CODE:REORDER:NOROOT(0)
??macMcuTimerForceDelay?relay:
        LCALL   ?BDISPATCH
        DATA
        DC24    macMcuTimerForceDelay

        RSEG BANK_RELAYS:CODE:REORDER:NOROOT(0)
??macMcuTimerCapture?relay:
        LCALL   ?BDISPATCH
        DATA
        DC24    macMcuTimerCapture

        RSEG BANK_RELAYS:CODE:REORDER:NOROOT(0)
??macMcuOverflowCount?relay:
        LCALL   ?BDISPATCH
        DATA
        DC24    macMcuOverflowCount

        RSEG BANK_RELAYS:CODE:REORDER:NOROOT(0)
??macMcuOverflowCapture?relay:
        LCALL   ?BDISPATCH
        DATA
        DC24    macMcuOverflowCapture

        RSEG BANK_RELAYS:CODE:REORDER:NOROOT(0)
??macMcuOverflowSetCount?relay:
        LCALL   ?BDISPATCH
        DATA
        DC24    macMcuOverflowSetCount

        RSEG BANK_RELAYS:CODE:REORDER:NOROOT(0)
??macMcuOverflowSetCompare?relay:
        LCALL   ?BDISPATCH
        DATA
        DC24    macMcuOverflowSetCompare

        RSEG BANK_RELAYS:CODE:REORDER:NOROOT(0)
??macMcuTimer2OverflowWorkaround?relay:
        LCALL   ?BDISPATCH
        DATA
        DC24    macMcuTimer2OverflowWorkaround

        RSEG BANK_RELAYS:CODE:REORDER:NOROOT(0)
??macMcuPrecisionCount?relay:
        LCALL   ?BDISPATCH
        DATA
        DC24    macMcuPrecisionCount

        RSEG BANK_RELAYS:CODE:REORDER:NOROOT(0)
??macMcuRecordMaxRssiStart?relay:
        LCALL   ?BDISPATCH
        DATA
        DC24    macMcuRecordMaxRssiStart

        RSEG BANK_RELAYS:CODE:REORDER:NOROOT(0)
??macMcuRecordMaxRssiStop?relay:
        LCALL   ?BDISPATCH
        DATA
        DC24    macMcuRecordMaxRssiStop

        END
//  844 
//  845 
//  846 /*=================================================================================================
//  847  * @fn          macMcuRecordMaxRssiIsr
//  848  *
//  849  * @brief       Interrupt service routine called during recording of max RSSI value.
//  850  *
//  851  * @param       none
//  852  *
//  853  * @return      none
//  854  *=================================================================================================
//  855  */
//  856 static void mcuRecordMaxRssiIsr(void)
//  857 {
//  858   int8 rssi;
//  859 
//  860   /* read latest RSSI value */
//  861   rssi = RSSI;
//  862 
//  863   rssiRecordFlag = 0;
//  864 
//  865   /* if new RSSI value is greater than the maximum already received, it is the new maximum */
//  866   if (rssi > maxRssi)
//  867   {
//  868     maxRssi = rssi;
//  869   }
//  870 }
//  871 
//  872 
//  873 /**************************************************************************************************
//  874  *                                  Compile Time Integrity Checks
//  875  **************************************************************************************************
//  876  */
//  877 #if ((IRQ_SFD != IM_SFD) || (IRQ_FIFOP != IM_FIFOP) || (IRQ_TXACKDONE != IM_TXACKDONE))
//  878 #error "ERROR: Compile time error with RFIRQFx vs RFIRQMx register defines."
//  879 #endif
//  880 
//  881 /**************************************************************************************************
//  882 */
// 
// 1 017 bytes in segment BANKED_CODE
//    84 bytes in segment BANK_RELAYS
//     6 bytes in segment INTVEC
//   105 bytes in segment NEAR_CODE
//    18 bytes in segment SFR_AN
//     4 bytes in segment XDATA_I
//     4 bytes in segment XDATA_ID
//     9 bytes in segment XDATA_Z
// 
// 1 206 bytes of CODE  memory (+ 10 bytes shared)
//     0 bytes of DATA  memory (+ 18 bytes shared)
//     9 bytes of XDATA memory (+  4 bytes shared)
//
//Errors: none
//Warnings: none
