///////////////////////////////////////////////////////////////////////////////
//                                                                            /
// IAR C/C++ Compiler V8.10.4.40412/W32 for 8051        05/Dec/2016  00:00:15 /
// Copyright 2004-2011 IAR Systems AB.                                        /
//                                                                            /
//    Core               =  plain                                             /
//    Code model         =  banked                                            /
//    Data model         =  large                                             /
//    Calling convention =  xdata reentrant                                   /
//    Constant location  =  data                                              /
//    Dptr setup         =  1,16                                              /
//    Source file        =  C:\Users\freeman\Documents\work\NBK\Nikon\Nikon_R /
//                          f\SimpliciTI-IAR-1.2.0\Components\simpliciti\nwk\ /
//                          nwk_api.c                                         /
//    Command line       =  -f C:\Users\freeman\Documents\work\NBK\Nikon\Niko /
//                          n_Rf\SimpliciTI-IAR-1.2.0\Projects\Examples\SRF05 /
//                          _8051\nik_sb5000\IAR\Configuration\LinkTo\smpl_co /
//                          nfig.dat ("-DTHIS_DEVICE_ADDRESS={0x79, 0x56,     /
//                          0x34, 0x12}" -DxNWK_PLL_REFERENCE_CLOCK           /
//                          -DLINK_TO) -f C:\Users\freeman\Documents\work\NBK /
//                          \Nikon\Nikon_Rf\SimpliciTI-IAR-1.2.0\Projects\Exa /
//                          mples\SRF05_8051\nik_sb5000\IAR\Configuration\smp /
//                          l_nwk_config.dat (-DMAX_HOPS=3                    /
//                          -DMAX_HOPS_FROM_AP=1 -DMAX_NWK_PAYLOAD=34         /
//                          -DMAX_APP_PAYLOAD=10 -DDEFAULT_LINK_TOKEN=0x01020 /
//                          304 -DDEFAULT_JOIN_TOKEN=0x05060708               /
//                          -DxFREQUENCY_AGILITY -DxAPP_AUTO_ACK              /
//                          -DxEXTENDED_API -DxSMPL_SECURE                    /
//                          -DxNVOBJECT_SUPPORT -DxSW_TIMER                   /
//                          -DNUM_CONNECTIONS=2 -DSIZE_INFRAME_Q=4            /
//                          -DSIZE_OUTFRAME_Q=2 -DxFREQUENCY_HOPPING          /
//                          -DNWK_PLL_SHOW_LOCATION_INDICATORS                /
//                          -DUART_NUMBER=UART_NUMBER_0                       /
//                          -DUART_LOCATION=UART_LOCATION_1                   /
//                          -DUART_BAUD_RATE=115200                           /
//                          -DUART_FLOW_CONTROL=UART_FLOW_CONTROL_OFF         /
//                          -DUART_PARITY_MODE=UART_PARITY_NONE               /
//                          -DUART_STOP_BITS=UART_1_STOP_BIT                  /
//                          -DBSP_TIMER_USED=1 -DEND_DEVICE)                  /
//                          C:\Users\freeman\Documents\work\NBK\Nikon\Nikon_R /
//                          f\SimpliciTI-IAR-1.2.0\Components\simpliciti\nwk\ /
//                          nwk_api.c -D MCU_H=<ioCC2530.h> -D MRFI_CC2530    /
//                          -D ZTOOL_P1 -D MRFI_PA_LNA_ENABLED -lC            /
//                          C:\Users\freeman\Documents\work\NBK\Nikon\Nikon_R /
//                          f\SimpliciTI-IAR-1.2.0\Projects\Examples\SRF05_80 /
//                          51\nik_sb5000\IAR\LinkTo\List\ -lA                /
//                          C:\Users\freeman\Documents\work\NBK\Nikon\Nikon_R /
//                          f\SimpliciTI-IAR-1.2.0\Projects\Examples\SRF05_80 /
//                          51\nik_sb5000\IAR\LinkTo\List\ -o                 /
//                          C:\Users\freeman\Documents\work\NBK\Nikon\Nikon_R /
//                          f\SimpliciTI-IAR-1.2.0\Projects\Examples\SRF05_80 /
//                          51\nik_sb5000\IAR\LinkTo\Obj\ -e --debug          /
//                          --core=plain --dptr=16,1 --data_model=large       /
//                          --code_model=banked --calling_convention=xdata_re /
//                          entrant --place_constants=data --nr_virtual_regs  /
//                          16 -I C:\Users\freeman\Documents\work\NBK\Nikon\N /
//                          ikon_Rf\SimpliciTI-IAR-1.2.0\Projects\Examples\SR /
//                          F05_8051\nik_sb5000\IAR\..\..\..\..\..\Components /
//                          \bsp\ -I C:\Users\freeman\Documents\work\NBK\Niko /
//                          n\Nikon_Rf\SimpliciTI-IAR-1.2.0\Projects\Examples /
//                          \SRF05_8051\nik_sb5000\IAR\..\..\..\..\..\Compone /
//                          nts\bsp\drivers\ -I C:\Users\freeman\Documents\wo /
//                          rk\NBK\Nikon\Nikon_Rf\SimpliciTI-IAR-1.2.0\Projec /
//                          ts\Examples\SRF05_8051\nik_sb5000\IAR\..\..\..\.. /
//                          \..\Components\bsp\boards\CC2530EM\ -I            /
//                          C:\Users\freeman\Documents\work\NBK\Nikon\Nikon_R /
//                          f\SimpliciTI-IAR-1.2.0\Projects\Examples\SRF05_80 /
//                          51\nik_sb5000\IAR\..\..\..\..\..\Components\mrfi\ /
//                           -I C:\Users\freeman\Documents\work\NBK\Nikon\Nik /
//                          on_Rf\SimpliciTI-IAR-1.2.0\Projects\Examples\SRF0 /
//                          5_8051\nik_sb5000\IAR\..\..\..\..\..\Components\S /
//                          impliciTI\nwk\ -I C:\Users\freeman\Documents\work /
//                          \NBK\Nikon\Nikon_Rf\SimpliciTI-IAR-1.2.0\Projects /
//                          \Examples\SRF05_8051\nik_sb5000\IAR\..\..\..\Appl /
//                          ications\ -I C:\Users\freeman\Documents\work\NBK\ /
//                          Nikon\Nikon_Rf\SimpliciTI-IAR-1.2.0\Projects\Exam /
//                          ples\SRF05_8051\nik_sb5000\IAR\..\..\..\..\..\Com /
//                          ponents\SimpliciTI\nwk_applications\ -I           /
//                          C:\Users\freeman\Documents\work\NBK\Nikon\Nikon_R /
//                          f\SimpliciTI-IAR-1.2.0\Projects\Examples\SRF05_80 /
//                          51\nik_sb5000\IAR\..\..\..\..\..\Components\OSAL\ /
//                          INCLUDE\ -I C:\Users\freeman\Documents\work\NBK\N /
//                          ikon\Nikon_Rf\SimpliciTI-IAR-1.2.0\Projects\Examp /
//                          les\SRF05_8051\nik_sb5000\IAR\..\..\..\..\..\Comp /
//                          onents\OSAL\MCU\CCSOC\ -I                         /
//                          C:\Users\freeman\Documents\work\NBK\Nikon\Nikon_R /
//                          f\SimpliciTI-IAR-1.2.0\Projects\Examples\SRF05_80 /
//                          51\nik_sb5000\IAR\..\..\..\..\..\Components\HAL\I /
//                          NCLUDE\ -I C:\Users\freeman\Documents\work\NBK\Ni /
//                          kon\Nikon_Rf\SimpliciTI-IAR-1.2.0\Projects\Exampl /
//                          es\SRF05_8051\nik_sb5000\IAR\..\..\..\..\..\Compo /
//                          nents\HAL\TARGET\CC2530EB\ -I                     /
//                          C:\Users\freeman\Documents\work\NBK\Nikon\Nikon_R /
//                          f\SimpliciTI-IAR-1.2.0\Projects\Examples\SRF05_80 /
//                          51\nik_sb5000\IAR\..\..\..\..\..\Components\SERVI /
//                          CES\SADDR\ -I C:\Users\freeman\Documents\work\NBK /
//                          \Nikon\Nikon_Rf\SimpliciTI-IAR-1.2.0\Projects\Exa /
//                          mples\SRF05_8051\nik_sb5000\IAR\..\..\..\..\..\Co /
//                          mponents\SERVICES\SDATA\ -I                       /
//                          C:\Users\freeman\Documents\work\NBK\Nikon\Nikon_R /
//                          f\SimpliciTI-IAR-1.2.0\Projects\Examples\SRF05_80 /
//                          51\nik_sb5000\IAR\..\..\..\..\..\Components\MT\   /
//                          -I C:\Users\freeman\Documents\work\NBK\Nikon\Niko /
//                          n_Rf\SimpliciTI-IAR-1.2.0\Projects\Examples\SRF05 /
//                          _8051\nik_sb5000\IAR\..\..\..\..\..\Components\ST /
//                          ACK\AF\ -I C:\Users\freeman\Documents\work\NBK\Ni /
//                          kon\Nikon_Rf\SimpliciTI-IAR-1.2.0\Projects\Exampl /
//                          es\SRF05_8051\nik_sb5000\IAR\..\..\..\..\..\Compo /
//                          nents\STACK\NWK\ -I C:\Users\freeman\Documents\wo /
//                          rk\NBK\Nikon\Nikon_Rf\SimpliciTI-IAR-1.2.0\Projec /
//                          ts\Examples\SRF05_8051\nik_sb5000\IAR\..\..\..\.. /
//                          \..\Components\STACK\SEC\ -I                      /
//                          C:\Users\freeman\Documents\work\NBK\Nikon\Nikon_R /
//                          f\SimpliciTI-IAR-1.2.0\Projects\Examples\SRF05_80 /
//                          51\nik_sb5000\IAR\..\..\..\..\..\Components\STACK /
//                          \SAPI\ -I C:\Users\freeman\Documents\work\NBK\Nik /
//                          on\Nikon_Rf\SimpliciTI-IAR-1.2.0\Projects\Example /
//                          s\SRF05_8051\nik_sb5000\IAR\..\..\..\..\..\Compon /
//                          ents\STACK\SYS\ -I C:\Users\freeman\Documents\wor /
//                          k\NBK\Nikon\Nikon_Rf\SimpliciTI-IAR-1.2.0\Project /
//                          s\Examples\SRF05_8051\nik_sb5000\IAR\..\..\..\..\ /
//                          ..\Components\STACK\ZDO\ -I                       /
//                          C:\Users\freeman\Documents\work\NBK\Nikon\Nikon_R /
//                          f\SimpliciTI-IAR-1.2.0\Projects\Examples\SRF05_80 /
//                          51\nik_sb5000\IAR\..\..\..\..\..\Components\MAC\I /
//                          NCLUDE\ -I C:\Users\freeman\Documents\work\NBK\Ni /
//                          kon\Nikon_Rf\SimpliciTI-IAR-1.2.0\Projects\Exampl /
//                          es\SRF05_8051\nik_sb5000\IAR\..\..\..\..\..\Compo /
//                          nents\MAC\HIGH_LEVEL\ -I                          /
//                          C:\Users\freeman\Documents\work\NBK\Nikon\Nikon_R /
//                          f\SimpliciTI-IAR-1.2.0\Projects\Examples\SRF05_80 /
//                          51\nik_sb5000\IAR\..\..\..\..\..\Components\MAC\L /
//                          OW_LEVEL\srf04\ -I C:\Users\freeman\Documents\wor /
//                          k\NBK\Nikon\Nikon_Rf\SimpliciTI-IAR-1.2.0\Project /
//                          s\Examples\SRF05_8051\nik_sb5000\IAR\..\..\..\..\ /
//                          ..\Components\MAC\LOW_LEVEL\srf04\SINGLE_CHIP\    /
//                          -Ohz --require_prototypes                         /
//    List file          =  C:\Users\freeman\Documents\work\NBK\Nikon\Nikon_R /
//                          f\SimpliciTI-IAR-1.2.0\Projects\Examples\SRF05_80 /
//                          51\nik_sb5000\IAR\LinkTo\List\nwk_api.s51         /
//                                                                            /
//                                                                            /
///////////////////////////////////////////////////////////////////////////////

        NAME nwk_api

        RTMODEL "__SystemLibrary", "CLib"
        RTMODEL "__calling_convention", "xdata_reentrant"
        RTMODEL "__code_model", "banked"
        RTMODEL "__core", "plain"
        RTMODEL "__data_model", "large"
        RTMODEL "__dptr_size", "16"
        RTMODEL "__extended_stack", "disabled"
        RTMODEL "__location_for_constants", "data"
        RTMODEL "__number_of_dptrs", "1"
        RTMODEL "__rt_version", "1"

        RSEG DOVERLAY:DATA:NOROOT(0)
        RSEG IOVERLAY:IDATA:NOROOT(0)
        RSEG ISTACK:IDATA:NOROOT(0)
        RSEG PSTACK:XDATA:NOROOT(0)
        RSEG XSTACK:XDATA:NOROOT(0)

        EXTERN ?ALLOC_XSTACK8
        EXTERN ?BANKED_ENTER_XDATA
        EXTERN ?BANKED_LEAVE_XDATA
        EXTERN ?BDISPATCH
        EXTERN ?BRET
        EXTERN ?DEALLOC_XSTACK8
        EXTERN ?MOVE_LONG8_XDATA_XDATA
        EXTERN ?PUSH_XSTACK_I_TWO
        EXTERN ?V0
        EXTERN ?XSP
        EXTERN ?XSTACK_DISP0_8
        EXTERN __INIT_XDATA_Z

        FUNCTION ??CalcSum?relay,0203H
        FUNCTION ??FlashInfoSend?relay,0203H
        FUNCTION ??MstPacketParse?relay,0203H
        PUBLIC ??NIK_Init?relay
        FUNCTION ??NIK_Init?relay,0203H
        PUBLIC ??NIK_LINK?relay
        FUNCTION ??NIK_LINK?relay,0203H
        FUNCTION ??PreFlashInfoSend?relay,0203H
        FUNCTION ??RptFlashInfoSend?relay,0203H
        PUBLIC ??SMPL_Init?relay
        FUNCTION ??SMPL_Init?relay,0203H
        PUBLIC ??SMPL_Ioctl?relay
        FUNCTION ??SMPL_Ioctl?relay,0203H
        PUBLIC ??SMPL_Link?relay
        FUNCTION ??SMPL_Link?relay,0203H
        PUBLIC ??SMPL_LinkListen?relay
        FUNCTION ??SMPL_LinkListen?relay,0203H
        PUBLIC ??SMPL_Receive?relay
        FUNCTION ??SMPL_Receive?relay,0203H
        PUBLIC ??SMPL_Send?relay
        FUNCTION ??SMPL_Send?relay,0203H
        PUBLIC ??SMPL_SendOpt?relay
        FUNCTION ??SMPL_SendOpt?relay,0203H
        FUNCTION ??UartSctSend?relay,0203H
        FUNCTION ??macDelay?relay,0203H
        FUNCTION CalcSum,0203H
        ARGFRAME XSTACK, 101, STACK
        ARGFRAME IOVERLAY, 0, STATIC
        ARGFRAME DOVERLAY, 0, STATIC
        LOCFRAME XSTACK, 10, STACK
        FUNCTION FlashInfoSend,021203H
        ARGFRAME XSTACK, 10, STACK
        ARGFRAME IOVERLAY, 0, STATIC
        ARGFRAME DOVERLAY, 0, STATIC
        LOCFRAME ISTACK, 4, STACK
        LOCFRAME XSTACK, 101, STACK
        FUNCTION MstPacketParse,021203H
        ARGFRAME XSTACK, 0, STACK
        ARGFRAME IOVERLAY, 0, STATIC
        ARGFRAME DOVERLAY, 0, STATIC
        LOCFRAME XSTACK, 12, STACK
        PUBLIC NIK_Init
        FUNCTION NIK_Init,0203H
        ARGFRAME XSTACK, 0, STACK
        LOCFRAME ISTACK, 2, STACK
        PUBLIC NIK_LINK
        FUNCTION NIK_LINK,021203H
        ARGFRAME XSTACK, 0, STACK
        LOCFRAME ISTACK, 2, STACK
        FUNCTION PreFlashInfoSend,021203H
        ARGFRAME XSTACK, 10, STACK
        ARGFRAME IOVERLAY, 0, STATIC
        ARGFRAME DOVERLAY, 0, STATIC
        LOCFRAME ISTACK, 4, STACK
        LOCFRAME XSTACK, 100, STACK
        FUNCTION RptFlashInfoSend,021203H
        ARGFRAME XSTACK, 10, STACK
        ARGFRAME IOVERLAY, 0, STATIC
        ARGFRAME DOVERLAY, 0, STATIC
        LOCFRAME ISTACK, 1, STACK
        LOCFRAME XSTACK, 30, STACK
        PUBLIC SMPL_Init
        FUNCTION SMPL_Init,021203H
        ARGFRAME XSTACK, 0, STACK
        LOCFRAME XSTACK, 9, STACK
        PUBLIC SMPL_Ioctl
        FUNCTION SMPL_Ioctl,021203H
        ARGFRAME XSTACK, 0, STACK
        LOCFRAME ISTACK, 1, STACK
        LOCFRAME XSTACK, 14, STACK
        PUBLIC SMPL_Link
        FUNCTION SMPL_Link,021203H
        ARGFRAME XSTACK, 0, STACK
        LOCFRAME ISTACK, 2, STACK
        PUBLIC SMPL_LinkListen
        FUNCTION SMPL_LinkListen,021203H
        ARGFRAME XSTACK, 0, STACK
        LOCFRAME ISTACK, 1, STACK
        LOCFRAME XSTACK, 12, STACK
        PUBLIC SMPL_Receive
        FUNCTION SMPL_Receive,021203H
        ARGFRAME XSTACK, 0, STACK
        LOCFRAME ISTACK, 1, STACK
        LOCFRAME XSTACK, 23, STACK
        PUBLIC SMPL_Send
        FUNCTION SMPL_Send,021203H
        ARGFRAME XSTACK, 0, STACK
        LOCFRAME XSTACK, 12, STACK
        PUBLIC SMPL_SendOpt
        FUNCTION SMPL_SendOpt,021203H
        ARGFRAME XSTACK, 12, STACK
        ARGFRAME IOVERLAY, 0, STATIC
        ARGFRAME DOVERLAY, 0, STATIC
        LOCFRAME XSTACK, 20, STACK
        FUNCTION UartSctSend,021203H
        ARGFRAME XSTACK, 10, STACK
        ARGFRAME IOVERLAY, 0, STATIC
        ARGFRAME DOVERLAY, 0, STATIC
        LOCFRAME ISTACK, 1, STACK
        LOCFRAME XSTACK, 11, STACK
        PUBWEAK _A_P0
        PUBWEAK _A_P1
        PUBLIC gBUartBuf
        PUBLIC gBUartLen
        PUBLIC gBUartTotalByte
        PUBLIC g_flashReady
        PUBLIC g_flashSignal
        PUBLIC g_frameInfo
        PUBLIC g_pRcvPkt
        PUBLIC g_preFlashRdy
        PUBLIC g_rptFlashRdy
        FUNCTION macDelay,0203H
        ARGFRAME XSTACK, 10, STACK
        ARGFRAME IOVERLAY, 0, STATIC
        ARGFRAME DOVERLAY, 0, STATIC
        PUBLIC radioSet
        PUBLIC uart_tran_flag
        
        CFI Names cfiNames0
        CFI StackFrame CFA_SP SP IDATA
        CFI StackFrame CFA_PSP16 PSP16 XDATA
        CFI StackFrame CFA_XSP16 XSP16 XDATA
        CFI StaticOverlayFrame CFA_IOVERLAY IOVERLAY
        CFI StaticOverlayFrame CFA_DOVERLAY DOVERLAY
        CFI Resource `PSW.CY`:1, `B.BR0`:1, `B.BR1`:1, `B.BR2`:1, `B.BR3`:1
        CFI Resource `B.BR4`:1, `B.BR5`:1, `B.BR6`:1, `B.BR7`:1, `VB.BR8`:1
        CFI Resource `VB.BR9`:1, `VB.BR10`:1, `VB.BR11`:1, `VB.BR12`:1
        CFI Resource `VB.BR13`:1, `VB.BR14`:1, `VB.BR15`:1, VB:8, B:8, A:8
        CFI Resource PSW:8, DPL0:8, DPH0:8, R0:8, R1:8, R2:8, R3:8, R4:8, R5:8
        CFI Resource R6:8, R7:8, V0:8, V1:8, V2:8, V3:8, V4:8, V5:8, V6:8, V7:8
        CFI Resource V8:8, V9:8, V10:8, V11:8, V12:8, V13:8, V14:8, V15:8, SP:8
        CFI Resource PSPH:8, PSPL:8, PSP16:16, XSPH:8, XSPL:8, XSP16:16
        CFI VirtualResource ?RET:24
        CFI Resource ?BRET_EXT:8
        CFI VirtualResource ?RET_HIGH:8, ?RET_LOW:8
        CFI ResourceParts PSP16 PSPH, PSPL
        CFI ResourceParts XSP16 XSPH, XSPL
        CFI ResourceParts ?RET ?BRET_EXT, ?RET_HIGH, ?RET_LOW
        CFI EndNames cfiNames0
        
        CFI Common cfiCommon0 Using cfiNames0
        CFI CodeAlign 1
        CFI DataAlign -1
        CFI ReturnAddress ?RET CODE
        CFI CFA_DOVERLAY Used
        CFI CFA_IOVERLAY Used
        CFI CFA_SP SP+-3
        CFI CFA_PSP16 PSP16+0
        CFI CFA_XSP16 XSP16+0
        CFI `PSW.CY` SameValue
        CFI `B.BR0` SameValue
        CFI `B.BR1` SameValue
        CFI `B.BR2` SameValue
        CFI `B.BR3` SameValue
        CFI `B.BR4` SameValue
        CFI `B.BR5` SameValue
        CFI `B.BR6` SameValue
        CFI `B.BR7` SameValue
        CFI `VB.BR8` SameValue
        CFI `VB.BR9` SameValue
        CFI `VB.BR10` SameValue
        CFI `VB.BR11` SameValue
        CFI `VB.BR12` SameValue
        CFI `VB.BR13` SameValue
        CFI `VB.BR14` SameValue
        CFI `VB.BR15` SameValue
        CFI VB SameValue
        CFI B Undefined
        CFI A Undefined
        CFI PSW SameValue
        CFI DPL0 SameValue
        CFI DPH0 SameValue
        CFI R0 Undefined
        CFI R1 Undefined
        CFI R2 Undefined
        CFI R3 Undefined
        CFI R4 Undefined
        CFI R5 Undefined
        CFI R6 SameValue
        CFI R7 SameValue
        CFI V0 SameValue
        CFI V1 SameValue
        CFI V2 SameValue
        CFI V3 SameValue
        CFI V4 SameValue
        CFI V5 SameValue
        CFI V6 SameValue
        CFI V7 SameValue
        CFI V8 SameValue
        CFI V9 SameValue
        CFI V10 SameValue
        CFI V11 SameValue
        CFI V12 SameValue
        CFI V13 SameValue
        CFI V14 SameValue
        CFI V15 SameValue
        CFI PSPH Undefined
        CFI PSPL Undefined
        CFI XSPH Undefined
        CFI XSPL Undefined
        CFI ?RET Concat
        CFI ?BRET_EXT Frame(CFA_SP, 3)
        CFI ?RET_HIGH Frame(CFA_SP, 2)
        CFI ?RET_LOW Frame(CFA_SP, 1)
        CFI EndCommon cfiCommon0
        
        
        CFI Common cfiCommon1 Using cfiNames0
        CFI CodeAlign 1
        CFI DataAlign -1
        CFI ReturnAddress ?RET CODE
        CFI CFA_DOVERLAY Used
        CFI CFA_IOVERLAY Used
        CFI CFA_SP SP+-2
        CFI CFA_PSP16 PSP16+0
        CFI CFA_XSP16 XSP16+0
        CFI `PSW.CY` SameValue
        CFI `B.BR0` SameValue
        CFI `B.BR1` SameValue
        CFI `B.BR2` SameValue
        CFI `B.BR3` SameValue
        CFI `B.BR4` SameValue
        CFI `B.BR5` SameValue
        CFI `B.BR6` SameValue
        CFI `B.BR7` SameValue
        CFI `VB.BR8` SameValue
        CFI `VB.BR9` SameValue
        CFI `VB.BR10` SameValue
        CFI `VB.BR11` SameValue
        CFI `VB.BR12` SameValue
        CFI `VB.BR13` SameValue
        CFI `VB.BR14` SameValue
        CFI `VB.BR15` SameValue
        CFI VB SameValue
        CFI B SameValue
        CFI A SameValue
        CFI PSW SameValue
        CFI DPL0 SameValue
        CFI DPH0 SameValue
        CFI R0 SameValue
        CFI R1 SameValue
        CFI R2 SameValue
        CFI R3 SameValue
        CFI R4 SameValue
        CFI R5 SameValue
        CFI R6 SameValue
        CFI R7 SameValue
        CFI V0 SameValue
        CFI V1 SameValue
        CFI V2 SameValue
        CFI V3 SameValue
        CFI V4 SameValue
        CFI V5 SameValue
        CFI V6 SameValue
        CFI V7 SameValue
        CFI V8 SameValue
        CFI V9 SameValue
        CFI V10 SameValue
        CFI V11 SameValue
        CFI V12 SameValue
        CFI V13 SameValue
        CFI V14 SameValue
        CFI V15 SameValue
        CFI PSPH Undefined
        CFI PSPL Undefined
        CFI XSPH Undefined
        CFI XSPL Undefined
        CFI ?RET Concat
        CFI ?BRET_EXT SameValue
        CFI ?RET_HIGH Frame(CFA_SP, 2)
        CFI ?RET_LOW Frame(CFA_SP, 1)
        CFI EndCommon cfiCommon1
        
MRFI_Init           SYMBOL "MRFI_Init"
nwk_nwkInit         SYMBOL "nwk_nwkInit"
MRFI_WakeUp         SYMBOL "MRFI_WakeUp"
nwk_getMyAddress    SYMBOL "nwk_getMyAddress"
MRFI_SetRxAddrFilter SYMBOL "MRFI_SetRxAddrFilter"
MRFI_DisableRxAddrFilter SYMBOL "MRFI_DisableRxAddrFilter"
nwk_join            SYMBOL "nwk_join"
MRFI_GetRadioState  SYMBOL "MRFI_GetRadioState"
nwk_setListenContext SYMBOL "nwk_setListenContext"
MRFI_RxOn           SYMBOL "MRFI_RxOn"
nwk_getLocalLinkID  SYMBOL "nwk_getLocalLinkID"
MRFI_DelayMs        SYMBOL "MRFI_DelayMs"
MRFI_Sleep          SYMBOL "MRFI_Sleep"
MRFI_RxIdle         SYMBOL "MRFI_RxIdle"
nwk_getConnInfo     SYMBOL "nwk_getConnInfo"
nwk_checkConnInfo   SYMBOL "nwk_checkConnInfo"
nwk_buildFrame      SYMBOL "nwk_buildFrame"
memcpy              SYMBOL "memcpy"
nwk_sendFrame       SYMBOL "nwk_sendFrame"
nwk_retrieveFrame   SYMBOL "nwk_retrieveFrame"
nwk_link            SYMBOL "nwk_link"
HalUARTWrite        SYMBOL "HalUARTWrite"
UartDMAIntSend      SYMBOL "UartDMAIntSend"
nwk_connectionControl SYMBOL "nwk_connectionControl"
nwk_deviceAddress   SYMBOL "nwk_deviceAddress"
nwk_rawSend         SYMBOL "nwk_rawSend"
nwk_rawReceive      SYMBOL "nwk_rawReceive"
nwk_radioControl    SYMBOL "nwk_radioControl"
nwk_getFWVersion    SYMBOL "nwk_getFWVersion"
nwk_getProtocolVersion SYMBOL "nwk_getProtocolVersion"
??HalUARTWrite?relay SYMBOL "?relay", HalUARTWrite
??MRFI_DelayMs?relay SYMBOL "?relay", MRFI_DelayMs
??MRFI_DisableRxAddrFilter?relay SYMBOL "?relay", MRFI_DisableRxAddrFilter
??MRFI_GetRadioState?relay SYMBOL "?relay", MRFI_GetRadioState
??MRFI_Init?relay   SYMBOL "?relay", MRFI_Init
??MRFI_RxIdle?relay SYMBOL "?relay", MRFI_RxIdle
??MRFI_RxOn?relay   SYMBOL "?relay", MRFI_RxOn
??MRFI_SetRxAddrFilter?relay SYMBOL "?relay", MRFI_SetRxAddrFilter
??MRFI_Sleep?relay  SYMBOL "?relay", MRFI_Sleep
??MRFI_WakeUp?relay SYMBOL "?relay", MRFI_WakeUp
??UartDMAIntSend?relay SYMBOL "?relay", UartDMAIntSend
??memcpy?relay      SYMBOL "?relay", memcpy
??nwk_buildFrame?relay SYMBOL "?relay", nwk_buildFrame
??nwk_checkConnInfo?relay SYMBOL "?relay", nwk_checkConnInfo
??nwk_connectionControl?relay SYMBOL "?relay", nwk_connectionControl
??nwk_deviceAddress?relay SYMBOL "?relay", nwk_deviceAddress
??nwk_getConnInfo?relay SYMBOL "?relay", nwk_getConnInfo
??nwk_getFWVersion?relay SYMBOL "?relay", nwk_getFWVersion
??nwk_getLocalLinkID?relay SYMBOL "?relay", nwk_getLocalLinkID
??nwk_getMyAddress?relay SYMBOL "?relay", nwk_getMyAddress
??nwk_getProtocolVersion?relay SYMBOL "?relay", nwk_getProtocolVersion
??nwk_join?relay    SYMBOL "?relay", nwk_join
??nwk_link?relay    SYMBOL "?relay", nwk_link
??nwk_nwkInit?relay SYMBOL "?relay", nwk_nwkInit
??nwk_radioControl?relay SYMBOL "?relay", nwk_radioControl
??nwk_rawReceive?relay SYMBOL "?relay", nwk_rawReceive
??nwk_rawSend?relay SYMBOL "?relay", nwk_rawSend
??nwk_retrieveFrame?relay SYMBOL "?relay", nwk_retrieveFrame
??nwk_sendFrame?relay SYMBOL "?relay", nwk_sendFrame
??nwk_setListenContext?relay SYMBOL "?relay", nwk_setListenContext
NIK_Init            SYMBOL "NIK_Init"
??NIK_Init?relay    SYMBOL "?relay", NIK_Init
NIK_LINK            SYMBOL "NIK_LINK"
??NIK_LINK?relay    SYMBOL "?relay", NIK_LINK
SMPL_Init           SYMBOL "SMPL_Init"
??SMPL_Init?relay   SYMBOL "?relay", SMPL_Init
SMPL_Ioctl          SYMBOL "SMPL_Ioctl"
??SMPL_Ioctl?relay  SYMBOL "?relay", SMPL_Ioctl
SMPL_Link           SYMBOL "SMPL_Link"
??SMPL_Link?relay   SYMBOL "?relay", SMPL_Link
SMPL_LinkListen     SYMBOL "SMPL_LinkListen"
??SMPL_LinkListen?relay SYMBOL "?relay", SMPL_LinkListen
SMPL_Receive        SYMBOL "SMPL_Receive"
??SMPL_Receive?relay SYMBOL "?relay", SMPL_Receive
SMPL_Send           SYMBOL "SMPL_Send"
??SMPL_Send?relay   SYMBOL "?relay", SMPL_Send
SMPL_SendOpt        SYMBOL "SMPL_SendOpt"
??SMPL_SendOpt?relay SYMBOL "?relay", SMPL_SendOpt

        EXTERN MRFI_Init
        FUNCTION MRFI_Init,0202H
        ARGFRAME ISTACK, 0, STACK
        ARGFRAME PSTACK, 0, STACK
        ARGFRAME XSTACK, 9, STACK
        ARGFRAME IOVERLAY, 0, STATIC
        ARGFRAME DOVERLAY, 0, STATIC
        EXTERN nwk_nwkInit
        FUNCTION nwk_nwkInit,0202H
        ARGFRAME ISTACK, 0, STACK
        ARGFRAME PSTACK, 0, STACK
        ARGFRAME XSTACK, 9, STACK
        ARGFRAME IOVERLAY, 0, STATIC
        ARGFRAME DOVERLAY, 0, STATIC
        EXTERN MRFI_WakeUp
        FUNCTION MRFI_WakeUp,0202H
        ARGFRAME ISTACK, 0, STACK
        ARGFRAME PSTACK, 0, STACK
        ARGFRAME XSTACK, 12, STACK
        ARGFRAME IOVERLAY, 0, STATIC
        ARGFRAME DOVERLAY, 0, STATIC
        EXTERN nwk_getMyAddress
        FUNCTION nwk_getMyAddress,0202H
        ARGFRAME ISTACK, 0, STACK
        ARGFRAME PSTACK, 0, STACK
        ARGFRAME XSTACK, 9, STACK
        ARGFRAME IOVERLAY, 0, STATIC
        ARGFRAME DOVERLAY, 0, STATIC
        EXTERN MRFI_SetRxAddrFilter
        FUNCTION MRFI_SetRxAddrFilter,0202H
        ARGFRAME ISTACK, 0, STACK
        ARGFRAME PSTACK, 0, STACK
        ARGFRAME XSTACK, 9, STACK
        ARGFRAME IOVERLAY, 0, STATIC
        ARGFRAME DOVERLAY, 0, STATIC
        EXTERN MRFI_DisableRxAddrFilter
        FUNCTION MRFI_DisableRxAddrFilter,0202H
        ARGFRAME ISTACK, 0, STACK
        ARGFRAME PSTACK, 0, STACK
        ARGFRAME XSTACK, 9, STACK
        ARGFRAME IOVERLAY, 0, STATIC
        ARGFRAME DOVERLAY, 0, STATIC
        EXTERN nwk_join
        FUNCTION nwk_join,0202H
        ARGFRAME ISTACK, 0, STACK
        ARGFRAME PSTACK, 0, STACK
        ARGFRAME XSTACK, 9, STACK
        ARGFRAME IOVERLAY, 0, STATIC
        ARGFRAME DOVERLAY, 0, STATIC
        EXTERN MRFI_GetRadioState
        FUNCTION MRFI_GetRadioState,0202H
        ARGFRAME ISTACK, 0, STACK
        ARGFRAME PSTACK, 0, STACK
        ARGFRAME XSTACK, 18, STACK
        ARGFRAME IOVERLAY, 0, STATIC
        ARGFRAME DOVERLAY, 0, STATIC
        EXTERN nwk_setListenContext
        FUNCTION nwk_setListenContext,0202H
        ARGFRAME ISTACK, 0, STACK
        ARGFRAME PSTACK, 0, STACK
        ARGFRAME XSTACK, 12, STACK
        ARGFRAME IOVERLAY, 0, STATIC
        ARGFRAME DOVERLAY, 0, STATIC
        EXTERN MRFI_RxOn
        FUNCTION MRFI_RxOn,0202H
        ARGFRAME ISTACK, 0, STACK
        ARGFRAME PSTACK, 0, STACK
        ARGFRAME XSTACK, 12, STACK
        ARGFRAME IOVERLAY, 0, STATIC
        ARGFRAME DOVERLAY, 0, STATIC
        EXTERN nwk_getLocalLinkID
        FUNCTION nwk_getLocalLinkID,0202H
        ARGFRAME ISTACK, 0, STACK
        ARGFRAME PSTACK, 0, STACK
        ARGFRAME XSTACK, 12, STACK
        ARGFRAME IOVERLAY, 0, STATIC
        ARGFRAME DOVERLAY, 0, STATIC
        EXTERN MRFI_DelayMs
        FUNCTION MRFI_DelayMs,0202H
        ARGFRAME ISTACK, 0, STACK
        ARGFRAME PSTACK, 0, STACK
        ARGFRAME XSTACK, 12, STACK
        ARGFRAME IOVERLAY, 0, STATIC
        ARGFRAME DOVERLAY, 0, STATIC
        EXTERN MRFI_Sleep
        FUNCTION MRFI_Sleep,0202H
        ARGFRAME ISTACK, 0, STACK
        ARGFRAME PSTACK, 0, STACK
        ARGFRAME XSTACK, 12, STACK
        ARGFRAME IOVERLAY, 0, STATIC
        ARGFRAME DOVERLAY, 0, STATIC
        EXTERN MRFI_RxIdle
        FUNCTION MRFI_RxIdle,0202H
        ARGFRAME ISTACK, 0, STACK
        ARGFRAME PSTACK, 0, STACK
        ARGFRAME XSTACK, 12, STACK
        ARGFRAME IOVERLAY, 0, STATIC
        ARGFRAME DOVERLAY, 0, STATIC
        EXTERN nwk_getConnInfo
        FUNCTION nwk_getConnInfo,0202H
        ARGFRAME ISTACK, 0, STACK
        ARGFRAME PSTACK, 0, STACK
        ARGFRAME XSTACK, 18, STACK
        ARGFRAME IOVERLAY, 0, STATIC
        ARGFRAME DOVERLAY, 0, STATIC
        EXTERN nwk_checkConnInfo
        FUNCTION nwk_checkConnInfo,0202H
        ARGFRAME ISTACK, 0, STACK
        ARGFRAME PSTACK, 0, STACK
        ARGFRAME XSTACK, 18, STACK
        ARGFRAME IOVERLAY, 0, STATIC
        ARGFRAME DOVERLAY, 0, STATIC
        EXTERN nwk_buildFrame
        FUNCTION nwk_buildFrame,0202H
        ARGFRAME ISTACK, 0, STACK
        ARGFRAME PSTACK, 0, STACK
        ARGFRAME XSTACK, 18, STACK
        ARGFRAME IOVERLAY, 0, STATIC
        ARGFRAME DOVERLAY, 0, STATIC
        EXTERN memcpy
        FUNCTION memcpy,010202H
        ARGFRAME ISTACK, 0, STACK
        ARGFRAME PSTACK, 0, STACK
        ARGFRAME XSTACK, 20, STACK
        ARGFRAME IOVERLAY, 0, STATIC
        ARGFRAME DOVERLAY, 0, STATIC
        EXTERN nwk_sendFrame
        FUNCTION nwk_sendFrame,0202H
        ARGFRAME ISTACK, 0, STACK
        ARGFRAME PSTACK, 0, STACK
        ARGFRAME XSTACK, 18, STACK
        ARGFRAME IOVERLAY, 0, STATIC
        ARGFRAME DOVERLAY, 0, STATIC
        EXTERN nwk_retrieveFrame
        FUNCTION nwk_retrieveFrame,0202H
        ARGFRAME ISTACK, 0, STACK
        ARGFRAME PSTACK, 0, STACK
        ARGFRAME XSTACK, 23, STACK
        ARGFRAME IOVERLAY, 0, STATIC
        ARGFRAME DOVERLAY, 0, STATIC
        EXTERN nwk_link
        FUNCTION nwk_link,0202H
        ARGFRAME ISTACK, 2, STACK
        ARGFRAME PSTACK, 0, STACK
        ARGFRAME XSTACK, 0, STACK
        ARGFRAME IOVERLAY, 0, STATIC
        ARGFRAME DOVERLAY, 0, STATIC
        EXTERN HalUARTWrite
        FUNCTION HalUARTWrite,0202H
        ARGFRAME ISTACK, 2, STACK
        ARGFRAME PSTACK, 0, STACK
        ARGFRAME XSTACK, 101, STACK
        ARGFRAME IOVERLAY, 0, STATIC
        ARGFRAME DOVERLAY, 0, STATIC
        EXTERN UartDMAIntSend
        FUNCTION UartDMAIntSend,0202H
        ARGFRAME ISTACK, 2, STACK
        ARGFRAME PSTACK, 0, STACK
        ARGFRAME XSTACK, 101, STACK
        ARGFRAME IOVERLAY, 0, STATIC
        ARGFRAME DOVERLAY, 0, STATIC
        EXTERN nwk_connectionControl
        FUNCTION nwk_connectionControl,0202H
        ARGFRAME ISTACK, 0, STACK
        ARGFRAME PSTACK, 0, STACK
        ARGFRAME XSTACK, 12, STACK
        ARGFRAME IOVERLAY, 0, STATIC
        ARGFRAME DOVERLAY, 0, STATIC
        EXTERN nwk_deviceAddress
        FUNCTION nwk_deviceAddress,0202H
        ARGFRAME ISTACK, 0, STACK
        ARGFRAME PSTACK, 0, STACK
        ARGFRAME XSTACK, 12, STACK
        ARGFRAME IOVERLAY, 0, STATIC
        ARGFRAME DOVERLAY, 0, STATIC
        EXTERN nwk_rawSend
        FUNCTION nwk_rawSend,0202H
        ARGFRAME ISTACK, 0, STACK
        ARGFRAME PSTACK, 0, STACK
        ARGFRAME XSTACK, 12, STACK
        ARGFRAME IOVERLAY, 0, STATIC
        ARGFRAME DOVERLAY, 0, STATIC
        EXTERN nwk_rawReceive
        FUNCTION nwk_rawReceive,0202H
        ARGFRAME ISTACK, 0, STACK
        ARGFRAME PSTACK, 0, STACK
        ARGFRAME XSTACK, 12, STACK
        ARGFRAME IOVERLAY, 0, STATIC
        ARGFRAME DOVERLAY, 0, STATIC
        EXTERN nwk_radioControl
        FUNCTION nwk_radioControl,0202H
        ARGFRAME ISTACK, 0, STACK
        ARGFRAME PSTACK, 0, STACK
        ARGFRAME XSTACK, 12, STACK
        ARGFRAME IOVERLAY, 0, STATIC
        ARGFRAME DOVERLAY, 0, STATIC
        EXTERN nwk_getFWVersion
        FUNCTION nwk_getFWVersion,0202H
        ARGFRAME ISTACK, 0, STACK
        ARGFRAME PSTACK, 0, STACK
        ARGFRAME XSTACK, 14, STACK
        ARGFRAME IOVERLAY, 0, STATIC
        ARGFRAME DOVERLAY, 0, STATIC
        EXTERN nwk_getProtocolVersion
        FUNCTION nwk_getProtocolVersion,0202H
        ARGFRAME ISTACK, 0, STACK
        ARGFRAME PSTACK, 0, STACK
        ARGFRAME XSTACK, 12, STACK
        ARGFRAME IOVERLAY, 0, STATIC
        ARGFRAME DOVERLAY, 0, STATIC
        EXTERN ??HalUARTWrite?relay
        FUNCTION ??HalUARTWrite?relay,00H
        EXTERN ??MRFI_DelayMs?relay
        FUNCTION ??MRFI_DelayMs?relay,00H
        EXTERN ??MRFI_DisableRxAddrFilter?relay
        FUNCTION ??MRFI_DisableRxAddrFilter?relay,00H
        EXTERN ??MRFI_GetRadioState?relay
        FUNCTION ??MRFI_GetRadioState?relay,00H
        EXTERN ??MRFI_Init?relay
        FUNCTION ??MRFI_Init?relay,00H
        EXTERN ??MRFI_RxIdle?relay
        FUNCTION ??MRFI_RxIdle?relay,00H
        EXTERN ??MRFI_RxOn?relay
        FUNCTION ??MRFI_RxOn?relay,00H
        EXTERN ??MRFI_SetRxAddrFilter?relay
        FUNCTION ??MRFI_SetRxAddrFilter?relay,00H
        EXTERN ??MRFI_Sleep?relay
        FUNCTION ??MRFI_Sleep?relay,00H
        EXTERN ??MRFI_WakeUp?relay
        FUNCTION ??MRFI_WakeUp?relay,00H
        EXTERN ??UartDMAIntSend?relay
        FUNCTION ??UartDMAIntSend?relay,00H
        EXTERN ??memcpy?relay
        FUNCTION ??memcpy?relay,00H
        EXTERN ??nwk_buildFrame?relay
        FUNCTION ??nwk_buildFrame?relay,00H
        EXTERN ??nwk_checkConnInfo?relay
        FUNCTION ??nwk_checkConnInfo?relay,00H
        EXTERN ??nwk_connectionControl?relay
        FUNCTION ??nwk_connectionControl?relay,00H
        EXTERN ??nwk_deviceAddress?relay
        FUNCTION ??nwk_deviceAddress?relay,00H
        EXTERN ??nwk_getConnInfo?relay
        FUNCTION ??nwk_getConnInfo?relay,00H
        EXTERN ??nwk_getFWVersion?relay
        FUNCTION ??nwk_getFWVersion?relay,00H
        EXTERN ??nwk_getLocalLinkID?relay
        FUNCTION ??nwk_getLocalLinkID?relay,00H
        EXTERN ??nwk_getMyAddress?relay
        FUNCTION ??nwk_getMyAddress?relay,00H
        EXTERN ??nwk_getProtocolVersion?relay
        FUNCTION ??nwk_getProtocolVersion?relay,00H
        EXTERN ??nwk_join?relay
        FUNCTION ??nwk_join?relay,00H
        EXTERN ??nwk_link?relay
        FUNCTION ??nwk_link?relay,00H
        EXTERN ??nwk_nwkInit?relay
        FUNCTION ??nwk_nwkInit?relay,00H
        EXTERN ??nwk_radioControl?relay
        FUNCTION ??nwk_radioControl?relay,00H
        EXTERN ??nwk_rawReceive?relay
        FUNCTION ??nwk_rawReceive?relay,00H
        EXTERN ??nwk_rawSend?relay
        FUNCTION ??nwk_rawSend?relay,00H
        EXTERN ??nwk_retrieveFrame?relay
        FUNCTION ??nwk_retrieveFrame?relay,00H
        EXTERN ??nwk_sendFrame?relay
        FUNCTION ??nwk_sendFrame?relay,00H
        EXTERN ??nwk_setListenContext?relay
        FUNCTION ??nwk_setListenContext?relay,00H
        EXTERN g_rcvPkt
        EXTERN g_veriBuf
        EXTERN g_veriBuf2

// C:\Users\freeman\Documents\work\NBK\Nikon\Nikon_Rf\SimpliciTI-IAR-1.2.0\Components\simpliciti\nwk\nwk_api.c
//    1 /**************************************************************************************************
//    2   Filename:       nwk_api.c
//    3   Revised:        $Date: 2011-10-26 15:44:58 -0700 (Wed, 26 Oct 2011) $
//    4   Revision:       $Revision: 28059 $
//    5   Author:         $Author: jnoxon $
//    6 
//    7   Description:    This file supports the SimpliciTI appliction layer API.
//    8 
//    9   Copyright 2007-2009 Texas Instruments Incorporated. All rights reserved.
//   10 
//   11   IMPORTANT: Your use of this Software is limited to those specific rights granted under
//   12   the terms of a software license agreement between the user who downloaded the software,
//   13   his/her employer (which must be your employer) and Texas Instruments Incorporated (the
//   14   "License"). You may not use this Software unless you agree to abide by the terms of the
//   15   License. The License limits your use, and you acknowledge, that the Software may not be
//   16   modified, copied or distributed unless embedded on a Texas Instruments microcontroller
//   17   or used solely and exclusively in conjunction with a Texas Instruments radio frequency
//   18   transceiver, which is integrated into your product. Other than for the foregoing purpose,
//   19   you may not use, reproduce, copy, prepare derivative works of, modify, distribute,
//   20   perform, display or sell this Software and/or its documentation for any purpose.
//   21 
//   22   YOU FURTHER ACKNOWLEDGE AND AGREE THAT THE SOFTWARE AND DOCUMENTATION ARE PROVIDED “AS IS?  WITHOUT WARRANTY OF ANY KIND, EITHER EXPRESS OR IMPLIED, INCLUDING WITHOUT LIMITATION, ANY
//   23   WARRANTY OF MERCHANTABILITY, TITLE, NON-INFRINGEMENT AND FITNESS FOR A PARTICULAR PURPOSE.
//   24   IN NO EVENT SHALL TEXAS INSTRUMENTS OR ITS LICENSORS BE LIABLE OR OBLIGATED UNDER CONTRACT,
//   25   NEGLIGENCE, STRICT LIABILITY, CONTRIBUTION, BREACH OF WARRANTY, OR OTHER LEGAL EQUITABLE
//   26   THEORY ANY DIRECT OR INDIRECT DAMAGES OR EXPENSES INCLUDING BUT NOT LIMITED TO ANY
//   27   INCIDENTAL, SPECIAL, INDIRECT, PUNITIVE OR CONSEQUENTIAL DAMAGES, LOST PROFITS OR LOST
//   28   DATA, COST OF PROCUREMENT OF SUBSTITUTE GOODS, TECHNOLOGY, SERVICES, OR ANY CLAIMS BY
//   29   THIRD PARTIES (INCLUDING BUT NOT LIMITED TO ANY DEFENSE THEREOF), OR OTHER SIMILAR COSTS.
//   30 
//   31   Should you have any questions regarding your right to use this Software,
//   32   contact Texas Instruments Incorporated at www.TI.com.
//   33 **************************************************************************************************/
//   34 
//   35 /******************************************************************************
//   36  * INCLUDES
//   37  */
//   38 
//   39 #include <string.h>
//   40 #include "bsp.h"  

        ASEGN SFR_AN:DATA:NOROOT,080H
// union <unnamed> volatile __sfr _A_P0
_A_P0:
        DATA8
        DS 1

        ASEGN SFR_AN:DATA:NOROOT,090H
// union <unnamed> volatile __sfr _A_P1
_A_P1:
        DATA8
        DS 1

        RSEG XDATA_Z:XDATA:NOROOT(0)
        DATA8
`?<Constant {0}>`:
        DS 100
        REQUIRE __INIT_XDATA_Z

        RSEG XDATA_Z:XDATA:NOROOT(0)
        DATA8
`?<Constant {0}>_1`:
        DS 100
        REQUIRE __INIT_XDATA_Z
//   41 #include "mrfi.h"
//   42 #include "nwk_types.h"
//   43 #include "nwk_api.h"
//   44 #include "nwk_frame.h"
//   45 #include "nwk.h"
//   46 #include "nwk_app.h"
//   47 #include "mrfi.h"
//   48 #include "nwk_globals.h"
//   49 #include "nwk_freq.h"
//   50 #include "nwk_pll.h"
//   51 #ifdef DEBUG_CRITICAL_SECTIONS
//   52   #include "bsp_leds.h"
//   53 #endif
//   54 #ifdef MRFI_CC430
//   55   #include "uart_intfc_cc430.h"
//   56 #else
//   57   #include "uart_intfc.h"
//   58 #endif
//   59 
//   60 #include "hal_board.h"
//   61 #include "mac_radio.h"
//   62 
//   63 //#include "mac_radio_def.h"
//   64 
//   65 /******************************************************************************
//   66  * MACROS
//   67  */
//   68 /* RF observable control register value to output PA signal */
//   69 #define RFC_OBS_CTRL_PA_PD_INV        0x68
//   70 
//   71 /* RF observable control register value to output LNA signal */
//   72 #define RFC_OBS_CTRL_LNAMIX_PD_INV    0x6A
//   73 
//   74 /* OBSSELn register value to select RF observable 0 */
//   75 #define OBSSEL_OBS_CTRL0             0xFB
//   76 
//   77 /* OBSSELn register value to select RF observable 1 */
//   78 #define OBSSEL_OBS_CTRL1             0xFC
//   79 /******************************************************************************
//   80  * CONSTANTS AND DEFINES
//   81  */
//   82 
//   83 /* These defines are in support an application listening for a link frame to
//   84  * terminate after some amount of time. The intention is that this guard be
//   85  * the exception. The intention of the SimpliciTI design is that the
//   86  * temporal contiguity between the listen and the reception of the link frame
//   87  * from the peer be very tight. The SMPL_LinkListen() should be termninated
//   88  * by the reception of the link frame. But in case it does not receive the frame
//   89  * the support below allows intervention by the application.
//   90  */
//   91 
//   92 /* The intention is for user to modify just the following single value */
//   93 #define LINKLISTEN_MILLISECONDS_2_WAIT    (5000)
//   94 
//   95 #define LINKLISTEN_POLL_PERIOD_MS         (10)
//   96 #define LINKLISTEN_POLL_COUNT             ( (LINKLISTEN_MILLISECONDS_2_WAIT) / (LINKLISTEN_POLL_PERIOD_MS) )
//   97 
//   98 /******************************************************************************
//   99  * TYPEDEFS
//  100  */
//  101 #define	MAX_UART_DATA_LEN	64
//  102 /******************************************************************************
//  103  * LOCAL VARIABLES
//  104  */

        RSEG XDATA_Z:XDATA:NOROOT(0)
        DATA8
//  105 static uint8_t sInit_done = 0;
sInit_done:
        DS 1
        REQUIRE __INIT_XDATA_Z
//  106 
//  107 /******************************************************************************
//  108  * LOCAL FUNCTIONS
//  109  */
//  110 static uint8_t ioctlPreInitAccessIsOK(ioctlObject_t);
//  111 
//  112 static void MstPacketParse(void);
//  113 
//  114 static uint8 SwMode(uint8 sc);
//  115 
//  116 extern uint16 HalUARTWrite(uint8 port, uint8 *buf, uint16 len);
//  117 
//  118 extern void UartDMAIntSend(void);
//  119 
//  120 static void FlashInfoSend(void);
//  121 
//  122 static void PreFlashInfoSend(void);
//  123 
//  124 extern void macLowLevelInit(void);
//  125 
//  126 extern void macRadioSetTxPower(uint8 txPower);
//  127 
//  128 extern void macSleepWakeUp(void);
//  129 
//  130 /******************************************************************************
//  131  * GLOBAL VARIABLES
//  132  */

        RSEG XDATA_Z:XDATA:NOROOT(0)
        DATA8
//  133 frameInfo_t g_frameInfo;
g_frameInfo:
        DS 51
        REQUIRE __INIT_XDATA_Z
//  134 extern uint8_t g_rcvPkt;

        RSEG XDATA_Z:XDATA:NOROOT(0)
        DATA16
//  135 mrfiPacket_t * g_pRcvPkt;
g_pRcvPkt:
        DS 2
        REQUIRE __INIT_XDATA_Z

        RSEG XDATA_Z:XDATA:NOROOT(0)
        DATA8
//  136 RadioSet radioSet={0};
radioSet:
        DS 42
        REQUIRE __INIT_XDATA_Z
//  137 extern unsigned char g_veriBuf2[];
//  138 

        RSEG XDATA_Z:XDATA:NOROOT(0)
        DATA8
//  139 unsigned char gBUartTotalByte=0;
gBUartTotalByte:
        DS 1
        REQUIRE __INIT_XDATA_Z

        RSEG XDATA_Z:XDATA:NOROOT(0)
        DATA8
//  140 unsigned char   gBUartLen=0;
gBUartLen:
        DS 1
        REQUIRE __INIT_XDATA_Z

        RSEG XDATA_Z:XDATA:NOROOT(0)
        DATA8
//  141 unsigned char	gBUartBuf[MAX_UART_DATA_LEN];
gBUartBuf:
        DS 64
        REQUIRE __INIT_XDATA_Z

        RSEG XDATA_Z:XDATA:NOROOT(0)
        DATA8
//  142 unsigned char uart_tran_flag=0;
uart_tran_flag:
        DS 1
        REQUIRE __INIT_XDATA_Z
//  143 /******************************************************************************
//  144  * GLOBAL FUNCTIONS
//  145  */
//  146 
//  147 /***********************************************************************************
//  148  * @fn          SMPL_Init
//  149  *
//  150  * @brief       Initialize the SimpliciTI stack.
//  151  *
//  152  * input parameters
//  153  * @param   f  - Pointer to call back function. Function called by NWK when
//  154  *               user application frame received. The callback is done in the
//  155  *               ISR thread. Argument is Link ID associated with frame. Function
//  156  *               returns 0 if frame is to be kept by NWK, otherwise 1. Frame
//  157  *               should be kept if application will do a SMPL_Receive() in the
//  158  *               user thread (recommended). Pointer may be NULL.
//  159  *
//  160  * output parameters
//  161  *
//  162  * @return   Status of operation:
//  163  *             SMPL_SUCCESS
//  164  *             SMPL_NO_JOIN     No Join reply. AP possibly not yet up.
//  165  *             SMPL_NO_CHANNEL  Only if Frequency Agility enabled. Channel scan
//  166  *                              failed. AP possibly not yet up.
//  167  */

        RSEG BANKED_CODE:CODE:NOROOT(0)
//  168 smplStatus_t SMPL_Init(uint8_t (*f)(linkID_t))
SMPL_Init:
        CFI Block cfiBlock0 Using cfiCommon0
        CFI Function SMPL_Init
        CODE
//  169 {
        FUNCALL SMPL_Init, MRFI_Init
        LOCFRAME ISTACK, 0, STACK
        LOCFRAME PSTACK, 0, STACK
        LOCFRAME XSTACK, 9, STACK
        LOCFRAME IOVERLAY, 0, STATIC
        LOCFRAME DOVERLAY, 0, STATIC
        ARGFRAME ISTACK, 0, STACK
        ARGFRAME PSTACK, 0, STACK
        ARGFRAME XSTACK, 9, STACK
        ARGFRAME IOVERLAY, 0, STATIC
        ARGFRAME DOVERLAY, 0, STATIC
        FUNCALL SMPL_Init, nwk_nwkInit
        LOCFRAME ISTACK, 0, STACK
        LOCFRAME PSTACK, 0, STACK
        LOCFRAME XSTACK, 9, STACK
        LOCFRAME IOVERLAY, 0, STATIC
        LOCFRAME DOVERLAY, 0, STATIC
        ARGFRAME ISTACK, 0, STACK
        ARGFRAME PSTACK, 0, STACK
        ARGFRAME XSTACK, 9, STACK
        ARGFRAME IOVERLAY, 0, STATIC
        ARGFRAME DOVERLAY, 0, STATIC
        FUNCALL SMPL_Init, MRFI_WakeUp
        LOCFRAME ISTACK, 0, STACK
        LOCFRAME PSTACK, 0, STACK
        LOCFRAME XSTACK, 9, STACK
        LOCFRAME IOVERLAY, 0, STATIC
        LOCFRAME DOVERLAY, 0, STATIC
        ARGFRAME ISTACK, 0, STACK
        ARGFRAME PSTACK, 0, STACK
        ARGFRAME XSTACK, 9, STACK
        ARGFRAME IOVERLAY, 0, STATIC
        ARGFRAME DOVERLAY, 0, STATIC
        FUNCALL SMPL_Init, nwk_getMyAddress
        LOCFRAME ISTACK, 0, STACK
        LOCFRAME PSTACK, 0, STACK
        LOCFRAME XSTACK, 9, STACK
        LOCFRAME IOVERLAY, 0, STATIC
        LOCFRAME DOVERLAY, 0, STATIC
        ARGFRAME ISTACK, 0, STACK
        ARGFRAME PSTACK, 0, STACK
        ARGFRAME XSTACK, 9, STACK
        ARGFRAME IOVERLAY, 0, STATIC
        ARGFRAME DOVERLAY, 0, STATIC
        FUNCALL SMPL_Init, MRFI_SetRxAddrFilter
        LOCFRAME ISTACK, 0, STACK
        LOCFRAME PSTACK, 0, STACK
        LOCFRAME XSTACK, 9, STACK
        LOCFRAME IOVERLAY, 0, STATIC
        LOCFRAME DOVERLAY, 0, STATIC
        ARGFRAME ISTACK, 0, STACK
        ARGFRAME PSTACK, 0, STACK
        ARGFRAME XSTACK, 9, STACK
        ARGFRAME IOVERLAY, 0, STATIC
        ARGFRAME DOVERLAY, 0, STATIC
        FUNCALL SMPL_Init, MRFI_DisableRxAddrFilter
        LOCFRAME ISTACK, 0, STACK
        LOCFRAME PSTACK, 0, STACK
        LOCFRAME XSTACK, 9, STACK
        LOCFRAME IOVERLAY, 0, STATIC
        LOCFRAME DOVERLAY, 0, STATIC
        ARGFRAME ISTACK, 0, STACK
        ARGFRAME PSTACK, 0, STACK
        ARGFRAME XSTACK, 9, STACK
        ARGFRAME IOVERLAY, 0, STATIC
        ARGFRAME DOVERLAY, 0, STATIC
        FUNCALL SMPL_Init, nwk_join
        LOCFRAME ISTACK, 0, STACK
        LOCFRAME PSTACK, 0, STACK
        LOCFRAME XSTACK, 9, STACK
        LOCFRAME IOVERLAY, 0, STATIC
        LOCFRAME DOVERLAY, 0, STATIC
        ARGFRAME ISTACK, 0, STACK
        ARGFRAME PSTACK, 0, STACK
        ARGFRAME XSTACK, 9, STACK
        ARGFRAME IOVERLAY, 0, STATIC
        ARGFRAME DOVERLAY, 0, STATIC
        MOV     A,#-0x9
        LCALL   ?BANKED_ENTER_XDATA
        CFI DPH0 load(1, XDATA, add(CFA_XSP16, literal(-1)))
        CFI DPL0 load(1, XDATA, add(CFA_XSP16, literal(-2)))
        CFI ?BRET_EXT load(1, XDATA, add(CFA_XSP16, literal(-3)))
        CFI ?RET_HIGH load(1, XDATA, add(CFA_XSP16, literal(-4)))
        CFI ?RET_LOW load(1, XDATA, add(CFA_XSP16, literal(-5)))
        CFI R7 load(1, XDATA, add(CFA_XSP16, literal(-6)))
        CFI V0 load(1, XDATA, add(CFA_XSP16, literal(-7)))
        CFI VB load(1, XDATA, add(CFA_XSP16, literal(-8)))
        CFI R6 load(1, XDATA, add(CFA_XSP16, literal(-9)))
        CFI CFA_SP SP+0
        CFI CFA_XSP16 add(XSP16, 9)
        ; Saved register size: 9
        ; Auto size: 0
        MOV     A,R2
        MOV     R6,A
        MOV     A,R3
        MOV     R7,A
//  170   smplStatus_t rc;
//  171 
//  172   if (!sInit_done)
        MOV     DPTR,#sInit_done
        MOVX    A,@DPTR
        JNZ     ??SMPL_Init_0
//  173   {
//  174     /* set up radio. */
//  175     MRFI_Init();
        ; Setup parameters for call to function MRFI_Init
        LCALL   ??MRFI_Init?relay
//  176 
//  177     /* initialize network */
//  178     if ((rc=nwk_nwkInit(f)) != SMPL_SUCCESS)
        ; Setup parameters for call to function nwk_nwkInit
        MOV     A,R6
        MOV     R2,A
        MOV     A,R7
        MOV     R3,A
        LCALL   ??nwk_nwkInit?relay
        MOV     A,R1
        JNZ     ??SMPL_Init_1
//  179     {
//  180       return rc;
//  181     }
//  182 
//  183     MRFI_WakeUp();
        ; Setup parameters for call to function MRFI_WakeUp
        LCALL   ??MRFI_WakeUp?relay
//  184 #if defined( FREQUENCY_AGILITY )
//  185     {
//  186       freqEntry_t chan;
//  187 
//  188       chan.logicalChan = 0;
//  189       /* ok to set default channel explicitly now that MRFI initialized. */
//  190       nwk_setChannel(&chan);
//  191     }
//  192 #endif
//  193     /* don't turn Rx on if we're an end device that isn't always on. */
//  194     /* but do turn the radio on for PLL operations */
//  195 #if !defined( END_DEVICE ) || defined( NWK_PLL )
//  196     MRFI_RxOn();
//  197 #endif
//  198 
//  199 #if defined( END_DEVICE )
//  200     /* All except End Devices are in promiscuous mode */
//  201     MRFI_SetRxAddrFilter((uint8_t *)nwk_getMyAddress());
        ; Setup parameters for call to function MRFI_SetRxAddrFilter
        ; Setup parameters for call to function nwk_getMyAddress
        LCALL   ??nwk_getMyAddress?relay
        LCALL   ??MRFI_SetRxAddrFilter?relay
//  202     //MRFI_EnableRxAddrFilter();
//  203     MRFI_DisableRxAddrFilter();                       //2016/07/11 cbyi
        ; Setup parameters for call to function MRFI_DisableRxAddrFilter
        LCALL   ??MRFI_DisableRxAddrFilter?relay
//  204 #endif
//  205   }
//  206   sInit_done = 1;
??SMPL_Init_0:
        MOV     DPTR,#sInit_done
        MOV     A,#0x1
        MOVX    @DPTR,A
//  207 
//  208 #ifdef NWK_PLL
//  209   /* If the PLL is enabled then it must get running before the join
//  210    * request or the system may lock up in the join request becuase
//  211    * PLL is not locked in.
//  212    */
//  213   // turn on the PLL
//  214   SMPL_Ioctl(IOCTL_OBJ_PLL, IOCTL_ACT_ON, NULL);
//  215   // reference clocks are by definition always locked.
//  216   #ifndef NWK_PLL_REFERENCE_CLOCK
//  217     // wait for a 5ms failure rate to be achieved
//  218     while( nwk_pllIsLocked( 0 ) == false )
//  219       nwk_pllBackgrounder( false );
//  220   #endif
//  221 #endif
//  222 
//  223   /* Join. if no AP or Join fails that status is returned. */
//  224   rc = nwk_join();
//  225 
//  226   return rc;
        ; Setup parameters for call to function nwk_join
        LCALL   ??nwk_join?relay
??SMPL_Init_1:
        MOV     R7,#0x1
        LJMP    ?BANKED_LEAVE_XDATA
        CFI EndBlock cfiBlock0
//  227 }
//  228 
//  229 /******************************************************************************
//  230  * @fn          SMPL_LinkListen
//  231  *
//  232  * @brief       Listen for a link frame from a 'client' device.
//  233  *
//  234  * input parameters
//  235  *
//  236  * output parameters
//  237  * @param   linkID     - pointer to Link ID to be used by application to
//  238  *                       read and write to the linked peer.
//  239  *
//  240  * @return   status of operation.
//  241  *             SMPL_SUCCESS
//  242  *             SMPL_TIMEOUT  No link frame received during listen interval.
//  243 *                            Interval set in #defines above. linkID not valid.
//  244  *
//  245  */
//  246 

        RSEG BANKED_CODE:CODE:NOROOT(0)
//  247 smplStatus_t SMPL_LinkListen(linkID_t *linkID)
SMPL_LinkListen:
        CFI Block cfiBlock1 Using cfiCommon0
        CFI Function SMPL_LinkListen
        CODE
//  248 {
        FUNCALL SMPL_LinkListen, MRFI_GetRadioState
        LOCFRAME ISTACK, 0, STACK
        LOCFRAME PSTACK, 0, STACK
        LOCFRAME XSTACK, 12, STACK
        LOCFRAME IOVERLAY, 0, STATIC
        LOCFRAME DOVERLAY, 0, STATIC
        ARGFRAME ISTACK, 0, STACK
        ARGFRAME PSTACK, 0, STACK
        ARGFRAME XSTACK, 12, STACK
        ARGFRAME IOVERLAY, 0, STATIC
        ARGFRAME DOVERLAY, 0, STATIC
        FUNCALL SMPL_LinkListen, nwk_setListenContext
        LOCFRAME ISTACK, 0, STACK
        LOCFRAME PSTACK, 0, STACK
        LOCFRAME XSTACK, 12, STACK
        LOCFRAME IOVERLAY, 0, STATIC
        LOCFRAME DOVERLAY, 0, STATIC
        ARGFRAME ISTACK, 0, STACK
        ARGFRAME PSTACK, 0, STACK
        ARGFRAME XSTACK, 12, STACK
        ARGFRAME IOVERLAY, 0, STATIC
        ARGFRAME DOVERLAY, 0, STATIC
        FUNCALL SMPL_LinkListen, MRFI_WakeUp
        LOCFRAME ISTACK, 0, STACK
        LOCFRAME PSTACK, 0, STACK
        LOCFRAME XSTACK, 12, STACK
        LOCFRAME IOVERLAY, 0, STATIC
        LOCFRAME DOVERLAY, 0, STATIC
        ARGFRAME ISTACK, 0, STACK
        ARGFRAME PSTACK, 0, STACK
        ARGFRAME XSTACK, 12, STACK
        ARGFRAME IOVERLAY, 0, STATIC
        ARGFRAME DOVERLAY, 0, STATIC
        FUNCALL SMPL_LinkListen, MRFI_RxOn
        LOCFRAME ISTACK, 0, STACK
        LOCFRAME PSTACK, 0, STACK
        LOCFRAME XSTACK, 12, STACK
        LOCFRAME IOVERLAY, 0, STATIC
        LOCFRAME DOVERLAY, 0, STATIC
        ARGFRAME ISTACK, 0, STACK
        ARGFRAME PSTACK, 0, STACK
        ARGFRAME XSTACK, 12, STACK
        ARGFRAME IOVERLAY, 0, STATIC
        ARGFRAME DOVERLAY, 0, STATIC
        FUNCALL SMPL_LinkListen, nwk_getLocalLinkID
        LOCFRAME ISTACK, 0, STACK
        LOCFRAME PSTACK, 0, STACK
        LOCFRAME XSTACK, 12, STACK
        LOCFRAME IOVERLAY, 0, STATIC
        LOCFRAME DOVERLAY, 0, STATIC
        ARGFRAME ISTACK, 0, STACK
        ARGFRAME PSTACK, 0, STACK
        ARGFRAME XSTACK, 12, STACK
        ARGFRAME IOVERLAY, 0, STATIC
        ARGFRAME DOVERLAY, 0, STATIC
        FUNCALL SMPL_LinkListen, MRFI_DelayMs
        LOCFRAME ISTACK, 0, STACK
        LOCFRAME PSTACK, 0, STACK
        LOCFRAME XSTACK, 12, STACK
        LOCFRAME IOVERLAY, 0, STATIC
        LOCFRAME DOVERLAY, 0, STATIC
        ARGFRAME ISTACK, 0, STACK
        ARGFRAME PSTACK, 0, STACK
        ARGFRAME XSTACK, 12, STACK
        ARGFRAME IOVERLAY, 0, STATIC
        ARGFRAME DOVERLAY, 0, STATIC
        FUNCALL SMPL_LinkListen, MRFI_Sleep
        LOCFRAME ISTACK, 0, STACK
        LOCFRAME PSTACK, 0, STACK
        LOCFRAME XSTACK, 12, STACK
        LOCFRAME IOVERLAY, 0, STATIC
        LOCFRAME DOVERLAY, 0, STATIC
        ARGFRAME ISTACK, 0, STACK
        ARGFRAME PSTACK, 0, STACK
        ARGFRAME XSTACK, 12, STACK
        ARGFRAME IOVERLAY, 0, STATIC
        ARGFRAME DOVERLAY, 0, STATIC
        FUNCALL SMPL_LinkListen, MRFI_RxIdle
        LOCFRAME ISTACK, 0, STACK
        LOCFRAME PSTACK, 0, STACK
        LOCFRAME XSTACK, 12, STACK
        LOCFRAME IOVERLAY, 0, STATIC
        LOCFRAME DOVERLAY, 0, STATIC
        ARGFRAME ISTACK, 0, STACK
        ARGFRAME PSTACK, 0, STACK
        ARGFRAME XSTACK, 12, STACK
        ARGFRAME IOVERLAY, 0, STATIC
        ARGFRAME DOVERLAY, 0, STATIC
        FUNCALL SMPL_LinkListen, nwk_setListenContext
        LOCFRAME ISTACK, 0, STACK
        LOCFRAME PSTACK, 0, STACK
        LOCFRAME XSTACK, 12, STACK
        LOCFRAME IOVERLAY, 0, STATIC
        LOCFRAME DOVERLAY, 0, STATIC
        ARGFRAME ISTACK, 0, STACK
        ARGFRAME PSTACK, 0, STACK
        ARGFRAME XSTACK, 12, STACK
        ARGFRAME IOVERLAY, 0, STATIC
        ARGFRAME DOVERLAY, 0, STATIC
        MOV     A,#-0xc
        LCALL   ?BANKED_ENTER_XDATA
        CFI DPH0 load(1, XDATA, add(CFA_XSP16, literal(-1)))
        CFI DPL0 load(1, XDATA, add(CFA_XSP16, literal(-2)))
        CFI ?BRET_EXT load(1, XDATA, add(CFA_XSP16, literal(-3)))
        CFI ?RET_HIGH load(1, XDATA, add(CFA_XSP16, literal(-4)))
        CFI ?RET_LOW load(1, XDATA, add(CFA_XSP16, literal(-5)))
        CFI R7 load(1, XDATA, add(CFA_XSP16, literal(-6)))
        CFI V3 load(1, XDATA, add(CFA_XSP16, literal(-7)))
        CFI V2 load(1, XDATA, add(CFA_XSP16, literal(-8)))
        CFI V1 load(1, XDATA, add(CFA_XSP16, literal(-9)))
        CFI V0 load(1, XDATA, add(CFA_XSP16, literal(-10)))
        CFI VB load(1, XDATA, add(CFA_XSP16, literal(-11)))
        CFI R6 load(1, XDATA, add(CFA_XSP16, literal(-12)))
        CFI CFA_SP SP+0
        CFI CFA_XSP16 add(XSP16, 12)
        ; Saved register size: 12
        ; Auto size: 0
        MOV     A,R2
        MOV     R6,A
        MOV     A,R3
        MOV     R7,A
//  249   uint8_t  radioState = MRFI_GetRadioState();
        ; Setup parameters for call to function MRFI_GetRadioState
        LCALL   ??MRFI_GetRadioState?relay
        MOV     A,R1
        MOV     ?V0 + 2,A
//  250   uint16_t i;
//  251   linkID_t locLinkID;
//  252 
//  253   /* Set the context. We want to reject any link frames received if
//  254    * we're not listening. For example if we're an AP we are in
//  255    * promiscuous mode and we'll see any broadcast link frames.
//  256    */
//  257   nwk_setListenContext(LINK_LISTEN_ON);
        ; Setup parameters for call to function nwk_setListenContext
        MOV     R1,#0x0
        LCALL   ??nwk_setListenContext?relay
//  258 
//  259   NWK_CHECK_FOR_SETRX(radioState);
        MOV     A,#0x3
        XRL     A,?V0 + 2
        JZ      ??SMPL_LinkListen_0
        MOV     A,#0x1
        XRL     A,?V0 + 2
        JNZ     ??SMPL_LinkListen_1
        ; Setup parameters for call to function MRFI_WakeUp
        LCALL   ??MRFI_WakeUp?relay
??SMPL_LinkListen_1:
        ; Setup parameters for call to function MRFI_RxOn
        LCALL   ??MRFI_RxOn?relay
//  260 
//  261   for (i=0; i<LINKLISTEN_POLL_COUNT; ++i)
??SMPL_LinkListen_0:
        MOV     ?V0 + 0,#-0xc
        MOV     ?V0 + 1,#0x1
//  262   {
//  263     /* check the semaphore. local port is assigned when the reply is sent. */
//  264     if ((locLinkID=nwk_getLocalLinkID()))
??SMPL_LinkListen_2:
        ; Setup parameters for call to function nwk_getLocalLinkID
        LCALL   ??nwk_getLocalLinkID?relay
        MOV     A,R1
        MOV     R0,A
        MOV     ?V0 + 3,R0
        JNZ     ??SMPL_LinkListen_3
//  265     {
//  266       break;
//  267     }
//  268     NWK_DELAY(LINKLISTEN_POLL_PERIOD_MS);
        ; Setup parameters for call to function MRFI_DelayMs
        MOV     R2,#0xa
        MOV     R3,#0x0
        LCALL   ??MRFI_DelayMs?relay
//  269   }
        MOV     A,?V0 + 0
        ADD     A,#-0x1
        MOV     ?V0 + 0,A
        MOV     A,?V0 + 1
        ADDC    A,#-0x1
        MOV     ?V0 + 1,A
        MOV     A,?V0 + 0
        ORL     A,?V0 + 1
        JNZ     ??SMPL_LinkListen_2
//  270 
//  271   NWK_CHECK_FOR_RESTORE_STATE(radioState);
??SMPL_LinkListen_3:
        MOV     A,#0x3
        XRL     A,?V0 + 2
        JZ      ??SMPL_LinkListen_4
        MOV     A,#0x1
        XRL     A,?V0 + 2
        JNZ     ??SMPL_LinkListen_5
        ; Setup parameters for call to function MRFI_Sleep
        LCALL   ??MRFI_Sleep?relay
        SJMP    ??SMPL_LinkListen_4
??SMPL_LinkListen_5:
        ; Setup parameters for call to function MRFI_RxIdle
        LCALL   ??MRFI_RxIdle?relay
//  272 
//  273   /* If the listen is terminated without hearing a message and setting a
//  274    * link ID the listen context must be explicitly turned off.
//  275    */
//  276   if (!(locLinkID))
??SMPL_LinkListen_4:
        MOV     A,?V0 + 3
        JNZ     ??SMPL_LinkListen_6
//  277   {
//  278     nwk_setListenContext(LINK_LISTEN_OFF);
        ; Setup parameters for call to function nwk_setListenContext
        MOV     R1,#0x1
        LCALL   ??nwk_setListenContext?relay
//  279     return SMPL_TIMEOUT;
        MOV     R1,#0x1
        SJMP    ??SMPL_LinkListen_7
//  280   }
//  281 
//  282   *linkID = locLinkID;
??SMPL_LinkListen_6:
        MOV     DPL,R6
        MOV     DPH,R7
        MOVX    @DPTR,A
//  283 
//  284   return SMPL_SUCCESS;
        MOV     R1,#0x0
        CFI EndBlock cfiBlock1
??SMPL_LinkListen_7:
        REQUIRE ?Subroutine0
        ; // Fall through to label ?Subroutine0
//  285 }

        RSEG BANKED_CODE:CODE:NOROOT(0)
?Subroutine0:
        CFI Block cfiBlock2 Using cfiCommon0
        CFI NoFunction
        CFI CFA_SP SP+0
        CFI CFA_XSP16 add(XSP16, 12)
        CFI VB load(1, XDATA, add(CFA_XSP16, literal(-11)))
        CFI DPL0 load(1, XDATA, add(CFA_XSP16, literal(-2)))
        CFI DPH0 load(1, XDATA, add(CFA_XSP16, literal(-1)))
        CFI R6 load(1, XDATA, add(CFA_XSP16, literal(-12)))
        CFI R7 load(1, XDATA, add(CFA_XSP16, literal(-6)))
        CFI V0 load(1, XDATA, add(CFA_XSP16, literal(-10)))
        CFI V1 load(1, XDATA, add(CFA_XSP16, literal(-9)))
        CFI V2 load(1, XDATA, add(CFA_XSP16, literal(-8)))
        CFI V3 load(1, XDATA, add(CFA_XSP16, literal(-7)))
        CFI ?BRET_EXT load(1, XDATA, add(CFA_XSP16, literal(-3)))
        CFI ?RET_HIGH load(1, XDATA, add(CFA_XSP16, literal(-4)))
        CFI ?RET_LOW load(1, XDATA, add(CFA_XSP16, literal(-5)))
        MOV     R7,#0x4
        LJMP    ?BANKED_LEAVE_XDATA
        CFI EndBlock cfiBlock2
//  286 
//  287 /******************************************************************************
//  288  * @fn          SMPL_Send
//  289  *
//  290  * @brief       Send a message to a peer application. Old API kept for
//  291  *              backward compatibility. Calls the new SMPL_SendOpt() with
//  292  *              no options.
//  293  *
//  294  * input parameters
//  295  * @param   lid     - Link ID (port) from application
//  296  * @param   msg     - pointer to message from app to be sent
//  297  * @param   len     - length of enclosed message
//  298  *
//  299  * output parameters
//  300  *
//  301  * @return   Status of operation. On a filaure the frame buffer is discarded
//  302  *           and the Send call must be redone by the app.
//  303  *             SMPL_SUCCESS
//  304  *             SMPL_BAD_PARAM    No valid Connection Table entry for Link ID
//  305  *                               Data in Connection Table entry bad
//  306  *                               No message or message too long
//  307  *             SMPL_NOMEM        No room in output frame queue
//  308  *             SMPL_TX_CCA_FAIL  CCA failure.
//  309  */

        RSEG BANKED_CODE:CODE:NOROOT(0)
//  310 smplStatus_t SMPL_Send(linkID_t lid, uint8_t *msg, uint8_t len)
SMPL_Send:
        CFI Block cfiBlock3 Using cfiCommon0
        CFI Function SMPL_Send
        CODE
//  311 {
        FUNCALL SMPL_Send, SMPL_SendOpt
        LOCFRAME ISTACK, 0, STACK
        LOCFRAME PSTACK, 0, STACK
        LOCFRAME XSTACK, 12, STACK
        LOCFRAME IOVERLAY, 0, STATIC
        LOCFRAME DOVERLAY, 0, STATIC
        ARGFRAME ISTACK, 0, STACK
        ARGFRAME PSTACK, 0, STACK
        ARGFRAME XSTACK, 12, STACK
        ARGFRAME IOVERLAY, 0, STATIC
        ARGFRAME DOVERLAY, 0, STATIC
        MOV     A,#-0xa
        LCALL   ?BANKED_ENTER_XDATA
        CFI DPH0 load(1, XDATA, add(CFA_XSP16, literal(-1)))
        CFI DPL0 load(1, XDATA, add(CFA_XSP16, literal(-2)))
        CFI ?BRET_EXT load(1, XDATA, add(CFA_XSP16, literal(-3)))
        CFI ?RET_HIGH load(1, XDATA, add(CFA_XSP16, literal(-4)))
        CFI ?RET_LOW load(1, XDATA, add(CFA_XSP16, literal(-5)))
        CFI R7 load(1, XDATA, add(CFA_XSP16, literal(-6)))
        CFI V1 load(1, XDATA, add(CFA_XSP16, literal(-7)))
        CFI V0 load(1, XDATA, add(CFA_XSP16, literal(-8)))
        CFI VB load(1, XDATA, add(CFA_XSP16, literal(-9)))
        CFI R6 load(1, XDATA, add(CFA_XSP16, literal(-10)))
        CFI CFA_SP SP+0
        CFI CFA_XSP16 add(XSP16, 10)
        ; Saved register size: 10
        ; Auto size: 0
//  312   return SMPL_SendOpt(lid, msg, len, SMPL_TXOPTION_NONE);
        ; Setup parameters for call to function SMPL_SendOpt
        CLR     A
        MOV     ?V0 + 0,A
        MOV     ?V0 + 1,A
        MOV     R0,#?V0 + 0
        LCALL   ?PUSH_XSTACK_I_TWO
        CFI CFA_XSP16 add(XSP16, 12)
        LCALL   ??SMPL_SendOpt?relay
        MOV     A,#0x2
        LJMP    ?Subroutine1 & 0xFFFF
        CFI EndBlock cfiBlock3
//  313 }
//  314 
//  315 /******************************************************************************
//  316  * @fn          SMPL_SendOpt
//  317  *
//  318  * @brief       Send a message to a peer application.
//  319  *
//  320  * input parameters
//  321  * @param   lid     - Link ID (port) from application
//  322  * @param   msg     - pointer to message from app to be sent
//  323  * @param   len     - length of enclosed message
//  324  * @param   options - Transmit options (bit map)
//  325  *
//  326  * output parameters
//  327  *
//  328  * @return   Status of operation. On a filaure the frame buffer is discarded
//  329  *           and the Send call must be redone by the app.
//  330  *             SMPL_SUCCESS
//  331  *             SMPL_BAD_PARAM    No valid Connection Table entry for Link ID
//  332  *                               Data in Connection Table entry bad
//  333  *                               No message or message too long
//  334  *             SMPL_NOMEM        No room in output frame queue
//  335  *             SMPL_TX_CCA_FAIL  CCA failure.
//  336  *             SMPL_NO_ACK       If application auto acknowledgement enabled
//  337  *                               and no acknowledgement is received
//  338  */

        RSEG BANKED_CODE:CODE:NOROOT(0)
//  339 smplStatus_t SMPL_SendOpt(linkID_t lid, uint8_t *msg, uint8_t len, txOpt_t options)
SMPL_SendOpt:
        CFI Block cfiBlock4 Using cfiCommon0
        CFI Function SMPL_SendOpt
        CODE
//  340 {
        FUNCALL SMPL_SendOpt, nwk_getConnInfo
        LOCFRAME ISTACK, 0, STACK
        LOCFRAME PSTACK, 0, STACK
        LOCFRAME XSTACK, 18, STACK
        LOCFRAME IOVERLAY, 0, STATIC
        LOCFRAME DOVERLAY, 0, STATIC
        ARGFRAME ISTACK, 0, STACK
        ARGFRAME PSTACK, 0, STACK
        ARGFRAME XSTACK, 18, STACK
        ARGFRAME IOVERLAY, 0, STATIC
        ARGFRAME DOVERLAY, 0, STATIC
        FUNCALL SMPL_SendOpt, MRFI_GetRadioState
        LOCFRAME ISTACK, 0, STACK
        LOCFRAME PSTACK, 0, STACK
        LOCFRAME XSTACK, 18, STACK
        LOCFRAME IOVERLAY, 0, STATIC
        LOCFRAME DOVERLAY, 0, STATIC
        ARGFRAME ISTACK, 0, STACK
        ARGFRAME PSTACK, 0, STACK
        ARGFRAME XSTACK, 18, STACK
        ARGFRAME IOVERLAY, 0, STATIC
        ARGFRAME DOVERLAY, 0, STATIC
        FUNCALL SMPL_SendOpt, nwk_checkConnInfo
        LOCFRAME ISTACK, 0, STACK
        LOCFRAME PSTACK, 0, STACK
        LOCFRAME XSTACK, 18, STACK
        LOCFRAME IOVERLAY, 0, STATIC
        LOCFRAME DOVERLAY, 0, STATIC
        ARGFRAME ISTACK, 0, STACK
        ARGFRAME PSTACK, 0, STACK
        ARGFRAME XSTACK, 18, STACK
        ARGFRAME IOVERLAY, 0, STATIC
        ARGFRAME DOVERLAY, 0, STATIC
        FUNCALL SMPL_SendOpt, nwk_buildFrame
        LOCFRAME ISTACK, 0, STACK
        LOCFRAME PSTACK, 0, STACK
        LOCFRAME XSTACK, 18, STACK
        LOCFRAME IOVERLAY, 0, STATIC
        LOCFRAME DOVERLAY, 0, STATIC
        ARGFRAME ISTACK, 0, STACK
        ARGFRAME PSTACK, 0, STACK
        ARGFRAME XSTACK, 18, STACK
        ARGFRAME IOVERLAY, 0, STATIC
        ARGFRAME DOVERLAY, 0, STATIC
        FUNCALL SMPL_SendOpt, memcpy
        LOCFRAME ISTACK, 0, STACK
        LOCFRAME PSTACK, 0, STACK
        LOCFRAME XSTACK, 20, STACK
        LOCFRAME IOVERLAY, 0, STATIC
        LOCFRAME DOVERLAY, 0, STATIC
        ARGFRAME ISTACK, 0, STACK
        ARGFRAME PSTACK, 0, STACK
        ARGFRAME XSTACK, 20, STACK
        ARGFRAME IOVERLAY, 0, STATIC
        ARGFRAME DOVERLAY, 0, STATIC
        FUNCALL SMPL_SendOpt, nwk_sendFrame
        LOCFRAME ISTACK, 0, STACK
        LOCFRAME PSTACK, 0, STACK
        LOCFRAME XSTACK, 18, STACK
        LOCFRAME IOVERLAY, 0, STATIC
        LOCFRAME DOVERLAY, 0, STATIC
        ARGFRAME ISTACK, 0, STACK
        ARGFRAME PSTACK, 0, STACK
        ARGFRAME XSTACK, 18, STACK
        ARGFRAME IOVERLAY, 0, STATIC
        ARGFRAME DOVERLAY, 0, STATIC
        MOV     A,#-0x12
        LCALL   ?BANKED_ENTER_XDATA
        CFI DPH0 load(1, XDATA, add(CFA_XSP16, literal(-1)))
        CFI DPL0 load(1, XDATA, add(CFA_XSP16, literal(-2)))
        CFI ?BRET_EXT load(1, XDATA, add(CFA_XSP16, literal(-3)))
        CFI ?RET_HIGH load(1, XDATA, add(CFA_XSP16, literal(-4)))
        CFI ?RET_LOW load(1, XDATA, add(CFA_XSP16, literal(-5)))
        CFI R7 load(1, XDATA, add(CFA_XSP16, literal(-6)))
        CFI V9 load(1, XDATA, add(CFA_XSP16, literal(-7)))
        CFI V8 load(1, XDATA, add(CFA_XSP16, literal(-8)))
        CFI V7 load(1, XDATA, add(CFA_XSP16, literal(-9)))
        CFI V6 load(1, XDATA, add(CFA_XSP16, literal(-10)))
        CFI V5 load(1, XDATA, add(CFA_XSP16, literal(-11)))
        CFI V4 load(1, XDATA, add(CFA_XSP16, literal(-12)))
        CFI V3 load(1, XDATA, add(CFA_XSP16, literal(-13)))
        CFI V2 load(1, XDATA, add(CFA_XSP16, literal(-14)))
        CFI V1 load(1, XDATA, add(CFA_XSP16, literal(-15)))
        CFI V0 load(1, XDATA, add(CFA_XSP16, literal(-16)))
        CFI VB load(1, XDATA, add(CFA_XSP16, literal(-17)))
        CFI R6 load(1, XDATA, add(CFA_XSP16, literal(-18)))
        CFI CFA_SP SP+0
        CFI CFA_XSP16 add(XSP16, 18)
        ; Saved register size: 18
        ; Auto size: 0
        MOV     ?V0 + 0,R2
        MOV     ?V0 + 1,R3
        MOV     ?V0 + 3,R4
        MOV     A,#0x12
        LCALL   ?XSTACK_DISP0_8
        MOVX    A,@DPTR
        MOV     ?V0 + 4,A
        INC     DPTR
        MOVX    A,@DPTR
        MOV     ?V0 + 5,A
//  341   frameInfo_t  *pFrameInfo;
//  342   connInfo_t   *pCInfo     = nwk_getConnInfo(lid);
        ; Setup parameters for call to function nwk_getConnInfo
        LCALL   ??nwk_getConnInfo?relay
        MOV     ?V0 + 8,R2
        MOV     ?V0 + 9,R3
        MOV     R6,?V0 + 8
        MOV     R7,?V0 + 9
//  343   smplStatus_t  rc         = SMPL_BAD_PARAM;
        MOV     ?V0 + 2,#0x2
//  344   uint8_t       radioState = MRFI_GetRadioState();
        ; Setup parameters for call to function MRFI_GetRadioState
        LCALL   ??MRFI_GetRadioState?relay
//  345   uint8_t       ackreq     = 0;
//  346 #if defined(ACCESS_POINT)
//  347   uint8_t  loc;
//  348 #endif
//  349 
//  350   /* we have the connection info for this Link ID. make sure it is valid. */
//  351    if (!pCInfo || ((rc=nwk_checkConnInfo(pCInfo, CHK_TX)) != SMPL_SUCCESS))
        MOV     A,R6
        ORL     A,R7
        JZ      ??SMPL_SendOpt_0
        ; Setup parameters for call to function nwk_checkConnInfo
        MOV     R1,#0x1
        MOV     A,R6
        MOV     R2,A
        MOV     A,R7
        MOV     R3,A
        LCALL   ??nwk_checkConnInfo?relay
        MOV     A,R1
        MOV     R0,A
        MOV     ?V0 + 2,R0
        JZ      ??SMPL_SendOpt_1
//  352   {
//  353     return rc;
??SMPL_SendOpt_0:
        MOV     R1,?V0 + 2
??SMPL_SendOpt_2:
        MOV     R7,#0xa
        LJMP    ?BANKED_LEAVE_XDATA
//  354   }
//  355 
//  356   /* parameter sanity check... */
//  357   if (!msg || (len > MAX_APP_PAYLOAD))
??SMPL_SendOpt_1:
        MOV     A,?V0 + 0
        ORL     A,?V0 + 1
        JZ      ??SMPL_SendOpt_0
        MOV     A,?V0 + 3
        CLR     C
        SUBB    A,#0xb
        JNC     ??SMPL_SendOpt_0
//  358   {
//  359     return rc;
//  360   }
//  361 
//  362   /* Build an outgoing message frame destined for the port from the
//  363    * connection info using the destination address also from the
//  364    * connection info.
//  365    */
//  366   if (SMPL_TXOPTION_NONE == options)
        MOV     A,?V0 + 4
        ORL     A,?V0 + 5
        JNZ     ??SMPL_SendOpt_3
//  367   {
//  368     pFrameInfo = nwk_buildFrame(pCInfo->portTx, msg, len, pCInfo->hops2target);
        ; Setup parameters for call to function nwk_buildFrame
        MOV     DPL,R6
        MOV     DPH,R7
        INC     DPTR
        MOVX    A,@DPTR
        MOV     R5,A
        MOV     R4,?V0 + 3
        MOV     R2,?V0 + 0
        MOV     R3,?V0 + 1
        MOV     DPL,R6
        MOV     DPH,R7
        INC     DPTR
        INC     DPTR
        INC     DPTR
        INC     DPTR
        INC     DPTR
        INC     DPTR
        INC     DPTR
        INC     DPTR
        INC     DPTR
        MOVX    A,@DPTR
        MOV     R1,A
        LCALL   ??nwk_buildFrame?relay
        MOV     ?V0 + 0,R2
        MOV     ?V0 + 1,R3
//  369   }
//  370 #if defined(APP_AUTO_ACK)
//  371   else if (options & SMPL_TXOPTION_ACKREQ)
//  372   {
//  373     if (SMPL_LINKID_USER_UUD != lid)
//  374     {
//  375       pFrameInfo = nwk_buildAckReqFrame(pCInfo->portTx, msg, len, pCInfo->hops2target, &pCInfo->ackTID);
//  376       ackreq     = 1;
//  377     }
//  378     else
//  379     {
//  380       /* can't request an ack on the UUD link ID */
//  381       return SMPL_BAD_PARAM;
//  382     }
//  383   }
//  384 #endif  /* APP_AUTO_ACK */
//  385   else
//  386   {
//  387     return SMPL_BAD_PARAM;
//  388   }
//  389 
//  390   if (!pFrameInfo)
        MOV     A,R2
        ORL     A,?V0 + 1
        JNZ     ??SMPL_SendOpt_4
//  391   {
//  392     return SMPL_NOMEM;
        MOV     R1,#0x3
        SJMP    ??SMPL_SendOpt_2
//  393   }
??SMPL_SendOpt_3:
        MOV     R1,#0x2
        SJMP    ??SMPL_SendOpt_2
//  394   memcpy(MRFI_P_DST_ADDR(&pFrameInfo->mrfiPkt), pCInfo->peerAddr, NET_ADDR_SIZE);
??SMPL_SendOpt_4:
        ; Setup parameters for call to function memcpy
        MOV     ?V0 + 4,#0x4
        MOV     ?V0 + 5,#0x0
        MOV     R0,#?V0 + 4
        LCALL   ?PUSH_XSTACK_I_TWO
        CFI CFA_XSP16 add(XSP16, 20)
        MOV     A,R6
        ADD     A,#0x2
        MOV     R4,A
        MOV     A,R7
        ADDC    A,#0x0
        MOV     R5,A
        MOV     A,R2
        ADD     A,#0x6
        MOV     R2,A
        MOV     A,R3
        ADDC    A,#0x0
        MOV     R3,A
        LCALL   ??Subroutine26_0 & 0xFFFF
??CrossCallReturnLabel_64:
        LCALL   ?DEALLOC_XSTACK8
        CFI CFA_XSP16 add(XSP16, 18)
//  395 
//  396 #if defined(SMPL_SECURE)
//  397   {
//  398     uint32_t *pUL = 0;
//  399 
//  400     if (pCInfo->thisLinkID != SMPL_LINKID_USER_UUD)
//  401     {
//  402       pUL = &pCInfo->connTxCTR;
//  403     }
//  404     nwk_setSecureFrame(&pFrameInfo->mrfiPkt, len, pUL);
//  405   }
//  406 #endif  /* SMPL_SECURE */
//  407 
//  408 #if defined(ACCESS_POINT)
//  409   /* If we are an AP trying to send to a polling device, don't do it.
//  410    * See if the target is a store-and-forward client.
//  411    */
//  412   if (nwk_isSandFClient(MRFI_P_DST_ADDR(&pFrameInfo->mrfiPkt), &loc))
//  413   {
//  414      pFrameInfo->fi_usage = FI_INUSE_UNTIL_FWD;
//  415      return SMPL_SUCCESS;
//  416   }
//  417   else
//  418 #endif  /* ACCESS_POINT */
//  419   {
//  420     rc = nwk_sendFrame(pFrameInfo, MRFI_TX_TYPE_CCA);
        ; Setup parameters for call to function nwk_sendFrame
        MOV     R1,#0x1
        MOV     R2,?V0 + 0
        MOV     R3,?V0 + 1
        LCALL   ??nwk_sendFrame?relay
        MOV     A,R1
        MOV     ?V0 + 2,A
        SJMP    ??SMPL_SendOpt_0
        CFI EndBlock cfiBlock4
//  421   }
//  422 
//  423 #if !defined(APP_AUTO_ACK)
//  424   /* save a little code space with this #if */
//  425   (void) ackreq;    /* keep compiler happy */
//  426   return rc;
//  427 #else
//  428   /* we're done if the send failed or no ack requested. */
//  429   if (SMPL_SUCCESS != rc || !ackreq)
//  430   {
//  431     return rc;
//  432   }
//  433 
//  434   NWK_CHECK_FOR_SETRX(radioState);
//  435   NWK_REPLY_DELAY();
//  436   NWK_CHECK_FOR_RESTORE_STATE(radioState);
//  437 
//  438   {
//  439     bspIState_t intState;
//  440 
//  441     /* If the saved TID hasn't been reset then we never got the ack. */
//  442     BSP_ENTER_CRITICAL_SECTION(intState);
//  443     if (pCInfo->ackTID)
//  444     {
//  445       pCInfo->ackTID = 0;
//  446       rc = SMPL_NO_ACK;
//  447     }
//  448     BSP_EXIT_CRITICAL_SECTION(intState);
//  449   }
//  450 
//  451   return rc;
//  452 #endif  /* APP_AUTO_ACK */
//  453 }
//  454 
//  455 /**************************************************************************************
//  456  * @fn          SMPL_Receive
//  457  *
//  458  * @brief       Receive a message from a peer application.
//  459  *
//  460  * input parameters
//  461  * @param   lid     - Link ID (port) from application
//  462  *
//  463  *
//  464  * output parameters
//  465  * @param   msg     - pointer to where received message should be copied.
//  466  *                    buffer should be of size == MAX_APP_PAYLOAD
//  467  * @param   len     - pointer to receive length of received message
//  468  *
//  469  * @return    Status of operation.
//  470  *            Caller should not use the value returned in 'len' to decide
//  471  *            whether there is a frame or not. It could be useful to the
//  472  *            Caller to distinguish between no frame and a frame with no data.
//  473  *            For example, in the polling case a frame with no application payload
//  474  *            is the way the AP conveys that there are no frames waiting.
//  475  *
//  476  *              SMPL_SUCCESS
//  477  *
//  478  *              SMPL_BAD_PARAM  No valid Connection Table entry for Link ID
//  479  *                              Data in Connection Table entry bad
//  480  *              SMPL_NO_FRAME   No frame received.
//  481  *              SMPL_NO_PAYLOAD Frame received with no payload (not necessarily
//  482  *                              an error and could be deduced by application
//  483  *                              because the returned length will be 0)
//  484  *
//  485  *            Polling device only:
//  486  *
//  487  *              SMPL_TIMEOUT        No response from Access Point
//  488  *              SMPL_NO_AP_ADDRESS  Access Point address unknown
//  489  *              SMPL_TX_CCA_FAIL    Could not send poll frame
//  490  *              SMPL_NOMEM          No memory in output frame queue
//  491  *              SMPL_NO_CHANNEL     Frequency Agility enabled and could not find channel
//  492  */

        RSEG BANKED_CODE:CODE:NOROOT(0)
//  493 smplStatus_t SMPL_Receive(linkID_t lid, uint8_t *msg, uint8_t *len)
SMPL_Receive:
        CFI Block cfiBlock5 Using cfiCommon0
        CFI Function SMPL_Receive
        CODE
//  494 {
        FUNCALL SMPL_Receive, nwk_getConnInfo
        LOCFRAME ISTACK, 0, STACK
        LOCFRAME PSTACK, 0, STACK
        LOCFRAME XSTACK, 17, STACK
        LOCFRAME IOVERLAY, 0, STATIC
        LOCFRAME DOVERLAY, 0, STATIC
        ARGFRAME ISTACK, 0, STACK
        ARGFRAME PSTACK, 0, STACK
        ARGFRAME XSTACK, 17, STACK
        ARGFRAME IOVERLAY, 0, STATIC
        ARGFRAME DOVERLAY, 0, STATIC
        FUNCALL SMPL_Receive, nwk_checkConnInfo
        LOCFRAME ISTACK, 0, STACK
        LOCFRAME PSTACK, 0, STACK
        LOCFRAME XSTACK, 17, STACK
        LOCFRAME IOVERLAY, 0, STATIC
        LOCFRAME DOVERLAY, 0, STATIC
        ARGFRAME ISTACK, 0, STACK
        ARGFRAME PSTACK, 0, STACK
        ARGFRAME XSTACK, 17, STACK
        ARGFRAME IOVERLAY, 0, STATIC
        ARGFRAME DOVERLAY, 0, STATIC
        FUNCALL SMPL_Receive, nwk_retrieveFrame
        LOCFRAME ISTACK, 0, STACK
        LOCFRAME PSTACK, 0, STACK
        LOCFRAME XSTACK, 23, STACK
        LOCFRAME IOVERLAY, 0, STATIC
        LOCFRAME DOVERLAY, 0, STATIC
        ARGFRAME ISTACK, 0, STACK
        ARGFRAME PSTACK, 0, STACK
        ARGFRAME XSTACK, 23, STACK
        ARGFRAME IOVERLAY, 0, STATIC
        ARGFRAME DOVERLAY, 0, STATIC
        MOV     A,#-0xe
        LCALL   ?BANKED_ENTER_XDATA
        CFI DPH0 load(1, XDATA, add(CFA_XSP16, literal(-1)))
        CFI DPL0 load(1, XDATA, add(CFA_XSP16, literal(-2)))
        CFI ?BRET_EXT load(1, XDATA, add(CFA_XSP16, literal(-3)))
        CFI ?RET_HIGH load(1, XDATA, add(CFA_XSP16, literal(-4)))
        CFI ?RET_LOW load(1, XDATA, add(CFA_XSP16, literal(-5)))
        CFI R7 load(1, XDATA, add(CFA_XSP16, literal(-6)))
        CFI V5 load(1, XDATA, add(CFA_XSP16, literal(-7)))
        CFI V4 load(1, XDATA, add(CFA_XSP16, literal(-8)))
        CFI V3 load(1, XDATA, add(CFA_XSP16, literal(-9)))
        CFI V2 load(1, XDATA, add(CFA_XSP16, literal(-10)))
        CFI V1 load(1, XDATA, add(CFA_XSP16, literal(-11)))
        CFI V0 load(1, XDATA, add(CFA_XSP16, literal(-12)))
        CFI VB load(1, XDATA, add(CFA_XSP16, literal(-13)))
        CFI R6 load(1, XDATA, add(CFA_XSP16, literal(-14)))
        CFI CFA_SP SP+0
        CFI CFA_XSP16 add(XSP16, 14)
        ; Saved register size: 14
        ; Auto size: 3
        MOV     A,#-0x3
        LCALL   ?ALLOC_XSTACK8
        CFI CFA_XSP16 add(XSP16, 17)
        MOV     ?V0 + 2,R1
        MOV     A,R2
        MOV     R6,A
        MOV     A,R3
        MOV     R7,A
        MOV     ?V0 + 0,R4
        MOV     ?V0 + 1,R5
//  495   connInfo_t  *pCInfo = nwk_getConnInfo(lid);
        ; Setup parameters for call to function nwk_getConnInfo
        LCALL   ??nwk_getConnInfo?relay
//  496   smplStatus_t rc = SMPL_BAD_PARAM;
        MOV     ?V0 + 3,#0x2
//  497   rcvContext_t rcv;
//  498 
//  499   if (!pCInfo || ((rc=nwk_checkConnInfo(pCInfo, CHK_RX)) != SMPL_SUCCESS))
        MOV     A,R2
        ORL     A,R3
        JZ      ??SMPL_Receive_0
        ; Setup parameters for call to function nwk_checkConnInfo
        MOV     R1,#0x0
        LCALL   ??nwk_checkConnInfo?relay
        MOV     A,R1
        MOV     R0,A
        MOV     ?V0 + 3,R0
        JZ      ??SMPL_Receive_1
//  500   {
//  501     return rc;
??SMPL_Receive_0:
        MOV     R1,?V0 + 3
        SJMP    ??SMPL_Receive_2
//  502   }
//  503 
//  504   rcv.type  = RCV_APP_LID;
??SMPL_Receive_1:
        MOV     DPL,?XSP + 0
        MOV     DPH,?XSP + 1
        MOV     A,#0x1
        MOVX    @DPTR,A
//  505   rcv.t.lid = lid;
        LCALL   ?XSTACK_DISP0_8
        MOV     A,?V0 + 2
        MOVX    @DPTR,A
//  506 
//  507 #if defined(RX_POLLS)
//  508   {
//  509     uint8_t numChans  = 1;
//  510 #if defined(FREQUENCY_AGILITY)
//  511     freqEntry_t chans[NWK_FREQ_TBL_SIZE];
//  512     uint8_t     scannedB4 = 0;
//  513 #endif
//  514 
//  515     do
//  516     {
//  517       uint8_t radioState = MRFI_GetRadioState();
//  518 
//  519       /* I'm polling. Do the poll to stimulate the sending of a frame. If the
//  520        * frame has application length of 0 it means there were no frames.  If
//  521        * no reply is received infer that the channel is changed. We then need
//  522        * to scan and then retry the poll on each channel returned.
//  523        */
//  524       if (SMPL_SUCCESS != (rc=nwk_poll(pCInfo->portRx, pCInfo->peerAddr)))
//  525       {
//  526         /* for some reason couldn't send the poll out. */
//  527         return rc;
//  528       }
//  529 
//  530       /* do this before code block below which may reset it. */
//  531       numChans--;
//  532 
//  533       /* Wait until there's a frame. if the len is 0 then return SMPL_NO_FRAME
//  534        * to the caller. In the poll case the AP always sends something.
//  535        */
//  536       NWK_CHECK_FOR_SETRX(radioState);
//  537       NWK_REPLY_DELAY();
//  538       NWK_CHECK_FOR_RESTORE_STATE(radioState);
//  539 
//  540       /* TODO: deal with pending */
//  541       rc = nwk_retrieveFrame(&rcv, msg, len, 0, 0);
//  542 
//  543 #if defined(FREQUENCY_AGILITY)
//  544       if (SMPL_SUCCESS == rc)
//  545       {
//  546         /* we received something... */
//  547         return (*len) ? SMPL_SUCCESS : SMPL_NO_PAYLOAD;
//  548       }
//  549 
//  550       /* No reply. scan for other channel(s) if we haven't already. Then set
//  551        * one and try again.
//  552        */
//  553       if (!scannedB4)
//  554       {
//  555         numChans  = nwk_scanForChannels(chans);
//  556         scannedB4 = 1;
//  557       }
//  558       if (numChans)
//  559       {
//  560         nwk_setChannel(&chans[numChans-1]);
//  561       }
//  562 #else /*  FREQUENCY_AGILITY */
//  563       return (*len) ? rc : ((SMPL_SUCCESS == rc) ? SMPL_NO_PAYLOAD : SMPL_TIMEOUT);
//  564 #endif
//  565     } while (numChans);
//  566   }
//  567 
//  568 #if defined(FREQUENCY_AGILITY)
//  569   return SMPL_NO_CHANNEL;
//  570 #endif
//  571 
//  572 #else  /* RX_POLLS */
//  573   return nwk_retrieveFrame(&rcv, msg, len, 0, 0);
        ; Setup parameters for call to function nwk_retrieveFrame
        CLR     A
        MOV     ?V0 + 4,A
        MOV     ?V0 + 5,A
        MOV     R0,#?V0 + 4
        LCALL   ?PUSH_XSTACK_I_TWO
        CFI CFA_XSP16 add(XSP16, 19)
        MOV     R0,#?V0 + 4
        LCALL   ?PUSH_XSTACK_I_TWO
        CFI CFA_XSP16 add(XSP16, 21)
        MOV     R0,#?V0 + 0
        LCALL   ?PUSH_XSTACK_I_TWO
        CFI CFA_XSP16 add(XSP16, 23)
        MOV     A,R6
        MOV     R4,A
        MOV     A,R7
        MOV     R5,A
        MOV     A,#0x6
        LCALL   ?XSTACK_DISP0_8
        MOV     R2,DPL
        MOV     R3,DPH
        LCALL   ??nwk_retrieveFrame?relay
        MOV     A,#0x6
        LCALL   ?DEALLOC_XSTACK8
        CFI CFA_XSP16 add(XSP16, 17)
??SMPL_Receive_2:
        MOV     A,#0x3
        LCALL   ?DEALLOC_XSTACK8
        CFI CFA_XSP16 add(XSP16, 14)
        MOV     R7,#0x6
        LJMP    ?BANKED_LEAVE_XDATA
        CFI EndBlock cfiBlock5
//  574 #endif  /* RX_POLLS */
//  575 }
//  576 
//  577 
//  578 /******************************************************************************
//  579  * @fn          SMPL_Link
//  580  *
//  581  * @brief       Link to a peer.
//  582  *
//  583  * input parameters
//  584  *
//  585  * output parameters
//  586  * @param   lid     - pointer to where we should write the link ID to which the
//  587  *                    application will read and write.
//  588  *
//  589  * @return   Status of operation.
//  590  *             SMPL_SUCCESS
//  591  *             SMPL_NOMEM         No room to allocate local Rx port, no more
//  592  *                                room in Connection Table, or no room in
//  593  *                                output frame queue.
//  594  *             SMPL_NO_LINK       No reply frame during wait window.
//  595  *             SMPL_TX_CCA_FAIL   Could not send Link frame.
//  596  */

        RSEG BANKED_CODE:CODE:NOROOT(0)
//  597 smplStatus_t SMPL_Link(linkID_t *lid)
SMPL_Link:
        CFI Block cfiBlock6 Using cfiCommon0
        CFI Function SMPL_Link
        CODE
//  598 {
        FUNCALL SMPL_Link, nwk_link
        LOCFRAME ISTACK, 2, STACK
        LOCFRAME PSTACK, 0, STACK
        LOCFRAME XSTACK, 0, STACK
        LOCFRAME IOVERLAY, 0, STATIC
        LOCFRAME DOVERLAY, 0, STATIC
        ARGFRAME ISTACK, 2, STACK
        ARGFRAME PSTACK, 0, STACK
        ARGFRAME XSTACK, 0, STACK
        ARGFRAME IOVERLAY, 0, STATIC
        ARGFRAME DOVERLAY, 0, STATIC
        PUSH    DPL
        CFI DPL0 Frame(CFA_SP, 4)
        CFI CFA_SP SP+-4
        PUSH    DPH
        CFI DPH0 Frame(CFA_SP, 5)
        CFI CFA_SP SP+-5
        ; Saved register size: 2
        ; Auto size: 0
//  599   return nwk_link(lid);
        ; Setup parameters for call to function nwk_link
        LCALL   ??nwk_link?relay
        SJMP    ??Subroutine21_0
        CFI EndBlock cfiBlock6
//  600 }

        RSEG BANKED_CODE:CODE:NOROOT(0)
?Subroutine2:
        CFI Block cfiBlock7 Using cfiCommon0
        CFI NoFunction
        CFI CFA_SP SP+-5
        CFI CFA_XSP16 add(XSP16, 101)
        CFI DPL0 Frame(CFA_SP, 4)
        CFI DPH0 Frame(CFA_SP, 5)
        CFI Invalid
        LCALL   ?DEALLOC_XSTACK8
        CFI EndBlock cfiBlock7
        REQUIRE ??Subroutine21_0
        ; // Fall through to label ??Subroutine21_0

        RSEG BANKED_CODE:CODE:NOROOT(0)
??Subroutine21_0:
        CFI Block cfiBlock8 Using cfiCommon0
        CFI NoFunction
        CFI CFA_SP SP+-5
        CFI DPL0 Frame(CFA_SP, 4)
        CFI DPH0 Frame(CFA_SP, 5)
        POP     DPH
        CFI CFA_SP SP+-4
        CFI DPH0 SameValue
        POP     DPL
        CFI CFA_SP SP+-3
        CFI DPL0 SameValue
        LJMP    ?BRET
        CFI EndBlock cfiBlock8
//  601 

        RSEG BANKED_CODE:CODE:NOROOT(0)
//  602 void NIK_Init(void)
NIK_Init:
        CFI Block cfiBlock9 Using cfiCommon0
        CFI Function NIK_Init
        CODE
//  603 {
        PUSH    DPL
        CFI DPL0 Frame(CFA_SP, 4)
        CFI CFA_SP SP+-4
        PUSH    DPH
        CFI DPH0 Frame(CFA_SP, 5)
        CFI CFA_SP SP+-5
        ; Saved register size: 2
        ; Auto size: 0
//  604   //macLowLevelInit();
//  605   //macRadioSetTxPower(0xf5);
//  606   //HAL_BOARD_INIT();
//  607   //macRadioSetTxPower(0xf5);
//  608   //P1DIR |= 0x12;
//  609   //P1_1 = 1;
//  610   //P1_4 = 1;
//  611   //P0DIR |= 0x10;
//  612   //macSleepWakeUp();
//  613    /* P1_1 -> PAEN */
//  614     RFC_OBS_CTRL0 = RFC_OBS_CTRL_PA_PD_INV;
        MOV     DPTR,#0x61eb
        MOV     A,#0x68
        MOVX    @DPTR,A
//  615     OBSSEL1       = OBSSEL_OBS_CTRL0;
        MOV     DPTR,#0x6244
        MOV     A,#-0x5
        MOVX    @DPTR,A
//  616 
//  617     /* P1_4 -> EN (LNA control) */
//  618     RFC_OBS_CTRL1 = RFC_OBS_CTRL_LNAMIX_PD_INV;
        MOV     DPTR,#0x61ec
        MOV     A,#0x6a
        MOVX    @DPTR,A
//  619     OBSSEL4       = OBSSEL_OBS_CTRL1;
        MOV     DPTR,#0x6247
        MOV     A,#-0x4
        MOVX    @DPTR,A
//  620 }
        SJMP    ??Subroutine21_0
        CFI EndBlock cfiBlock9
//  621 
//  622 uint8 SwMode(uint8 sc)
//  623 {
//  624 	switch(sc)
//  625 	{
//  626 		case 0x01:
//  627 		return 0x00;
//  628 
//  629 		case 0x02:
//  630 		return 0x04;
//  631 
//  632 		case 0x03:
//  633 		return 0x01;
//  634 
//  635 		default:
//  636 		return 0x01;
//  637 	}
//  638 }
//  639 
//  640 static uint8 UartBulkSend(uint8 *sBuf, uint8 len)
//  641 {
//  642 	//uint8 i;
//  643 #if((defined HAL_UART_DMA)&&(HAL_UART_DMA==1))
//  644 	HalUARTWrite(0, sBuf, len);
//  645 	UartDMAIntSend();
//  646 	//HalUARTPoll();
//  647 #else
//  648 	for(i=0;i<len;i++)
//  649 	{
//  650 		UartSendByte(sBuf[i]);
//  651 	}
//  652 	//HalUARTWrite(0, sBuf, len);
//  653 #endif
//  654         return 0;
//  655 }
//  656 
//  657 #pragma optimize=none

        RSEG BANKED_CODE:CODE:NOROOT(0)
//  658 static void macDelay(unsigned int de)
macDelay:
        CFI Block cfiBlock10 Using cfiCommon0
        CFI Function macDelay
        CODE
//  659 {
        ; Saved register size: 0
        ; Auto size: 0
//  660 	//while(de--);
//  661 	 uint16 i,j;
//  662 	 for(i=de;i>0;i--)
        MOV     A,R2
        MOV     R4,A
        MOV     A,R3
        MOV     R5,A
??macDelay_0:
        MOV     A,R4
        ORL     A,R5
        JZ      ??macDelay_1
//  663 	   for(j=587;j>0;j--);
        MOV     R0,#0x4b
        MOV     R1,#0x2
??macDelay_2:
        MOV     A,R0
        ORL     A,R1
        JZ      ??macDelay_3
        MOV     A,R0
        ADD     A,#-0x1
        MOV     R0,A
        MOV     A,R1
        ADDC    A,#-0x1
        MOV     R1,A
        SJMP    ??macDelay_2
??macDelay_3:
        MOV     A,R4
        ADD     A,#-0x1
        MOV     R4,A
        MOV     A,R5
        ADDC    A,#-0x1
        MOV     R5,A
        SJMP    ??macDelay_0
//  664 	   
//  665 }
??macDelay_1:
        LJMP    ?BRET
        CFI EndBlock cfiBlock10
//  666 

        RSEG BANKED_CODE:CODE:NOROOT(0)
//  667 static unsigned char CalcSum(uint8 *rcv, uint8 len)
CalcSum:
        CFI Block cfiBlock11 Using cfiCommon0
        CFI Function CalcSum
        CODE
//  668 {
        MOV     A,#-0xa
        LCALL   ?BANKED_ENTER_XDATA
        CFI DPH0 load(1, XDATA, add(CFA_XSP16, literal(-1)))
        CFI DPL0 load(1, XDATA, add(CFA_XSP16, literal(-2)))
        CFI ?BRET_EXT load(1, XDATA, add(CFA_XSP16, literal(-3)))
        CFI ?RET_HIGH load(1, XDATA, add(CFA_XSP16, literal(-4)))
        CFI ?RET_LOW load(1, XDATA, add(CFA_XSP16, literal(-5)))
        CFI R7 load(1, XDATA, add(CFA_XSP16, literal(-6)))
        CFI V1 load(1, XDATA, add(CFA_XSP16, literal(-7)))
        CFI V0 load(1, XDATA, add(CFA_XSP16, literal(-8)))
        CFI VB load(1, XDATA, add(CFA_XSP16, literal(-9)))
        CFI R6 load(1, XDATA, add(CFA_XSP16, literal(-10)))
        CFI CFA_SP SP+0
        CFI CFA_XSP16 add(XSP16, 10)
        ; Saved register size: 10
        ; Auto size: 0
        MOV     A,R1
        MOV     R4,A
//  669 	uint8 i=0,sum=0;
        MOV     R1,#0x0
//  670 	for(i=0;i<len;i++)
        MOV     R0,#0x0
        SJMP    ??CalcSum_0
//  671 	{
//  672 		sum+=rcv[i];
??CalcSum_1:
        MOV     ?V0 + 0,R0
        MOV     A,R2
        ADD     A,?V0 + 0
        MOV     DPL,A
        MOV     A,R3
        ADDC    A,#0x0
        MOV     DPH,A
        MOVX    A,@DPTR
        ADD     A,R1
        MOV     R1,A
//  673 	}
        INC     R0
??CalcSum_0:
        MOV     A,R0
        CLR     C
        SUBB    A,R4
        JC      ??CalcSum_1
//  674 	return sum;
        SJMP    ??Subroutine22_0
        CFI EndBlock cfiBlock11
//  675 }

        RSEG BANKED_CODE:CODE:NOROOT(0)
?Subroutine1:
        CFI Block cfiBlock12 Using cfiCommon0
        CFI NoFunction
        CFI CFA_SP SP+0
        CFI CFA_XSP16 add(XSP16, 12)
        CFI VB load(1, XDATA, add(CFA_XSP16, literal(-9)))
        CFI DPL0 load(1, XDATA, add(CFA_XSP16, literal(-2)))
        CFI DPH0 load(1, XDATA, add(CFA_XSP16, literal(-1)))
        CFI R6 load(1, XDATA, add(CFA_XSP16, literal(-10)))
        CFI R7 load(1, XDATA, add(CFA_XSP16, literal(-6)))
        CFI V0 load(1, XDATA, add(CFA_XSP16, literal(-8)))
        CFI V1 load(1, XDATA, add(CFA_XSP16, literal(-7)))
        CFI ?BRET_EXT load(1, XDATA, add(CFA_XSP16, literal(-3)))
        CFI ?RET_HIGH load(1, XDATA, add(CFA_XSP16, literal(-4)))
        CFI ?RET_LOW load(1, XDATA, add(CFA_XSP16, literal(-5)))
        CFI Invalid
        LCALL   ?DEALLOC_XSTACK8
        CFI EndBlock cfiBlock12
        REQUIRE ??Subroutine22_0
        ; // Fall through to label ??Subroutine22_0

        RSEG BANKED_CODE:CODE:NOROOT(0)
??Subroutine22_0:
        CFI Block cfiBlock13 Using cfiCommon0
        CFI NoFunction
        CFI CFA_SP SP+0
        CFI CFA_XSP16 add(XSP16, 10)
        CFI VB load(1, XDATA, add(CFA_XSP16, literal(-9)))
        CFI DPL0 load(1, XDATA, add(CFA_XSP16, literal(-2)))
        CFI DPH0 load(1, XDATA, add(CFA_XSP16, literal(-1)))
        CFI R6 load(1, XDATA, add(CFA_XSP16, literal(-10)))
        CFI R7 load(1, XDATA, add(CFA_XSP16, literal(-6)))
        CFI V0 load(1, XDATA, add(CFA_XSP16, literal(-8)))
        CFI V1 load(1, XDATA, add(CFA_XSP16, literal(-7)))
        CFI ?BRET_EXT load(1, XDATA, add(CFA_XSP16, literal(-3)))
        CFI ?RET_HIGH load(1, XDATA, add(CFA_XSP16, literal(-4)))
        CFI ?RET_LOW load(1, XDATA, add(CFA_XSP16, literal(-5)))
        MOV     R7,#0x2
        LJMP    ?BANKED_LEAVE_XDATA
        CFI EndBlock cfiBlock13
//  676 

        RSEG BANKED_CODE:CODE:NOROOT(0)
//  677 static void FlashInfoSend(void)
FlashInfoSend:
        CFI Block cfiBlock14 Using cfiCommon0
        CFI Function FlashInfoSend
        CODE
//  678 {
        FUNCALL FlashInfoSend, CalcSum
        LOCFRAME ISTACK, 2, STACK
        LOCFRAME PSTACK, 0, STACK
        LOCFRAME XSTACK, 101, STACK
        LOCFRAME IOVERLAY, 0, STATIC
        LOCFRAME DOVERLAY, 0, STATIC
        ARGFRAME ISTACK, 2, STACK
        ARGFRAME PSTACK, 0, STACK
        ARGFRAME XSTACK, 101, STACK
        ARGFRAME IOVERLAY, 0, STATIC
        ARGFRAME DOVERLAY, 0, STATIC
        FUNCALL FlashInfoSend, HalUARTWrite
        LOCFRAME ISTACK, 2, STACK
        LOCFRAME PSTACK, 0, STACK
        LOCFRAME XSTACK, 101, STACK
        LOCFRAME IOVERLAY, 0, STATIC
        LOCFRAME DOVERLAY, 0, STATIC
        ARGFRAME ISTACK, 2, STACK
        ARGFRAME PSTACK, 0, STACK
        ARGFRAME XSTACK, 101, STACK
        ARGFRAME IOVERLAY, 0, STATIC
        ARGFRAME DOVERLAY, 0, STATIC
        FUNCALL FlashInfoSend, UartDMAIntSend
        LOCFRAME ISTACK, 2, STACK
        LOCFRAME PSTACK, 0, STACK
        LOCFRAME XSTACK, 101, STACK
        LOCFRAME IOVERLAY, 0, STATIC
        LOCFRAME DOVERLAY, 0, STATIC
        ARGFRAME ISTACK, 2, STACK
        ARGFRAME PSTACK, 0, STACK
        ARGFRAME XSTACK, 101, STACK
        ARGFRAME IOVERLAY, 0, STATIC
        ARGFRAME DOVERLAY, 0, STATIC
        PUSH    DPL
        CFI DPL0 Frame(CFA_SP, 4)
        CFI CFA_SP SP+-4
        PUSH    DPH
        CFI DPH0 Frame(CFA_SP, 5)
        CFI CFA_SP SP+-5
        ; Saved register size: 2
        ; Auto size: 101
        MOV     A,#-0x65
        LCALL   ?ALLOC_XSTACK8
        CFI CFA_XSP16 add(XSP16, 101)
//  679 	uint8 bufIndex=0;
//  680 	uint8 devSBuf[100]={0};
        MOV     A,#0x1
        LCALL   ?XSTACK_DISP0_8
        MOV     R4,DPL
        MOV     R5,DPH
        MOV     DPH,#(`?<Constant {0}>` >> 8) & 0xff
        MOV     DPL,#`?<Constant {0}>` & 0xff
        MOV     A,#0x64
        LCALL   ?MOVE_LONG8_XDATA_XDATA
//  681 	//uint8 i = 0;	
//  682 	
//  683 	radioSet.shutter =0x00;
        MOV     DPTR,#radioSet + 5
        MOVX    @DPTR,A
//  684 	radioSet.apert = 0x00;
        INC     DPTR
        MOVX    @DPTR,A
//  685 	radioSet.isoCmp = 0x00;
        MOV     DPTR,#radioSet + 4
        MOVX    @DPTR,A
//  686 
//  687 	bufIndex = 0;
//  688 	devSBuf[bufIndex++] = 0xAA;
        INC     A
        LCALL   ?XSTACK_DISP0_8
        MOV     A,#-0x56
        MOVX    @DPTR,A
//  689 	devSBuf[bufIndex++] = 0x00;
        MOV     A,#0x2
        LCALL   ?XSTACK_DISP0_8
        CLR     A
        MOVX    @DPTR,A
//  690 	devSBuf[bufIndex++] = UART_SLAVE_FLA;
        MOV     A,#0x3
        LCALL   ?XSTACK_DISP0_8
        MOV     A,#-0x38
        MOVX    @DPTR,A
//  691 
//  692 	devSBuf[bufIndex++] = radioSet.apert;
        MOV     DPTR,#radioSet + 6
        MOVX    A,@DPTR
        PUSH    A
        CFI CFA_SP SP+-6
        MOV     A,#0x4
        LCALL   ?XSTACK_DISP0_8
        POP     A
        CFI CFA_SP SP+-5
        MOVX    @DPTR,A
//  693 	devSBuf[bufIndex++] = radioSet.shutter;
        MOV     DPTR,#radioSet + 5
        MOVX    A,@DPTR
        PUSH    A
        CFI CFA_SP SP+-6
        MOV     A,#0x5
        LCALL   ?XSTACK_DISP0_8
        POP     A
        CFI CFA_SP SP+-5
        MOVX    @DPTR,A
//  694 	devSBuf[bufIndex++] = radioSet.isoCmp;
        MOV     DPTR,#radioSet + 4
        MOVX    A,@DPTR
        PUSH    A
        CFI CFA_SP SP+-6
        MOV     A,#0x6
        LCALL   ?XSTACK_DISP0_8
        POP     A
        CFI CFA_SP SP+-5
        LCALL   ?Subroutine10 & 0xFFFF
??CrossCallReturnLabel_16:
        ADD     A,#0x1c
        LCALL   ?Subroutine3 & 0xFFFF
??CrossCallReturnLabel_0:
        JZ      ??FlashInfoSend_0
        DEC     A
        MOV     DPL,?XSP + 0
        MOV     DPH,?XSP + 1
        JNZ     ??FlashInfoSend_1
        MOV     A,#0x4
        SJMP    ??FlashInfoSend_2
??FlashInfoSend_0:
        MOV     DPL,?XSP + 0
        MOV     DPH,?XSP + 1
        CLR     A
        SJMP    ??FlashInfoSend_2
??FlashInfoSend_1:
        MOV     A,#0x1
??FlashInfoSend_2:
        MOVX    @DPTR,A
//  695 
//  696 	devSBuf[bufIndex++] = SwMode(g_pRcvPkt->frame[28]>>4);//mode
        MOVX    A,@DPTR
        PUSH    A
        CFI CFA_SP SP+-6
        MOV     A,#0x7
        LCALL   ?XSTACK_DISP0_8
        POP     A
        CFI CFA_SP SP+-5
        LCALL   ?Subroutine10 & 0xFFFF
//  697 	devSBuf[bufIndex++]= g_pRcvPkt->frame[31];
??CrossCallReturnLabel_17:
        ADD     A,#0x1f
        LCALL   ?Subroutine7 & 0xFFFF
??CrossCallReturnLabel_9:
        PUSH    A
        CFI CFA_SP SP+-6
        MOV     A,#0x8
        LCALL   ?XSTACK_DISP0_8
        POP     A
        CFI CFA_SP SP+-5
        LCALL   ?Subroutine11 & 0xFFFF
??CrossCallReturnLabel_25:
        JZ      ??FlashInfoSend_3
        DEC     A
        MOV     DPL,?XSP + 0
        MOV     DPH,?XSP + 1
        JNZ     ??FlashInfoSend_4
        MOV     A,#0x4
        SJMP    ??FlashInfoSend_5
??FlashInfoSend_3:
        MOV     DPL,?XSP + 0
        MOV     DPH,?XSP + 1
        CLR     A
        SJMP    ??FlashInfoSend_5
??FlashInfoSend_4:
        MOV     A,#0x1
??FlashInfoSend_5:
        MOVX    @DPTR,A
//  698 
//  699 	devSBuf[bufIndex++] = SwMode(g_pRcvPkt->frame[28]&0x0f);//mode
        MOVX    A,@DPTR
        PUSH    A
        CFI CFA_SP SP+-6
        MOV     A,#0x9
        LCALL   ?XSTACK_DISP0_8
        POP     A
        CFI CFA_SP SP+-5
        LCALL   ?Subroutine10 & 0xFFFF
//  700 	devSBuf[bufIndex++]= g_pRcvPkt->frame[32];
??CrossCallReturnLabel_18:
        ADD     A,#0x20
        LCALL   ??Subroutine24_0 & 0xFFFF
??CrossCallReturnLabel_45:
        PUSH    A
        CFI CFA_SP SP+-6
        MOV     A,#0xa
        LCALL   ?XSTACK_DISP0_8
        POP     A
        CFI CFA_SP SP+-5
        LCALL   ?Subroutine10 & 0xFFFF
??CrossCallReturnLabel_19:
        ADD     A,#0x1d
        LCALL   ?Subroutine3 & 0xFFFF
??CrossCallReturnLabel_1:
        JZ      ??FlashInfoSend_6
        DEC     A
        MOV     DPL,?XSP + 0
        MOV     DPH,?XSP + 1
        JNZ     ??FlashInfoSend_7
        MOV     A,#0x4
        SJMP    ??FlashInfoSend_8
??FlashInfoSend_6:
        MOV     DPL,?XSP + 0
        MOV     DPH,?XSP + 1
        CLR     A
        SJMP    ??FlashInfoSend_8
??FlashInfoSend_7:
        MOV     A,#0x1
??FlashInfoSend_8:
        MOVX    @DPTR,A
//  701 
//  702 	devSBuf[bufIndex++] = SwMode(g_pRcvPkt->frame[29]>>4);//mode
        MOVX    A,@DPTR
        PUSH    A
        CFI CFA_SP SP+-6
        MOV     A,#0xb
        LCALL   ?XSTACK_DISP0_8
        POP     A
        CFI CFA_SP SP+-5
        LCALL   ?Subroutine10 & 0xFFFF
//  703 	devSBuf[bufIndex++]= g_pRcvPkt->frame[33];
??CrossCallReturnLabel_20:
        ADD     A,#0x21
        LCALL   ?Subroutine7 & 0xFFFF
??CrossCallReturnLabel_10:
        PUSH    A
        CFI CFA_SP SP+-6
        MOV     A,#0xc
        LCALL   ?XSTACK_DISP0_8
        POP     A
        CFI CFA_SP SP+-5
        LCALL   ?Subroutine11 & 0xFFFF
??CrossCallReturnLabel_26:
        JZ      ??FlashInfoSend_9
        DEC     A
        MOV     DPL,?XSP + 0
        MOV     DPH,?XSP + 1
        JNZ     ??FlashInfoSend_10
        MOV     A,#0x4
        SJMP    ??FlashInfoSend_11
??FlashInfoSend_9:
        MOV     DPL,?XSP + 0
        MOV     DPH,?XSP + 1
        CLR     A
        SJMP    ??FlashInfoSend_11
??FlashInfoSend_10:
        MOV     A,#0x1
??FlashInfoSend_11:
        MOVX    @DPTR,A
//  704 
//  705 	devSBuf[bufIndex++] = SwMode(g_pRcvPkt->frame[29]&0x0f);//mode
        MOVX    A,@DPTR
        PUSH    A
        CFI CFA_SP SP+-6
        MOV     A,#0xd
        LCALL   ?XSTACK_DISP0_8
        POP     A
        CFI CFA_SP SP+-5
        LCALL   ?Subroutine10 & 0xFFFF
//  706 	devSBuf[bufIndex++]= g_pRcvPkt->frame[34];
??CrossCallReturnLabel_21:
        ADD     A,#0x22
        LCALL   ??Subroutine24_0 & 0xFFFF
??CrossCallReturnLabel_46:
        PUSH    A
        CFI CFA_SP SP+-6
        MOV     A,#0xe
        LCALL   ?XSTACK_DISP0_8
        POP     A
        CFI CFA_SP SP+-5
        LCALL   ?Subroutine10 & 0xFFFF
??CrossCallReturnLabel_22:
        ADD     A,#0x1e
        LCALL   ?Subroutine3 & 0xFFFF
??CrossCallReturnLabel_2:
        JZ      ??FlashInfoSend_12
        DEC     A
        MOV     DPL,?XSP + 0
        MOV     DPH,?XSP + 1
        JNZ     ??FlashInfoSend_13
        MOV     A,#0x4
        SJMP    ??FlashInfoSend_14
??FlashInfoSend_12:
        MOV     DPL,?XSP + 0
        MOV     DPH,?XSP + 1
        CLR     A
        SJMP    ??FlashInfoSend_14
??FlashInfoSend_13:
        MOV     A,#0x1
??FlashInfoSend_14:
        MOVX    @DPTR,A
//  707 
//  708 	devSBuf[bufIndex++] = SwMode(g_pRcvPkt->frame[30]>>4);//mode
        MOVX    A,@DPTR
        PUSH    A
        CFI CFA_SP SP+-6
        MOV     A,#0xf
        LCALL   ?XSTACK_DISP0_8
        POP     A
        CFI CFA_SP SP+-5
        LCALL   ?Subroutine10 & 0xFFFF
//  709 	devSBuf[bufIndex++]= g_pRcvPkt->frame[35];
??CrossCallReturnLabel_23:
        ADD     A,#0x23
        LCALL   ?Subroutine7 & 0xFFFF
??CrossCallReturnLabel_11:
        PUSH    A
        CFI CFA_SP SP+-6
        MOV     A,#0x10
        LCALL   ?XSTACK_DISP0_8
        POP     A
        CFI CFA_SP SP+-5
        LCALL   ?Subroutine11 & 0xFFFF
??CrossCallReturnLabel_27:
        JZ      ??FlashInfoSend_15
        DEC     A
        MOV     DPL,?XSP + 0
        MOV     DPH,?XSP + 1
        JNZ     ??FlashInfoSend_16
        MOV     A,#0x4
        SJMP    ??FlashInfoSend_17
??FlashInfoSend_15:
        MOV     DPL,?XSP + 0
        MOV     DPH,?XSP + 1
        CLR     A
        SJMP    ??FlashInfoSend_17
??FlashInfoSend_16:
        MOV     A,#0x1
??FlashInfoSend_17:
        MOVX    @DPTR,A
//  710 
//  711 	devSBuf[bufIndex++] = SwMode(g_pRcvPkt->frame[30]&0x0f);//mode
        MOVX    A,@DPTR
        PUSH    A
        CFI CFA_SP SP+-6
        MOV     A,#0x11
        LCALL   ?XSTACK_DISP0_8
        POP     A
        CFI CFA_SP SP+-5
        LCALL   ?Subroutine10 & 0xFFFF
//  712 	devSBuf[bufIndex++]= g_pRcvPkt->frame[36];
??CrossCallReturnLabel_24:
        ADD     A,#0x24
        LCALL   ??Subroutine24_0 & 0xFFFF
??CrossCallReturnLabel_47:
        PUSH    A
        CFI CFA_SP SP+-6
        MOV     A,#0x12
        LCALL   ?XSTACK_DISP0_8
        POP     A
        CFI CFA_SP SP+-5
        MOVX    @DPTR,A
//  713 
//  714 	devSBuf[bufIndex++] = CalcSum(devSBuf+2,bufIndex-2);
        ; Setup parameters for call to function CalcSum
        MOV     R1,#0x10
        MOV     A,#0x3
        LCALL   ?XSTACK_DISP0_8
        MOV     R2,DPL
        MOV     R3,DPH
        LCALL   ??CalcSum?relay
        MOV     A,#0x13
        LCALL   ?XSTACK_DISP0_8
        MOV     A,R1
        MOVX    @DPTR,A
//  715 
//  716 	devSBuf[1] = bufIndex-2;
        MOV     A,#0x2
        LCALL   ?XSTACK_DISP0_8
        MOV     A,#0x11
        MOVX    @DPTR,A
//  717 
//  718 	UartBulkSend(devSBuf,bufIndex);
        ; Setup parameters for call to function HalUARTWrite
        MOV     R4,#0x13
        MOV     R5,#0x0
        MOV     A,#0x1
        LCALL   ?XSTACK_DISP0_8
        LCALL   ??Subroutine23_0 & 0xFFFF
//  719 	
//  720 	
//  721 }
??CrossCallReturnLabel_44:
        MOV     A,#0x65
        LJMP    ?Subroutine2 & 0xFFFF
        CFI EndBlock cfiBlock14

        RSEG BANKED_CODE:CODE:NOROOT(0)
?Subroutine11:
        CFI Block cfiCond15 Using cfiCommon0
        CFI NoFunction
        CFI Conditional ??CrossCallReturnLabel_25
        CFI DPL0 Frame(CFA_SP, 4)
        CFI DPH0 Frame(CFA_SP, 5)
        CFI CFA_SP SP+-5
        CFI CFA_XSP16 add(XSP16, 101)
        CFI Block cfiCond16 Using cfiCommon0
        CFI (cfiCond16) NoFunction
        CFI (cfiCond16) Conditional ??CrossCallReturnLabel_26
        CFI (cfiCond16) DPL0 Frame(CFA_SP, 4)
        CFI (cfiCond16) DPH0 Frame(CFA_SP, 5)
        CFI (cfiCond16) CFA_SP SP+-5
        CFI (cfiCond16) CFA_XSP16 add(XSP16, 101)
        CFI Block cfiCond17 Using cfiCommon0
        CFI (cfiCond17) NoFunction
        CFI (cfiCond17) Conditional ??CrossCallReturnLabel_27
        CFI (cfiCond17) DPL0 Frame(CFA_SP, 4)
        CFI (cfiCond17) DPH0 Frame(CFA_SP, 5)
        CFI (cfiCond17) CFA_SP SP+-5
        CFI (cfiCond17) CFA_XSP16 add(XSP16, 101)
        CFI Block cfiPicker18 Using cfiCommon1
        CFI (cfiPicker18) NoFunction
        CFI (cfiPicker18) Picker
        MOVX    @DPTR,A
        MOV     DPL,R0
        MOV     DPH,R1
        MOVX    A,@DPTR
        ANL     A,#0xf
        DEC     A
        RET
        CFI EndBlock cfiCond15
        CFI EndBlock cfiCond16
        CFI EndBlock cfiCond17
        CFI EndBlock cfiPicker18

        RSEG BANKED_CODE:CODE:NOROOT(0)
?Subroutine10:
        CFI Block cfiCond19 Using cfiCommon0
        CFI NoFunction
        CFI Conditional ??CrossCallReturnLabel_16
        CFI DPL0 Frame(CFA_SP, 4)
        CFI DPH0 Frame(CFA_SP, 5)
        CFI CFA_SP SP+-5
        CFI CFA_XSP16 add(XSP16, 101)
        CFI Block cfiCond20 Using cfiCommon0
        CFI (cfiCond20) NoFunction
        CFI (cfiCond20) Conditional ??CrossCallReturnLabel_17
        CFI (cfiCond20) DPL0 Frame(CFA_SP, 4)
        CFI (cfiCond20) DPH0 Frame(CFA_SP, 5)
        CFI (cfiCond20) CFA_SP SP+-5
        CFI (cfiCond20) CFA_XSP16 add(XSP16, 101)
        CFI Block cfiCond21 Using cfiCommon0
        CFI (cfiCond21) NoFunction
        CFI (cfiCond21) Conditional ??CrossCallReturnLabel_18
        CFI (cfiCond21) DPL0 Frame(CFA_SP, 4)
        CFI (cfiCond21) DPH0 Frame(CFA_SP, 5)
        CFI (cfiCond21) CFA_SP SP+-5
        CFI (cfiCond21) CFA_XSP16 add(XSP16, 101)
        CFI Block cfiCond22 Using cfiCommon0
        CFI (cfiCond22) NoFunction
        CFI (cfiCond22) Conditional ??CrossCallReturnLabel_19
        CFI (cfiCond22) DPL0 Frame(CFA_SP, 4)
        CFI (cfiCond22) DPH0 Frame(CFA_SP, 5)
        CFI (cfiCond22) CFA_SP SP+-5
        CFI (cfiCond22) CFA_XSP16 add(XSP16, 101)
        CFI Block cfiCond23 Using cfiCommon0
        CFI (cfiCond23) NoFunction
        CFI (cfiCond23) Conditional ??CrossCallReturnLabel_20
        CFI (cfiCond23) DPL0 Frame(CFA_SP, 4)
        CFI (cfiCond23) DPH0 Frame(CFA_SP, 5)
        CFI (cfiCond23) CFA_SP SP+-5
        CFI (cfiCond23) CFA_XSP16 add(XSP16, 101)
        CFI Block cfiCond24 Using cfiCommon0
        CFI (cfiCond24) NoFunction
        CFI (cfiCond24) Conditional ??CrossCallReturnLabel_21
        CFI (cfiCond24) DPL0 Frame(CFA_SP, 4)
        CFI (cfiCond24) DPH0 Frame(CFA_SP, 5)
        CFI (cfiCond24) CFA_SP SP+-5
        CFI (cfiCond24) CFA_XSP16 add(XSP16, 101)
        CFI Block cfiCond25 Using cfiCommon0
        CFI (cfiCond25) NoFunction
        CFI (cfiCond25) Conditional ??CrossCallReturnLabel_22
        CFI (cfiCond25) DPL0 Frame(CFA_SP, 4)
        CFI (cfiCond25) DPH0 Frame(CFA_SP, 5)
        CFI (cfiCond25) CFA_SP SP+-5
        CFI (cfiCond25) CFA_XSP16 add(XSP16, 101)
        CFI Block cfiCond26 Using cfiCommon0
        CFI (cfiCond26) NoFunction
        CFI (cfiCond26) Conditional ??CrossCallReturnLabel_23
        CFI (cfiCond26) DPL0 Frame(CFA_SP, 4)
        CFI (cfiCond26) DPH0 Frame(CFA_SP, 5)
        CFI (cfiCond26) CFA_SP SP+-5
        CFI (cfiCond26) CFA_XSP16 add(XSP16, 101)
        CFI Block cfiCond27 Using cfiCommon0
        CFI (cfiCond27) NoFunction
        CFI (cfiCond27) Conditional ??CrossCallReturnLabel_24
        CFI (cfiCond27) DPL0 Frame(CFA_SP, 4)
        CFI (cfiCond27) DPH0 Frame(CFA_SP, 5)
        CFI (cfiCond27) CFA_SP SP+-5
        CFI (cfiCond27) CFA_XSP16 add(XSP16, 101)
        CFI Block cfiPicker28 Using cfiCommon1
        CFI (cfiPicker28) NoFunction
        CFI (cfiPicker28) Picker
        MOVX    @DPTR,A
        MOV     DPTR,#g_pRcvPkt
        MOVX    A,@DPTR
        RET
        CFI EndBlock cfiCond19
        CFI EndBlock cfiCond20
        CFI EndBlock cfiCond21
        CFI EndBlock cfiCond22
        CFI EndBlock cfiCond23
        CFI EndBlock cfiCond24
        CFI EndBlock cfiCond25
        CFI EndBlock cfiCond26
        CFI EndBlock cfiCond27
        CFI EndBlock cfiPicker28

        RSEG BANKED_CODE:CODE:NOROOT(0)
?Subroutine7:
        CFI Block cfiCond29 Using cfiCommon0
        CFI NoFunction
        CFI Conditional ??CrossCallReturnLabel_9
        CFI DPL0 Frame(CFA_SP, 4)
        CFI DPH0 Frame(CFA_SP, 5)
        CFI CFA_SP SP+-5
        CFI CFA_XSP16 add(XSP16, 101)
        CFI Block cfiCond30 Using cfiCommon0
        CFI (cfiCond30) NoFunction
        CFI (cfiCond30) Conditional ??CrossCallReturnLabel_10
        CFI (cfiCond30) DPL0 Frame(CFA_SP, 4)
        CFI (cfiCond30) DPH0 Frame(CFA_SP, 5)
        CFI (cfiCond30) CFA_SP SP+-5
        CFI (cfiCond30) CFA_XSP16 add(XSP16, 101)
        CFI Block cfiCond31 Using cfiCommon0
        CFI (cfiCond31) NoFunction
        CFI (cfiCond31) Conditional ??CrossCallReturnLabel_11
        CFI (cfiCond31) DPL0 Frame(CFA_SP, 4)
        CFI (cfiCond31) DPH0 Frame(CFA_SP, 5)
        CFI (cfiCond31) CFA_SP SP+-5
        CFI (cfiCond31) CFA_XSP16 add(XSP16, 101)
        CFI Block cfiPicker32 Using cfiCommon1
        CFI (cfiPicker32) NoFunction
        CFI (cfiPicker32) Picker
        MOV     R2,A
        INC     DPTR
        MOVX    A,@DPTR
        ADDC    A,#0x0
        MOV     R3,A
        MOV     DPL,R2
        MOV     DPH,R3
        MOVX    A,@DPTR
        RET
        CFI EndBlock cfiCond29
        CFI EndBlock cfiCond30
        CFI EndBlock cfiCond31
        CFI EndBlock cfiPicker32

        RSEG BANKED_CODE:CODE:NOROOT(0)
?Subroutine3:
        CFI Block cfiCond33 Using cfiCommon0
        CFI NoFunction
        CFI Conditional ??CrossCallReturnLabel_0
        CFI DPL0 Frame(CFA_SP, 4)
        CFI DPH0 Frame(CFA_SP, 5)
        CFI CFA_SP SP+-5
        CFI CFA_XSP16 add(XSP16, 101)
        CFI Block cfiCond34 Using cfiCommon0
        CFI (cfiCond34) NoFunction
        CFI (cfiCond34) Conditional ??CrossCallReturnLabel_1
        CFI (cfiCond34) DPL0 Frame(CFA_SP, 4)
        CFI (cfiCond34) DPH0 Frame(CFA_SP, 5)
        CFI (cfiCond34) CFA_SP SP+-5
        CFI (cfiCond34) CFA_XSP16 add(XSP16, 101)
        CFI Block cfiCond35 Using cfiCommon0
        CFI (cfiCond35) NoFunction
        CFI (cfiCond35) Conditional ??CrossCallReturnLabel_2
        CFI (cfiCond35) DPL0 Frame(CFA_SP, 4)
        CFI (cfiCond35) DPH0 Frame(CFA_SP, 5)
        CFI (cfiCond35) CFA_SP SP+-5
        CFI (cfiCond35) CFA_XSP16 add(XSP16, 101)
        CFI Block cfiPicker36 Using cfiCommon1
        CFI (cfiPicker36) NoFunction
        CFI (cfiPicker36) Picker
        LCALL   ?Subroutine17 & 0xFFFF
??CrossCallReturnLabel_55:
        SWAP    A
        ANL     A,#0xf
        DEC     A
        RET
        CFI EndBlock cfiCond33
        CFI EndBlock cfiCond34
        CFI EndBlock cfiCond35
        CFI EndBlock cfiPicker36
//  722 

        RSEG BANKED_CODE:CODE:NOROOT(0)
//  723 static void PreFlashInfoSend(void)
PreFlashInfoSend:
        CFI Block cfiBlock37 Using cfiCommon0
        CFI Function PreFlashInfoSend
        CODE
//  724 {
        FUNCALL PreFlashInfoSend, CalcSum
        LOCFRAME ISTACK, 2, STACK
        LOCFRAME PSTACK, 0, STACK
        LOCFRAME XSTACK, 100, STACK
        LOCFRAME IOVERLAY, 0, STATIC
        LOCFRAME DOVERLAY, 0, STATIC
        ARGFRAME ISTACK, 2, STACK
        ARGFRAME PSTACK, 0, STACK
        ARGFRAME XSTACK, 100, STACK
        ARGFRAME IOVERLAY, 0, STATIC
        ARGFRAME DOVERLAY, 0, STATIC
        FUNCALL PreFlashInfoSend, HalUARTWrite
        LOCFRAME ISTACK, 2, STACK
        LOCFRAME PSTACK, 0, STACK
        LOCFRAME XSTACK, 100, STACK
        LOCFRAME IOVERLAY, 0, STATIC
        LOCFRAME DOVERLAY, 0, STATIC
        ARGFRAME ISTACK, 2, STACK
        ARGFRAME PSTACK, 0, STACK
        ARGFRAME XSTACK, 100, STACK
        ARGFRAME IOVERLAY, 0, STATIC
        ARGFRAME DOVERLAY, 0, STATIC
        FUNCALL PreFlashInfoSend, UartDMAIntSend
        LOCFRAME ISTACK, 2, STACK
        LOCFRAME PSTACK, 0, STACK
        LOCFRAME XSTACK, 100, STACK
        LOCFRAME IOVERLAY, 0, STATIC
        LOCFRAME DOVERLAY, 0, STATIC
        ARGFRAME ISTACK, 2, STACK
        ARGFRAME PSTACK, 0, STACK
        ARGFRAME XSTACK, 100, STACK
        ARGFRAME IOVERLAY, 0, STATIC
        ARGFRAME DOVERLAY, 0, STATIC
        PUSH    DPL
        CFI DPL0 Frame(CFA_SP, 4)
        CFI CFA_SP SP+-4
        PUSH    DPH
        CFI DPH0 Frame(CFA_SP, 5)
        CFI CFA_SP SP+-5
        ; Saved register size: 2
        ; Auto size: 100
        MOV     A,#-0x64
        LCALL   ?ALLOC_XSTACK8
        CFI CFA_XSP16 add(XSP16, 100)
//  725 	uint8 bufIndex=0;
//  726 	uint8 devSBuf[100]={0};
        MOV     DPL,?XSP + 0
        MOV     DPH,?XSP + 1
        MOV     R4,DPL
        MOV     R5,DPH
        MOV     DPH,#(`?<Constant {0}>_1` >> 8) & 0xff
        MOV     DPL,#`?<Constant {0}>_1` & 0xff
        MOV     A,#0x64
        LCALL   ?MOVE_LONG8_XDATA_XDATA
//  727 
//  728 	bufIndex = 0;
//  729 	devSBuf[bufIndex++] = 0xAA;			//
        MOV     DPL,?XSP + 0
        MOV     DPH,?XSP + 1
        MOV     A,#-0x56
        MOVX    @DPTR,A
//  730 	devSBuf[bufIndex++] = 6;	
        MOV     A,#0x1
        LCALL   ?XSTACK_DISP0_8
        MOV     A,#0x6
        MOVX    @DPTR,A
//  731 	devSBuf[bufIndex++] = UART_SLAVE_PRE;//SAI_INFO_HEAD;//0xA2;
        MOV     A,#0x2
        LCALL   ?XSTACK_DISP0_8
        MOV     A,#-0x39
        MOVX    @DPTR,A
//  732 
//  733 	devSBuf[bufIndex++] = 0x00;
        MOV     A,#0x3
        LCALL   ?XSTACK_DISP0_8
        CLR     A
        MOVX    @DPTR,A
//  734 	devSBuf[bufIndex++] = 0x00;
        MOV     A,#0x4
        LCALL   ?XSTACK_DISP0_8
        CLR     A
        MOVX    @DPTR,A
//  735 	devSBuf[bufIndex++] = 0x00;
        MOV     A,#0x5
        LCALL   ?XSTACK_DISP0_8
        CLR     A
        MOVX    @DPTR,A
//  736 	devSBuf[bufIndex++] = 0x3F;
        MOV     A,#0x6
        LCALL   ?XSTACK_DISP0_8
        MOV     A,#0x3f
        MOVX    @DPTR,A
//  737 
//  738 	devSBuf[bufIndex++] = CalcSum(devSBuf+2,5);
        ; Setup parameters for call to function CalcSum
        MOV     R1,#0x5
        MOV     A,#0x2
        LCALL   ?XSTACK_DISP0_8
        MOV     R2,DPL
        MOV     R3,DPH
        LCALL   ??CalcSum?relay
        MOV     A,#0x7
        LCALL   ?XSTACK_DISP0_8
        MOV     A,R1
        MOVX    @DPTR,A
//  739 
//  740 	UartBulkSend(devSBuf,bufIndex);
        ; Setup parameters for call to function HalUARTWrite
        MOV     R4,#0x8
        LCALL   ?Subroutine15 & 0xFFFF
//  741 
//  742 	
//  743 }
??CrossCallReturnLabel_42:
        MOV     A,#0x64
        LJMP    ?Subroutine2 & 0xFFFF
        CFI EndBlock cfiBlock37

        RSEG BANKED_CODE:CODE:NOROOT(0)
?Subroutine15:
        CFI Block cfiCond38 Using cfiCommon0
        CFI NoFunction
        CFI Conditional ??CrossCallReturnLabel_42
        CFI DPL0 Frame(CFA_SP, 4)
        CFI DPH0 Frame(CFA_SP, 5)
        CFI CFA_SP SP+-5
        CFI CFA_XSP16 add(XSP16, 100)
        CFI Block cfiCond39 Using cfiCommon0
        CFI (cfiCond39) NoFunction
        CFI (cfiCond39) Conditional ??CrossCallReturnLabel_43
        CFI (cfiCond39) R6 load(1, XDATA, add(CFA_XSP16, literal(-10)))
        CFI (cfiCond39) VB load(1, XDATA, add(CFA_XSP16, literal(-9)))
        CFI (cfiCond39) V0 load(1, XDATA, add(CFA_XSP16, literal(-8)))
        CFI (cfiCond39) V1 load(1, XDATA, add(CFA_XSP16, literal(-7)))
        CFI (cfiCond39) R7 load(1, XDATA, add(CFA_XSP16, literal(-6)))
        CFI (cfiCond39) ?RET_LOW load(1, XDATA, add(CFA_XSP16, literal(-5)))
        CFI (cfiCond39) ?RET_HIGH load(1, XDATA, add(CFA_XSP16, literal(-4)))
        CFI (cfiCond39) ?BRET_EXT load(1, XDATA, add(CFA_XSP16, literal(-3)))
        CFI (cfiCond39) DPL0 load(1, XDATA, add(CFA_XSP16, literal(-2)))
        CFI (cfiCond39) DPH0 load(1, XDATA, add(CFA_XSP16, literal(-1)))
        CFI (cfiCond39) CFA_SP SP+0
        CFI (cfiCond39) CFA_XSP16 add(XSP16, 30)
        CFI Block cfiPicker40 Using cfiCommon1
        CFI (cfiPicker40) NoFunction
        CFI (cfiPicker40) Picker
        MOV     R5,#0x0
        MOV     DPL,?XSP + 0
        MOV     DPH,?XSP + 1
        CFI EndBlock cfiCond38
        CFI EndBlock cfiCond39
        CFI EndBlock cfiPicker40
        REQUIRE ??Subroutine23_0
        ; // Fall through to label ??Subroutine23_0

        RSEG BANKED_CODE:CODE:NOROOT(0)
??Subroutine23_0:
        CFI Block cfiCond41 Using cfiCommon0
        CFI NoFunction
        CFI Conditional ??CrossCallReturnLabel_44
        CFI DPL0 Frame(CFA_SP, 4)
        CFI DPH0 Frame(CFA_SP, 5)
        CFI CFA_SP SP+-5
        CFI CFA_XSP16 add(XSP16, 101)
        CFI Block cfiCond42 Using cfiCommon0
        CFI (cfiCond42) NoFunction
        CFI (cfiCond42) Conditional ??CrossCallReturnLabel_42
        CFI (cfiCond42) DPL0 Frame(CFA_SP, 4)
        CFI (cfiCond42) DPH0 Frame(CFA_SP, 5)
        CFI (cfiCond42) CFA_SP SP+-5
        CFI (cfiCond42) CFA_XSP16 add(XSP16, 100)
        CFI Block cfiCond43 Using cfiCommon0
        CFI (cfiCond43) NoFunction
        CFI (cfiCond43) Conditional ??CrossCallReturnLabel_43
        CFI (cfiCond43) R6 load(1, XDATA, add(CFA_XSP16, literal(-10)))
        CFI (cfiCond43) VB load(1, XDATA, add(CFA_XSP16, literal(-9)))
        CFI (cfiCond43) V0 load(1, XDATA, add(CFA_XSP16, literal(-8)))
        CFI (cfiCond43) V1 load(1, XDATA, add(CFA_XSP16, literal(-7)))
        CFI (cfiCond43) R7 load(1, XDATA, add(CFA_XSP16, literal(-6)))
        CFI (cfiCond43) ?RET_LOW load(1, XDATA, add(CFA_XSP16, literal(-5)))
        CFI (cfiCond43) ?RET_HIGH load(1, XDATA, add(CFA_XSP16, literal(-4)))
        CFI (cfiCond43) ?BRET_EXT load(1, XDATA, add(CFA_XSP16, literal(-3)))
        CFI (cfiCond43) DPL0 load(1, XDATA, add(CFA_XSP16, literal(-2)))
        CFI (cfiCond43) DPH0 load(1, XDATA, add(CFA_XSP16, literal(-1)))
        CFI (cfiCond43) CFA_SP SP+0
        CFI (cfiCond43) CFA_XSP16 add(XSP16, 30)
        CFI Block cfiPicker44 Using cfiCommon1
        CFI (cfiPicker44) NoFunction
        CFI (cfiPicker44) Picker
        MOV     R2,DPL
        MOV     R3,DPH
        MOV     R1,#0x0
        LCALL   ??HalUARTWrite?relay
        ; Setup parameters for call to function UartDMAIntSend
        ; Setup parameters for call to function UartDMAIntSend
        ; Setup parameters for call to function UartDMAIntSend
        LCALL   ??UartDMAIntSend?relay
        RET
        CFI EndBlock cfiCond41
        CFI EndBlock cfiCond42
        CFI EndBlock cfiCond43
        CFI EndBlock cfiPicker44
//  744 

        RSEG BANKED_CODE:CODE:NOROOT(0)
//  745 static void RptFlashInfoSend(void)
RptFlashInfoSend:
        CFI Block cfiBlock45 Using cfiCommon0
        CFI Function RptFlashInfoSend
        CODE
//  746 {
        FUNCALL RptFlashInfoSend, CalcSum
        LOCFRAME ISTACK, 0, STACK
        LOCFRAME PSTACK, 0, STACK
        LOCFRAME XSTACK, 30, STACK
        LOCFRAME IOVERLAY, 0, STATIC
        LOCFRAME DOVERLAY, 0, STATIC
        ARGFRAME ISTACK, 0, STACK
        ARGFRAME PSTACK, 0, STACK
        ARGFRAME XSTACK, 30, STACK
        ARGFRAME IOVERLAY, 0, STATIC
        ARGFRAME DOVERLAY, 0, STATIC
        FUNCALL RptFlashInfoSend, HalUARTWrite
        LOCFRAME ISTACK, 0, STACK
        LOCFRAME PSTACK, 0, STACK
        LOCFRAME XSTACK, 30, STACK
        LOCFRAME IOVERLAY, 0, STATIC
        LOCFRAME DOVERLAY, 0, STATIC
        ARGFRAME ISTACK, 0, STACK
        ARGFRAME PSTACK, 0, STACK
        ARGFRAME XSTACK, 30, STACK
        ARGFRAME IOVERLAY, 0, STATIC
        ARGFRAME DOVERLAY, 0, STATIC
        FUNCALL RptFlashInfoSend, UartDMAIntSend
        LOCFRAME ISTACK, 0, STACK
        LOCFRAME PSTACK, 0, STACK
        LOCFRAME XSTACK, 30, STACK
        LOCFRAME IOVERLAY, 0, STATIC
        LOCFRAME DOVERLAY, 0, STATIC
        ARGFRAME ISTACK, 0, STACK
        ARGFRAME PSTACK, 0, STACK
        ARGFRAME XSTACK, 30, STACK
        ARGFRAME IOVERLAY, 0, STATIC
        ARGFRAME DOVERLAY, 0, STATIC
        MOV     A,#-0xa
        LCALL   ?BANKED_ENTER_XDATA
        CFI DPH0 load(1, XDATA, add(CFA_XSP16, literal(-1)))
        CFI DPL0 load(1, XDATA, add(CFA_XSP16, literal(-2)))
        CFI ?BRET_EXT load(1, XDATA, add(CFA_XSP16, literal(-3)))
        CFI ?RET_HIGH load(1, XDATA, add(CFA_XSP16, literal(-4)))
        CFI ?RET_LOW load(1, XDATA, add(CFA_XSP16, literal(-5)))
        CFI R7 load(1, XDATA, add(CFA_XSP16, literal(-6)))
        CFI V1 load(1, XDATA, add(CFA_XSP16, literal(-7)))
        CFI V0 load(1, XDATA, add(CFA_XSP16, literal(-8)))
        CFI VB load(1, XDATA, add(CFA_XSP16, literal(-9)))
        CFI R6 load(1, XDATA, add(CFA_XSP16, literal(-10)))
        CFI CFA_SP SP+0
        CFI CFA_XSP16 add(XSP16, 10)
        ; Saved register size: 10
        ; Auto size: 20
        MOV     A,#-0x14
        LCALL   ?ALLOC_XSTACK8
        CFI CFA_XSP16 add(XSP16, 30)
//  747 	uint8 bufIndex=0;
//  748 	uint8 devSBuf[20];
//  749 	uint8 i=0;
//  750 
//  751 	devSBuf[bufIndex++] = 0xAA;
        MOV     DPL,?XSP + 0
        MOV     DPH,?XSP + 1
        MOV     A,#-0x56
        MOVX    @DPTR,A
//  752 	devSBuf[bufIndex++] = 17;
        MOV     A,#0x1
        LCALL   ?XSTACK_DISP0_8
        MOV     A,#0x11
        MOVX    @DPTR,A
//  753 	devSBuf[bufIndex++] = UART_SLAVE_MULFLA;
        MOV     A,#0x2
        LCALL   ?XSTACK_DISP0_8
        MOV     A,#-0x37
        MOVX    @DPTR,A
//  754 	devSBuf[bufIndex++] = 0x00;
        MOV     A,#0x3
        LCALL   ?XSTACK_DISP0_8
        CLR     A
        MOVX    @DPTR,A
//  755 	devSBuf[bufIndex++] = 0x00;
        MOV     A,#0x4
        LCALL   ?XSTACK_DISP0_8
        CLR     A
        MOVX    @DPTR,A
//  756 	devSBuf[bufIndex++] = 0x00;
        MOV     A,#0x5
        LCALL   ?XSTACK_DISP0_8
        CLR     A
        MOVX    @DPTR,A
        MOV     R6,#0x6
//  757 
//  758 	for(i=0;i<5;i++)
        MOV     R2,#0x5
//  759 	{
//  760 		devSBuf[bufIndex++] = 0x02;
??RptFlashInfoSend_0:
        LCALL   ?Subroutine14 & 0xFFFF
??CrossCallReturnLabel_32:
        MOV     A,#0x2
        MOVX    @DPTR,A
        INC     R6
//  761 		devSBuf[bufIndex++] = g_pRcvPkt->frame[29];		
        MOV     DPTR,#g_pRcvPkt
        MOVX    A,@DPTR
        ADD     A,#0x1d
        LCALL   ??Subroutine24_0 & 0xFFFF
//  762 	}
??CrossCallReturnLabel_48:
        PUSH    A
        CFI CFA_SP SP+-1
        LCALL   ?Subroutine14 & 0xFFFF
??CrossCallReturnLabel_33:
        POP     A
        CFI CFA_SP SP+0
        MOVX    @DPTR,A
        INC     R6
        DEC     R2
        MOV     A,R2
        JNZ     ??RptFlashInfoSend_0
//  763 
//  764 	devSBuf[bufIndex++] = g_pRcvPkt->frame[30];                 // hz
        MOV     DPTR,#g_pRcvPkt
        MOVX    A,@DPTR
        ADD     A,#0x1e
        LCALL   ??Subroutine24_0 & 0xFFFF
??CrossCallReturnLabel_49:
        PUSH    A
        CFI CFA_SP SP+-1
        LCALL   ?Subroutine14 & 0xFFFF
??CrossCallReturnLabel_34:
        POP     A
        CFI CFA_SP SP+0
        MOVX    @DPTR,A
        INC     R6
//  765 	devSBuf[bufIndex++] = g_pRcvPkt->frame[31];                 // times
        MOV     DPTR,#g_pRcvPkt
        MOVX    A,@DPTR
        ADD     A,#0x1f
        LCALL   ??Subroutine24_0 & 0xFFFF
??CrossCallReturnLabel_50:
        PUSH    A
        CFI CFA_SP SP+-1
        LCALL   ?Subroutine14 & 0xFFFF
??CrossCallReturnLabel_35:
        POP     A
        CFI CFA_SP SP+0
        MOVX    @DPTR,A
        INC     R6
//  766 
//  767 	//devSBuf[1] = bufIndex-2;
//  768 
//  769 	devSBuf[bufIndex++] = CalcSum(devSBuf+2,bufIndex-2);
        ; Setup parameters for call to function CalcSum
        MOV     A,#-0x2
        ADD     A,R6
        MOV     R1,A
        MOV     A,#0x2
        LCALL   ?XSTACK_DISP0_8
        MOV     R2,DPL
        MOV     R3,DPH
        LCALL   ??CalcSum?relay
        LCALL   ?Subroutine14 & 0xFFFF
??CrossCallReturnLabel_36:
        MOV     A,R1
        MOVX    @DPTR,A
//  770 
//  771 	UartBulkSend(devSBuf,bufIndex);
        ; Setup parameters for call to function HalUARTWrite
        MOV     A,#0x1
        ADD     A,R6
        MOV     R4,A
        LCALL   ?Subroutine15 & 0xFFFF
//  772 }
??CrossCallReturnLabel_43:
        MOV     A,#0x14
        LJMP    ?Subroutine1 & 0xFFFF
        CFI EndBlock cfiBlock45

        RSEG BANKED_CODE:CODE:NOROOT(0)
?Subroutine14:
        CFI Block cfiCond46 Using cfiCommon0
        CFI NoFunction
        CFI Conditional ??CrossCallReturnLabel_32
        CFI R6 load(1, XDATA, add(CFA_XSP16, literal(-10)))
        CFI VB load(1, XDATA, add(CFA_XSP16, literal(-9)))
        CFI V0 load(1, XDATA, add(CFA_XSP16, literal(-8)))
        CFI V1 load(1, XDATA, add(CFA_XSP16, literal(-7)))
        CFI R7 load(1, XDATA, add(CFA_XSP16, literal(-6)))
        CFI ?RET_LOW load(1, XDATA, add(CFA_XSP16, literal(-5)))
        CFI ?RET_HIGH load(1, XDATA, add(CFA_XSP16, literal(-4)))
        CFI ?BRET_EXT load(1, XDATA, add(CFA_XSP16, literal(-3)))
        CFI DPL0 load(1, XDATA, add(CFA_XSP16, literal(-2)))
        CFI DPH0 load(1, XDATA, add(CFA_XSP16, literal(-1)))
        CFI CFA_SP SP+0
        CFI CFA_XSP16 add(XSP16, 30)
        CFI Block cfiCond47 Using cfiCommon0
        CFI (cfiCond47) NoFunction
        CFI (cfiCond47) Conditional ??CrossCallReturnLabel_33
        CFI (cfiCond47) R6 load(1, XDATA, add(CFA_XSP16, literal(-10)))
        CFI (cfiCond47) VB load(1, XDATA, add(CFA_XSP16, literal(-9)))
        CFI (cfiCond47) V0 load(1, XDATA, add(CFA_XSP16, literal(-8)))
        CFI (cfiCond47) V1 load(1, XDATA, add(CFA_XSP16, literal(-7)))
        CFI (cfiCond47) R7 load(1, XDATA, add(CFA_XSP16, literal(-6)))
        CFI (cfiCond47) ?RET_LOW load(1, XDATA, add(CFA_XSP16, literal(-5)))
        CFI (cfiCond47) ?RET_HIGH load(1, XDATA, add(CFA_XSP16, literal(-4)))
        CFI (cfiCond47) ?BRET_EXT load(1, XDATA, add(CFA_XSP16, literal(-3)))
        CFI (cfiCond47) DPL0 load(1, XDATA, add(CFA_XSP16, literal(-2)))
        CFI (cfiCond47) DPH0 load(1, XDATA, add(CFA_XSP16, literal(-1)))
        CFI (cfiCond47) CFA_SP SP+-1
        CFI (cfiCond47) CFA_XSP16 add(XSP16, 30)
        CFI Block cfiCond48 Using cfiCommon0
        CFI (cfiCond48) NoFunction
        CFI (cfiCond48) Conditional ??CrossCallReturnLabel_34
        CFI (cfiCond48) R6 load(1, XDATA, add(CFA_XSP16, literal(-10)))
        CFI (cfiCond48) VB load(1, XDATA, add(CFA_XSP16, literal(-9)))
        CFI (cfiCond48) V0 load(1, XDATA, add(CFA_XSP16, literal(-8)))
        CFI (cfiCond48) V1 load(1, XDATA, add(CFA_XSP16, literal(-7)))
        CFI (cfiCond48) R7 load(1, XDATA, add(CFA_XSP16, literal(-6)))
        CFI (cfiCond48) ?RET_LOW load(1, XDATA, add(CFA_XSP16, literal(-5)))
        CFI (cfiCond48) ?RET_HIGH load(1, XDATA, add(CFA_XSP16, literal(-4)))
        CFI (cfiCond48) ?BRET_EXT load(1, XDATA, add(CFA_XSP16, literal(-3)))
        CFI (cfiCond48) DPL0 load(1, XDATA, add(CFA_XSP16, literal(-2)))
        CFI (cfiCond48) DPH0 load(1, XDATA, add(CFA_XSP16, literal(-1)))
        CFI (cfiCond48) CFA_SP SP+-1
        CFI (cfiCond48) CFA_XSP16 add(XSP16, 30)
        CFI Block cfiCond49 Using cfiCommon0
        CFI (cfiCond49) NoFunction
        CFI (cfiCond49) Conditional ??CrossCallReturnLabel_35
        CFI (cfiCond49) R6 load(1, XDATA, add(CFA_XSP16, literal(-10)))
        CFI (cfiCond49) VB load(1, XDATA, add(CFA_XSP16, literal(-9)))
        CFI (cfiCond49) V0 load(1, XDATA, add(CFA_XSP16, literal(-8)))
        CFI (cfiCond49) V1 load(1, XDATA, add(CFA_XSP16, literal(-7)))
        CFI (cfiCond49) R7 load(1, XDATA, add(CFA_XSP16, literal(-6)))
        CFI (cfiCond49) ?RET_LOW load(1, XDATA, add(CFA_XSP16, literal(-5)))
        CFI (cfiCond49) ?RET_HIGH load(1, XDATA, add(CFA_XSP16, literal(-4)))
        CFI (cfiCond49) ?BRET_EXT load(1, XDATA, add(CFA_XSP16, literal(-3)))
        CFI (cfiCond49) DPL0 load(1, XDATA, add(CFA_XSP16, literal(-2)))
        CFI (cfiCond49) DPH0 load(1, XDATA, add(CFA_XSP16, literal(-1)))
        CFI (cfiCond49) CFA_SP SP+-1
        CFI (cfiCond49) CFA_XSP16 add(XSP16, 30)
        CFI Block cfiCond50 Using cfiCommon0
        CFI (cfiCond50) NoFunction
        CFI (cfiCond50) Conditional ??CrossCallReturnLabel_36
        CFI (cfiCond50) R6 load(1, XDATA, add(CFA_XSP16, literal(-10)))
        CFI (cfiCond50) VB load(1, XDATA, add(CFA_XSP16, literal(-9)))
        CFI (cfiCond50) V0 load(1, XDATA, add(CFA_XSP16, literal(-8)))
        CFI (cfiCond50) V1 load(1, XDATA, add(CFA_XSP16, literal(-7)))
        CFI (cfiCond50) R7 load(1, XDATA, add(CFA_XSP16, literal(-6)))
        CFI (cfiCond50) ?RET_LOW load(1, XDATA, add(CFA_XSP16, literal(-5)))
        CFI (cfiCond50) ?RET_HIGH load(1, XDATA, add(CFA_XSP16, literal(-4)))
        CFI (cfiCond50) ?BRET_EXT load(1, XDATA, add(CFA_XSP16, literal(-3)))
        CFI (cfiCond50) DPL0 load(1, XDATA, add(CFA_XSP16, literal(-2)))
        CFI (cfiCond50) DPH0 load(1, XDATA, add(CFA_XSP16, literal(-1)))
        CFI (cfiCond50) CFA_SP SP+0
        CFI (cfiCond50) CFA_XSP16 add(XSP16, 30)
        CFI Block cfiPicker51 Using cfiCommon1
        CFI (cfiPicker51) NoFunction
        CFI (cfiPicker51) Picker
        MOV     ?V0 + 0,R6
        MOV     DPL,?XSP + 0
        MOV     DPH,?XSP + 1
        MOV     A,DPL
        ADD     A,?V0 + 0
        MOV     DPL,A
        MOV     A,DPH
        ADDC    A,#0x0
        MOV     DPH,A
        RET
        CFI EndBlock cfiCond46
        CFI EndBlock cfiCond47
        CFI EndBlock cfiCond48
        CFI EndBlock cfiCond49
        CFI EndBlock cfiCond50
        CFI EndBlock cfiPicker51

        RSEG XDATA_Z:XDATA:NOROOT(0)
        DATA8
g_flashReady:
        DS 1
        REQUIRE __INIT_XDATA_Z

        RSEG XDATA_Z:XDATA:NOROOT(0)
        DATA8
g_preFlashRdy:
        DS 1
        REQUIRE __INIT_XDATA_Z

        RSEG XDATA_Z:XDATA:NOROOT(0)
        DATA8
g_rptFlashRdy:
        DS 1
        REQUIRE __INIT_XDATA_Z

        RSEG XDATA_Z:XDATA:NOROOT(0)
        DATA16
g_flashSignal:
        DS 2
        REQUIRE __INIT_XDATA_Z

        RSEG BANKED_CODE:CODE:NOROOT(0)
?Subroutine6:
        CFI Block cfiCond52 Using cfiCommon0
        CFI NoFunction
        CFI Conditional ??CrossCallReturnLabel_53
        CFI R6 load(1, XDATA, add(CFA_XSP16, literal(-10)))
        CFI VB load(1, XDATA, add(CFA_XSP16, literal(-9)))
        CFI V0 load(1, XDATA, add(CFA_XSP16, literal(-8)))
        CFI V1 load(1, XDATA, add(CFA_XSP16, literal(-7)))
        CFI R7 load(1, XDATA, add(CFA_XSP16, literal(-6)))
        CFI ?RET_LOW load(1, XDATA, add(CFA_XSP16, literal(-5)))
        CFI ?RET_HIGH load(1, XDATA, add(CFA_XSP16, literal(-4)))
        CFI ?BRET_EXT load(1, XDATA, add(CFA_XSP16, literal(-3)))
        CFI DPL0 load(1, XDATA, add(CFA_XSP16, literal(-2)))
        CFI DPH0 load(1, XDATA, add(CFA_XSP16, literal(-1)))
        CFI CFA_SP SP+0
        CFI CFA_XSP16 add(XSP16, 10)
        CFI Block cfiCond53 Using cfiCommon0
        CFI (cfiCond53) NoFunction
        CFI (cfiCond53) Conditional ??CrossCallReturnLabel_54
        CFI (cfiCond53) R6 load(1, XDATA, add(CFA_XSP16, literal(-10)))
        CFI (cfiCond53) VB load(1, XDATA, add(CFA_XSP16, literal(-9)))
        CFI (cfiCond53) V0 load(1, XDATA, add(CFA_XSP16, literal(-8)))
        CFI (cfiCond53) V1 load(1, XDATA, add(CFA_XSP16, literal(-7)))
        CFI (cfiCond53) R7 load(1, XDATA, add(CFA_XSP16, literal(-6)))
        CFI (cfiCond53) ?RET_LOW load(1, XDATA, add(CFA_XSP16, literal(-5)))
        CFI (cfiCond53) ?RET_HIGH load(1, XDATA, add(CFA_XSP16, literal(-4)))
        CFI (cfiCond53) ?BRET_EXT load(1, XDATA, add(CFA_XSP16, literal(-3)))
        CFI (cfiCond53) DPL0 load(1, XDATA, add(CFA_XSP16, literal(-2)))
        CFI (cfiCond53) DPH0 load(1, XDATA, add(CFA_XSP16, literal(-1)))
        CFI (cfiCond53) CFA_SP SP+0
        CFI (cfiCond53) CFA_XSP16 add(XSP16, 10)
        CFI Block cfiPicker54 Using cfiCommon1
        CFI (cfiPicker54) NoFunction
        CFI (cfiPicker54) Picker
        MOV     DPTR,#g_pRcvPkt
        MOVX    A,@DPTR
        ADD     A,#0x11
        CFI EndBlock cfiCond52
        CFI EndBlock cfiCond53
        CFI EndBlock cfiPicker54
        REQUIRE ??Subroutine24_0
        ; // Fall through to label ??Subroutine24_0

        RSEG BANKED_CODE:CODE:NOROOT(0)
??Subroutine24_0:
        CFI Block cfiCond55 Using cfiCommon0
        CFI NoFunction
        CFI Conditional ??CrossCallReturnLabel_45
        CFI DPL0 Frame(CFA_SP, 4)
        CFI DPH0 Frame(CFA_SP, 5)
        CFI CFA_SP SP+-5
        CFI CFA_XSP16 add(XSP16, 101)
        CFI Block cfiCond56 Using cfiCommon0
        CFI (cfiCond56) NoFunction
        CFI (cfiCond56) Conditional ??CrossCallReturnLabel_46
        CFI (cfiCond56) DPL0 Frame(CFA_SP, 4)
        CFI (cfiCond56) DPH0 Frame(CFA_SP, 5)
        CFI (cfiCond56) CFA_SP SP+-5
        CFI (cfiCond56) CFA_XSP16 add(XSP16, 101)
        CFI Block cfiCond57 Using cfiCommon0
        CFI (cfiCond57) NoFunction
        CFI (cfiCond57) Conditional ??CrossCallReturnLabel_47
        CFI (cfiCond57) DPL0 Frame(CFA_SP, 4)
        CFI (cfiCond57) DPH0 Frame(CFA_SP, 5)
        CFI (cfiCond57) CFA_SP SP+-5
        CFI (cfiCond57) CFA_XSP16 add(XSP16, 101)
        CFI Block cfiCond58 Using cfiCommon0
        CFI (cfiCond58) NoFunction
        CFI (cfiCond58) Conditional ??CrossCallReturnLabel_48
        CFI (cfiCond58) R6 load(1, XDATA, add(CFA_XSP16, literal(-10)))
        CFI (cfiCond58) VB load(1, XDATA, add(CFA_XSP16, literal(-9)))
        CFI (cfiCond58) V0 load(1, XDATA, add(CFA_XSP16, literal(-8)))
        CFI (cfiCond58) V1 load(1, XDATA, add(CFA_XSP16, literal(-7)))
        CFI (cfiCond58) R7 load(1, XDATA, add(CFA_XSP16, literal(-6)))
        CFI (cfiCond58) ?RET_LOW load(1, XDATA, add(CFA_XSP16, literal(-5)))
        CFI (cfiCond58) ?RET_HIGH load(1, XDATA, add(CFA_XSP16, literal(-4)))
        CFI (cfiCond58) ?BRET_EXT load(1, XDATA, add(CFA_XSP16, literal(-3)))
        CFI (cfiCond58) DPL0 load(1, XDATA, add(CFA_XSP16, literal(-2)))
        CFI (cfiCond58) DPH0 load(1, XDATA, add(CFA_XSP16, literal(-1)))
        CFI (cfiCond58) CFA_SP SP+0
        CFI (cfiCond58) CFA_XSP16 add(XSP16, 30)
        CFI Block cfiCond59 Using cfiCommon0
        CFI (cfiCond59) NoFunction
        CFI (cfiCond59) Conditional ??CrossCallReturnLabel_49
        CFI (cfiCond59) R6 load(1, XDATA, add(CFA_XSP16, literal(-10)))
        CFI (cfiCond59) VB load(1, XDATA, add(CFA_XSP16, literal(-9)))
        CFI (cfiCond59) V0 load(1, XDATA, add(CFA_XSP16, literal(-8)))
        CFI (cfiCond59) V1 load(1, XDATA, add(CFA_XSP16, literal(-7)))
        CFI (cfiCond59) R7 load(1, XDATA, add(CFA_XSP16, literal(-6)))
        CFI (cfiCond59) ?RET_LOW load(1, XDATA, add(CFA_XSP16, literal(-5)))
        CFI (cfiCond59) ?RET_HIGH load(1, XDATA, add(CFA_XSP16, literal(-4)))
        CFI (cfiCond59) ?BRET_EXT load(1, XDATA, add(CFA_XSP16, literal(-3)))
        CFI (cfiCond59) DPL0 load(1, XDATA, add(CFA_XSP16, literal(-2)))
        CFI (cfiCond59) DPH0 load(1, XDATA, add(CFA_XSP16, literal(-1)))
        CFI (cfiCond59) CFA_SP SP+0
        CFI (cfiCond59) CFA_XSP16 add(XSP16, 30)
        CFI Block cfiCond60 Using cfiCommon0
        CFI (cfiCond60) NoFunction
        CFI (cfiCond60) Conditional ??CrossCallReturnLabel_50
        CFI (cfiCond60) R6 load(1, XDATA, add(CFA_XSP16, literal(-10)))
        CFI (cfiCond60) VB load(1, XDATA, add(CFA_XSP16, literal(-9)))
        CFI (cfiCond60) V0 load(1, XDATA, add(CFA_XSP16, literal(-8)))
        CFI (cfiCond60) V1 load(1, XDATA, add(CFA_XSP16, literal(-7)))
        CFI (cfiCond60) R7 load(1, XDATA, add(CFA_XSP16, literal(-6)))
        CFI (cfiCond60) ?RET_LOW load(1, XDATA, add(CFA_XSP16, literal(-5)))
        CFI (cfiCond60) ?RET_HIGH load(1, XDATA, add(CFA_XSP16, literal(-4)))
        CFI (cfiCond60) ?BRET_EXT load(1, XDATA, add(CFA_XSP16, literal(-3)))
        CFI (cfiCond60) DPL0 load(1, XDATA, add(CFA_XSP16, literal(-2)))
        CFI (cfiCond60) DPH0 load(1, XDATA, add(CFA_XSP16, literal(-1)))
        CFI (cfiCond60) CFA_SP SP+0
        CFI (cfiCond60) CFA_XSP16 add(XSP16, 30)
        CFI Block cfiCond61 Using cfiCommon0
        CFI (cfiCond61) NoFunction
        CFI (cfiCond61) Conditional ??CrossCallReturnLabel_51
        CFI (cfiCond61) R6 load(1, XDATA, add(CFA_XSP16, literal(-10)))
        CFI (cfiCond61) VB load(1, XDATA, add(CFA_XSP16, literal(-9)))
        CFI (cfiCond61) V0 load(1, XDATA, add(CFA_XSP16, literal(-8)))
        CFI (cfiCond61) V1 load(1, XDATA, add(CFA_XSP16, literal(-7)))
        CFI (cfiCond61) R7 load(1, XDATA, add(CFA_XSP16, literal(-6)))
        CFI (cfiCond61) ?RET_LOW load(1, XDATA, add(CFA_XSP16, literal(-5)))
        CFI (cfiCond61) ?RET_HIGH load(1, XDATA, add(CFA_XSP16, literal(-4)))
        CFI (cfiCond61) ?BRET_EXT load(1, XDATA, add(CFA_XSP16, literal(-3)))
        CFI (cfiCond61) DPL0 load(1, XDATA, add(CFA_XSP16, literal(-2)))
        CFI (cfiCond61) DPH0 load(1, XDATA, add(CFA_XSP16, literal(-1)))
        CFI (cfiCond61) CFA_SP SP+0
        CFI (cfiCond61) CFA_XSP16 add(XSP16, 10)
        CFI Block cfiCond62 Using cfiCommon0
        CFI (cfiCond62) NoFunction
        CFI (cfiCond62) Conditional ??CrossCallReturnLabel_52
        CFI (cfiCond62) R6 load(1, XDATA, add(CFA_XSP16, literal(-10)))
        CFI (cfiCond62) VB load(1, XDATA, add(CFA_XSP16, literal(-9)))
        CFI (cfiCond62) V0 load(1, XDATA, add(CFA_XSP16, literal(-8)))
        CFI (cfiCond62) V1 load(1, XDATA, add(CFA_XSP16, literal(-7)))
        CFI (cfiCond62) R7 load(1, XDATA, add(CFA_XSP16, literal(-6)))
        CFI (cfiCond62) ?RET_LOW load(1, XDATA, add(CFA_XSP16, literal(-5)))
        CFI (cfiCond62) ?RET_HIGH load(1, XDATA, add(CFA_XSP16, literal(-4)))
        CFI (cfiCond62) ?BRET_EXT load(1, XDATA, add(CFA_XSP16, literal(-3)))
        CFI (cfiCond62) DPL0 load(1, XDATA, add(CFA_XSP16, literal(-2)))
        CFI (cfiCond62) DPH0 load(1, XDATA, add(CFA_XSP16, literal(-1)))
        CFI (cfiCond62) CFA_SP SP+0
        CFI (cfiCond62) CFA_XSP16 add(XSP16, 10)
        CFI Block cfiCond63 Using cfiCommon0
        CFI (cfiCond63) NoFunction
        CFI (cfiCond63) Conditional ??CrossCallReturnLabel_53
        CFI (cfiCond63) R6 load(1, XDATA, add(CFA_XSP16, literal(-10)))
        CFI (cfiCond63) VB load(1, XDATA, add(CFA_XSP16, literal(-9)))
        CFI (cfiCond63) V0 load(1, XDATA, add(CFA_XSP16, literal(-8)))
        CFI (cfiCond63) V1 load(1, XDATA, add(CFA_XSP16, literal(-7)))
        CFI (cfiCond63) R7 load(1, XDATA, add(CFA_XSP16, literal(-6)))
        CFI (cfiCond63) ?RET_LOW load(1, XDATA, add(CFA_XSP16, literal(-5)))
        CFI (cfiCond63) ?RET_HIGH load(1, XDATA, add(CFA_XSP16, literal(-4)))
        CFI (cfiCond63) ?BRET_EXT load(1, XDATA, add(CFA_XSP16, literal(-3)))
        CFI (cfiCond63) DPL0 load(1, XDATA, add(CFA_XSP16, literal(-2)))
        CFI (cfiCond63) DPH0 load(1, XDATA, add(CFA_XSP16, literal(-1)))
        CFI (cfiCond63) CFA_SP SP+0
        CFI (cfiCond63) CFA_XSP16 add(XSP16, 10)
        CFI Block cfiCond64 Using cfiCommon0
        CFI (cfiCond64) NoFunction
        CFI (cfiCond64) Conditional ??CrossCallReturnLabel_54
        CFI (cfiCond64) R6 load(1, XDATA, add(CFA_XSP16, literal(-10)))
        CFI (cfiCond64) VB load(1, XDATA, add(CFA_XSP16, literal(-9)))
        CFI (cfiCond64) V0 load(1, XDATA, add(CFA_XSP16, literal(-8)))
        CFI (cfiCond64) V1 load(1, XDATA, add(CFA_XSP16, literal(-7)))
        CFI (cfiCond64) R7 load(1, XDATA, add(CFA_XSP16, literal(-6)))
        CFI (cfiCond64) ?RET_LOW load(1, XDATA, add(CFA_XSP16, literal(-5)))
        CFI (cfiCond64) ?RET_HIGH load(1, XDATA, add(CFA_XSP16, literal(-4)))
        CFI (cfiCond64) ?BRET_EXT load(1, XDATA, add(CFA_XSP16, literal(-3)))
        CFI (cfiCond64) DPL0 load(1, XDATA, add(CFA_XSP16, literal(-2)))
        CFI (cfiCond64) DPH0 load(1, XDATA, add(CFA_XSP16, literal(-1)))
        CFI (cfiCond64) CFA_SP SP+0
        CFI (cfiCond64) CFA_XSP16 add(XSP16, 10)
        CFI Block cfiPicker65 Using cfiCommon1
        CFI (cfiPicker65) NoFunction
        CFI (cfiPicker65) Picker
        LCALL   ?Subroutine17 & 0xFFFF
??CrossCallReturnLabel_57:
        RET
        CFI EndBlock cfiCond55
        CFI EndBlock cfiCond56
        CFI EndBlock cfiCond57
        CFI EndBlock cfiCond58
        CFI EndBlock cfiCond59
        CFI EndBlock cfiCond60
        CFI EndBlock cfiCond61
        CFI EndBlock cfiCond62
        CFI EndBlock cfiCond63
        CFI EndBlock cfiCond64
        CFI EndBlock cfiPicker65

        RSEG BANKED_CODE:CODE:NOROOT(0)
?Subroutine17:
        CFI Block cfiCond66 Using cfiCommon0
        CFI NoFunction
        CFI Conditional ??CrossCallReturnLabel_55, ??CrossCallReturnLabel_0
        CFI DPL0 Frame(CFA_SP, 4)
        CFI DPH0 Frame(CFA_SP, 5)
        CFI CFA_SP SP+-5
        CFI CFA_XSP16 add(XSP16, 101)
        CFI Block cfiCond67 Using cfiCommon0
        CFI (cfiCond67) NoFunction
        CFI (cfiCond67) Conditional ??CrossCallReturnLabel_55, ??CrossCallReturnLabel_1
        CFI (cfiCond67) DPL0 Frame(CFA_SP, 4)
        CFI (cfiCond67) DPH0 Frame(CFA_SP, 5)
        CFI (cfiCond67) CFA_SP SP+-5
        CFI (cfiCond67) CFA_XSP16 add(XSP16, 101)
        CFI Block cfiCond68 Using cfiCommon0
        CFI (cfiCond68) NoFunction
        CFI (cfiCond68) Conditional ??CrossCallReturnLabel_55, ??CrossCallReturnLabel_2
        CFI (cfiCond68) DPL0 Frame(CFA_SP, 4)
        CFI (cfiCond68) DPH0 Frame(CFA_SP, 5)
        CFI (cfiCond68) CFA_SP SP+-5
        CFI (cfiCond68) CFA_XSP16 add(XSP16, 101)
        CFI Block cfiCond69 Using cfiCommon0
        CFI (cfiCond69) NoFunction
        CFI (cfiCond69) Conditional ??CrossCallReturnLabel_57, ??CrossCallReturnLabel_53
        CFI (cfiCond69) R6 load(1, XDATA, add(CFA_XSP16, literal(-10)))
        CFI (cfiCond69) VB load(1, XDATA, add(CFA_XSP16, literal(-9)))
        CFI (cfiCond69) V0 load(1, XDATA, add(CFA_XSP16, literal(-8)))
        CFI (cfiCond69) V1 load(1, XDATA, add(CFA_XSP16, literal(-7)))
        CFI (cfiCond69) R7 load(1, XDATA, add(CFA_XSP16, literal(-6)))
        CFI (cfiCond69) ?RET_LOW load(1, XDATA, add(CFA_XSP16, literal(-5)))
        CFI (cfiCond69) ?RET_HIGH load(1, XDATA, add(CFA_XSP16, literal(-4)))
        CFI (cfiCond69) ?BRET_EXT load(1, XDATA, add(CFA_XSP16, literal(-3)))
        CFI (cfiCond69) DPL0 load(1, XDATA, add(CFA_XSP16, literal(-2)))
        CFI (cfiCond69) DPH0 load(1, XDATA, add(CFA_XSP16, literal(-1)))
        CFI (cfiCond69) CFA_SP SP+0
        CFI (cfiCond69) CFA_XSP16 add(XSP16, 10)
        CFI Block cfiCond70 Using cfiCommon0
        CFI (cfiCond70) NoFunction
        CFI (cfiCond70) Conditional ??CrossCallReturnLabel_57, ??CrossCallReturnLabel_54
        CFI (cfiCond70) R6 load(1, XDATA, add(CFA_XSP16, literal(-10)))
        CFI (cfiCond70) VB load(1, XDATA, add(CFA_XSP16, literal(-9)))
        CFI (cfiCond70) V0 load(1, XDATA, add(CFA_XSP16, literal(-8)))
        CFI (cfiCond70) V1 load(1, XDATA, add(CFA_XSP16, literal(-7)))
        CFI (cfiCond70) R7 load(1, XDATA, add(CFA_XSP16, literal(-6)))
        CFI (cfiCond70) ?RET_LOW load(1, XDATA, add(CFA_XSP16, literal(-5)))
        CFI (cfiCond70) ?RET_HIGH load(1, XDATA, add(CFA_XSP16, literal(-4)))
        CFI (cfiCond70) ?BRET_EXT load(1, XDATA, add(CFA_XSP16, literal(-3)))
        CFI (cfiCond70) DPL0 load(1, XDATA, add(CFA_XSP16, literal(-2)))
        CFI (cfiCond70) DPH0 load(1, XDATA, add(CFA_XSP16, literal(-1)))
        CFI (cfiCond70) CFA_SP SP+0
        CFI (cfiCond70) CFA_XSP16 add(XSP16, 10)
        CFI Block cfiCond71 Using cfiCommon0
        CFI (cfiCond71) NoFunction
        CFI (cfiCond71) Conditional ??CrossCallReturnLabel_57, ??CrossCallReturnLabel_45
        CFI (cfiCond71) DPL0 Frame(CFA_SP, 4)
        CFI (cfiCond71) DPH0 Frame(CFA_SP, 5)
        CFI (cfiCond71) CFA_SP SP+-5
        CFI (cfiCond71) CFA_XSP16 add(XSP16, 101)
        CFI Block cfiCond72 Using cfiCommon0
        CFI (cfiCond72) NoFunction
        CFI (cfiCond72) Conditional ??CrossCallReturnLabel_57, ??CrossCallReturnLabel_46
        CFI (cfiCond72) DPL0 Frame(CFA_SP, 4)
        CFI (cfiCond72) DPH0 Frame(CFA_SP, 5)
        CFI (cfiCond72) CFA_SP SP+-5
        CFI (cfiCond72) CFA_XSP16 add(XSP16, 101)
        CFI Block cfiCond73 Using cfiCommon0
        CFI (cfiCond73) NoFunction
        CFI (cfiCond73) Conditional ??CrossCallReturnLabel_57, ??CrossCallReturnLabel_47
        CFI (cfiCond73) DPL0 Frame(CFA_SP, 4)
        CFI (cfiCond73) DPH0 Frame(CFA_SP, 5)
        CFI (cfiCond73) CFA_SP SP+-5
        CFI (cfiCond73) CFA_XSP16 add(XSP16, 101)
        CFI Block cfiCond74 Using cfiCommon0
        CFI (cfiCond74) NoFunction
        CFI (cfiCond74) Conditional ??CrossCallReturnLabel_57, ??CrossCallReturnLabel_48
        CFI (cfiCond74) R6 load(1, XDATA, add(CFA_XSP16, literal(-10)))
        CFI (cfiCond74) VB load(1, XDATA, add(CFA_XSP16, literal(-9)))
        CFI (cfiCond74) V0 load(1, XDATA, add(CFA_XSP16, literal(-8)))
        CFI (cfiCond74) V1 load(1, XDATA, add(CFA_XSP16, literal(-7)))
        CFI (cfiCond74) R7 load(1, XDATA, add(CFA_XSP16, literal(-6)))
        CFI (cfiCond74) ?RET_LOW load(1, XDATA, add(CFA_XSP16, literal(-5)))
        CFI (cfiCond74) ?RET_HIGH load(1, XDATA, add(CFA_XSP16, literal(-4)))
        CFI (cfiCond74) ?BRET_EXT load(1, XDATA, add(CFA_XSP16, literal(-3)))
        CFI (cfiCond74) DPL0 load(1, XDATA, add(CFA_XSP16, literal(-2)))
        CFI (cfiCond74) DPH0 load(1, XDATA, add(CFA_XSP16, literal(-1)))
        CFI (cfiCond74) CFA_SP SP+0
        CFI (cfiCond74) CFA_XSP16 add(XSP16, 30)
        CFI Block cfiCond75 Using cfiCommon0
        CFI (cfiCond75) NoFunction
        CFI (cfiCond75) Conditional ??CrossCallReturnLabel_57, ??CrossCallReturnLabel_49
        CFI (cfiCond75) R6 load(1, XDATA, add(CFA_XSP16, literal(-10)))
        CFI (cfiCond75) VB load(1, XDATA, add(CFA_XSP16, literal(-9)))
        CFI (cfiCond75) V0 load(1, XDATA, add(CFA_XSP16, literal(-8)))
        CFI (cfiCond75) V1 load(1, XDATA, add(CFA_XSP16, literal(-7)))
        CFI (cfiCond75) R7 load(1, XDATA, add(CFA_XSP16, literal(-6)))
        CFI (cfiCond75) ?RET_LOW load(1, XDATA, add(CFA_XSP16, literal(-5)))
        CFI (cfiCond75) ?RET_HIGH load(1, XDATA, add(CFA_XSP16, literal(-4)))
        CFI (cfiCond75) ?BRET_EXT load(1, XDATA, add(CFA_XSP16, literal(-3)))
        CFI (cfiCond75) DPL0 load(1, XDATA, add(CFA_XSP16, literal(-2)))
        CFI (cfiCond75) DPH0 load(1, XDATA, add(CFA_XSP16, literal(-1)))
        CFI (cfiCond75) CFA_SP SP+0
        CFI (cfiCond75) CFA_XSP16 add(XSP16, 30)
        CFI Block cfiCond76 Using cfiCommon0
        CFI (cfiCond76) NoFunction
        CFI (cfiCond76) Conditional ??CrossCallReturnLabel_57, ??CrossCallReturnLabel_50
        CFI (cfiCond76) R6 load(1, XDATA, add(CFA_XSP16, literal(-10)))
        CFI (cfiCond76) VB load(1, XDATA, add(CFA_XSP16, literal(-9)))
        CFI (cfiCond76) V0 load(1, XDATA, add(CFA_XSP16, literal(-8)))
        CFI (cfiCond76) V1 load(1, XDATA, add(CFA_XSP16, literal(-7)))
        CFI (cfiCond76) R7 load(1, XDATA, add(CFA_XSP16, literal(-6)))
        CFI (cfiCond76) ?RET_LOW load(1, XDATA, add(CFA_XSP16, literal(-5)))
        CFI (cfiCond76) ?RET_HIGH load(1, XDATA, add(CFA_XSP16, literal(-4)))
        CFI (cfiCond76) ?BRET_EXT load(1, XDATA, add(CFA_XSP16, literal(-3)))
        CFI (cfiCond76) DPL0 load(1, XDATA, add(CFA_XSP16, literal(-2)))
        CFI (cfiCond76) DPH0 load(1, XDATA, add(CFA_XSP16, literal(-1)))
        CFI (cfiCond76) CFA_SP SP+0
        CFI (cfiCond76) CFA_XSP16 add(XSP16, 30)
        CFI Block cfiCond77 Using cfiCommon0
        CFI (cfiCond77) NoFunction
        CFI (cfiCond77) Conditional ??CrossCallReturnLabel_57, ??CrossCallReturnLabel_51
        CFI (cfiCond77) R6 load(1, XDATA, add(CFA_XSP16, literal(-10)))
        CFI (cfiCond77) VB load(1, XDATA, add(CFA_XSP16, literal(-9)))
        CFI (cfiCond77) V0 load(1, XDATA, add(CFA_XSP16, literal(-8)))
        CFI (cfiCond77) V1 load(1, XDATA, add(CFA_XSP16, literal(-7)))
        CFI (cfiCond77) R7 load(1, XDATA, add(CFA_XSP16, literal(-6)))
        CFI (cfiCond77) ?RET_LOW load(1, XDATA, add(CFA_XSP16, literal(-5)))
        CFI (cfiCond77) ?RET_HIGH load(1, XDATA, add(CFA_XSP16, literal(-4)))
        CFI (cfiCond77) ?BRET_EXT load(1, XDATA, add(CFA_XSP16, literal(-3)))
        CFI (cfiCond77) DPL0 load(1, XDATA, add(CFA_XSP16, literal(-2)))
        CFI (cfiCond77) DPH0 load(1, XDATA, add(CFA_XSP16, literal(-1)))
        CFI (cfiCond77) CFA_SP SP+0
        CFI (cfiCond77) CFA_XSP16 add(XSP16, 10)
        CFI Block cfiCond78 Using cfiCommon0
        CFI (cfiCond78) NoFunction
        CFI (cfiCond78) Conditional ??CrossCallReturnLabel_57, ??CrossCallReturnLabel_52
        CFI (cfiCond78) R6 load(1, XDATA, add(CFA_XSP16, literal(-10)))
        CFI (cfiCond78) VB load(1, XDATA, add(CFA_XSP16, literal(-9)))
        CFI (cfiCond78) V0 load(1, XDATA, add(CFA_XSP16, literal(-8)))
        CFI (cfiCond78) V1 load(1, XDATA, add(CFA_XSP16, literal(-7)))
        CFI (cfiCond78) R7 load(1, XDATA, add(CFA_XSP16, literal(-6)))
        CFI (cfiCond78) ?RET_LOW load(1, XDATA, add(CFA_XSP16, literal(-5)))
        CFI (cfiCond78) ?RET_HIGH load(1, XDATA, add(CFA_XSP16, literal(-4)))
        CFI (cfiCond78) ?BRET_EXT load(1, XDATA, add(CFA_XSP16, literal(-3)))
        CFI (cfiCond78) DPL0 load(1, XDATA, add(CFA_XSP16, literal(-2)))
        CFI (cfiCond78) DPH0 load(1, XDATA, add(CFA_XSP16, literal(-1)))
        CFI (cfiCond78) CFA_SP SP+0
        CFI (cfiCond78) CFA_XSP16 add(XSP16, 10)
        CFI Block cfiCond79 Using cfiCommon0
        CFI (cfiCond79) NoFunction
        CFI (cfiCond79) Conditional ??CrossCallReturnLabel_56, ??CrossCallReturnLabel_7
        CFI (cfiCond79) R6 load(1, XDATA, add(CFA_XSP16, literal(-10)))
        CFI (cfiCond79) VB load(1, XDATA, add(CFA_XSP16, literal(-9)))
        CFI (cfiCond79) V0 load(1, XDATA, add(CFA_XSP16, literal(-8)))
        CFI (cfiCond79) V1 load(1, XDATA, add(CFA_XSP16, literal(-7)))
        CFI (cfiCond79) R7 load(1, XDATA, add(CFA_XSP16, literal(-6)))
        CFI (cfiCond79) ?RET_LOW load(1, XDATA, add(CFA_XSP16, literal(-5)))
        CFI (cfiCond79) ?RET_HIGH load(1, XDATA, add(CFA_XSP16, literal(-4)))
        CFI (cfiCond79) ?BRET_EXT load(1, XDATA, add(CFA_XSP16, literal(-3)))
        CFI (cfiCond79) DPL0 load(1, XDATA, add(CFA_XSP16, literal(-2)))
        CFI (cfiCond79) DPH0 load(1, XDATA, add(CFA_XSP16, literal(-1)))
        CFI (cfiCond79) CFA_SP SP+0
        CFI (cfiCond79) CFA_XSP16 add(XSP16, 10)
        CFI Block cfiCond80 Using cfiCommon0
        CFI (cfiCond80) NoFunction
        CFI (cfiCond80) Conditional ??CrossCallReturnLabel_56, ??CrossCallReturnLabel_8
        CFI (cfiCond80) R6 load(1, XDATA, add(CFA_XSP16, literal(-10)))
        CFI (cfiCond80) VB load(1, XDATA, add(CFA_XSP16, literal(-9)))
        CFI (cfiCond80) V0 load(1, XDATA, add(CFA_XSP16, literal(-8)))
        CFI (cfiCond80) V1 load(1, XDATA, add(CFA_XSP16, literal(-7)))
        CFI (cfiCond80) R7 load(1, XDATA, add(CFA_XSP16, literal(-6)))
        CFI (cfiCond80) ?RET_LOW load(1, XDATA, add(CFA_XSP16, literal(-5)))
        CFI (cfiCond80) ?RET_HIGH load(1, XDATA, add(CFA_XSP16, literal(-4)))
        CFI (cfiCond80) ?BRET_EXT load(1, XDATA, add(CFA_XSP16, literal(-3)))
        CFI (cfiCond80) DPL0 load(1, XDATA, add(CFA_XSP16, literal(-2)))
        CFI (cfiCond80) DPH0 load(1, XDATA, add(CFA_XSP16, literal(-1)))
        CFI (cfiCond80) CFA_SP SP+0
        CFI (cfiCond80) CFA_XSP16 add(XSP16, 10)
        CFI Block cfiPicker81 Using cfiCommon1
        CFI (cfiPicker81) NoFunction
        CFI (cfiPicker81) Picker
        MOV     R0,A
        INC     DPTR
        MOVX    A,@DPTR
        ADDC    A,#0x0
        MOV     R1,A
        MOV     DPL,R0
        MOV     DPH,R1
        MOVX    A,@DPTR
        RET
        CFI EndBlock cfiCond66
        CFI EndBlock cfiCond67
        CFI EndBlock cfiCond68
        CFI EndBlock cfiCond69
        CFI EndBlock cfiCond70
        CFI EndBlock cfiCond71
        CFI EndBlock cfiCond72
        CFI EndBlock cfiCond73
        CFI EndBlock cfiCond74
        CFI EndBlock cfiCond75
        CFI EndBlock cfiCond76
        CFI EndBlock cfiCond77
        CFI EndBlock cfiCond78
        CFI EndBlock cfiCond79
        CFI EndBlock cfiCond80
        CFI EndBlock cfiPicker81
//  773 
//  774 static uint8 LoadUartSendBuf(unsigned char id, unsigned char pa1, unsigned char pa2)
//  775 {
//  776 	if(0==gBUartTotalByte)
//  777 	{
//  778 		gBUartBuf[gBUartTotalByte++] = 0xAA;
//  779 		gBUartBuf[gBUartTotalByte++] = 0;			//len
//  780 	}
//  781 	gBUartBuf[gBUartTotalByte++] = id;
//  782 	gBUartBuf[gBUartTotalByte++] = pa1;
//  783 	gBUartBuf[gBUartTotalByte++] = pa2;
//  784 
//  785 	return gBUartTotalByte;		
//  786 }
//  787 
//  788 static uint8 LoadUartArray(uint8 id, uint8 *pBuf, uint8 len)
//  789 {
//  790 	if(0==gBUartTotalByte)
//  791 	{
//  792 		gBUartBuf[gBUartTotalByte++] = 0xAA;
//  793 		gBUartBuf[gBUartTotalByte++] = len;			//len
//  794 	}
//  795 	gBUartBuf[gBUartTotalByte++] = id;
//  796 	memcpy(gBUartBuf+gBUartTotalByte,pBuf,len);
//  797 	gBUartTotalByte+=len;
//  798 	return gBUartTotalByte;
//  799 	
//  800 }
//  801 
//  802 static void TrigerUartSend(void)
//  803 {
//  804 	char i=0;
//  805 	unsigned char sum=0;
//  806 	for(i=2;i<gBUartTotalByte;i++)
//  807 	{
//  808 		sum+= gBUartBuf[i];
//  809 	}
//  810 	gBUartBuf[gBUartTotalByte++] = sum;
//  811 	gBUartBuf[1] = (gBUartTotalByte-2);
//  812 	uart_tran_flag = 1;
//  813 
//  814 	HalUARTWrite(0,gBUartBuf,gBUartTotalByte);
//  815 
//  816 	uart_tran_flag = 0;
//  817 
//  818 	gBUartTotalByte = 0;
//  819 	
//  820 	
//  821 }
//  822 

        RSEG BANKED_CODE:CODE:NOROOT(0)
//  823 static uint8 UartSctSend(unsigned char id, unsigned char pa1, unsigned char pa2)
UartSctSend:
        CFI Block cfiBlock82 Using cfiCommon0
        CFI Function UartSctSend
        CODE
//  824 {
        FUNCALL UartSctSend, HalUARTWrite
        LOCFRAME ISTACK, 0, STACK
        LOCFRAME PSTACK, 0, STACK
        LOCFRAME XSTACK, 11, STACK
        LOCFRAME IOVERLAY, 0, STATIC
        LOCFRAME DOVERLAY, 0, STATIC
        ARGFRAME ISTACK, 0, STACK
        ARGFRAME PSTACK, 0, STACK
        ARGFRAME XSTACK, 11, STACK
        ARGFRAME IOVERLAY, 0, STATIC
        ARGFRAME DOVERLAY, 0, STATIC
        MOV     A,#-0xb
        LCALL   ?BANKED_ENTER_XDATA
        CFI R6 load(1, XDATA, add(CFA_XSP16, literal(-11)))
        CFI VB load(1, XDATA, add(CFA_XSP16, literal(-10)))
        CFI V0 load(1, XDATA, add(CFA_XSP16, literal(-9)))
        CFI V1 load(1, XDATA, add(CFA_XSP16, literal(-8)))
        CFI V2 load(1, XDATA, add(CFA_XSP16, literal(-7)))
        CFI R7 load(1, XDATA, add(CFA_XSP16, literal(-6)))
        CFI ?RET_LOW load(1, XDATA, add(CFA_XSP16, literal(-5)))
        CFI ?RET_HIGH load(1, XDATA, add(CFA_XSP16, literal(-4)))
        CFI ?BRET_EXT load(1, XDATA, add(CFA_XSP16, literal(-3)))
        CFI DPL0 load(1, XDATA, add(CFA_XSP16, literal(-2)))
        CFI DPH0 load(1, XDATA, add(CFA_XSP16, literal(-1)))
        CFI CFA_SP SP+0
        CFI CFA_XSP16 add(XSP16, 11)
        ; Saved register size: 11
        ; Auto size: 0
//  825 	while(uart_tran_flag);
??UartSctSend_0:
        MOV     DPTR,#uart_tran_flag
        MOVX    A,@DPTR
        JNZ     ??UartSctSend_0
//  826 	LoadUartSendBuf(id, pa1,pa2);
        MOV     DPTR,#gBUartTotalByte
        MOVX    A,@DPTR
        JNZ     ??UartSctSend_1
        MOV     DPTR,#gBUartBuf
        MOV     A,#-0x56
        MOVX    @DPTR,A
        INC     DPTR
        CLR     A
        MOVX    @DPTR,A
        MOV     DPTR,#gBUartTotalByte
        MOV     A,#0x2
        MOVX    @DPTR,A
??UartSctSend_1:
        LCALL   ?Subroutine9 & 0xFFFF
??CrossCallReturnLabel_14:
        MOV     A,R1
        LCALL   ?Subroutine8 & 0xFFFF
??CrossCallReturnLabel_12:
        MOV     A,R2
        LCALL   ?Subroutine8 & 0xFFFF
??CrossCallReturnLabel_13:
        MOV     A,R3
        LCALL   ?Subroutine19 & 0xFFFF
//  827 	TrigerUartSend();	
??CrossCallReturnLabel_37:
        MOV     R0,#0x0
        MOV     R1,#0x2
        SJMP    ??UartSctSend_2
??UartSctSend_3:
        MOV     ?V0 + 0,R1
        MOV     A,#gBUartBuf & 0xff
        ADD     A,?V0 + 0
        MOV     DPL,A
        MOV     A,#(gBUartBuf >> 8) & 0xff
        ADDC    A,#0x0
        MOV     DPH,A
        MOVX    A,@DPTR
        ADD     A,R0
        MOV     R0,A
        INC     R1
??UartSctSend_2:
        MOV     DPTR,#gBUartTotalByte
        MOVX    A,@DPTR
        MOV     R2,A
        MOV     A,R1
        CLR     C
        SUBB    A,R2
        JC      ??UartSctSend_3
        MOV     A,R0
        PUSH    A
        CFI CFA_SP SP+-1
        LCALL   ?Subroutine9 & 0xFFFF
??CrossCallReturnLabel_15:
        POP     A
        CFI CFA_SP SP+0
        LCALL   ?Subroutine19 & 0xFFFF
??CrossCallReturnLabel_38:
        ADD     A,#-0x2
        MOV     DPTR,#gBUartBuf + 1
        MOVX    @DPTR,A
        MOV     DPTR,#uart_tran_flag
        MOV     A,#0x1
        MOVX    @DPTR,A
        ; Setup parameters for call to function HalUARTWrite
        MOV     DPTR,#gBUartTotalByte
        MOVX    A,@DPTR
        MOV     R4,A
        MOV     R5,#0x0
        MOV     R2,#gBUartBuf & 0xff
        MOV     R3,#(gBUartBuf >> 8) & 0xff
        MOV     R1,#0x0
        LCALL   ??HalUARTWrite?relay
        MOV     DPTR,#uart_tran_flag
        CLR     A
        MOVX    @DPTR,A
        MOV     DPTR,#gBUartTotalByte
        MOVX    @DPTR,A
//  828         return 1;
        MOV     R1,#0x1
        MOV     R7,#0x3
        LJMP    ?BANKED_LEAVE_XDATA
        CFI EndBlock cfiBlock82
//  829 }

        RSEG BANKED_CODE:CODE:NOROOT(0)
?Subroutine9:
        CFI Block cfiCond83 Using cfiCommon0
        CFI NoFunction
        CFI Conditional ??CrossCallReturnLabel_14
        CFI R6 load(1, XDATA, add(CFA_XSP16, literal(-11)))
        CFI VB load(1, XDATA, add(CFA_XSP16, literal(-10)))
        CFI V0 load(1, XDATA, add(CFA_XSP16, literal(-9)))
        CFI V1 load(1, XDATA, add(CFA_XSP16, literal(-8)))
        CFI V2 load(1, XDATA, add(CFA_XSP16, literal(-7)))
        CFI R7 load(1, XDATA, add(CFA_XSP16, literal(-6)))
        CFI ?RET_LOW load(1, XDATA, add(CFA_XSP16, literal(-5)))
        CFI ?RET_HIGH load(1, XDATA, add(CFA_XSP16, literal(-4)))
        CFI ?BRET_EXT load(1, XDATA, add(CFA_XSP16, literal(-3)))
        CFI DPL0 load(1, XDATA, add(CFA_XSP16, literal(-2)))
        CFI DPH0 load(1, XDATA, add(CFA_XSP16, literal(-1)))
        CFI CFA_SP SP+0
        CFI CFA_XSP16 add(XSP16, 11)
        CFI Block cfiCond84 Using cfiCommon0
        CFI (cfiCond84) NoFunction
        CFI (cfiCond84) Conditional ??CrossCallReturnLabel_15
        CFI (cfiCond84) R6 load(1, XDATA, add(CFA_XSP16, literal(-11)))
        CFI (cfiCond84) VB load(1, XDATA, add(CFA_XSP16, literal(-10)))
        CFI (cfiCond84) V0 load(1, XDATA, add(CFA_XSP16, literal(-9)))
        CFI (cfiCond84) V1 load(1, XDATA, add(CFA_XSP16, literal(-8)))
        CFI (cfiCond84) V2 load(1, XDATA, add(CFA_XSP16, literal(-7)))
        CFI (cfiCond84) R7 load(1, XDATA, add(CFA_XSP16, literal(-6)))
        CFI (cfiCond84) ?RET_LOW load(1, XDATA, add(CFA_XSP16, literal(-5)))
        CFI (cfiCond84) ?RET_HIGH load(1, XDATA, add(CFA_XSP16, literal(-4)))
        CFI (cfiCond84) ?BRET_EXT load(1, XDATA, add(CFA_XSP16, literal(-3)))
        CFI (cfiCond84) DPL0 load(1, XDATA, add(CFA_XSP16, literal(-2)))
        CFI (cfiCond84) DPH0 load(1, XDATA, add(CFA_XSP16, literal(-1)))
        CFI (cfiCond84) CFA_SP SP+-1
        CFI (cfiCond84) CFA_XSP16 add(XSP16, 11)
        CFI Block cfiPicker85 Using cfiCommon1
        CFI (cfiPicker85) NoFunction
        CFI (cfiPicker85) Picker
        MOVX    A,@DPTR
        LCALL   ?Subroutine20 & 0xFFFF
??CrossCallReturnLabel_41:
        RET
        CFI EndBlock cfiCond83
        CFI EndBlock cfiCond84
        CFI EndBlock cfiPicker85

        RSEG BANKED_CODE:CODE:NOROOT(0)
?Subroutine8:
        CFI Block cfiCond86 Using cfiCommon0
        CFI NoFunction
        CFI Conditional ??CrossCallReturnLabel_12
        CFI R6 load(1, XDATA, add(CFA_XSP16, literal(-11)))
        CFI VB load(1, XDATA, add(CFA_XSP16, literal(-10)))
        CFI V0 load(1, XDATA, add(CFA_XSP16, literal(-9)))
        CFI V1 load(1, XDATA, add(CFA_XSP16, literal(-8)))
        CFI V2 load(1, XDATA, add(CFA_XSP16, literal(-7)))
        CFI R7 load(1, XDATA, add(CFA_XSP16, literal(-6)))
        CFI ?RET_LOW load(1, XDATA, add(CFA_XSP16, literal(-5)))
        CFI ?RET_HIGH load(1, XDATA, add(CFA_XSP16, literal(-4)))
        CFI ?BRET_EXT load(1, XDATA, add(CFA_XSP16, literal(-3)))
        CFI DPL0 load(1, XDATA, add(CFA_XSP16, literal(-2)))
        CFI DPH0 load(1, XDATA, add(CFA_XSP16, literal(-1)))
        CFI CFA_SP SP+0
        CFI CFA_XSP16 add(XSP16, 11)
        CFI Block cfiCond87 Using cfiCommon0
        CFI (cfiCond87) NoFunction
        CFI (cfiCond87) Conditional ??CrossCallReturnLabel_13
        CFI (cfiCond87) R6 load(1, XDATA, add(CFA_XSP16, literal(-11)))
        CFI (cfiCond87) VB load(1, XDATA, add(CFA_XSP16, literal(-10)))
        CFI (cfiCond87) V0 load(1, XDATA, add(CFA_XSP16, literal(-9)))
        CFI (cfiCond87) V1 load(1, XDATA, add(CFA_XSP16, literal(-8)))
        CFI (cfiCond87) V2 load(1, XDATA, add(CFA_XSP16, literal(-7)))
        CFI (cfiCond87) R7 load(1, XDATA, add(CFA_XSP16, literal(-6)))
        CFI (cfiCond87) ?RET_LOW load(1, XDATA, add(CFA_XSP16, literal(-5)))
        CFI (cfiCond87) ?RET_HIGH load(1, XDATA, add(CFA_XSP16, literal(-4)))
        CFI (cfiCond87) ?BRET_EXT load(1, XDATA, add(CFA_XSP16, literal(-3)))
        CFI (cfiCond87) DPL0 load(1, XDATA, add(CFA_XSP16, literal(-2)))
        CFI (cfiCond87) DPH0 load(1, XDATA, add(CFA_XSP16, literal(-1)))
        CFI (cfiCond87) CFA_SP SP+0
        CFI (cfiCond87) CFA_XSP16 add(XSP16, 11)
        CFI Block cfiPicker88 Using cfiCommon1
        CFI (cfiPicker88) NoFunction
        CFI (cfiPicker88) Picker
        LCALL   ?Subroutine19 & 0xFFFF
??CrossCallReturnLabel_39:
        LCALL   ?Subroutine20 & 0xFFFF
??CrossCallReturnLabel_40:
        RET
        CFI EndBlock cfiCond86
        CFI EndBlock cfiCond87
        CFI EndBlock cfiPicker88

        RSEG BANKED_CODE:CODE:NOROOT(0)
?Subroutine20:
        CFI Block cfiCond89 Using cfiCommon0
        CFI NoFunction
        CFI Conditional ??CrossCallReturnLabel_41, ??CrossCallReturnLabel_14
        CFI R6 load(1, XDATA, add(CFA_XSP16, literal(-11)))
        CFI VB load(1, XDATA, add(CFA_XSP16, literal(-10)))
        CFI V0 load(1, XDATA, add(CFA_XSP16, literal(-9)))
        CFI V1 load(1, XDATA, add(CFA_XSP16, literal(-8)))
        CFI V2 load(1, XDATA, add(CFA_XSP16, literal(-7)))
        CFI R7 load(1, XDATA, add(CFA_XSP16, literal(-6)))
        CFI ?RET_LOW load(1, XDATA, add(CFA_XSP16, literal(-5)))
        CFI ?RET_HIGH load(1, XDATA, add(CFA_XSP16, literal(-4)))
        CFI ?BRET_EXT load(1, XDATA, add(CFA_XSP16, literal(-3)))
        CFI DPL0 load(1, XDATA, add(CFA_XSP16, literal(-2)))
        CFI DPH0 load(1, XDATA, add(CFA_XSP16, literal(-1)))
        CFI CFA_SP SP+0
        CFI CFA_XSP16 add(XSP16, 11)
        CFI Block cfiCond90 Using cfiCommon0
        CFI (cfiCond90) NoFunction
        CFI (cfiCond90) Conditional ??CrossCallReturnLabel_41, ??CrossCallReturnLabel_15
        CFI (cfiCond90) R6 load(1, XDATA, add(CFA_XSP16, literal(-11)))
        CFI (cfiCond90) VB load(1, XDATA, add(CFA_XSP16, literal(-10)))
        CFI (cfiCond90) V0 load(1, XDATA, add(CFA_XSP16, literal(-9)))
        CFI (cfiCond90) V1 load(1, XDATA, add(CFA_XSP16, literal(-8)))
        CFI (cfiCond90) V2 load(1, XDATA, add(CFA_XSP16, literal(-7)))
        CFI (cfiCond90) R7 load(1, XDATA, add(CFA_XSP16, literal(-6)))
        CFI (cfiCond90) ?RET_LOW load(1, XDATA, add(CFA_XSP16, literal(-5)))
        CFI (cfiCond90) ?RET_HIGH load(1, XDATA, add(CFA_XSP16, literal(-4)))
        CFI (cfiCond90) ?BRET_EXT load(1, XDATA, add(CFA_XSP16, literal(-3)))
        CFI (cfiCond90) DPL0 load(1, XDATA, add(CFA_XSP16, literal(-2)))
        CFI (cfiCond90) DPH0 load(1, XDATA, add(CFA_XSP16, literal(-1)))
        CFI (cfiCond90) CFA_SP SP+-1
        CFI (cfiCond90) CFA_XSP16 add(XSP16, 11)
        CFI Block cfiCond91 Using cfiCommon0
        CFI (cfiCond91) NoFunction
        CFI (cfiCond91) Conditional ??CrossCallReturnLabel_40, ??CrossCallReturnLabel_12
        CFI (cfiCond91) R6 load(1, XDATA, add(CFA_XSP16, literal(-11)))
        CFI (cfiCond91) VB load(1, XDATA, add(CFA_XSP16, literal(-10)))
        CFI (cfiCond91) V0 load(1, XDATA, add(CFA_XSP16, literal(-9)))
        CFI (cfiCond91) V1 load(1, XDATA, add(CFA_XSP16, literal(-8)))
        CFI (cfiCond91) V2 load(1, XDATA, add(CFA_XSP16, literal(-7)))
        CFI (cfiCond91) R7 load(1, XDATA, add(CFA_XSP16, literal(-6)))
        CFI (cfiCond91) ?RET_LOW load(1, XDATA, add(CFA_XSP16, literal(-5)))
        CFI (cfiCond91) ?RET_HIGH load(1, XDATA, add(CFA_XSP16, literal(-4)))
        CFI (cfiCond91) ?BRET_EXT load(1, XDATA, add(CFA_XSP16, literal(-3)))
        CFI (cfiCond91) DPL0 load(1, XDATA, add(CFA_XSP16, literal(-2)))
        CFI (cfiCond91) DPH0 load(1, XDATA, add(CFA_XSP16, literal(-1)))
        CFI (cfiCond91) CFA_SP SP+0
        CFI (cfiCond91) CFA_XSP16 add(XSP16, 11)
        CFI Block cfiCond92 Using cfiCommon0
        CFI (cfiCond92) NoFunction
        CFI (cfiCond92) Conditional ??CrossCallReturnLabel_40, ??CrossCallReturnLabel_13
        CFI (cfiCond92) R6 load(1, XDATA, add(CFA_XSP16, literal(-11)))
        CFI (cfiCond92) VB load(1, XDATA, add(CFA_XSP16, literal(-10)))
        CFI (cfiCond92) V0 load(1, XDATA, add(CFA_XSP16, literal(-9)))
        CFI (cfiCond92) V1 load(1, XDATA, add(CFA_XSP16, literal(-8)))
        CFI (cfiCond92) V2 load(1, XDATA, add(CFA_XSP16, literal(-7)))
        CFI (cfiCond92) R7 load(1, XDATA, add(CFA_XSP16, literal(-6)))
        CFI (cfiCond92) ?RET_LOW load(1, XDATA, add(CFA_XSP16, literal(-5)))
        CFI (cfiCond92) ?RET_HIGH load(1, XDATA, add(CFA_XSP16, literal(-4)))
        CFI (cfiCond92) ?BRET_EXT load(1, XDATA, add(CFA_XSP16, literal(-3)))
        CFI (cfiCond92) DPL0 load(1, XDATA, add(CFA_XSP16, literal(-2)))
        CFI (cfiCond92) DPH0 load(1, XDATA, add(CFA_XSP16, literal(-1)))
        CFI (cfiCond92) CFA_SP SP+0
        CFI (cfiCond92) CFA_XSP16 add(XSP16, 11)
        CFI Block cfiPicker93 Using cfiCommon1
        CFI (cfiPicker93) NoFunction
        CFI (cfiPicker93) Picker
        MOV     R0,A
        MOV     A,#gBUartBuf & 0xff
        ADD     A,R0
        MOV     DPL,A
        MOV     A,#(gBUartBuf >> 8) & 0xff
        ADDC    A,#0x0
        MOV     DPH,A
        RET
        CFI EndBlock cfiCond89
        CFI EndBlock cfiCond90
        CFI EndBlock cfiCond91
        CFI EndBlock cfiCond92
        CFI EndBlock cfiPicker93

        RSEG BANKED_CODE:CODE:NOROOT(0)
?Subroutine19:
        CFI Block cfiCond94 Using cfiCommon0
        CFI NoFunction
        CFI Conditional ??CrossCallReturnLabel_37
        CFI R6 load(1, XDATA, add(CFA_XSP16, literal(-11)))
        CFI VB load(1, XDATA, add(CFA_XSP16, literal(-10)))
        CFI V0 load(1, XDATA, add(CFA_XSP16, literal(-9)))
        CFI V1 load(1, XDATA, add(CFA_XSP16, literal(-8)))
        CFI V2 load(1, XDATA, add(CFA_XSP16, literal(-7)))
        CFI R7 load(1, XDATA, add(CFA_XSP16, literal(-6)))
        CFI ?RET_LOW load(1, XDATA, add(CFA_XSP16, literal(-5)))
        CFI ?RET_HIGH load(1, XDATA, add(CFA_XSP16, literal(-4)))
        CFI ?BRET_EXT load(1, XDATA, add(CFA_XSP16, literal(-3)))
        CFI DPL0 load(1, XDATA, add(CFA_XSP16, literal(-2)))
        CFI DPH0 load(1, XDATA, add(CFA_XSP16, literal(-1)))
        CFI CFA_SP SP+0
        CFI CFA_XSP16 add(XSP16, 11)
        CFI Block cfiCond95 Using cfiCommon0
        CFI (cfiCond95) NoFunction
        CFI (cfiCond95) Conditional ??CrossCallReturnLabel_38
        CFI (cfiCond95) R6 load(1, XDATA, add(CFA_XSP16, literal(-11)))
        CFI (cfiCond95) VB load(1, XDATA, add(CFA_XSP16, literal(-10)))
        CFI (cfiCond95) V0 load(1, XDATA, add(CFA_XSP16, literal(-9)))
        CFI (cfiCond95) V1 load(1, XDATA, add(CFA_XSP16, literal(-8)))
        CFI (cfiCond95) V2 load(1, XDATA, add(CFA_XSP16, literal(-7)))
        CFI (cfiCond95) R7 load(1, XDATA, add(CFA_XSP16, literal(-6)))
        CFI (cfiCond95) ?RET_LOW load(1, XDATA, add(CFA_XSP16, literal(-5)))
        CFI (cfiCond95) ?RET_HIGH load(1, XDATA, add(CFA_XSP16, literal(-4)))
        CFI (cfiCond95) ?BRET_EXT load(1, XDATA, add(CFA_XSP16, literal(-3)))
        CFI (cfiCond95) DPL0 load(1, XDATA, add(CFA_XSP16, literal(-2)))
        CFI (cfiCond95) DPH0 load(1, XDATA, add(CFA_XSP16, literal(-1)))
        CFI (cfiCond95) CFA_SP SP+0
        CFI (cfiCond95) CFA_XSP16 add(XSP16, 11)
        CFI Block cfiCond96 Using cfiCommon0
        CFI (cfiCond96) NoFunction
        CFI (cfiCond96) Conditional ??CrossCallReturnLabel_39, ??CrossCallReturnLabel_12
        CFI (cfiCond96) R6 load(1, XDATA, add(CFA_XSP16, literal(-11)))
        CFI (cfiCond96) VB load(1, XDATA, add(CFA_XSP16, literal(-10)))
        CFI (cfiCond96) V0 load(1, XDATA, add(CFA_XSP16, literal(-9)))
        CFI (cfiCond96) V1 load(1, XDATA, add(CFA_XSP16, literal(-8)))
        CFI (cfiCond96) V2 load(1, XDATA, add(CFA_XSP16, literal(-7)))
        CFI (cfiCond96) R7 load(1, XDATA, add(CFA_XSP16, literal(-6)))
        CFI (cfiCond96) ?RET_LOW load(1, XDATA, add(CFA_XSP16, literal(-5)))
        CFI (cfiCond96) ?RET_HIGH load(1, XDATA, add(CFA_XSP16, literal(-4)))
        CFI (cfiCond96) ?BRET_EXT load(1, XDATA, add(CFA_XSP16, literal(-3)))
        CFI (cfiCond96) DPL0 load(1, XDATA, add(CFA_XSP16, literal(-2)))
        CFI (cfiCond96) DPH0 load(1, XDATA, add(CFA_XSP16, literal(-1)))
        CFI (cfiCond96) CFA_SP SP+0
        CFI (cfiCond96) CFA_XSP16 add(XSP16, 11)
        CFI Block cfiCond97 Using cfiCommon0
        CFI (cfiCond97) NoFunction
        CFI (cfiCond97) Conditional ??CrossCallReturnLabel_39, ??CrossCallReturnLabel_13
        CFI (cfiCond97) R6 load(1, XDATA, add(CFA_XSP16, literal(-11)))
        CFI (cfiCond97) VB load(1, XDATA, add(CFA_XSP16, literal(-10)))
        CFI (cfiCond97) V0 load(1, XDATA, add(CFA_XSP16, literal(-9)))
        CFI (cfiCond97) V1 load(1, XDATA, add(CFA_XSP16, literal(-8)))
        CFI (cfiCond97) V2 load(1, XDATA, add(CFA_XSP16, literal(-7)))
        CFI (cfiCond97) R7 load(1, XDATA, add(CFA_XSP16, literal(-6)))
        CFI (cfiCond97) ?RET_LOW load(1, XDATA, add(CFA_XSP16, literal(-5)))
        CFI (cfiCond97) ?RET_HIGH load(1, XDATA, add(CFA_XSP16, literal(-4)))
        CFI (cfiCond97) ?BRET_EXT load(1, XDATA, add(CFA_XSP16, literal(-3)))
        CFI (cfiCond97) DPL0 load(1, XDATA, add(CFA_XSP16, literal(-2)))
        CFI (cfiCond97) DPH0 load(1, XDATA, add(CFA_XSP16, literal(-1)))
        CFI (cfiCond97) CFA_SP SP+0
        CFI (cfiCond97) CFA_XSP16 add(XSP16, 11)
        CFI Block cfiPicker98 Using cfiCommon1
        CFI (cfiPicker98) NoFunction
        CFI (cfiPicker98) Picker
        MOVX    @DPTR,A
        MOV     DPTR,#gBUartTotalByte
        MOVX    A,@DPTR
        INC     A
        MOVX    @DPTR,A
        RET
        CFI EndBlock cfiCond94
        CFI EndBlock cfiCond95
        CFI EndBlock cfiCond96
        CFI EndBlock cfiCond97
        CFI EndBlock cfiPicker98
//  830 
//  831 
//  832 uint8 g_flashReady = 0;
//  833 uint8 g_preFlashRdy = 0;
//  834 uint8 g_rptFlashRdy = 0;
//  835 uint16 g_flashSignal = 0;

        RSEG BANKED_CODE:CODE:NOROOT(0)
//  836 static void MstPacketParse(void)
MstPacketParse:
        CFI Block cfiBlock99 Using cfiCommon0
        CFI Function MstPacketParse
        CODE
//  837 {
        FUNCALL MstPacketParse, MRFI_DelayMs
        LOCFRAME ISTACK, 0, STACK
        LOCFRAME PSTACK, 0, STACK
        LOCFRAME XSTACK, 10, STACK
        LOCFRAME IOVERLAY, 0, STATIC
        LOCFRAME DOVERLAY, 0, STATIC
        ARGFRAME ISTACK, 0, STACK
        ARGFRAME PSTACK, 0, STACK
        ARGFRAME XSTACK, 10, STACK
        ARGFRAME IOVERLAY, 0, STATIC
        ARGFRAME DOVERLAY, 0, STATIC
        FUNCALL MstPacketParse, memcpy
        LOCFRAME ISTACK, 0, STACK
        LOCFRAME PSTACK, 0, STACK
        LOCFRAME XSTACK, 12, STACK
        LOCFRAME IOVERLAY, 0, STATIC
        LOCFRAME DOVERLAY, 0, STATIC
        ARGFRAME ISTACK, 0, STACK
        ARGFRAME PSTACK, 0, STACK
        ARGFRAME XSTACK, 12, STACK
        ARGFRAME IOVERLAY, 0, STATIC
        ARGFRAME DOVERLAY, 0, STATIC
        FUNCALL MstPacketParse, nwk_sendFrame
        LOCFRAME ISTACK, 0, STACK
        LOCFRAME PSTACK, 0, STACK
        LOCFRAME XSTACK, 10, STACK
        LOCFRAME IOVERLAY, 0, STATIC
        LOCFRAME DOVERLAY, 0, STATIC
        ARGFRAME ISTACK, 0, STACK
        ARGFRAME PSTACK, 0, STACK
        ARGFRAME XSTACK, 10, STACK
        ARGFRAME IOVERLAY, 0, STATIC
        ARGFRAME DOVERLAY, 0, STATIC
        FUNCALL MstPacketParse, RptFlashInfoSend
        LOCFRAME ISTACK, 0, STACK
        LOCFRAME PSTACK, 0, STACK
        LOCFRAME XSTACK, 10, STACK
        LOCFRAME IOVERLAY, 0, STATIC
        LOCFRAME DOVERLAY, 0, STATIC
        ARGFRAME ISTACK, 0, STACK
        ARGFRAME PSTACK, 0, STACK
        ARGFRAME XSTACK, 10, STACK
        ARGFRAME IOVERLAY, 0, STATIC
        ARGFRAME DOVERLAY, 0, STATIC
        FUNCALL MstPacketParse, MRFI_DelayMs
        LOCFRAME ISTACK, 0, STACK
        LOCFRAME PSTACK, 0, STACK
        LOCFRAME XSTACK, 10, STACK
        LOCFRAME IOVERLAY, 0, STATIC
        LOCFRAME DOVERLAY, 0, STATIC
        ARGFRAME ISTACK, 0, STACK
        ARGFRAME PSTACK, 0, STACK
        ARGFRAME XSTACK, 10, STACK
        ARGFRAME IOVERLAY, 0, STATIC
        ARGFRAME DOVERLAY, 0, STATIC
        FUNCALL MstPacketParse, macDelay
        LOCFRAME ISTACK, 0, STACK
        LOCFRAME PSTACK, 0, STACK
        LOCFRAME XSTACK, 10, STACK
        LOCFRAME IOVERLAY, 0, STATIC
        LOCFRAME DOVERLAY, 0, STATIC
        ARGFRAME ISTACK, 0, STACK
        ARGFRAME PSTACK, 0, STACK
        ARGFRAME XSTACK, 10, STACK
        ARGFRAME IOVERLAY, 0, STATIC
        ARGFRAME DOVERLAY, 0, STATIC
        FUNCALL MstPacketParse, FlashInfoSend
        LOCFRAME ISTACK, 0, STACK
        LOCFRAME PSTACK, 0, STACK
        LOCFRAME XSTACK, 10, STACK
        LOCFRAME IOVERLAY, 0, STATIC
        LOCFRAME DOVERLAY, 0, STATIC
        ARGFRAME ISTACK, 0, STACK
        ARGFRAME PSTACK, 0, STACK
        ARGFRAME XSTACK, 10, STACK
        ARGFRAME IOVERLAY, 0, STATIC
        ARGFRAME DOVERLAY, 0, STATIC
        FUNCALL MstPacketParse, MRFI_DelayMs
        LOCFRAME ISTACK, 0, STACK
        LOCFRAME PSTACK, 0, STACK
        LOCFRAME XSTACK, 10, STACK
        LOCFRAME IOVERLAY, 0, STATIC
        LOCFRAME DOVERLAY, 0, STATIC
        ARGFRAME ISTACK, 0, STACK
        ARGFRAME PSTACK, 0, STACK
        ARGFRAME XSTACK, 10, STACK
        ARGFRAME IOVERLAY, 0, STATIC
        ARGFRAME DOVERLAY, 0, STATIC
        FUNCALL MstPacketParse, macDelay
        LOCFRAME ISTACK, 0, STACK
        LOCFRAME PSTACK, 0, STACK
        LOCFRAME XSTACK, 10, STACK
        LOCFRAME IOVERLAY, 0, STATIC
        LOCFRAME DOVERLAY, 0, STATIC
        ARGFRAME ISTACK, 0, STACK
        ARGFRAME PSTACK, 0, STACK
        ARGFRAME XSTACK, 10, STACK
        ARGFRAME IOVERLAY, 0, STATIC
        ARGFRAME DOVERLAY, 0, STATIC
        FUNCALL MstPacketParse, PreFlashInfoSend
        LOCFRAME ISTACK, 0, STACK
        LOCFRAME PSTACK, 0, STACK
        LOCFRAME XSTACK, 10, STACK
        LOCFRAME IOVERLAY, 0, STATIC
        LOCFRAME DOVERLAY, 0, STATIC
        ARGFRAME ISTACK, 0, STACK
        ARGFRAME PSTACK, 0, STACK
        ARGFRAME XSTACK, 10, STACK
        ARGFRAME IOVERLAY, 0, STATIC
        ARGFRAME DOVERLAY, 0, STATIC
        FUNCALL MstPacketParse, UartSctSend
        LOCFRAME ISTACK, 0, STACK
        LOCFRAME PSTACK, 0, STACK
        LOCFRAME XSTACK, 10, STACK
        LOCFRAME IOVERLAY, 0, STATIC
        LOCFRAME DOVERLAY, 0, STATIC
        ARGFRAME ISTACK, 0, STACK
        ARGFRAME PSTACK, 0, STACK
        ARGFRAME XSTACK, 10, STACK
        ARGFRAME IOVERLAY, 0, STATIC
        ARGFRAME DOVERLAY, 0, STATIC
        FUNCALL MstPacketParse, MRFI_DelayMs
        LOCFRAME ISTACK, 0, STACK
        LOCFRAME PSTACK, 0, STACK
        LOCFRAME XSTACK, 10, STACK
        LOCFRAME IOVERLAY, 0, STATIC
        LOCFRAME DOVERLAY, 0, STATIC
        ARGFRAME ISTACK, 0, STACK
        ARGFRAME PSTACK, 0, STACK
        ARGFRAME XSTACK, 10, STACK
        ARGFRAME IOVERLAY, 0, STATIC
        ARGFRAME DOVERLAY, 0, STATIC
        FUNCALL MstPacketParse, memcpy
        LOCFRAME ISTACK, 0, STACK
        LOCFRAME PSTACK, 0, STACK
        LOCFRAME XSTACK, 12, STACK
        LOCFRAME IOVERLAY, 0, STATIC
        LOCFRAME DOVERLAY, 0, STATIC
        ARGFRAME ISTACK, 0, STACK
        ARGFRAME PSTACK, 0, STACK
        ARGFRAME XSTACK, 12, STACK
        ARGFRAME IOVERLAY, 0, STATIC
        ARGFRAME DOVERLAY, 0, STATIC
        FUNCALL MstPacketParse, nwk_sendFrame
        LOCFRAME ISTACK, 0, STACK
        LOCFRAME PSTACK, 0, STACK
        LOCFRAME XSTACK, 10, STACK
        LOCFRAME IOVERLAY, 0, STATIC
        LOCFRAME DOVERLAY, 0, STATIC
        ARGFRAME ISTACK, 0, STACK
        ARGFRAME PSTACK, 0, STACK
        ARGFRAME XSTACK, 10, STACK
        ARGFRAME IOVERLAY, 0, STATIC
        ARGFRAME DOVERLAY, 0, STATIC
        MOV     A,#-0xa
        LCALL   ?BANKED_ENTER_XDATA
        CFI DPH0 load(1, XDATA, add(CFA_XSP16, literal(-1)))
        CFI DPL0 load(1, XDATA, add(CFA_XSP16, literal(-2)))
        CFI ?BRET_EXT load(1, XDATA, add(CFA_XSP16, literal(-3)))
        CFI ?RET_HIGH load(1, XDATA, add(CFA_XSP16, literal(-4)))
        CFI ?RET_LOW load(1, XDATA, add(CFA_XSP16, literal(-5)))
        CFI R7 load(1, XDATA, add(CFA_XSP16, literal(-6)))
        CFI V1 load(1, XDATA, add(CFA_XSP16, literal(-7)))
        CFI V0 load(1, XDATA, add(CFA_XSP16, literal(-8)))
        CFI VB load(1, XDATA, add(CFA_XSP16, literal(-9)))
        CFI R6 load(1, XDATA, add(CFA_XSP16, literal(-10)))
        CFI CFA_SP SP+0
        CFI CFA_XSP16 add(XSP16, 10)
        ; Saved register size: 10
        ; Auto size: 0
//  838 	if((0x24!=g_pRcvPkt->frame[2])||(0x21!=g_pRcvPkt->frame[3]))
        LCALL   ?Subroutine18 & 0xFFFF
??CrossCallReturnLabel_60:
        INC     DPTR
        INC     DPTR
        MOVX    A,@DPTR
        XRL     A,#0x24
        JZ      $+5
        LJMP    ??CrossCallReturnLabel_31 & 0xFFFF
        MOV     DPTR,#g_pRcvPkt + 1
        LCALL   ??Subroutine25_0 & 0xFFFF
??CrossCallReturnLabel_58:
        INC     DPTR
        INC     DPTR
        INC     DPTR
        MOVX    A,@DPTR
        XRL     A,#0x21
        JZ      $+5
        LJMP    ??CrossCallReturnLabel_31 & 0xFFFF
//  839 	{
//  840 		return;
//  841 	}
//  842 
//  843 	if((0x1E==g_pRcvPkt->frame[0])||((0x21==g_pRcvPkt->frame[0])&&(0x01==g_pRcvPkt->frame[17])))
        MOV     DPTR,#g_pRcvPkt + 1
        LCALL   ??Subroutine25_0 & 0xFFFF
??CrossCallReturnLabel_59:
        MOVX    A,@DPTR
        MOV     R0,A
        MOV     A,#0x1e
        XRL     A,R0
        JZ      ??MstPacketParse_0
        MOV     A,#0x21
        XRL     A,R0
        JNZ     ??MstPacketParse_1
        LCALL   ?Subroutine6 & 0xFFFF
??CrossCallReturnLabel_53:
        XRL     A,#0x1
        JNZ     ??MstPacketParse_1
//  844 	{
//  845 #if 1
//  846 		MRFI_DelayMs(5);
??MstPacketParse_0:
        ; Setup parameters for call to function MRFI_DelayMs
        MOV     R2,#0x5
        MOV     R3,#0x0
        LCALL   ??MRFI_DelayMs?relay
//  847 		memcpy(g_frameInfo.mrfiPkt.frame,g_veriBuf,43);
        ; Setup parameters for call to function memcpy
        MOV     ?V0 + 0,#0x2b
        MOV     ?V0 + 1,#0x0
        MOV     R0,#?V0 + 0
        LCALL   ?PUSH_XSTACK_I_TWO
        CFI CFA_XSP16 add(XSP16, 12)
        MOV     R4,#g_veriBuf & 0xff
        MOV     R5,#(g_veriBuf >> 8) & 0xff
        LCALL   ?Subroutine16 & 0xFFFF
??CrossCallReturnLabel_62:
        LCALL   ?DEALLOC_XSTACK8
        CFI CFA_XSP16 add(XSP16, 10)
//  848   		g_frameInfo.fi_usage = FI_AVAILABLE;
        LCALL   ?Subroutine13 & 0xFFFF
//  849 		nwk_sendFrame(&g_frameInfo,MRFI_TX_TYPE_FORCED);
//  850 		LED_INS_LINKED();
??CrossCallReturnLabel_30:
        CLR     0x90.2
        SETB    0x90.3
//  851 #endif
//  852 	}
//  853 
//  854 	if((0x21==g_pRcvPkt->frame[0])&&(0xB2==g_pRcvPkt->frame[17]))
??MstPacketParse_1:
        LCALL   ?Subroutine4 & 0xFFFF
??CrossCallReturnLabel_3:
        XRL     A,#0x21
        JNZ     ??MstPacketParse_2
        LCALL   ?Subroutine6 & 0xFFFF
??CrossCallReturnLabel_54:
        XRL     A,#0xb2
        JNZ     ??MstPacketParse_2
//  855 	{
//  856 		if(!g_rptFlashRdy)
        MOV     DPTR,#g_rptFlashRdy
        MOVX    A,@DPTR
        JNZ     ??MstPacketParse_3
//  857 		{
//  858 			RptFlashInfoSend();
        ; Setup parameters for call to function RptFlashInfoSend
        LCALL   ??RptFlashInfoSend?relay
//  859 			g_rptFlashRdy = 1;
        MOV     DPTR,#g_rptFlashRdy
        MOV     A,#0x1
        SJMP    ??MstPacketParse_4
//  860 		}else if(0x47 == g_pRcvPkt->frame[25])
??MstPacketParse_3:
        LCALL   ?Subroutine5 & 0xFFFF
??CrossCallReturnLabel_7:
        JNZ     ??MstPacketParse_2
//  861 		{
//  862 			MRFI_DelayMs(6);
        ; Setup parameters for call to function MRFI_DelayMs
        LCALL   ?Subroutine12 & 0xFFFF
//  863 			UART_INT_SET();
//  864 			g_rptFlashRdy = 0;
??CrossCallReturnLabel_28:
        MOV     DPTR,#g_rptFlashRdy
        CLR     A
??MstPacketParse_4:
        MOVX    @DPTR,A
//  865 		}
//  866 	}
//  867 
//  868 	if(0x26==g_pRcvPkt->frame[0])
??MstPacketParse_2:
        LCALL   ?Subroutine4 & 0xFFFF
??CrossCallReturnLabel_4:
        XRL     A,#0x26
        JNZ     ??MstPacketParse_5
//  869 	{
//  870 		if(!g_flashReady)
        MOV     DPTR,#g_flashReady
        MOVX    A,@DPTR
        JNZ     ??MstPacketParse_6
//  871 		{
//  872 			FlashInfoSend();
        ; Setup parameters for call to function FlashInfoSend
        LCALL   ??FlashInfoSend?relay
//  873 			g_flashReady = 1;
        MOV     DPTR,#g_flashReady
        MOV     A,#0x1
        SJMP    ??MstPacketParse_7
//  874 		}else if(0x47 == g_pRcvPkt->frame[25])
??MstPacketParse_6:
        LCALL   ?Subroutine5 & 0xFFFF
??CrossCallReturnLabel_8:
        JNZ     ??MstPacketParse_5
//  875 		{
//  876 			MRFI_DelayMs(6);
        ; Setup parameters for call to function MRFI_DelayMs
        LCALL   ?Subroutine12 & 0xFFFF
//  877 			UART_INT_SET();
//  878 			g_flashReady = 0;
??CrossCallReturnLabel_29:
        MOV     DPTR,#g_flashReady
        CLR     A
??MstPacketParse_7:
        MOVX    @DPTR,A
//  879 		}/*
//  880 		g_flashReady = 1;
//  881 		if(0x12 == g_pRcvPkt->frame[25])
//  882 		{
//  883 			FlashInfoSend();
//  884 		}else if(0x47 == g_pRcvPkt->frame[25])
//  885 		{
//  886 			MRFI_DelayMs(6);
//  887 			UART_INT_SET();
//  888 		}*/
//  889 	}
//  890 
//  891 	if(0x1D==g_pRcvPkt->frame[0])
??MstPacketParse_5:
        LCALL   ?Subroutine4 & 0xFFFF
??CrossCallReturnLabel_5:
        XRL     A,#0x1d
        JNZ     ??MstPacketParse_8
//  892 	{
//  893 		//UART_INT_TOGGLE();
//  894 		if(!g_preFlashRdy)
        MOV     DPTR,#g_preFlashRdy
        MOVX    A,@DPTR
        JNZ     ??MstPacketParse_9
//  895 		{
//  896 			PreFlashInfoSend();
        ; Setup parameters for call to function PreFlashInfoSend
        LCALL   ??PreFlashInfoSend?relay
//  897 			g_preFlashRdy = 1;
        MOV     DPTR,#g_preFlashRdy
        MOV     A,#0x1
        SJMP    ??MstPacketParse_10
//  898 		}else if(0x08 == g_pRcvPkt->frame[21])
??MstPacketParse_9:
        MOV     DPTR,#g_pRcvPkt
        MOVX    A,@DPTR
        ADD     A,#0x15
        LCALL   ??Subroutine24_0 & 0xFFFF
??CrossCallReturnLabel_51:
        XRL     A,#0x8
        JNZ     ??MstPacketParse_8
//  899 		{
//  900 			UartSctSend(UART_SLAVE_PREFLA, 0,0);
        ; Setup parameters for call to function UartSctSend
        MOV     R3,#0x0
        MOV     R2,#0x0
        MOV     R1,#-0x36
        LCALL   ??UartSctSend?relay
//  901 			g_preFlashRdy = 0;
        MOV     DPTR,#g_preFlashRdy
        CLR     A
??MstPacketParse_10:
        MOVX    @DPTR,A
//  902 		}
//  903 	}
//  904 
//  905 	if(0x18==g_pRcvPkt->frame[0])
??MstPacketParse_8:
        LCALL   ?Subroutine4 & 0xFFFF
??CrossCallReturnLabel_6:
        XRL     A,#0x18
        JNZ     ??CrossCallReturnLabel_31
//  906 	{
//  907 		if(0x25==g_pRcvPkt->frame[14])
        MOV     DPTR,#g_pRcvPkt
        MOVX    A,@DPTR
        ADD     A,#0xe
        LCALL   ??Subroutine24_0 & 0xFFFF
??CrossCallReturnLabel_52:
        MOV     R0,A
        MOV     A,#0x25
        XRL     A,R0
        JZ      ??CrossCallReturnLabel_31
//  908 		{
//  909 			//UART_INT_TOGGLE();
//  910 #if 0
//  911 			if(1==g_flashReady)
//  912 			{
//  913 				g_flashReady = 2;
//  914 				g_flashSignal = MAKEWORD(g_pRcvPkt->frame[20]+2, 0x09);
//  915 
//  916 			}else if(2==g_flashReady)
//  917 			{
//  918 				//tx_send(&g_pRcvPkt->frame[20],2);
//  919 				if(g_flashSignal == MAKEWORD(g_pRcvPkt->frame[20], g_pRcvPkt->frame[21]))
//  920 				{
//  921 					//tx_send("fla\r\n",sizeof("fla\r\n"));
//  922 					UART_INT_SET();
//  923 					g_flashSignal = 0;
//  924 				}
//  925 			}
//  926 #endif
//  927 		}else if(0x32==g_pRcvPkt->frame[14])
        MOV     A,#0x32
        XRL     A,R0
        JNZ     ??CrossCallReturnLabel_31
//  928 		{
//  929 			MRFI_DelayMs(20);
        ; Setup parameters for call to function MRFI_DelayMs
        MOV     R2,#0x14
        MOV     R3,#0x0
        LCALL   ??MRFI_DelayMs?relay
//  930 			memcpy(g_frameInfo.mrfiPkt.frame,g_veriBuf2,41);
        ; Setup parameters for call to function memcpy
        MOV     ?V0 + 0,#0x29
        MOV     ?V0 + 1,#0x0
        MOV     R0,#?V0 + 0
        LCALL   ?PUSH_XSTACK_I_TWO
        CFI CFA_XSP16 add(XSP16, 12)
        MOV     R4,#g_veriBuf2 & 0xff
        MOV     R5,#(g_veriBuf2 >> 8) & 0xff
        LCALL   ?Subroutine16 & 0xFFFF
??CrossCallReturnLabel_63:
        LCALL   ?DEALLOC_XSTACK8
        CFI CFA_XSP16 add(XSP16, 10)
//  931 	  		g_frameInfo.fi_usage = FI_AVAILABLE;
        LCALL   ?Subroutine13 & 0xFFFF
//  932 			nwk_sendFrame(&g_frameInfo,MRFI_TX_TYPE_FORCED);
//  933 		}
//  934 		
//  935 		
//  936 	}
??CrossCallReturnLabel_31:
        LJMP    ??Subroutine22_0 & 0xFFFF
        CFI EndBlock cfiBlock99
        REQUIRE _A_P1
        REQUIRE _A_P0
//  937 }

        RSEG BANKED_CODE:CODE:NOROOT(0)
?Subroutine13:
        CFI Block cfiCond100 Using cfiCommon0
        CFI NoFunction
        CFI Conditional ??CrossCallReturnLabel_30
        CFI R6 load(1, XDATA, add(CFA_XSP16, literal(-10)))
        CFI VB load(1, XDATA, add(CFA_XSP16, literal(-9)))
        CFI V0 load(1, XDATA, add(CFA_XSP16, literal(-8)))
        CFI V1 load(1, XDATA, add(CFA_XSP16, literal(-7)))
        CFI R7 load(1, XDATA, add(CFA_XSP16, literal(-6)))
        CFI ?RET_LOW load(1, XDATA, add(CFA_XSP16, literal(-5)))
        CFI ?RET_HIGH load(1, XDATA, add(CFA_XSP16, literal(-4)))
        CFI ?BRET_EXT load(1, XDATA, add(CFA_XSP16, literal(-3)))
        CFI DPL0 load(1, XDATA, add(CFA_XSP16, literal(-2)))
        CFI DPH0 load(1, XDATA, add(CFA_XSP16, literal(-1)))
        CFI CFA_SP SP+0
        CFI CFA_XSP16 add(XSP16, 10)
        CFI Block cfiCond101 Using cfiCommon0
        CFI (cfiCond101) NoFunction
        CFI (cfiCond101) Conditional ??CrossCallReturnLabel_31
        CFI (cfiCond101) R6 load(1, XDATA, add(CFA_XSP16, literal(-10)))
        CFI (cfiCond101) VB load(1, XDATA, add(CFA_XSP16, literal(-9)))
        CFI (cfiCond101) V0 load(1, XDATA, add(CFA_XSP16, literal(-8)))
        CFI (cfiCond101) V1 load(1, XDATA, add(CFA_XSP16, literal(-7)))
        CFI (cfiCond101) R7 load(1, XDATA, add(CFA_XSP16, literal(-6)))
        CFI (cfiCond101) ?RET_LOW load(1, XDATA, add(CFA_XSP16, literal(-5)))
        CFI (cfiCond101) ?RET_HIGH load(1, XDATA, add(CFA_XSP16, literal(-4)))
        CFI (cfiCond101) ?BRET_EXT load(1, XDATA, add(CFA_XSP16, literal(-3)))
        CFI (cfiCond101) DPL0 load(1, XDATA, add(CFA_XSP16, literal(-2)))
        CFI (cfiCond101) DPH0 load(1, XDATA, add(CFA_XSP16, literal(-1)))
        CFI (cfiCond101) CFA_SP SP+0
        CFI (cfiCond101) CFA_XSP16 add(XSP16, 10)
        CFI Block cfiPicker102 Using cfiCommon1
        CFI (cfiPicker102) NoFunction
        CFI (cfiPicker102) Picker
        MOV     DPTR,#g_frameInfo
        CLR     A
        MOVX    @DPTR,A
        ; Setup parameters for call to function nwk_sendFrame
        ; Setup parameters for call to function nwk_sendFrame
        MOV     R1,A
        MOV     R2,#g_frameInfo & 0xff
        MOV     R3,#(g_frameInfo >> 8) & 0xff
        LCALL   ??nwk_sendFrame?relay
        RET
        CFI EndBlock cfiCond100
        CFI EndBlock cfiCond101
        CFI EndBlock cfiPicker102

        RSEG BANKED_CODE:CODE:NOROOT(0)
?Subroutine12:
        CFI Block cfiCond103 Using cfiCommon0
        CFI NoFunction
        CFI Conditional ??CrossCallReturnLabel_28
        CFI R6 load(1, XDATA, add(CFA_XSP16, literal(-10)))
        CFI VB load(1, XDATA, add(CFA_XSP16, literal(-9)))
        CFI V0 load(1, XDATA, add(CFA_XSP16, literal(-8)))
        CFI V1 load(1, XDATA, add(CFA_XSP16, literal(-7)))
        CFI R7 load(1, XDATA, add(CFA_XSP16, literal(-6)))
        CFI ?RET_LOW load(1, XDATA, add(CFA_XSP16, literal(-5)))
        CFI ?RET_HIGH load(1, XDATA, add(CFA_XSP16, literal(-4)))
        CFI ?BRET_EXT load(1, XDATA, add(CFA_XSP16, literal(-3)))
        CFI DPL0 load(1, XDATA, add(CFA_XSP16, literal(-2)))
        CFI DPH0 load(1, XDATA, add(CFA_XSP16, literal(-1)))
        CFI CFA_SP SP+0
        CFI CFA_XSP16 add(XSP16, 10)
        CFI Block cfiCond104 Using cfiCommon0
        CFI (cfiCond104) NoFunction
        CFI (cfiCond104) Conditional ??CrossCallReturnLabel_29
        CFI (cfiCond104) R6 load(1, XDATA, add(CFA_XSP16, literal(-10)))
        CFI (cfiCond104) VB load(1, XDATA, add(CFA_XSP16, literal(-9)))
        CFI (cfiCond104) V0 load(1, XDATA, add(CFA_XSP16, literal(-8)))
        CFI (cfiCond104) V1 load(1, XDATA, add(CFA_XSP16, literal(-7)))
        CFI (cfiCond104) R7 load(1, XDATA, add(CFA_XSP16, literal(-6)))
        CFI (cfiCond104) ?RET_LOW load(1, XDATA, add(CFA_XSP16, literal(-5)))
        CFI (cfiCond104) ?RET_HIGH load(1, XDATA, add(CFA_XSP16, literal(-4)))
        CFI (cfiCond104) ?BRET_EXT load(1, XDATA, add(CFA_XSP16, literal(-3)))
        CFI (cfiCond104) DPL0 load(1, XDATA, add(CFA_XSP16, literal(-2)))
        CFI (cfiCond104) DPH0 load(1, XDATA, add(CFA_XSP16, literal(-1)))
        CFI (cfiCond104) CFA_SP SP+0
        CFI (cfiCond104) CFA_XSP16 add(XSP16, 10)
        CFI Block cfiPicker105 Using cfiCommon1
        CFI (cfiPicker105) NoFunction
        CFI (cfiPicker105) Picker
        MOV     R2,#0x6
        MOV     R3,#0x0
        LCALL   ??MRFI_DelayMs?relay
        CLR     0x80.4
        ; Setup parameters for call to function macDelay
        ; Setup parameters for call to function macDelay
        MOV     R2,#0x2
        MOV     R3,#0x0
        LCALL   ??macDelay?relay
        SETB    0x80.4
        RET
        CFI EndBlock cfiCond103
        CFI EndBlock cfiCond104
        CFI EndBlock cfiPicker105

        RSEG BANKED_CODE:CODE:NOROOT(0)
?Subroutine5:
        CFI Block cfiCond106 Using cfiCommon0
        CFI NoFunction
        CFI Conditional ??CrossCallReturnLabel_7
        CFI R6 load(1, XDATA, add(CFA_XSP16, literal(-10)))
        CFI VB load(1, XDATA, add(CFA_XSP16, literal(-9)))
        CFI V0 load(1, XDATA, add(CFA_XSP16, literal(-8)))
        CFI V1 load(1, XDATA, add(CFA_XSP16, literal(-7)))
        CFI R7 load(1, XDATA, add(CFA_XSP16, literal(-6)))
        CFI ?RET_LOW load(1, XDATA, add(CFA_XSP16, literal(-5)))
        CFI ?RET_HIGH load(1, XDATA, add(CFA_XSP16, literal(-4)))
        CFI ?BRET_EXT load(1, XDATA, add(CFA_XSP16, literal(-3)))
        CFI DPL0 load(1, XDATA, add(CFA_XSP16, literal(-2)))
        CFI DPH0 load(1, XDATA, add(CFA_XSP16, literal(-1)))
        CFI CFA_SP SP+0
        CFI CFA_XSP16 add(XSP16, 10)
        CFI Block cfiCond107 Using cfiCommon0
        CFI (cfiCond107) NoFunction
        CFI (cfiCond107) Conditional ??CrossCallReturnLabel_8
        CFI (cfiCond107) R6 load(1, XDATA, add(CFA_XSP16, literal(-10)))
        CFI (cfiCond107) VB load(1, XDATA, add(CFA_XSP16, literal(-9)))
        CFI (cfiCond107) V0 load(1, XDATA, add(CFA_XSP16, literal(-8)))
        CFI (cfiCond107) V1 load(1, XDATA, add(CFA_XSP16, literal(-7)))
        CFI (cfiCond107) R7 load(1, XDATA, add(CFA_XSP16, literal(-6)))
        CFI (cfiCond107) ?RET_LOW load(1, XDATA, add(CFA_XSP16, literal(-5)))
        CFI (cfiCond107) ?RET_HIGH load(1, XDATA, add(CFA_XSP16, literal(-4)))
        CFI (cfiCond107) ?BRET_EXT load(1, XDATA, add(CFA_XSP16, literal(-3)))
        CFI (cfiCond107) DPL0 load(1, XDATA, add(CFA_XSP16, literal(-2)))
        CFI (cfiCond107) DPH0 load(1, XDATA, add(CFA_XSP16, literal(-1)))
        CFI (cfiCond107) CFA_SP SP+0
        CFI (cfiCond107) CFA_XSP16 add(XSP16, 10)
        CFI Block cfiPicker108 Using cfiCommon1
        CFI (cfiPicker108) NoFunction
        CFI (cfiPicker108) Picker
        MOV     DPTR,#g_pRcvPkt
        MOVX    A,@DPTR
        ADD     A,#0x19
        LCALL   ?Subroutine17 & 0xFFFF
??CrossCallReturnLabel_56:
        XRL     A,#0x47
        RET
        CFI EndBlock cfiCond106
        CFI EndBlock cfiCond107
        CFI EndBlock cfiPicker108

        RSEG BANKED_CODE:CODE:NOROOT(0)
?Subroutine4:
        CFI Block cfiCond109 Using cfiCommon0
        CFI NoFunction
        CFI Conditional ??CrossCallReturnLabel_3
        CFI R6 load(1, XDATA, add(CFA_XSP16, literal(-10)))
        CFI VB load(1, XDATA, add(CFA_XSP16, literal(-9)))
        CFI V0 load(1, XDATA, add(CFA_XSP16, literal(-8)))
        CFI V1 load(1, XDATA, add(CFA_XSP16, literal(-7)))
        CFI R7 load(1, XDATA, add(CFA_XSP16, literal(-6)))
        CFI ?RET_LOW load(1, XDATA, add(CFA_XSP16, literal(-5)))
        CFI ?RET_HIGH load(1, XDATA, add(CFA_XSP16, literal(-4)))
        CFI ?BRET_EXT load(1, XDATA, add(CFA_XSP16, literal(-3)))
        CFI DPL0 load(1, XDATA, add(CFA_XSP16, literal(-2)))
        CFI DPH0 load(1, XDATA, add(CFA_XSP16, literal(-1)))
        CFI CFA_SP SP+0
        CFI CFA_XSP16 add(XSP16, 10)
        CFI Block cfiCond110 Using cfiCommon0
        CFI (cfiCond110) NoFunction
        CFI (cfiCond110) Conditional ??CrossCallReturnLabel_4
        CFI (cfiCond110) R6 load(1, XDATA, add(CFA_XSP16, literal(-10)))
        CFI (cfiCond110) VB load(1, XDATA, add(CFA_XSP16, literal(-9)))
        CFI (cfiCond110) V0 load(1, XDATA, add(CFA_XSP16, literal(-8)))
        CFI (cfiCond110) V1 load(1, XDATA, add(CFA_XSP16, literal(-7)))
        CFI (cfiCond110) R7 load(1, XDATA, add(CFA_XSP16, literal(-6)))
        CFI (cfiCond110) ?RET_LOW load(1, XDATA, add(CFA_XSP16, literal(-5)))
        CFI (cfiCond110) ?RET_HIGH load(1, XDATA, add(CFA_XSP16, literal(-4)))
        CFI (cfiCond110) ?BRET_EXT load(1, XDATA, add(CFA_XSP16, literal(-3)))
        CFI (cfiCond110) DPL0 load(1, XDATA, add(CFA_XSP16, literal(-2)))
        CFI (cfiCond110) DPH0 load(1, XDATA, add(CFA_XSP16, literal(-1)))
        CFI (cfiCond110) CFA_SP SP+0
        CFI (cfiCond110) CFA_XSP16 add(XSP16, 10)
        CFI Block cfiCond111 Using cfiCommon0
        CFI (cfiCond111) NoFunction
        CFI (cfiCond111) Conditional ??CrossCallReturnLabel_5
        CFI (cfiCond111) R6 load(1, XDATA, add(CFA_XSP16, literal(-10)))
        CFI (cfiCond111) VB load(1, XDATA, add(CFA_XSP16, literal(-9)))
        CFI (cfiCond111) V0 load(1, XDATA, add(CFA_XSP16, literal(-8)))
        CFI (cfiCond111) V1 load(1, XDATA, add(CFA_XSP16, literal(-7)))
        CFI (cfiCond111) R7 load(1, XDATA, add(CFA_XSP16, literal(-6)))
        CFI (cfiCond111) ?RET_LOW load(1, XDATA, add(CFA_XSP16, literal(-5)))
        CFI (cfiCond111) ?RET_HIGH load(1, XDATA, add(CFA_XSP16, literal(-4)))
        CFI (cfiCond111) ?BRET_EXT load(1, XDATA, add(CFA_XSP16, literal(-3)))
        CFI (cfiCond111) DPL0 load(1, XDATA, add(CFA_XSP16, literal(-2)))
        CFI (cfiCond111) DPH0 load(1, XDATA, add(CFA_XSP16, literal(-1)))
        CFI (cfiCond111) CFA_SP SP+0
        CFI (cfiCond111) CFA_XSP16 add(XSP16, 10)
        CFI Block cfiCond112 Using cfiCommon0
        CFI (cfiCond112) NoFunction
        CFI (cfiCond112) Conditional ??CrossCallReturnLabel_6
        CFI (cfiCond112) R6 load(1, XDATA, add(CFA_XSP16, literal(-10)))
        CFI (cfiCond112) VB load(1, XDATA, add(CFA_XSP16, literal(-9)))
        CFI (cfiCond112) V0 load(1, XDATA, add(CFA_XSP16, literal(-8)))
        CFI (cfiCond112) V1 load(1, XDATA, add(CFA_XSP16, literal(-7)))
        CFI (cfiCond112) R7 load(1, XDATA, add(CFA_XSP16, literal(-6)))
        CFI (cfiCond112) ?RET_LOW load(1, XDATA, add(CFA_XSP16, literal(-5)))
        CFI (cfiCond112) ?RET_HIGH load(1, XDATA, add(CFA_XSP16, literal(-4)))
        CFI (cfiCond112) ?BRET_EXT load(1, XDATA, add(CFA_XSP16, literal(-3)))
        CFI (cfiCond112) DPL0 load(1, XDATA, add(CFA_XSP16, literal(-2)))
        CFI (cfiCond112) DPH0 load(1, XDATA, add(CFA_XSP16, literal(-1)))
        CFI (cfiCond112) CFA_SP SP+0
        CFI (cfiCond112) CFA_XSP16 add(XSP16, 10)
        CFI Block cfiPicker113 Using cfiCommon1
        CFI (cfiPicker113) NoFunction
        CFI (cfiPicker113) Picker
        LCALL   ?Subroutine18 & 0xFFFF
??CrossCallReturnLabel_61:
        MOVX    A,@DPTR
        RET
        CFI EndBlock cfiCond109
        CFI EndBlock cfiCond110
        CFI EndBlock cfiCond111
        CFI EndBlock cfiCond112
        CFI EndBlock cfiPicker113

        RSEG BANKED_CODE:CODE:NOROOT(0)
?Subroutine18:
        CFI Block cfiCond114 Using cfiCommon0
        CFI NoFunction
        CFI Conditional ??CrossCallReturnLabel_60
        CFI R6 load(1, XDATA, add(CFA_XSP16, literal(-10)))
        CFI VB load(1, XDATA, add(CFA_XSP16, literal(-9)))
        CFI V0 load(1, XDATA, add(CFA_XSP16, literal(-8)))
        CFI V1 load(1, XDATA, add(CFA_XSP16, literal(-7)))
        CFI R7 load(1, XDATA, add(CFA_XSP16, literal(-6)))
        CFI ?RET_LOW load(1, XDATA, add(CFA_XSP16, literal(-5)))
        CFI ?RET_HIGH load(1, XDATA, add(CFA_XSP16, literal(-4)))
        CFI ?BRET_EXT load(1, XDATA, add(CFA_XSP16, literal(-3)))
        CFI DPL0 load(1, XDATA, add(CFA_XSP16, literal(-2)))
        CFI DPH0 load(1, XDATA, add(CFA_XSP16, literal(-1)))
        CFI CFA_SP SP+0
        CFI CFA_XSP16 add(XSP16, 10)
        CFI Block cfiCond115 Using cfiCommon0
        CFI (cfiCond115) NoFunction
        CFI (cfiCond115) Conditional ??CrossCallReturnLabel_61, ??CrossCallReturnLabel_3
        CFI (cfiCond115) R6 load(1, XDATA, add(CFA_XSP16, literal(-10)))
        CFI (cfiCond115) VB load(1, XDATA, add(CFA_XSP16, literal(-9)))
        CFI (cfiCond115) V0 load(1, XDATA, add(CFA_XSP16, literal(-8)))
        CFI (cfiCond115) V1 load(1, XDATA, add(CFA_XSP16, literal(-7)))
        CFI (cfiCond115) R7 load(1, XDATA, add(CFA_XSP16, literal(-6)))
        CFI (cfiCond115) ?RET_LOW load(1, XDATA, add(CFA_XSP16, literal(-5)))
        CFI (cfiCond115) ?RET_HIGH load(1, XDATA, add(CFA_XSP16, literal(-4)))
        CFI (cfiCond115) ?BRET_EXT load(1, XDATA, add(CFA_XSP16, literal(-3)))
        CFI (cfiCond115) DPL0 load(1, XDATA, add(CFA_XSP16, literal(-2)))
        CFI (cfiCond115) DPH0 load(1, XDATA, add(CFA_XSP16, literal(-1)))
        CFI (cfiCond115) CFA_SP SP+0
        CFI (cfiCond115) CFA_XSP16 add(XSP16, 10)
        CFI Block cfiCond116 Using cfiCommon0
        CFI (cfiCond116) NoFunction
        CFI (cfiCond116) Conditional ??CrossCallReturnLabel_61, ??CrossCallReturnLabel_4
        CFI (cfiCond116) R6 load(1, XDATA, add(CFA_XSP16, literal(-10)))
        CFI (cfiCond116) VB load(1, XDATA, add(CFA_XSP16, literal(-9)))
        CFI (cfiCond116) V0 load(1, XDATA, add(CFA_XSP16, literal(-8)))
        CFI (cfiCond116) V1 load(1, XDATA, add(CFA_XSP16, literal(-7)))
        CFI (cfiCond116) R7 load(1, XDATA, add(CFA_XSP16, literal(-6)))
        CFI (cfiCond116) ?RET_LOW load(1, XDATA, add(CFA_XSP16, literal(-5)))
        CFI (cfiCond116) ?RET_HIGH load(1, XDATA, add(CFA_XSP16, literal(-4)))
        CFI (cfiCond116) ?BRET_EXT load(1, XDATA, add(CFA_XSP16, literal(-3)))
        CFI (cfiCond116) DPL0 load(1, XDATA, add(CFA_XSP16, literal(-2)))
        CFI (cfiCond116) DPH0 load(1, XDATA, add(CFA_XSP16, literal(-1)))
        CFI (cfiCond116) CFA_SP SP+0
        CFI (cfiCond116) CFA_XSP16 add(XSP16, 10)
        CFI Block cfiCond117 Using cfiCommon0
        CFI (cfiCond117) NoFunction
        CFI (cfiCond117) Conditional ??CrossCallReturnLabel_61, ??CrossCallReturnLabel_5
        CFI (cfiCond117) R6 load(1, XDATA, add(CFA_XSP16, literal(-10)))
        CFI (cfiCond117) VB load(1, XDATA, add(CFA_XSP16, literal(-9)))
        CFI (cfiCond117) V0 load(1, XDATA, add(CFA_XSP16, literal(-8)))
        CFI (cfiCond117) V1 load(1, XDATA, add(CFA_XSP16, literal(-7)))
        CFI (cfiCond117) R7 load(1, XDATA, add(CFA_XSP16, literal(-6)))
        CFI (cfiCond117) ?RET_LOW load(1, XDATA, add(CFA_XSP16, literal(-5)))
        CFI (cfiCond117) ?RET_HIGH load(1, XDATA, add(CFA_XSP16, literal(-4)))
        CFI (cfiCond117) ?BRET_EXT load(1, XDATA, add(CFA_XSP16, literal(-3)))
        CFI (cfiCond117) DPL0 load(1, XDATA, add(CFA_XSP16, literal(-2)))
        CFI (cfiCond117) DPH0 load(1, XDATA, add(CFA_XSP16, literal(-1)))
        CFI (cfiCond117) CFA_SP SP+0
        CFI (cfiCond117) CFA_XSP16 add(XSP16, 10)
        CFI Block cfiCond118 Using cfiCommon0
        CFI (cfiCond118) NoFunction
        CFI (cfiCond118) Conditional ??CrossCallReturnLabel_61, ??CrossCallReturnLabel_6
        CFI (cfiCond118) R6 load(1, XDATA, add(CFA_XSP16, literal(-10)))
        CFI (cfiCond118) VB load(1, XDATA, add(CFA_XSP16, literal(-9)))
        CFI (cfiCond118) V0 load(1, XDATA, add(CFA_XSP16, literal(-8)))
        CFI (cfiCond118) V1 load(1, XDATA, add(CFA_XSP16, literal(-7)))
        CFI (cfiCond118) R7 load(1, XDATA, add(CFA_XSP16, literal(-6)))
        CFI (cfiCond118) ?RET_LOW load(1, XDATA, add(CFA_XSP16, literal(-5)))
        CFI (cfiCond118) ?RET_HIGH load(1, XDATA, add(CFA_XSP16, literal(-4)))
        CFI (cfiCond118) ?BRET_EXT load(1, XDATA, add(CFA_XSP16, literal(-3)))
        CFI (cfiCond118) DPL0 load(1, XDATA, add(CFA_XSP16, literal(-2)))
        CFI (cfiCond118) DPH0 load(1, XDATA, add(CFA_XSP16, literal(-1)))
        CFI (cfiCond118) CFA_SP SP+0
        CFI (cfiCond118) CFA_XSP16 add(XSP16, 10)
        CFI Block cfiPicker119 Using cfiCommon1
        CFI (cfiPicker119) NoFunction
        CFI (cfiPicker119) Picker
        MOV     DPTR,#g_pRcvPkt
        MOVX    A,@DPTR
        MOV     R0,A
        INC     DPTR
        CFI EndBlock cfiCond114
        CFI EndBlock cfiCond115
        CFI EndBlock cfiCond116
        CFI EndBlock cfiCond117
        CFI EndBlock cfiCond118
        CFI EndBlock cfiPicker119
        REQUIRE ??Subroutine25_0
        ; // Fall through to label ??Subroutine25_0

        RSEG BANKED_CODE:CODE:NOROOT(0)
??Subroutine25_0:
        CFI Block cfiCond120 Using cfiCommon0
        CFI NoFunction
        CFI Conditional ??CrossCallReturnLabel_58
        CFI R6 load(1, XDATA, add(CFA_XSP16, literal(-10)))
        CFI VB load(1, XDATA, add(CFA_XSP16, literal(-9)))
        CFI V0 load(1, XDATA, add(CFA_XSP16, literal(-8)))
        CFI V1 load(1, XDATA, add(CFA_XSP16, literal(-7)))
        CFI R7 load(1, XDATA, add(CFA_XSP16, literal(-6)))
        CFI ?RET_LOW load(1, XDATA, add(CFA_XSP16, literal(-5)))
        CFI ?RET_HIGH load(1, XDATA, add(CFA_XSP16, literal(-4)))
        CFI ?BRET_EXT load(1, XDATA, add(CFA_XSP16, literal(-3)))
        CFI DPL0 load(1, XDATA, add(CFA_XSP16, literal(-2)))
        CFI DPH0 load(1, XDATA, add(CFA_XSP16, literal(-1)))
        CFI CFA_SP SP+0
        CFI CFA_XSP16 add(XSP16, 10)
        CFI Block cfiCond121 Using cfiCommon0
        CFI (cfiCond121) NoFunction
        CFI (cfiCond121) Conditional ??CrossCallReturnLabel_59
        CFI (cfiCond121) R6 load(1, XDATA, add(CFA_XSP16, literal(-10)))
        CFI (cfiCond121) VB load(1, XDATA, add(CFA_XSP16, literal(-9)))
        CFI (cfiCond121) V0 load(1, XDATA, add(CFA_XSP16, literal(-8)))
        CFI (cfiCond121) V1 load(1, XDATA, add(CFA_XSP16, literal(-7)))
        CFI (cfiCond121) R7 load(1, XDATA, add(CFA_XSP16, literal(-6)))
        CFI (cfiCond121) ?RET_LOW load(1, XDATA, add(CFA_XSP16, literal(-5)))
        CFI (cfiCond121) ?RET_HIGH load(1, XDATA, add(CFA_XSP16, literal(-4)))
        CFI (cfiCond121) ?BRET_EXT load(1, XDATA, add(CFA_XSP16, literal(-3)))
        CFI (cfiCond121) DPL0 load(1, XDATA, add(CFA_XSP16, literal(-2)))
        CFI (cfiCond121) DPH0 load(1, XDATA, add(CFA_XSP16, literal(-1)))
        CFI (cfiCond121) CFA_SP SP+0
        CFI (cfiCond121) CFA_XSP16 add(XSP16, 10)
        CFI Block cfiCond122 Using cfiCommon0
        CFI (cfiCond122) NoFunction
        CFI (cfiCond122) Conditional ??CrossCallReturnLabel_60
        CFI (cfiCond122) R6 load(1, XDATA, add(CFA_XSP16, literal(-10)))
        CFI (cfiCond122) VB load(1, XDATA, add(CFA_XSP16, literal(-9)))
        CFI (cfiCond122) V0 load(1, XDATA, add(CFA_XSP16, literal(-8)))
        CFI (cfiCond122) V1 load(1, XDATA, add(CFA_XSP16, literal(-7)))
        CFI (cfiCond122) R7 load(1, XDATA, add(CFA_XSP16, literal(-6)))
        CFI (cfiCond122) ?RET_LOW load(1, XDATA, add(CFA_XSP16, literal(-5)))
        CFI (cfiCond122) ?RET_HIGH load(1, XDATA, add(CFA_XSP16, literal(-4)))
        CFI (cfiCond122) ?BRET_EXT load(1, XDATA, add(CFA_XSP16, literal(-3)))
        CFI (cfiCond122) DPL0 load(1, XDATA, add(CFA_XSP16, literal(-2)))
        CFI (cfiCond122) DPH0 load(1, XDATA, add(CFA_XSP16, literal(-1)))
        CFI (cfiCond122) CFA_SP SP+0
        CFI (cfiCond122) CFA_XSP16 add(XSP16, 10)
        CFI Block cfiCond123 Using cfiCommon0
        CFI (cfiCond123) NoFunction
        CFI (cfiCond123) Conditional ??CrossCallReturnLabel_61, ??CrossCallReturnLabel_3
        CFI (cfiCond123) R6 load(1, XDATA, add(CFA_XSP16, literal(-10)))
        CFI (cfiCond123) VB load(1, XDATA, add(CFA_XSP16, literal(-9)))
        CFI (cfiCond123) V0 load(1, XDATA, add(CFA_XSP16, literal(-8)))
        CFI (cfiCond123) V1 load(1, XDATA, add(CFA_XSP16, literal(-7)))
        CFI (cfiCond123) R7 load(1, XDATA, add(CFA_XSP16, literal(-6)))
        CFI (cfiCond123) ?RET_LOW load(1, XDATA, add(CFA_XSP16, literal(-5)))
        CFI (cfiCond123) ?RET_HIGH load(1, XDATA, add(CFA_XSP16, literal(-4)))
        CFI (cfiCond123) ?BRET_EXT load(1, XDATA, add(CFA_XSP16, literal(-3)))
        CFI (cfiCond123) DPL0 load(1, XDATA, add(CFA_XSP16, literal(-2)))
        CFI (cfiCond123) DPH0 load(1, XDATA, add(CFA_XSP16, literal(-1)))
        CFI (cfiCond123) CFA_SP SP+0
        CFI (cfiCond123) CFA_XSP16 add(XSP16, 10)
        CFI Block cfiCond124 Using cfiCommon0
        CFI (cfiCond124) NoFunction
        CFI (cfiCond124) Conditional ??CrossCallReturnLabel_61, ??CrossCallReturnLabel_4
        CFI (cfiCond124) R6 load(1, XDATA, add(CFA_XSP16, literal(-10)))
        CFI (cfiCond124) VB load(1, XDATA, add(CFA_XSP16, literal(-9)))
        CFI (cfiCond124) V0 load(1, XDATA, add(CFA_XSP16, literal(-8)))
        CFI (cfiCond124) V1 load(1, XDATA, add(CFA_XSP16, literal(-7)))
        CFI (cfiCond124) R7 load(1, XDATA, add(CFA_XSP16, literal(-6)))
        CFI (cfiCond124) ?RET_LOW load(1, XDATA, add(CFA_XSP16, literal(-5)))
        CFI (cfiCond124) ?RET_HIGH load(1, XDATA, add(CFA_XSP16, literal(-4)))
        CFI (cfiCond124) ?BRET_EXT load(1, XDATA, add(CFA_XSP16, literal(-3)))
        CFI (cfiCond124) DPL0 load(1, XDATA, add(CFA_XSP16, literal(-2)))
        CFI (cfiCond124) DPH0 load(1, XDATA, add(CFA_XSP16, literal(-1)))
        CFI (cfiCond124) CFA_SP SP+0
        CFI (cfiCond124) CFA_XSP16 add(XSP16, 10)
        CFI Block cfiCond125 Using cfiCommon0
        CFI (cfiCond125) NoFunction
        CFI (cfiCond125) Conditional ??CrossCallReturnLabel_61, ??CrossCallReturnLabel_5
        CFI (cfiCond125) R6 load(1, XDATA, add(CFA_XSP16, literal(-10)))
        CFI (cfiCond125) VB load(1, XDATA, add(CFA_XSP16, literal(-9)))
        CFI (cfiCond125) V0 load(1, XDATA, add(CFA_XSP16, literal(-8)))
        CFI (cfiCond125) V1 load(1, XDATA, add(CFA_XSP16, literal(-7)))
        CFI (cfiCond125) R7 load(1, XDATA, add(CFA_XSP16, literal(-6)))
        CFI (cfiCond125) ?RET_LOW load(1, XDATA, add(CFA_XSP16, literal(-5)))
        CFI (cfiCond125) ?RET_HIGH load(1, XDATA, add(CFA_XSP16, literal(-4)))
        CFI (cfiCond125) ?BRET_EXT load(1, XDATA, add(CFA_XSP16, literal(-3)))
        CFI (cfiCond125) DPL0 load(1, XDATA, add(CFA_XSP16, literal(-2)))
        CFI (cfiCond125) DPH0 load(1, XDATA, add(CFA_XSP16, literal(-1)))
        CFI (cfiCond125) CFA_SP SP+0
        CFI (cfiCond125) CFA_XSP16 add(XSP16, 10)
        CFI Block cfiCond126 Using cfiCommon0
        CFI (cfiCond126) NoFunction
        CFI (cfiCond126) Conditional ??CrossCallReturnLabel_61, ??CrossCallReturnLabel_6
        CFI (cfiCond126) R6 load(1, XDATA, add(CFA_XSP16, literal(-10)))
        CFI (cfiCond126) VB load(1, XDATA, add(CFA_XSP16, literal(-9)))
        CFI (cfiCond126) V0 load(1, XDATA, add(CFA_XSP16, literal(-8)))
        CFI (cfiCond126) V1 load(1, XDATA, add(CFA_XSP16, literal(-7)))
        CFI (cfiCond126) R7 load(1, XDATA, add(CFA_XSP16, literal(-6)))
        CFI (cfiCond126) ?RET_LOW load(1, XDATA, add(CFA_XSP16, literal(-5)))
        CFI (cfiCond126) ?RET_HIGH load(1, XDATA, add(CFA_XSP16, literal(-4)))
        CFI (cfiCond126) ?BRET_EXT load(1, XDATA, add(CFA_XSP16, literal(-3)))
        CFI (cfiCond126) DPL0 load(1, XDATA, add(CFA_XSP16, literal(-2)))
        CFI (cfiCond126) DPH0 load(1, XDATA, add(CFA_XSP16, literal(-1)))
        CFI (cfiCond126) CFA_SP SP+0
        CFI (cfiCond126) CFA_XSP16 add(XSP16, 10)
        CFI Block cfiPicker127 Using cfiCommon1
        CFI (cfiPicker127) NoFunction
        CFI (cfiPicker127) Picker
        MOVX    A,@DPTR
        MOV     DPH,A
        MOV     DPL,R0
        RET
        CFI EndBlock cfiCond120
        CFI EndBlock cfiCond121
        CFI EndBlock cfiCond122
        CFI EndBlock cfiCond123
        CFI EndBlock cfiCond124
        CFI EndBlock cfiCond125
        CFI EndBlock cfiCond126
        CFI EndBlock cfiPicker127
//  938 

        RSEG BANKED_CODE:CODE:NOROOT(0)
//  939 void NIK_LINK(void)
NIK_LINK:
        CFI Block cfiBlock128 Using cfiCommon0
        CFI Function NIK_LINK
        CODE
//  940 {
        FUNCALL NIK_LINK, MstPacketParse
        LOCFRAME ISTACK, 2, STACK
        LOCFRAME PSTACK, 0, STACK
        LOCFRAME XSTACK, 0, STACK
        LOCFRAME IOVERLAY, 0, STATIC
        LOCFRAME DOVERLAY, 0, STATIC
        ARGFRAME ISTACK, 2, STACK
        ARGFRAME PSTACK, 0, STACK
        ARGFRAME XSTACK, 0, STACK
        ARGFRAME IOVERLAY, 0, STATIC
        ARGFRAME DOVERLAY, 0, STATIC
        PUSH    DPL
        CFI DPL0 Frame(CFA_SP, 4)
        CFI CFA_SP SP+-4
        PUSH    DPH
        CFI DPH0 Frame(CFA_SP, 5)
        CFI CFA_SP SP+-5
        ; Saved register size: 2
        ; Auto size: 0
//  941 	//nwk_sendFrame(&g_frameInfo,MRFI_TX_TYPE_FORCED);
//  942 
//  943 #if 1	
//  944 	if(g_rcvPkt>0)
        MOV     DPTR,#g_rcvPkt
        MOVX    A,@DPTR
        JZ      ??NIK_LINK_0
//  945 	{
//  946 		g_rcvPkt = 0;
        CLR     A
        MOVX    @DPTR,A
//  947 		//tx_send_wait(&g_pRcvPkt->frame[35], 8);
//  948               //MRFI_DelayMs(20);
//  949               //tx_send("rcv...\r\n",sizeof("rcv...\r\n"));
//  950 		MstPacketParse();
        ; Setup parameters for call to function MstPacketParse
        LCALL   ??MstPacketParse?relay
//  951 	}
//  952 #endif
//  953 	//LED_RED_TOGGLE();
//  954 #if 0
//  955 	//memcpy(g_frameInfo.mrfiPkt.frame,g_veriBuf,43);
//  956 	memcpy(g_frameInfo.mrfiPkt.frame,g_mstBuf,34);
//  957 	g_frameInfo.fi_usage = FI_AVAILABLE;
//  958 	nwk_sendFrame(&g_frameInfo,MRFI_TX_TYPE_FORCED);
//  959 	MRFI_DelayMs(800);
//  960 #endif
//  961         
//  962 	//Mrfi_DelayUsecLong(800,0,NULL);	
//  963 	//MRFI_DelayMs(800);
//  964 }
??NIK_LINK_0:
        LJMP    ??Subroutine21_0 & 0xFFFF
        CFI EndBlock cfiBlock128
//  965 
//  966 #if defined(EXTENDED_API)
//  967 /**************************************************************************************
//  968  * @fn          SMPL_Unlink
//  969  *
//  970  * @brief       Tear down connection to a peer.
//  971  *
//  972  * input parameters
//  973  * @param   lid     - Link ID whose connection is to be terminated.
//  974  *
//  975  * output parameters
//  976  *
//  977  * @return   Status of operation. The Connection Table entry for the Link ID
//  978  *           is always freed successfuly. The returned status value is the
//  979  *           status of the _peer's_ connection tear-down as a result of the
//  980  *           message sent here.
//  981  *           SMPL_SUCCESS         Local and remote connection destroyed.
//  982  *           SMPL_BAD_PARAM       No local connection table entry for this Link ID
//  983  *           SMPL_TIMEOUT         No reply from peer.
//  984  *           SMPL_NO_PEER_UNLINK  Peer did not have a Connection Table entry for me.
//  985  */
//  986 smplStatus_t SMPL_Unlink(linkID_t lid)
//  987 {
//  988   return nwk_unlink(lid);
//  989 }
//  990 
//  991 /**************************************************************************************
//  992  * @fn          SMPL_Ping
//  993  *
//  994  * @brief       Ping a peer. Synchronous call. Although a link ID is used it is the
//  995  *              NWK Ping application that is pinged, not the peer of this Link ID. The
//  996  *              peer is not expected to be the responder to the frame sent from here.
//  997  *              This API is a proxy for a real ping since the application doesn't
//  998  *              have direct access to SimpliciTI device addresses. Kind of hokey but a
//  999  *              useful keep-alive mechanism without having to support it with
// 1000  *              user application service.
// 1001  *
// 1002  * input parameters
// 1003  * @param   lid  - The link ID whose peer device address is used to direct the NWK Ping
// 1004  *
// 1005  * output parameters
// 1006  *
// 1007  * @return   Status of operation.
// 1008  */
// 1009 smplStatus_t SMPL_Ping(linkID_t lid)
// 1010 {
// 1011   return nwk_ping(lid);
// 1012 }
// 1013 
// 1014 /**************************************************************************************
// 1015  * @fn          SMPL_Commission
// 1016  *
// 1017  * @brief       Commission a connection.
// 1018  *
// 1019  * input parameters
// 1020  * @param   peerAddr  - Pointer to address of the peer for this connection
// 1021  * @param    locPort  - Port on which to listen for messages from the peer
// 1022  * @param    rmtPort  - Port on which to send messages to the peer.
// 1023  * @param        lid  - Pointer to Link ID object. If content of location is
// 1024  *                      non-zero on input the value is placed in the Connection
// 1025  *                      object.
// 1026  *
// 1027  * output parameters
// 1028  * @param        lid  - Pointer to Link ID object. If content of location is zero
// 1029  *                      on input the value in the Connection object is stored there.
// 1030  *
// 1031  * @return   SMPL_SUCCESS
// 1032  *           SMPL_NOMEM     - No room left in Connection table.
// 1033  *           SMPL_BAD_PARAM - A pointer to a Link object was not supplied.
// 1034  */
// 1035 smplStatus_t SMPL_Commission(addr_t *peerAddr, uint8_t locPort, uint8_t rmtPort, linkID_t *lid)
// 1036 {
// 1037   connInfo_t   *pCInfo = nwk_getNextConnection();
// 1038   smplStatus_t  rc     = SMPL_BAD_PARAM;
// 1039 
// 1040   do {
// 1041     if (pCInfo)
// 1042     {
// 1043       /* sanity checks... */
// 1044 
// 1045       /* Check port info. */
// 1046       if ((locPort > SMPL_PORT_STATIC_MAX) || (locPort < (SMPL_PORT_STATIC_MAX - PORT_USER_STATIC_NUM + 1)))
// 1047       {
// 1048         continue;
// 1049       }
// 1050 
// 1051       if ((rmtPort > SMPL_PORT_STATIC_MAX) || (rmtPort < (SMPL_PORT_STATIC_MAX - PORT_USER_STATIC_NUM + 1)))
// 1052       {
// 1053         continue;
// 1054       }
// 1055 
// 1056       /* Must supply a pointer to the Link ID object */
// 1057       if (!lid)
// 1058       {
// 1059         /* No Link ID pointer supplied */
// 1060         continue;
// 1061       }
// 1062 
// 1063       /* we're sane */
// 1064 
// 1065       /* Use the value generated at connection object assign time. */
// 1066       *lid = pCInfo->thisLinkID;
// 1067 
// 1068       /* store peer's address */
// 1069       memcpy(pCInfo->peerAddr, peerAddr, NET_ADDR_SIZE);
// 1070 
// 1071       /* store port info */
// 1072       pCInfo->portRx = locPort;
// 1073       pCInfo->portTx = rmtPort;
// 1074 
// 1075       pCInfo->hops2target = MAX_HOPS;
// 1076 
// 1077       rc = SMPL_SUCCESS;
// 1078     }
// 1079     else
// 1080     {
// 1081       /* No room in Connection table */
// 1082       rc = SMPL_NOMEM;
// 1083     }
// 1084   } while (0);
// 1085 
// 1086   if ((SMPL_SUCCESS != rc) && pCInfo)
// 1087   {
// 1088     nwk_freeConnection(pCInfo);
// 1089   }
// 1090 
// 1091   return rc;
// 1092 }
// 1093 #endif   /* EXTENDED_API */
// 1094 
// 1095 /******************************************************************************
// 1096  * @fn          SMPL_Ioctl
// 1097  *
// 1098  * @brief       This routine supplies the SimpliciTI IOCTL support.
// 1099  *
// 1100  * input parameters
// 1101  * @param   object   - The IOCTL target object
// 1102  * @param   action   - The IOCTL target action on the object
// 1103  * @param   val      - pointer to value. exact forn depends on object type.
// 1104  *
// 1105  * output parameters
// 1106  *
// 1107  * @return   Status of action. Value depends on object, action, and result.
// 1108  *
// 1109  *           SMPL_BAD_PARAM is returned if this API is called before
// 1110  *                          initialization and the object is not one of
// 1111  *                          the valid exceptions.
// 1112  */

        RSEG BANKED_CODE:CODE:NOROOT(0)
// 1113 smplStatus_t SMPL_Ioctl(ioctlObject_t object, ioctlAction_t action, void *val)
SMPL_Ioctl:
        CFI Block cfiBlock129 Using cfiCommon0
        CFI Function SMPL_Ioctl
        CODE
// 1114 {
        FUNCALL SMPL_Ioctl, nwk_connectionControl
        LOCFRAME ISTACK, 0, STACK
        LOCFRAME PSTACK, 0, STACK
        LOCFRAME XSTACK, 12, STACK
        LOCFRAME IOVERLAY, 0, STATIC
        LOCFRAME DOVERLAY, 0, STATIC
        ARGFRAME ISTACK, 0, STACK
        ARGFRAME PSTACK, 0, STACK
        ARGFRAME XSTACK, 12, STACK
        ARGFRAME IOVERLAY, 0, STATIC
        ARGFRAME DOVERLAY, 0, STATIC
        FUNCALL SMPL_Ioctl, nwk_deviceAddress
        LOCFRAME ISTACK, 0, STACK
        LOCFRAME PSTACK, 0, STACK
        LOCFRAME XSTACK, 12, STACK
        LOCFRAME IOVERLAY, 0, STATIC
        LOCFRAME DOVERLAY, 0, STATIC
        ARGFRAME ISTACK, 0, STACK
        ARGFRAME PSTACK, 0, STACK
        ARGFRAME XSTACK, 12, STACK
        ARGFRAME IOVERLAY, 0, STATIC
        ARGFRAME DOVERLAY, 0, STATIC
        FUNCALL SMPL_Ioctl, nwk_rawSend
        LOCFRAME ISTACK, 0, STACK
        LOCFRAME PSTACK, 0, STACK
        LOCFRAME XSTACK, 12, STACK
        LOCFRAME IOVERLAY, 0, STATIC
        LOCFRAME DOVERLAY, 0, STATIC
        ARGFRAME ISTACK, 0, STACK
        ARGFRAME PSTACK, 0, STACK
        ARGFRAME XSTACK, 12, STACK
        ARGFRAME IOVERLAY, 0, STATIC
        ARGFRAME DOVERLAY, 0, STATIC
        FUNCALL SMPL_Ioctl, nwk_rawReceive
        LOCFRAME ISTACK, 0, STACK
        LOCFRAME PSTACK, 0, STACK
        LOCFRAME XSTACK, 12, STACK
        LOCFRAME IOVERLAY, 0, STATIC
        LOCFRAME DOVERLAY, 0, STATIC
        ARGFRAME ISTACK, 0, STACK
        ARGFRAME PSTACK, 0, STACK
        ARGFRAME XSTACK, 12, STACK
        ARGFRAME IOVERLAY, 0, STATIC
        ARGFRAME DOVERLAY, 0, STATIC
        FUNCALL SMPL_Ioctl, nwk_radioControl
        LOCFRAME ISTACK, 0, STACK
        LOCFRAME PSTACK, 0, STACK
        LOCFRAME XSTACK, 12, STACK
        LOCFRAME IOVERLAY, 0, STATIC
        LOCFRAME DOVERLAY, 0, STATIC
        ARGFRAME ISTACK, 0, STACK
        ARGFRAME PSTACK, 0, STACK
        ARGFRAME XSTACK, 12, STACK
        ARGFRAME IOVERLAY, 0, STATIC
        ARGFRAME DOVERLAY, 0, STATIC
        FUNCALL SMPL_Ioctl, nwk_getFWVersion
        LOCFRAME ISTACK, 0, STACK
        LOCFRAME PSTACK, 0, STACK
        LOCFRAME XSTACK, 14, STACK
        LOCFRAME IOVERLAY, 0, STATIC
        LOCFRAME DOVERLAY, 0, STATIC
        ARGFRAME ISTACK, 0, STACK
        ARGFRAME PSTACK, 0, STACK
        ARGFRAME XSTACK, 14, STACK
        ARGFRAME IOVERLAY, 0, STATIC
        ARGFRAME DOVERLAY, 0, STATIC
        FUNCALL SMPL_Ioctl, memcpy
        LOCFRAME ISTACK, 0, STACK
        LOCFRAME PSTACK, 0, STACK
        LOCFRAME XSTACK, 14, STACK
        LOCFRAME IOVERLAY, 0, STATIC
        LOCFRAME DOVERLAY, 0, STATIC
        ARGFRAME ISTACK, 0, STACK
        ARGFRAME PSTACK, 0, STACK
        ARGFRAME XSTACK, 14, STACK
        ARGFRAME IOVERLAY, 0, STATIC
        ARGFRAME DOVERLAY, 0, STATIC
        FUNCALL SMPL_Ioctl, nwk_getProtocolVersion
        LOCFRAME ISTACK, 0, STACK
        LOCFRAME PSTACK, 0, STACK
        LOCFRAME XSTACK, 12, STACK
        LOCFRAME IOVERLAY, 0, STATIC
        LOCFRAME DOVERLAY, 0, STATIC
        ARGFRAME ISTACK, 0, STACK
        ARGFRAME PSTACK, 0, STACK
        ARGFRAME XSTACK, 12, STACK
        ARGFRAME IOVERLAY, 0, STATIC
        ARGFRAME DOVERLAY, 0, STATIC
        MOV     A,#-0xc
        LCALL   ?BANKED_ENTER_XDATA
        CFI DPH0 load(1, XDATA, add(CFA_XSP16, literal(-1)))
        CFI DPL0 load(1, XDATA, add(CFA_XSP16, literal(-2)))
        CFI ?BRET_EXT load(1, XDATA, add(CFA_XSP16, literal(-3)))
        CFI ?RET_HIGH load(1, XDATA, add(CFA_XSP16, literal(-4)))
        CFI ?RET_LOW load(1, XDATA, add(CFA_XSP16, literal(-5)))
        CFI R7 load(1, XDATA, add(CFA_XSP16, literal(-6)))
        CFI V3 load(1, XDATA, add(CFA_XSP16, literal(-7)))
        CFI V2 load(1, XDATA, add(CFA_XSP16, literal(-8)))
        CFI V1 load(1, XDATA, add(CFA_XSP16, literal(-9)))
        CFI V0 load(1, XDATA, add(CFA_XSP16, literal(-10)))
        CFI VB load(1, XDATA, add(CFA_XSP16, literal(-11)))
        CFI R6 load(1, XDATA, add(CFA_XSP16, literal(-12)))
        CFI CFA_SP SP+0
        CFI CFA_XSP16 add(XSP16, 12)
        ; Saved register size: 12
        ; Auto size: 0
        MOV     ?V0 + 0,R2
        MOV     A,R4
        MOV     R6,A
        MOV     A,R5
        MOV     R7,A
// 1115   smplStatus_t rc;
// 1116 
// 1117   /* if init hasn't occurred see if access is still valid */
// 1118   if (!sInit_done && !ioctlPreInitAccessIsOK(object))
        MOV     DPTR,#sInit_done
        MOVX    A,@DPTR
        JNZ     ??SMPL_Ioctl_0
        MOV     A,R1
        ADD     A,#-0x5
        JZ      ??SMPL_Ioctl_0
        ADD     A,#-0x5
        JZ      ??SMPL_Ioctl_0
// 1119   {
// 1120     return SMPL_BAD_PARAM;
??SMPL_Ioctl_1:
        MOV     R1,#0x2
        LJMP    ??SMPL_Ioctl_2 & 0xFFFF
// 1121   }
// 1122 
// 1123   switch (object)
??SMPL_Ioctl_0:
        MOV     A,R1
        ADD     A,#-0x2
        JZ      ??SMPL_Ioctl_3
        DEC     A
        JZ      ??SMPL_Ioctl_4
        ADD     A,#-0x2
        JZ      ??SMPL_Ioctl_5
        DEC     A
        JZ      ??SMPL_Ioctl_6
        DEC     A
        JZ      ??SMPL_Ioctl_7
        DEC     A
        JZ      ??SMPL_Ioctl_8
        SJMP    ??SMPL_Ioctl_1
// 1124   {
// 1125 #if defined(EXTENDED_API)
// 1126     case IOCTL_OBJ_TOKEN:
// 1127       {
// 1128         ioctlToken_t *t = (ioctlToken_t *)val;
// 1129 
// 1130         rc = SMPL_SUCCESS;
// 1131         if (TT_LINK == t->tokenType)
// 1132         {
// 1133           if (IOCTL_ACT_SET == action)
// 1134           {
// 1135             nwk_setLinkToken(t->token.linkToken);
// 1136           }
// 1137           else if (IOCTL_ACT_GET == action)
// 1138           {
// 1139             nwk_getLinkToken(&t->token.linkToken);
// 1140           }
// 1141           else
// 1142           {
// 1143             rc = SMPL_BAD_PARAM;
// 1144           }
// 1145         }
// 1146         else if (TT_JOIN == t->tokenType)
// 1147         {
// 1148           if (IOCTL_ACT_SET == action)
// 1149           {
// 1150             nwk_setJoinToken(t->token.joinToken);
// 1151           }
// 1152           else if (IOCTL_ACT_GET == action)
// 1153           {
// 1154             nwk_getJoinToken(&t->token.joinToken);
// 1155           }
// 1156           else
// 1157           {
// 1158             rc = SMPL_BAD_PARAM;
// 1159           }
// 1160         }
// 1161         else
// 1162         {
// 1163           rc = SMPL_BAD_PARAM;
// 1164         }
// 1165       }
// 1166       break;
// 1167 
// 1168     case IOCTL_OBJ_NVOBJ:
// 1169       rc = nwk_NVObj(action, (ioctlNVObj_t *)val);
// 1170       break;
// 1171 #endif  /* EXTENDED_API */
// 1172 
// 1173     case IOCTL_OBJ_CONNOBJ:
// 1174       rc = nwk_connectionControl(action, val);
??SMPL_Ioctl_6:
        ; Setup parameters for call to function nwk_connectionControl
        MOV     A,R6
        MOV     R2,A
        MOV     A,R7
        MOV     R3,A
        MOV     R1,?V0 + 0
        LCALL   ??nwk_connectionControl?relay
// 1175       break;
        SJMP    ??SMPL_Ioctl_2
// 1176 
// 1177     case IOCTL_OBJ_ADDR:
// 1178       if ((IOCTL_ACT_GET == action) || (IOCTL_ACT_SET == action))
??SMPL_Ioctl_5:
        MOV     A,#0x1
        XRL     A,?V0 + 0
        JZ      ??SMPL_Ioctl_9
        MOV     A,R2
        JNZ     ??SMPL_Ioctl_1
// 1179       {
// 1180         rc = nwk_deviceAddress(action, (addr_t *)val);
??SMPL_Ioctl_9:
        ; Setup parameters for call to function nwk_deviceAddress
        MOV     A,R6
        MOV     R2,A
        MOV     A,R7
        MOV     R3,A
        MOV     R1,?V0 + 0
        LCALL   ??nwk_deviceAddress?relay
        SJMP    ??SMPL_Ioctl_2
// 1181       }
// 1182       else
// 1183       {
// 1184         rc = SMPL_BAD_PARAM;
??SMPL_Ioctl_10:
        SJMP    ??SMPL_Ioctl_1
// 1185       }
// 1186       break;
// 1187 
// 1188     case IOCTL_OBJ_RAW_IO:
// 1189       if (IOCTL_ACT_WRITE == action)
??SMPL_Ioctl_3:
        MOV     A,#0x3
        XRL     A,?V0 + 0
        JNZ     ??SMPL_Ioctl_11
// 1190       {
// 1191         rc = nwk_rawSend((ioctlRawSend_t *)val);
        ; Setup parameters for call to function nwk_rawSend
        MOV     A,R6
        MOV     R2,A
        MOV     A,R7
        MOV     R3,A
        LCALL   ??nwk_rawSend?relay
        SJMP    ??SMPL_Ioctl_2
// 1192       }
// 1193       else if (IOCTL_ACT_READ == action)
??SMPL_Ioctl_11:
        MOV     A,#0x2
        XRL     A,?V0 + 0
        JNZ     ??SMPL_Ioctl_1
// 1194       {
// 1195         rc = nwk_rawReceive((ioctlRawReceive_t *)val);
        ; Setup parameters for call to function nwk_rawReceive
        MOV     A,R6
        MOV     R2,A
        MOV     A,R7
        MOV     R3,A
        LCALL   ??nwk_rawReceive?relay
        SJMP    ??SMPL_Ioctl_2
// 1196       }
// 1197       else
// 1198       {
// 1199         rc = SMPL_BAD_PARAM;
// 1200       }
// 1201       break;
// 1202 
// 1203     case IOCTL_OBJ_RADIO:
// 1204       rc = nwk_radioControl(action, val);
??SMPL_Ioctl_4:
        ; Setup parameters for call to function nwk_radioControl
        MOV     A,R6
        MOV     R2,A
        MOV     A,R7
        MOV     R3,A
        MOV     R1,?V0 + 0
        LCALL   ??nwk_radioControl?relay
// 1205       break;
        SJMP    ??SMPL_Ioctl_2
// 1206 
// 1207 #if defined(ACCESS_POINT)
// 1208     case IOCTL_OBJ_AP_JOIN:
// 1209       rc = nwk_joinContext(action);
// 1210       break;
// 1211 #endif
// 1212 #if defined(FREQUENCY_AGILITY)
// 1213     case IOCTL_OBJ_FREQ:
// 1214       rc = nwk_freqControl(action, val);
// 1215       break;
// 1216 #endif
// 1217 #if defined NWK_PLL
// 1218     case IOCTL_OBJ_PLL:
// 1219       rc = nwk_pllControl(action, val);
// 1220       break;
// 1221 #endif
// 1222     case IOCTL_OBJ_FWVER:
// 1223       if (IOCTL_ACT_GET == action)
??SMPL_Ioctl_7:
        MOV     A,#0x1
        XRL     A,?V0 + 0
        JNZ     ??SMPL_Ioctl_1
// 1224       {
// 1225         memcpy(val, nwk_getFWVersion(), SMPL_FWVERSION_SIZE);
        ; Setup parameters for call to function memcpy
        MOV     ?V0 + 2,#0x4
        MOV     ?V0 + 3,#0x0
        MOV     R0,#?V0 + 2
        LCALL   ?PUSH_XSTACK_I_TWO
        CFI CFA_XSP16 add(XSP16, 14)
        ; Setup parameters for call to function nwk_getFWVersion
        LCALL   ??nwk_getFWVersion?relay
        MOV     A,R2
        MOV     R4,A
        MOV     A,R3
        MOV     R5,A
        MOV     A,R6
        MOV     R2,A
        MOV     A,R7
        MOV     R3,A
        LCALL   ??Subroutine26_0 & 0xFFFF
??CrossCallReturnLabel_65:
        LCALL   ?DEALLOC_XSTACK8
        CFI CFA_XSP16 add(XSP16, 12)
// 1226         rc = SMPL_SUCCESS;
        SJMP    ??SMPL_Ioctl_12
// 1227       }
// 1228       else
// 1229       {
// 1230         rc = SMPL_BAD_PARAM;
// 1231       }
// 1232       break;
// 1233 
// 1234     case IOCTL_OBJ_PROTOVER:
// 1235       if (IOCTL_ACT_GET == action)
??SMPL_Ioctl_8:
        MOV     A,#0x1
        XRL     A,?V0 + 0
        JNZ     ??SMPL_Ioctl_10
// 1236       {
// 1237         *((uint8_t *)val) = nwk_getProtocolVersion();
        ; Setup parameters for call to function nwk_getProtocolVersion
        LCALL   ??nwk_getProtocolVersion?relay
        MOV     A,R1
        MOV     DPL,R6
        MOV     DPH,R7
        MOVX    @DPTR,A
// 1238         rc = SMPL_SUCCESS;
??SMPL_Ioctl_12:
        MOV     R1,#0x0
// 1239       }
// 1240       else
// 1241       {
// 1242         rc = SMPL_BAD_PARAM;
// 1243       }
// 1244       break;
// 1245 
// 1246     default:
// 1247       rc = SMPL_BAD_PARAM;
// 1248       break;
// 1249   }
// 1250 
// 1251   return rc;
??SMPL_Ioctl_2:
        LJMP    ?Subroutine0 & 0xFFFF
        CFI EndBlock cfiBlock129
// 1252 }

        RSEG BANKED_CODE:CODE:NOROOT(0)
?Subroutine16:
        CFI Block cfiCond130 Using cfiCommon0
        CFI NoFunction
        CFI Conditional ??CrossCallReturnLabel_62
        CFI R6 load(1, XDATA, add(CFA_XSP16, literal(-10)))
        CFI VB load(1, XDATA, add(CFA_XSP16, literal(-9)))
        CFI V0 load(1, XDATA, add(CFA_XSP16, literal(-8)))
        CFI V1 load(1, XDATA, add(CFA_XSP16, literal(-7)))
        CFI R7 load(1, XDATA, add(CFA_XSP16, literal(-6)))
        CFI ?RET_LOW load(1, XDATA, add(CFA_XSP16, literal(-5)))
        CFI ?RET_HIGH load(1, XDATA, add(CFA_XSP16, literal(-4)))
        CFI ?BRET_EXT load(1, XDATA, add(CFA_XSP16, literal(-3)))
        CFI DPL0 load(1, XDATA, add(CFA_XSP16, literal(-2)))
        CFI DPH0 load(1, XDATA, add(CFA_XSP16, literal(-1)))
        CFI CFA_SP SP+0
        CFI CFA_XSP16 add(XSP16, 12)
        CFI Block cfiCond131 Using cfiCommon0
        CFI (cfiCond131) NoFunction
        CFI (cfiCond131) Conditional ??CrossCallReturnLabel_63
        CFI (cfiCond131) R6 load(1, XDATA, add(CFA_XSP16, literal(-10)))
        CFI (cfiCond131) VB load(1, XDATA, add(CFA_XSP16, literal(-9)))
        CFI (cfiCond131) V0 load(1, XDATA, add(CFA_XSP16, literal(-8)))
        CFI (cfiCond131) V1 load(1, XDATA, add(CFA_XSP16, literal(-7)))
        CFI (cfiCond131) R7 load(1, XDATA, add(CFA_XSP16, literal(-6)))
        CFI (cfiCond131) ?RET_LOW load(1, XDATA, add(CFA_XSP16, literal(-5)))
        CFI (cfiCond131) ?RET_HIGH load(1, XDATA, add(CFA_XSP16, literal(-4)))
        CFI (cfiCond131) ?BRET_EXT load(1, XDATA, add(CFA_XSP16, literal(-3)))
        CFI (cfiCond131) DPL0 load(1, XDATA, add(CFA_XSP16, literal(-2)))
        CFI (cfiCond131) DPH0 load(1, XDATA, add(CFA_XSP16, literal(-1)))
        CFI (cfiCond131) CFA_SP SP+0
        CFI (cfiCond131) CFA_XSP16 add(XSP16, 12)
        CFI Block cfiPicker132 Using cfiCommon1
        CFI (cfiPicker132) NoFunction
        CFI (cfiPicker132) Picker
        MOV     R2,#(g_frameInfo + 2) & 0xff
        MOV     R3,#((g_frameInfo + 2) >> 8) & 0xff
        CFI EndBlock cfiCond130
        CFI EndBlock cfiCond131
        CFI EndBlock cfiPicker132
        REQUIRE ??Subroutine26_0
        ; // Fall through to label ??Subroutine26_0

        RSEG BANKED_CODE:CODE:NOROOT(0)
??Subroutine26_0:
        CFI Block cfiCond133 Using cfiCommon0
        CFI NoFunction
        CFI Conditional ??CrossCallReturnLabel_64
        CFI R6 load(1, XDATA, add(CFA_XSP16, literal(-18)))
        CFI VB load(1, XDATA, add(CFA_XSP16, literal(-17)))
        CFI V0 load(1, XDATA, add(CFA_XSP16, literal(-16)))
        CFI V1 load(1, XDATA, add(CFA_XSP16, literal(-15)))
        CFI V2 load(1, XDATA, add(CFA_XSP16, literal(-14)))
        CFI V3 load(1, XDATA, add(CFA_XSP16, literal(-13)))
        CFI V4 load(1, XDATA, add(CFA_XSP16, literal(-12)))
        CFI V5 load(1, XDATA, add(CFA_XSP16, literal(-11)))
        CFI V6 load(1, XDATA, add(CFA_XSP16, literal(-10)))
        CFI V7 load(1, XDATA, add(CFA_XSP16, literal(-9)))
        CFI V8 load(1, XDATA, add(CFA_XSP16, literal(-8)))
        CFI V9 load(1, XDATA, add(CFA_XSP16, literal(-7)))
        CFI R7 load(1, XDATA, add(CFA_XSP16, literal(-6)))
        CFI ?RET_LOW load(1, XDATA, add(CFA_XSP16, literal(-5)))
        CFI ?RET_HIGH load(1, XDATA, add(CFA_XSP16, literal(-4)))
        CFI ?BRET_EXT load(1, XDATA, add(CFA_XSP16, literal(-3)))
        CFI DPL0 load(1, XDATA, add(CFA_XSP16, literal(-2)))
        CFI DPH0 load(1, XDATA, add(CFA_XSP16, literal(-1)))
        CFI CFA_SP SP+0
        CFI CFA_XSP16 add(XSP16, 20)
        CFI Block cfiCond134 Using cfiCommon0
        CFI (cfiCond134) NoFunction
        CFI (cfiCond134) Conditional ??CrossCallReturnLabel_65
        CFI (cfiCond134) R6 load(1, XDATA, add(CFA_XSP16, literal(-12)))
        CFI (cfiCond134) VB load(1, XDATA, add(CFA_XSP16, literal(-11)))
        CFI (cfiCond134) V0 load(1, XDATA, add(CFA_XSP16, literal(-10)))
        CFI (cfiCond134) V1 load(1, XDATA, add(CFA_XSP16, literal(-9)))
        CFI (cfiCond134) V2 load(1, XDATA, add(CFA_XSP16, literal(-8)))
        CFI (cfiCond134) V3 load(1, XDATA, add(CFA_XSP16, literal(-7)))
        CFI (cfiCond134) R7 load(1, XDATA, add(CFA_XSP16, literal(-6)))
        CFI (cfiCond134) ?RET_LOW load(1, XDATA, add(CFA_XSP16, literal(-5)))
        CFI (cfiCond134) ?RET_HIGH load(1, XDATA, add(CFA_XSP16, literal(-4)))
        CFI (cfiCond134) ?BRET_EXT load(1, XDATA, add(CFA_XSP16, literal(-3)))
        CFI (cfiCond134) DPL0 load(1, XDATA, add(CFA_XSP16, literal(-2)))
        CFI (cfiCond134) DPH0 load(1, XDATA, add(CFA_XSP16, literal(-1)))
        CFI (cfiCond134) CFA_SP SP+0
        CFI (cfiCond134) CFA_XSP16 add(XSP16, 14)
        CFI Block cfiCond135 Using cfiCommon0
        CFI (cfiCond135) NoFunction
        CFI (cfiCond135) Conditional ??CrossCallReturnLabel_62
        CFI (cfiCond135) R6 load(1, XDATA, add(CFA_XSP16, literal(-10)))
        CFI (cfiCond135) VB load(1, XDATA, add(CFA_XSP16, literal(-9)))
        CFI (cfiCond135) V0 load(1, XDATA, add(CFA_XSP16, literal(-8)))
        CFI (cfiCond135) V1 load(1, XDATA, add(CFA_XSP16, literal(-7)))
        CFI (cfiCond135) R7 load(1, XDATA, add(CFA_XSP16, literal(-6)))
        CFI (cfiCond135) ?RET_LOW load(1, XDATA, add(CFA_XSP16, literal(-5)))
        CFI (cfiCond135) ?RET_HIGH load(1, XDATA, add(CFA_XSP16, literal(-4)))
        CFI (cfiCond135) ?BRET_EXT load(1, XDATA, add(CFA_XSP16, literal(-3)))
        CFI (cfiCond135) DPL0 load(1, XDATA, add(CFA_XSP16, literal(-2)))
        CFI (cfiCond135) DPH0 load(1, XDATA, add(CFA_XSP16, literal(-1)))
        CFI (cfiCond135) CFA_SP SP+0
        CFI (cfiCond135) CFA_XSP16 add(XSP16, 12)
        CFI Block cfiCond136 Using cfiCommon0
        CFI (cfiCond136) NoFunction
        CFI (cfiCond136) Conditional ??CrossCallReturnLabel_63
        CFI (cfiCond136) R6 load(1, XDATA, add(CFA_XSP16, literal(-10)))
        CFI (cfiCond136) VB load(1, XDATA, add(CFA_XSP16, literal(-9)))
        CFI (cfiCond136) V0 load(1, XDATA, add(CFA_XSP16, literal(-8)))
        CFI (cfiCond136) V1 load(1, XDATA, add(CFA_XSP16, literal(-7)))
        CFI (cfiCond136) R7 load(1, XDATA, add(CFA_XSP16, literal(-6)))
        CFI (cfiCond136) ?RET_LOW load(1, XDATA, add(CFA_XSP16, literal(-5)))
        CFI (cfiCond136) ?RET_HIGH load(1, XDATA, add(CFA_XSP16, literal(-4)))
        CFI (cfiCond136) ?BRET_EXT load(1, XDATA, add(CFA_XSP16, literal(-3)))
        CFI (cfiCond136) DPL0 load(1, XDATA, add(CFA_XSP16, literal(-2)))
        CFI (cfiCond136) DPH0 load(1, XDATA, add(CFA_XSP16, literal(-1)))
        CFI (cfiCond136) CFA_SP SP+0
        CFI (cfiCond136) CFA_XSP16 add(XSP16, 12)
        CFI Block cfiPicker137 Using cfiCommon1
        CFI (cfiPicker137) NoFunction
        CFI (cfiPicker137) Picker
        LCALL   ??memcpy?relay
        MOV     A,#0x2
        RET
        CFI EndBlock cfiCond133
        CFI EndBlock cfiCond134
        CFI EndBlock cfiCond135
        CFI EndBlock cfiCond136
        CFI EndBlock cfiPicker137

        RSEG BANK_RELAYS:CODE:REORDER:NOROOT(0)
??SMPL_Init?relay:
        LCALL   ?BDISPATCH
        DATA
        DC24    SMPL_Init

        RSEG BANK_RELAYS:CODE:REORDER:NOROOT(0)
??SMPL_LinkListen?relay:
        LCALL   ?BDISPATCH
        DATA
        DC24    SMPL_LinkListen

        RSEG BANK_RELAYS:CODE:REORDER:NOROOT(0)
??SMPL_Send?relay:
        LCALL   ?BDISPATCH
        DATA
        DC24    SMPL_Send

        RSEG BANK_RELAYS:CODE:REORDER:NOROOT(0)
??SMPL_SendOpt?relay:
        LCALL   ?BDISPATCH
        DATA
        DC24    SMPL_SendOpt

        RSEG BANK_RELAYS:CODE:REORDER:NOROOT(0)
??SMPL_Receive?relay:
        LCALL   ?BDISPATCH
        DATA
        DC24    SMPL_Receive

        RSEG BANK_RELAYS:CODE:REORDER:NOROOT(0)
??SMPL_Link?relay:
        LCALL   ?BDISPATCH
        DATA
        DC24    SMPL_Link

        RSEG BANK_RELAYS:CODE:REORDER:NOROOT(0)
??NIK_Init?relay:
        LCALL   ?BDISPATCH
        DATA
        DC24    NIK_Init

        RSEG BANK_RELAYS:CODE:REORDER:NOROOT(0)
??macDelay?relay:
        LCALL   ?BDISPATCH
        DATA
        DC24    macDelay

        RSEG BANK_RELAYS:CODE:REORDER:NOROOT(0)
??CalcSum?relay:
        LCALL   ?BDISPATCH
        DATA
        DC24    CalcSum

        RSEG BANK_RELAYS:CODE:REORDER:NOROOT(0)
??FlashInfoSend?relay:
        LCALL   ?BDISPATCH
        DATA
        DC24    FlashInfoSend

        RSEG BANK_RELAYS:CODE:REORDER:NOROOT(0)
??PreFlashInfoSend?relay:
        LCALL   ?BDISPATCH
        DATA
        DC24    PreFlashInfoSend

        RSEG BANK_RELAYS:CODE:REORDER:NOROOT(0)
??RptFlashInfoSend?relay:
        LCALL   ?BDISPATCH
        DATA
        DC24    RptFlashInfoSend

        RSEG BANK_RELAYS:CODE:REORDER:NOROOT(0)
??UartSctSend?relay:
        LCALL   ?BDISPATCH
        DATA
        DC24    UartSctSend

        RSEG BANK_RELAYS:CODE:REORDER:NOROOT(0)
??MstPacketParse?relay:
        LCALL   ?BDISPATCH
        DATA
        DC24    MstPacketParse

        RSEG BANK_RELAYS:CODE:REORDER:NOROOT(0)
??NIK_LINK?relay:
        LCALL   ?BDISPATCH
        DATA
        DC24    NIK_LINK

        RSEG BANK_RELAYS:CODE:REORDER:NOROOT(0)
??SMPL_Ioctl?relay:
        LCALL   ?BDISPATCH
        DATA
        DC24    SMPL_Ioctl

        END
// 1253 
// 1254 /******************************************************************************
// 1255  * @fn          ioctlPreInitAccessIsOK
// 1256  *
// 1257  * @brief       Is the request legal yet? Most requests are not legal before
// 1258  *              SMPL_Init().
// 1259  *
// 1260  * input parameters
// 1261  * @param   object   - The IOCTL target object
// 1262  *
// 1263  * output parameters
// 1264  *
// 1265  * @return   Returns non-zero if request should be honored for further
// 1266  *           processing, otherwise returns 0. This function does not
// 1267  *           determine of the object-action pair are valid. It only knows
// 1268  *           about exceptions, i.e., those that are valid before the
// 1269  *           SMPL_Init() call.
// 1270  *
// 1271  */
// 1272 static uint8_t ioctlPreInitAccessIsOK(ioctlObject_t object)
// 1273 {
// 1274   uint8_t rc;
// 1275 
// 1276   /* Currently the only legal pre-init accesses are the address and
// 1277    * the token objects.
// 1278    */
// 1279   switch (object)
// 1280   {
// 1281     case IOCTL_OBJ_ADDR:
// 1282     case IOCTL_OBJ_TOKEN:
// 1283       rc = 1;   /* legal */
// 1284       break;
// 1285 
// 1286     default:
// 1287       rc = 0;   /* not legal when init not done */
// 1288       break;
// 1289   }
// 1290 
// 1291   return rc;
// 1292 }
// 
// 2 230 bytes in segment BANKED_CODE
//    96 bytes in segment BANK_RELAYS
//     2 bytes in segment SFR_AN
//   368 bytes in segment XDATA_Z
// 
// 2 326 bytes of CODE  memory
//     0 bytes of DATA  memory (+ 2 bytes shared)
//   368 bytes of XDATA memory
//
//Errors: none
//Warnings: 3
