################################################################################
#                                                                              #
#      IAR Universal Linker V5.0.2.5/W32                                       #
#                                                                              #
#           Link time     =  05/Dec/2016  00:17:28                             #
#           Target CPU    =  x51                                               #
#           List file     =  C:\Users\freeman\Documents\work\NBK\Nikon\Nikon_R #
#                            f\SimpliciTI-IAR-1.2.0\Projects\Examples\SRF05_80 #
#                            51\nik_sb5000\IAR\LinkTo\List\UART_Bridge.map     #
#           Output file 1 =  C:\Users\freeman\Documents\work\NBK\Nikon\Nikon_R #
#                            f\SimpliciTI-IAR-1.2.0\Projects\Examples\SRF05_80 #
#                            51\nik_sb5000\IAR\LinkTo\Exe\UART_Bridge.sim      #
#                            Format: simple-code                               #
#           Output file 2 =  C:\Users\freeman\Documents\work\NBK\Nikon\Nikon_R #
#                            f\SimpliciTI-IAR-1.2.0\Projects\Examples\SRF05_80 #
#                            51\nik_sb5000\IAR\LinkTo\Exe\UART_Bridge.a51      #
#                            Format: debug                                     #
#                            UBROF version 10.0.3                              #
#                            Using library modules for C-SPY (-rt)             #
#           Command line  =  "-IC:\Program Files (x86)\IAR Systems\Embedded Wo #
#                            rkbench 6.0\8051\CONFIG\"                         #
#                            -D_NR_OF_BANKS=0x07 -D_CODEBANK_END=0xFFFF        #
#                            -D_CODEBANK_START=0x8000 -D?CBANK_MASK=0x07       #
#                            -D?CBANK=0x9F                                     #
#                            C:\Users\freeman\Documents\work\NBK\Nikon\Nikon_R #
#                            f\SimpliciTI-IAR-1.2.0\Projects\Examples\SRF05_80 #
#                            51\nik_sb5000\IAR\LinkTo\Obj\OSAL.r51             #
#                            C:\Users\freeman\Documents\work\NBK\Nikon\Nikon_R #
#                            f\SimpliciTI-IAR-1.2.0\Projects\Examples\SRF05_80 #
#                            51\nik_sb5000\IAR\LinkTo\Obj\OSAL_Clock.r51       #
#                            C:\Users\freeman\Documents\work\NBK\Nikon\Nikon_R #
#                            f\SimpliciTI-IAR-1.2.0\Projects\Examples\SRF05_80 #
#                            51\nik_sb5000\IAR\LinkTo\Obj\OSAL_Memory.r51      #
#                            C:\Users\freeman\Documents\work\NBK\Nikon\Nikon_R #
#                            f\SimpliciTI-IAR-1.2.0\Projects\Examples\SRF05_80 #
#                            51\nik_sb5000\IAR\LinkTo\Obj\OSAL_Nv.r51          #
#                            C:\Users\freeman\Documents\work\NBK\Nikon\Nikon_R #
#                            f\SimpliciTI-IAR-1.2.0\Projects\Examples\SRF05_80 #
#                            51\nik_sb5000\IAR\LinkTo\Obj\OSAL_PwrMgr.r51      #
#                            C:\Users\freeman\Documents\work\NBK\Nikon\Nikon_R #
#                            f\SimpliciTI-IAR-1.2.0\Projects\Examples\SRF05_80 #
#                            51\nik_sb5000\IAR\LinkTo\Obj\OSAL_Timers.r51      #
#                            C:\Users\freeman\Documents\work\NBK\Nikon\Nikon_R #
#                            f\SimpliciTI-IAR-1.2.0\Projects\Examples\SRF05_80 #
#                            51\nik_sb5000\IAR\LinkTo\Obj\OnBoard.r51          #
#                            C:\Users\freeman\Documents\work\NBK\Nikon\Nikon_R #
#                            f\SimpliciTI-IAR-1.2.0\Projects\Examples\SRF05_80 #
#                            51\nik_sb5000\IAR\LinkTo\Obj\bsp.r51              #
#                            C:\Users\freeman\Documents\work\NBK\Nikon\Nikon_R #
#                            f\SimpliciTI-IAR-1.2.0\Projects\Examples\SRF05_80 #
#                            51\nik_sb5000\IAR\LinkTo\Obj\chipcon_cstartup.r51 #
#                            C:\Users\freeman\Documents\work\NBK\Nikon\Nikon_R #
#                            f\SimpliciTI-IAR-1.2.0\Projects\Examples\SRF05_80 #
#                            51\nik_sb5000\IAR\LinkTo\Obj\hal_adc.r51          #
#                            C:\Users\freeman\Documents\work\NBK\Nikon\Nikon_R #
#                            f\SimpliciTI-IAR-1.2.0\Projects\Examples\SRF05_80 #
#                            51\nik_sb5000\IAR\LinkTo\Obj\hal_assert.r51       #
#                            C:\Users\freeman\Documents\work\NBK\Nikon\Nikon_R #
#                            f\SimpliciTI-IAR-1.2.0\Projects\Examples\SRF05_80 #
#                            51\nik_sb5000\IAR\LinkTo\Obj\hal_dma.r51          #
#                            C:\Users\freeman\Documents\work\NBK\Nikon\Nikon_R #
#                            f\SimpliciTI-IAR-1.2.0\Projects\Examples\SRF05_80 #
#                            51\nik_sb5000\IAR\LinkTo\Obj\hal_drivers.r51      #
#                            C:\Users\freeman\Documents\work\NBK\Nikon\Nikon_R #
#                            f\SimpliciTI-IAR-1.2.0\Projects\Examples\SRF05_80 #
#                            51\nik_sb5000\IAR\LinkTo\Obj\hal_flash.r51        #
#                            C:\Users\freeman\Documents\work\NBK\Nikon\Nikon_R #
#                            f\SimpliciTI-IAR-1.2.0\Projects\Examples\SRF05_80 #
#                            51\nik_sb5000\IAR\LinkTo\Obj\hal_key.r51          #
#                            C:\Users\freeman\Documents\work\NBK\Nikon\Nikon_R #
#                            f\SimpliciTI-IAR-1.2.0\Projects\Examples\SRF05_80 #
#                            51\nik_sb5000\IAR\LinkTo\Obj\hal_lcd.r51          #
#                            C:\Users\freeman\Documents\work\NBK\Nikon\Nikon_R #
#                            f\SimpliciTI-IAR-1.2.0\Projects\Examples\SRF05_80 #
#                            51\nik_sb5000\IAR\LinkTo\Obj\hal_led.r51          #
#                            C:\Users\freeman\Documents\work\NBK\Nikon\Nikon_R #
#                            f\SimpliciTI-IAR-1.2.0\Projects\Examples\SRF05_80 #
#                            51\nik_sb5000\IAR\LinkTo\Obj\hal_sleep.r51        #
#                            C:\Users\freeman\Documents\work\NBK\Nikon\Nikon_R #
#                            f\SimpliciTI-IAR-1.2.0\Projects\Examples\SRF05_80 #
#                            51\nik_sb5000\IAR\LinkTo\Obj\hal_startup.r51      #
#                            C:\Users\freeman\Documents\work\NBK\Nikon\Nikon_R #
#                            f\SimpliciTI-IAR-1.2.0\Projects\Examples\SRF05_80 #
#                            51\nik_sb5000\IAR\LinkTo\Obj\hal_timer.r51        #
#                            C:\Users\freeman\Documents\work\NBK\Nikon\Nikon_R #
#                            f\SimpliciTI-IAR-1.2.0\Projects\Examples\SRF05_80 #
#                            51\nik_sb5000\IAR\LinkTo\Obj\hal_uart.r51         #
#                            C:\Users\freeman\Documents\work\NBK\Nikon\Nikon_R #
#                            f\SimpliciTI-IAR-1.2.0\Projects\Examples\SRF05_80 #
#                            51\nik_sb5000\IAR\LinkTo\Obj\mac_autopend.r51     #
#                            C:\Users\freeman\Documents\work\NBK\Nikon\Nikon_R #
#                            f\SimpliciTI-IAR-1.2.0\Projects\Examples\SRF05_80 #
#                            51\nik_sb5000\IAR\LinkTo\Obj\mac_backoff_timer.r5 #
#                            1                                                 #
#                            C:\Users\freeman\Documents\work\NBK\Nikon\Nikon_R #
#                            f\SimpliciTI-IAR-1.2.0\Projects\Examples\SRF05_80 #
#                            51\nik_sb5000\IAR\LinkTo\Obj\mac_cfg.r51          #
#                            C:\Users\freeman\Documents\work\NBK\Nikon\Nikon_R #
#                            f\SimpliciTI-IAR-1.2.0\Projects\Examples\SRF05_80 #
#                            51\nik_sb5000\IAR\LinkTo\Obj\mac_low_level.r51    #
#                            C:\Users\freeman\Documents\work\NBK\Nikon\Nikon_R #
#                            f\SimpliciTI-IAR-1.2.0\Projects\Examples\SRF05_80 #
#                            51\nik_sb5000\IAR\LinkTo\Obj\mac_radio.r51        #
#                            C:\Users\freeman\Documents\work\NBK\Nikon\Nikon_R #
#                            f\SimpliciTI-IAR-1.2.0\Projects\Examples\SRF05_80 #
#                            51\nik_sb5000\IAR\LinkTo\Obj\mac_radio_defs.r51   #
#                            C:\Users\freeman\Documents\work\NBK\Nikon\Nikon_R #
#                            f\SimpliciTI-IAR-1.2.0\Projects\Examples\SRF05_80 #
#                            51\nik_sb5000\IAR\LinkTo\Obj\mac_rffrontend.r51   #
#                            C:\Users\freeman\Documents\work\NBK\Nikon\Nikon_R #
#                            f\SimpliciTI-IAR-1.2.0\Projects\Examples\SRF05_80 #
#                            51\nik_sb5000\IAR\LinkTo\Obj\mac_rx.r51           #
#                            C:\Users\freeman\Documents\work\NBK\Nikon\Nikon_R #
#                            f\SimpliciTI-IAR-1.2.0\Projects\Examples\SRF05_80 #
#                            51\nik_sb5000\IAR\LinkTo\Obj\mac_rx_onoff.r51     #
#                            C:\Users\freeman\Documents\work\NBK\Nikon\Nikon_R #
#                            f\SimpliciTI-IAR-1.2.0\Projects\Examples\SRF05_80 #
#                            51\nik_sb5000\IAR\LinkTo\Obj\mac_sleep.r51        #
#                            C:\Users\freeman\Documents\work\NBK\Nikon\Nikon_R #
#                            f\SimpliciTI-IAR-1.2.0\Projects\Examples\SRF05_80 #
#                            51\nik_sb5000\IAR\LinkTo\Obj\mac_tx.r51           #
#                            C:\Users\freeman\Documents\work\NBK\Nikon\Nikon_R #
#                            f\SimpliciTI-IAR-1.2.0\Projects\Examples\SRF05_80 #
#                            51\nik_sb5000\IAR\LinkTo\Obj\main_UART_Bridge.r51 #
#                            C:\Users\freeman\Documents\work\NBK\Nikon\Nikon_R #
#                            f\SimpliciTI-IAR-1.2.0\Projects\Examples\SRF05_80 #
#                            51\nik_sb5000\IAR\LinkTo\Obj\mrfi.r51             #
#                            C:\Users\freeman\Documents\work\NBK\Nikon\Nikon_R #
#                            f\SimpliciTI-IAR-1.2.0\Projects\Examples\SRF05_80 #
#                            51\nik_sb5000\IAR\LinkTo\Obj\nwk.r51              #
#                            C:\Users\freeman\Documents\work\NBK\Nikon\Nikon_R #
#                            f\SimpliciTI-IAR-1.2.0\Projects\Examples\SRF05_80 #
#                            51\nik_sb5000\IAR\LinkTo\Obj\nwk_QMgmt.r51        #
#                            C:\Users\freeman\Documents\work\NBK\Nikon\Nikon_R #
#                            f\SimpliciTI-IAR-1.2.0\Projects\Examples\SRF05_80 #
#                            51\nik_sb5000\IAR\LinkTo\Obj\nwk_api.r51          #
#                            C:\Users\freeman\Documents\work\NBK\Nikon\Nikon_R #
#                            f\SimpliciTI-IAR-1.2.0\Projects\Examples\SRF05_80 #
#                            51\nik_sb5000\IAR\LinkTo\Obj\nwk_frame.r51        #
#                            C:\Users\freeman\Documents\work\NBK\Nikon\Nikon_R #
#                            f\SimpliciTI-IAR-1.2.0\Projects\Examples\SRF05_80 #
#                            51\nik_sb5000\IAR\LinkTo\Obj\nwk_freq.r51         #
#                            C:\Users\freeman\Documents\work\NBK\Nikon\Nikon_R #
#                            f\SimpliciTI-IAR-1.2.0\Projects\Examples\SRF05_80 #
#                            51\nik_sb5000\IAR\LinkTo\Obj\nwk_globals.r51      #
#                            C:\Users\freeman\Documents\work\NBK\Nikon\Nikon_R #
#                            f\SimpliciTI-IAR-1.2.0\Projects\Examples\SRF05_80 #
#                            51\nik_sb5000\IAR\LinkTo\Obj\nwk_ioctl.r51        #
#                            C:\Users\freeman\Documents\work\NBK\Nikon\Nikon_R #
#                            f\SimpliciTI-IAR-1.2.0\Projects\Examples\SRF05_80 #
#                            51\nik_sb5000\IAR\LinkTo\Obj\nwk_join.r51         #
#                            C:\Users\freeman\Documents\work\NBK\Nikon\Nikon_R #
#                            f\SimpliciTI-IAR-1.2.0\Projects\Examples\SRF05_80 #
#                            51\nik_sb5000\IAR\LinkTo\Obj\nwk_link.r51         #
#                            C:\Users\freeman\Documents\work\NBK\Nikon\Nikon_R #
#                            f\SimpliciTI-IAR-1.2.0\Projects\Examples\SRF05_80 #
#                            51\nik_sb5000\IAR\LinkTo\Obj\nwk_mgmt.r51         #
#                            C:\Users\freeman\Documents\work\NBK\Nikon\Nikon_R #
#                            f\SimpliciTI-IAR-1.2.0\Projects\Examples\SRF05_80 #
#                            51\nik_sb5000\IAR\LinkTo\Obj\nwk_ping.r51         #
#                            C:\Users\freeman\Documents\work\NBK\Nikon\Nikon_R #
#                            f\SimpliciTI-IAR-1.2.0\Projects\Examples\SRF05_80 #
#                            51\nik_sb5000\IAR\LinkTo\Obj\nwk_pll.r51          #
#                            C:\Users\freeman\Documents\work\NBK\Nikon\Nikon_R #
#                            f\SimpliciTI-IAR-1.2.0\Projects\Examples\SRF05_80 #
#                            51\nik_sb5000\IAR\LinkTo\Obj\nwk_security.r51     #
#                            C:\Users\freeman\Documents\work\NBK\Nikon\Nikon_R #
#                            f\SimpliciTI-IAR-1.2.0\Projects\Examples\SRF05_80 #
#                            51\nik_sb5000\IAR\LinkTo\Obj\saddr.r51            #
#                            C:\Users\freeman\Documents\work\NBK\Nikon\Nikon_R #
#                            f\SimpliciTI-IAR-1.2.0\Projects\Examples\SRF05_80 #
#                            51\nik_sb5000\IAR\LinkTo\Obj\uart.r51             #
#                            C:\Users\freeman\Documents\work\NBK\Nikon\Nikon_R #
#                            f\SimpliciTI-IAR-1.2.0\Projects\Examples\SRF05_80 #
#                            51\nik_sb5000\IAR\LinkTo\Obj\uart_intfc.r51       #
#                            -o                                                #
#                            C:\Users\freeman\Documents\work\NBK\Nikon\Nikon_R #
#                            f\SimpliciTI-IAR-1.2.0\Projects\Examples\SRF05_80 #
#                            51\nik_sb5000\IAR\LinkTo\Exe\UART_Bridge.a51      #
#                            -l                                                #
#                            C:\Users\freeman\Documents\work\NBK\Nikon\Nikon_R #
#                            f\SimpliciTI-IAR-1.2.0\Projects\Examples\SRF05_80 #
#                            51\nik_sb5000\IAR\LinkTo\List\UART_Bridge.map     #
#                            -xmsn                                             #
#                            "-IC:\Program Files (x86)\IAR Systems\Embedded Wo #
#                            rkbench 6.0\8051\LIB\"                            #
#                            -f                                                #
#                            C:\Users\freeman\Documents\work\NBK\Nikon\Nikon_R #
#                            f\SimpliciTI-IAR-1.2.0\Projects\Examples\SRF05_80 #
#                            51\nik_sb5000\IAR\Tools\CC2530DB\oad.xcl          #
#                            (-D_XDATA_START=0x0001 -D_XDATA_END=0x1EFF        #
#                            -D_IDATA_END=0xFF -D_CODE_START=0x2000            #
#                            -D_CODE_END=0x7FFF -D_FIRST_BANK_ADDR=0x10000     #
#                            -D?REGISTER_BANK=0 -D_REGISTER_BANK_START=0       #
#                            -D?PBANK_NUMBER=00 -D?PBANK=93                    #
#                            -D_BREG_START=0x00 -D?VB=0x20                     #
#                            -Z(BIT)BREG=_BREG_START -Z(BIT)BIT_N=0-7F         #
#                            -Z(DATA)REGISTERS+8=_REGISTER_BANK_START          #
#                            -Z(DATA)BDATA_Z,BDATA_N,BDATA_I=20-2F             #
#                            -Z(DATA)VREG+_NR_OF_VIRTUAL_REGISTERS=08-7F       #
#                            -Z(DATA)PSP,XSP=08-7F -Z(DATA)DOVERLAY=08-7F      #
#                            -Z(DATA)DATA_I,DATA_Z,DATA_N=08-7F                #
#                            -U(IDATA)0-7F=(DATA)0-7F                          #
#                            -Z(IDATA)IDATA_I,IDATA_Z,IDATA_N=08-_IDATA_END    #
#                            -Z(IDATA)ISTACK+_IDATA_STACK_SIZE#08-_IDATA_END   #
#                            -Z(IDATA)IOVERLAY=08-FF                           #
#                            -Z(CODE)INTVEC=_CODE_START                        #
#                            -Z(CODE)CHECKSUM=0x2088-0x2089                    #
#                            -Z(CODE)CRC_SHDW=0x208A-0x208B                    #
#                            -Z(CODE)PREAMBLE=0x208C-0x2097                    #
#                            -Z(CODE)BIT_ID,BDATA_ID,DATA_ID,IDATA_ID,IXDATA_I #
#                            D,PDATA_ID,XDATA_ID=_CODE_START-_CODE_END         #
#                            -Z(CODE)RAM_CODE_FLASH=_RAM_CODE_FLASH_START-_RAM #
#                            _CODE_FLASH_END                                   #
#                            -D_SLEEP_CODE_SPACE_START=(_CODE_END-7)           #
#                            -D_SLEEP_CODE_SPACE_END=(_CODE_END)               #
#                            -Z(CODE)SLEEP_CODE=_SLEEP_CODE_SPACE_START-_SLEEP #
#                            _CODE_SPACE_END                                   #
#                            -P(CODE)CSTART,BANK_RELAYS,RCODE,DIFUNCT,NEAR_COD #
#                            E=_CODE_START-_CODE_END                           #
#                            -P(CODE)CODE_C=_CODE_START-_CODE_END              #
#                            -P(CONST)XDATA_ROM_C=0x8000-0xFFFF                #
#                            -P(CODE)XDATA_ROM_C_FLASH=0x18000-0x1FFFF         #
#                            -QXDATA_ROM_C=XDATA_ROM_C_FLASH                   #
#                            -P(CODE)BANKED_CODE=_CODE_START-_CODE_END,0x18000 #
#                            -0x1FFFF,0x28000-0x2FFFF,0x38000-0x3FFFF,0x48000- #
#                            0x4FFFF,0x58000-0x5FFFF,0x68000-0x6FFFF,0x78000-0 #
#                            x7C7FF                                            #
#                            -Z(XDATA)XSTACK+_XDATA_STACK_SIZE=_XDATA_START-_X #
#                            DATA_END                                          #
#                            -Z(XDATA)XDATA_Z,XDATA_I=_XDATA_START-_XDATA_END  #
#                            -P(XDATA)XDATA_N=_XDATA_START-_XDATA_END -cx51    #
#                            -D_RAM_CODE_XDATA_START=0x01EDD                   #
#                            -D_RAM_CODE_XDATA_END=(_RAM_CODE_XDATA_START+0x22 #
#                            )                                                 #
#                            -Z(XDATA)RAM_CODE_XDATA=_RAM_CODE_XDATA_START-_RA #
#                            M_CODE_XDATA_END                                  #
#                            -D_RAM_CODE_FLASH_START=0x39EDD                   #
#                            -D_RAM_CODE_FLASH_END=(_RAM_CODE_FLASH_START+0x22 #
#                            )                                                 #
#                            -D_ZIGNV_ADDRESS_SPACE_START=(((_NR_OF_BANKS+1)*_ #
#                            FIRST_BANK_ADDR)-0x3800)                          #
#                            -D_ZIGNV_ADDRESS_SPACE_END=(_ZIGNV_ADDRESS_SPACE_ #
#                            START+0x2FFF)                                     #
#                            -Z(CODE)ZIGNV_ADDRESS_SPACE=_ZIGNV_ADDRESS_SPACE_ #
#                            START-_ZIGNV_ADDRESS_SPACE_END                    #
#                            -D_IEEE_ADDRESS_SPACE_START=(((_NR_OF_BANKS+1)*_F #
#                            IRST_BANK_ADDR)-0x18)                             #
#                            -D_IEEE_ADDRESS_SPACE_END=(_IEEE_ADDRESS_SPACE_ST #
#                            ART+7)                                            #
#                            -Z(CODE)IEEE_ADDRESS_SPACE=_IEEE_ADDRESS_SPACE_ST #
#                            ART-_IEEE_ADDRESS_SPACE_END                       #
#                            -J2,crc16,=800-887,88C-7C7FF -HFFFF)              #
#                            -e?BCALL_07=?BCALL -e?BRET_07=?BRET               #
#                            -e?BDISPATCH_07=?BDISPATCH                        #
#                            -D_NR_OF_VIRTUAL_REGISTERS=10 -D?PBANK=0x93       #
#                            -e_small_write=_formatted_write                   #
#                            -e_medium_read=_formatted_read -rt                #
#                            -Osimple-code=C:\Users\freeman\Documents\work\NBK #
#                            \Nikon\Nikon_Rf\SimpliciTI-IAR-1.2.0\Projects\Exa #
#                            mples\SRF05_8051\nik_sb5000\IAR\LinkTo\Exe\UART_B #
#                            ridge.sim                                         #
#                            -s __program_start                                #
#                            "C:\Program Files (x86)\IAR Systems\Embedded Work #
#                            bench 6.0\8051\LIB\CLIB\cl-pli-blxd-1e16x01.r51"  #
#                            -D_IDATA_STACK_SIZE=0xC0                          #
#                            -D_EXTENDED_STACK_START=0x00                      #
#                            -D_EXTENDED_STACK_SIZE=0x00                       #
#                            -D_PDATA_STACK_SIZE=0x80                          #
#                            -D_XDATA_STACK_SIZE=0x3FF                         #
#                            -D_XDATA_HEAP_SIZE=0x00 -D_FAR_HEAP_SIZE=0x000    #
#                            -D_HUGE_HEAP_SIZE=0x00 -D_FAR22_HEAP_SIZE=0xFFF   #
#                                                                              #
#                           Copyright (C) 1987-2010 IAR Systems AB.            #
################################################################################





                ****************************************
                *                                      *
                *           CROSS REFERENCE            *
                *                                      *
                ****************************************

       Program entry at : CODE      000025B8  Relocatable, from module : CSTARTUP




                ****************************************
                *                                      *
                *            RUNTIME MODEL             *
                *                                      *
                ****************************************

  __SystemLibrary          = CLib
  __calling_convention     = xdata_reentrant
  __code_model             = banked
  __core                   = plain
  __data_model             = large
  __dptr_size              = 16
  __extended_stack         = disabled
  __location_for_constants = data
  __number_of_dptrs        = 1
  __rt_version             = 1



                ****************************************
                *                                      *
                *              MODULE MAP              *
                *                                      *
                ****************************************


  DEFINED ABSOLUTE ENTRIES
  PROGRAM MODULE, NAME : ?ABS_ENTRY_MOD

Absolute parts
           ENTRY                   ADDRESS         REF BY
           =====                   =======         ======
           _FAR22_HEAP_SIZE        00000FFF 
           _HUGE_HEAP_SIZE         00000000 
           _FAR_HEAP_SIZE          00000000 
           _XDATA_HEAP_SIZE        00000000 
           _XDATA_STACK_SIZE       000003FF 
           _PDATA_STACK_SIZE       00000080 
           _EXTENDED_STACK_SIZE    00000000 
           _EXTENDED_STACK_START   00000000 
           _IDATA_STACK_SIZE       000000C0 
           _NR_OF_VIRTUAL_REGISTERS
                                   00000010 
           _IEEE_ADDRESS_SPACE_END
                                   0007FFEF 
           _IEEE_ADDRESS_SPACE_START
                                   0007FFE8 
           _ZIGNV_ADDRESS_SPACE_END
                                   0007F7FF 
           _ZIGNV_ADDRESS_SPACE_START
                                   0007C800 
           _RAM_CODE_FLASH_END     00039EFF 
           _RAM_CODE_FLASH_START   00039EDD 
           _RAM_CODE_XDATA_END     00001EFF 
           _RAM_CODE_XDATA_START   00001EDD 
           _SLEEP_CODE_SPACE_END   00007FFF 
           _SLEEP_CODE_SPACE_START
                                   00007FF8 
           ?VB                     00000020        ?BANKED_ENTER_XDATA (?BANKED_ENTER_XDATA)
                                                   ?BANKED_LEAVE_XDATA (?BANKED_LEAVE_XDATA)
                                                   ?INTERRUPT_ENTER_SP (?INTERRUPT_ENTER_SP)
                                                   ?INTERRUPT_ENTER_XSP (?INTERRUPT_ENTER_XSP)
                                                   ?INTERRUPT_LEAVE_SP (?INTERRUPT_LEAVE_SP)
                                                   ?INTERRUPT_LEAVE_XSP (?INTERRUPT_LEAVE_XSP)
                                                   Mrfi_DelayUsecLong (mrfi)
           _BREG_START             00000000 
           ?PBANK                  00000093 
           ?PBANK_NUMBER           00000000 
           _REGISTER_BANK_START    00000000 
           ?REGISTER_BANK          00000000        Segment part 6 (CSTARTUP)
           _FIRST_BANK_ADDR        00010000 
           _CODE_END               00007FFF 
           _CODE_START             00002000 
           _IDATA_END              000000FF 
           _XDATA_END              00001EFF 
           _XDATA_START            00000001 
           ?CBANK                  0000009F        Segment part 3 (?BANKED_CODE_SUPPORT)
           ?CBANK_MASK             00000007 
           _CODEBANK_START         00008000 
           _CODEBANK_END           0000FFFF 
           _NR_OF_BANKS            00000007 
    *************************************************************************

  FILE NAME : C:\Users\freeman\Documents\work\NBK\Nikon\Nikon_Rf\SimpliciTI-IAR-1.2.0\Projects\Examples\SRF05_8051\nik_sb5000\IAR\LinkTo\Obj\OSAL.r51
  PROGRAM MODULE, NAME : OSAL

  SEGMENTS IN THE MODULE
  ======================
SFR_AN
  Relative segment, address: DATA 000000A8 - 000000A8 (0x1 bytes), align: 0
  Segment part 1. ROOT.       Intra module refs:   HalFlashRead (hal_flash)
                                                   HalUARTPollDMA (hal_uart)
                                                   HalUARTWriteDMA (hal_uart)
                                                   InitBoard (OnBoard)
                                                   MRFI_Init (mrfi)
                                                   MRFI_ReplyDelay (mrfi)
                                                   MRFI_Rssi (mrfi)
                                                   MRFI_RxIdle (mrfi)
                                                   MRFI_RxIsr (mrfi)
                                                   MRFI_RxOn (mrfi)
                                                   MRFI_SetLogicalChannel (mrfi)
                                                   MRFI_Transmit (mrfi)
                                                   Mrfi_DelayUsec (mrfi)
                                                   Mrfi_DelayUsecLong (mrfi)
                                                   UartDMAIntSend (hal_uart)
                                                   halAssertHandler (hal_assert)
                                                   nwk_QadjustOrder (nwk_QMgmt)
                                                   nwk_QfindOldest (nwk_QMgmt)
                                                   osal_int_disable
                                                   osal_mem_alloc (OSAL_Memory)
                                                   osal_mem_free (OSAL_Memory)
                                                   osal_msg_enqueue
                                                   osal_set_event
                                                   uart_0_rx_irq (uart)
                                                   uart_0_tx_irq (uart)
                                                   uart_1_rx_irq (uart)
                                                   uart_1_tx_irq (uart)
                                                   uart_rx_irq (uart)
                                                   uart_tx_irq (uart)
           ENTRY                   ADDRESS         REF BY
           =====                   =======         ======
           _A_IEN0                 000000A8 
           LOCAL                   ADDRESS         
           =====                   =======         
           IEN0                    000000A8 
    -------------------------------------------------------------------------
XDATA_Z
  Relative segment, address: XDATA 00000400 - 00000401 (0x2 bytes), align: 0
  Segment part 12.            Intra module refs:   osal_msg_send
           ENTRY                   ADDRESS         REF BY
           =====                   =======         ======
           osal_qHead              00000400 
    -------------------------------------------------------------------------
<BANKED_CODE,BANK_RELAYS..> 1 (was BANKED_CODE)
  Relative segment, address: CODE 00004278 - 00004295 (0x1e bytes), align: 0
  Segment part 29.            Intra module refs:   osal_memset::?relay
           ENTRY                   ADDRESS         REF BY
           =====                   =======         ======
           osal_memset             00004278 
               calls direct
               XSTACK = 00000000 ( 0000000C )
    -------------------------------------------------------------------------
<BANKED_CODE,BANK_RELAYS..> 1 (was BANKED_CODE)
  Relative segment, address: CODE 00004296 - 0000429A (0x5 bytes), align: 0
  Segment part 31.            Intra module refs:   osal_memset
                                                   osal_msg_allocate
           LOCAL                   ADDRESS         
           =====                   =======         
           ?Subroutine4            00004296 
    -------------------------------------------------------------------------
<BANKED_CODE,BANK_RELAYS..> 1 (was BANKED_CODE)
  Relative segment, address: CODE 0000429B - 000042E7 (0x4d bytes), align: 0
  Segment part 48.            Intra module refs:   osal_msg_allocate::?relay
           ENTRY                   ADDRESS         REF BY
           =====                   =======         ======
           osal_msg_allocate       0000429B 
               calls direct
               XSTACK = 00000000 ( 0000000A )
    -------------------------------------------------------------------------
<BANKED_CODE,BANK_RELAYS..> 1 (was BANKED_CODE)
  Relative segment, address: CODE 000042E8 - 000042EE (0x7 bytes), align: 0
  Segment part 50.            Intra module refs:   osal_msg_allocate
           LOCAL                   ADDRESS         
           =====                   =======         
           ?Subroutine21           000042E8 
    -------------------------------------------------------------------------
<BANKED_CODE,BANK_RELAYS..> 1 (was BANKED_CODE)
  Relative segment, address: CODE 000042EF - 00004310 (0x22 bytes), align: 0
  Segment part 51.            Intra module refs:   osal_msg_deallocate::?relay
           ENTRY                   ADDRESS         REF BY
           =====                   =======         ======
           osal_msg_deallocate     000042EF 
               calls direct
               XSTACK = 00000009 ( 00000000 )
               ISTACK = 00000000 ( 00000002 )
    -------------------------------------------------------------------------
<BANKED_CODE,BANK_RELAYS..> 1 (was BANKED_CODE)
  Relative segment, address: CODE 00004311 - 00004317 (0x7 bytes), align: 0
  Segment part 53.            Intra module refs:   osal_msg_deallocate
           LOCAL                   ADDRESS         
           =====                   =======         
           ?Subroutine0            00004311 
    -------------------------------------------------------------------------
<BANKED_CODE,BANK_RELAYS..> 1 (was BANKED_CODE)
  Relative segment, address: CODE 00004318 - 00004363 (0x4c bytes), align: 0
  Segment part 54.            Intra module refs:   osal_msg_send::?relay
           ENTRY                   ADDRESS         REF BY
           =====                   =======         ======
           osal_msg_send           00004318 
               calls direct
               XSTACK = 00000000 ( 00000009 )
               ISTACK = 00000000 ( 00000001 )
    -------------------------------------------------------------------------
<BANKED_CODE,BANK_RELAYS..> 1 (was BANKED_CODE)
  Relative segment, address: CODE 00004364 - 00004370 (0xd bytes), align: 0
  Segment part 56.            Intra module refs:   osal_msg_deallocate
                                                   osal_msg_send
           LOCAL                   ADDRESS         
           =====                   =======         
           ?Subroutine19           00004364 
    -------------------------------------------------------------------------
<BANKED_CODE,BANK_RELAYS..> 1 (was BANKED_CODE)
  Relative segment, address: CODE 00004371 - 00004372 (0x2 bytes), align: 0
  Segment part 57.            Intra module refs:   osal_msg_enqueue
           LOCAL                   ADDRESS         
           =====                   =======         
           ?Subroutine1            00004371 
    -------------------------------------------------------------------------
<BANKED_CODE,BANK_RELAYS..> 1 (was BANKED_CODE)
  Relative segment, address: CODE 00004373 - 00004377 (0x5 bytes), align: 0
  Segment part 58.            Intra module refs:   ?Subroutine1
                                                   osal_msg_send
                                                   osal_set_event
    -------------------------------------------------------------------------
<BANKED_CODE,BANK_RELAYS..> 1 (was BANKED_CODE)
  Relative segment, address: CODE 00004378 - 000043B2 (0x3b bytes), align: 0
  Segment part 64.            Intra module refs:   osal_msg_enqueue::?relay
           ENTRY                   ADDRESS         REF BY
           =====                   =======         ======
           osal_msg_enqueue        00004378 
               XSTACK = 00000009 ( 00000009 )
    -------------------------------------------------------------------------
<BANKED_CODE,BANK_RELAYS..> 1 (was BANKED_CODE)
  Relative segment, address: CODE 000043B3 - 000043BE (0xc bytes), align: 0
  Segment part 66.            Intra module refs:   osal_msg_enqueue
           LOCAL                   ADDRESS         
           =====                   =======         
           ?Subroutine14           000043B3 
    -------------------------------------------------------------------------
<BANKED_CODE,BANK_RELAYS..> 1 (was BANKED_CODE)
  Relative segment, address: CODE 000043BF - 000043C4 (0x6 bytes), align: 0
  Segment part 67.            Intra module refs:   ?Subroutine14
    -------------------------------------------------------------------------
<BANKED_CODE,BANK_RELAYS..> 1 (was BANKED_CODE)
  Relative segment, address: CODE 000043C5 - 000043C7 (0x3 bytes), align: 0
  Segment part 74.            Intra module refs:   osal_msg_send
           LOCAL                   ADDRESS         
           =====                   =======         
           ?Subroutine20           000043C5 
    -------------------------------------------------------------------------
<BANKED_CODE,BANK_RELAYS..> 1 (was BANKED_CODE)
  Relative segment, address: CODE 000043C8 - 000043CA (0x3 bytes), align: 0
  Segment part 75.            Intra module refs:   ?Subroutine20
    -------------------------------------------------------------------------
<BANKED_CODE,BANK_RELAYS..> 1 (was BANKED_CODE)
  Relative segment, address: CODE 000043CB - 000043CF (0x5 bytes), align: 0
  Segment part 76.            Intra module refs:   Segment part 75
                                                   osal_msg_enqueue
    -------------------------------------------------------------------------
<BANKED_CODE,BANK_RELAYS..> 1 (was BANKED_CODE)
  Relative segment, address: CODE 000043D0 - 000043D5 (0x6 bytes), align: 0
  Segment part 78.            Intra module refs:   Segment part 67
           LOCAL                   ADDRESS         
           =====                   =======         
           ?Subroutine25           000043D0 
    -------------------------------------------------------------------------
<BANKED_CODE,BANK_RELAYS..> 1 (was BANKED_CODE)
  Relative segment, address: CODE 000043D6 - 000043DB (0x6 bytes), align: 0
  Segment part 79.            Intra module refs:   osal_msg_enqueue
           LOCAL                   ADDRESS         
           =====                   =======         
           ?Subroutine12           000043D6 
    -------------------------------------------------------------------------
<BANKED_CODE,BANK_RELAYS..> 1 (was BANKED_CODE)
  Relative segment, address: CODE 000043DC - 0000441A (0x3f bytes), align: 0
  Segment part 82.            Intra module refs:   osal_set_event::?relay
           ENTRY                   ADDRESS         REF BY
           =====                   =======         ======
           osal_set_event          000043DC 
               XSTACK = 0000000E ( 00000009 )
    -------------------------------------------------------------------------
<BANKED_CODE,BANK_RELAYS..> 1 (was BANKED_CODE)
  Relative segment, address: CODE 0000441B - 0000442C (0x12 bytes), align: 0
  Segment part 90.            Intra module refs:   osal_int_disable::?relay
           ENTRY                   ADDRESS         REF BY
           =====                   =======         ======
           osal_int_disable        0000441B 
    -------------------------------------------------------------------------
<BANKED_CODE,BANK_RELAYS..> 1 (was BANKED_CODE)
  Relative segment, address: CODE 0000442D - 00004430 (0x4 bytes), align: 0
  Segment part 98.            Intra module refs:   osal_msg_enqueue
           LOCAL                   ADDRESS         
           =====                   =======         
           ?Subroutine7            0000442D 
    -------------------------------------------------------------------------
<BANKED_CODE,BANK_RELAYS..> 1 (was BANKED_CODE)
  Relative segment, address: CODE 00004431 - 00004438 (0x8 bytes), align: 0
  Segment part 99.            Intra module refs:   ?Subroutine7
                                                   osal_msg_send
    -------------------------------------------------------------------------
<BANKED_CODE,BANK_RELAYS..> 1 (was BANK_RELAYS)
  Relative segment, address: CODE 000028FF - 00002904 (0x6 bytes), align: 0
  Segment part 30.
           ENTRY                   ADDRESS         REF BY
           =====                   =======         ======
           osal_memset::?relay     000028FF        HalUARTOpenDMA (hal_uart)
                                                   UartProcessData (uart_intfc)
    -------------------------------------------------------------------------
<BANKED_CODE,BANK_RELAYS..> 1 (was BANK_RELAYS)
  Relative segment, address: CODE 000028F9 - 000028FE (0x6 bytes), align: 0
  Segment part 49.
           ENTRY                   ADDRESS         REF BY
           =====                   =======         ======
           osal_msg_allocate::?relay
                                   000028F9        OnBoard_SendKeys (OnBoard)
    -------------------------------------------------------------------------
<BANKED_CODE,BANK_RELAYS..> 1 (was BANK_RELAYS)
  Relative segment, address: CODE 000028F3 - 000028F8 (0x6 bytes), align: 0
  Segment part 52.            Intra module refs:   osal_msg_send
           ENTRY                   ADDRESS         REF BY
           =====                   =======         ======
           osal_msg_deallocate::?relay
                                   000028F3 
    -------------------------------------------------------------------------
<BANKED_CODE,BANK_RELAYS..> 1 (was BANK_RELAYS)
  Relative segment, address: CODE 000028ED - 000028F2 (0x6 bytes), align: 0
  Segment part 55.
           ENTRY                   ADDRESS         REF BY
           =====                   =======         ======
           osal_msg_send::?relay   000028ED        OnBoard_SendKeys (OnBoard)
    -------------------------------------------------------------------------
<BANKED_CODE,BANK_RELAYS..> 1 (was BANK_RELAYS)
  Relative segment, address: CODE 000028E7 - 000028EC (0x6 bytes), align: 0
  Segment part 65.            Intra module refs:   osal_msg_send
           ENTRY                   ADDRESS         REF BY
           =====                   =======         ======
           osal_msg_enqueue::?relay
                                   000028E7 
    -------------------------------------------------------------------------
<BANKED_CODE,BANK_RELAYS..> 1 (was BANK_RELAYS)
  Relative segment, address: CODE 000028E1 - 000028E6 (0x6 bytes), align: 0
  Segment part 83.            Intra module refs:   osal_msg_send
           ENTRY                   ADDRESS         REF BY
           =====                   =======         ======
           osal_set_event::?relay
                                   000028E1        HalLedBlink (hal_led)
    -------------------------------------------------------------------------
<BANKED_CODE,BANK_RELAYS..> 1 (was BANK_RELAYS)
  Relative segment, address: CODE 000028DB - 000028E0 (0x6 bytes), align: 0
  Segment part 91.
           ENTRY                   ADDRESS         REF BY
           =====                   =======         ======
           osal_int_disable::?relay
                                   000028DB        InitBoard (OnBoard)
                                                   main (main_UART_Bridge)

    *************************************************************************

  FILE NAME : C:\Users\freeman\Documents\work\NBK\Nikon\Nikon_Rf\SimpliciTI-IAR-1.2.0\Projects\Examples\SRF05_8051\nik_sb5000\IAR\LinkTo\Obj\OSAL_Clock.r51
    *************************************************************************

  FILE NAME : C:\Users\freeman\Documents\work\NBK\Nikon\Nikon_Rf\SimpliciTI-IAR-1.2.0\Projects\Examples\SRF05_8051\nik_sb5000\IAR\LinkTo\Obj\OSAL_Memory.r51
  PROGRAM MODULE, NAME : OSAL_Memory

  SEGMENTS IN THE MODULE
  ======================
XDATA_Z
  Relative segment, address: XDATA 00000402 - 00000403 (0x2 bytes), align: 0
  Segment part 7.             Intra module refs:   osal_mem_alloc
                                                   osal_mem_free
           LOCAL                   ADDRESS         
           =====                   =======         
           ff1                     00000402 
    -------------------------------------------------------------------------
XDATA_Z
  Relative segment, address: XDATA 00000404 - 00000405 (0x2 bytes), align: 0
  Segment part 8.             Intra module refs:   osal_mem_alloc
           LOCAL                   ADDRESS         
           =====                   =======         
           ff2                     00000404 
    -------------------------------------------------------------------------
XDATA_Z
  Relative segment, address: XDATA 00000406 - 00000C05 (0x800 bytes), align: 0
  Segment part 9.             Intra module refs:   osal_mem_free
           LOCAL                   ADDRESS         
           =====                   =======         
           _theHeap                00000406 
    -------------------------------------------------------------------------
<BANKED_CODE,BANK_RELAYS..> 1 (was BANKED_CODE)
  Relative segment, address: CODE 0000492A - 00004A22 (0xf9 bytes), align: 0
  Segment part 18.            Intra module refs:   osal_mem_alloc::?relay
           ENTRY                   ADDRESS         REF BY
           =====                   =======         ======
           osal_mem_alloc          0000492A 
               XSTACK = 00000000 ( 0000000D )
    -------------------------------------------------------------------------
<BANKED_CODE,BANK_RELAYS..> 1 (was BANKED_CODE)
  Relative segment, address: CODE 00004A23 - 00004A90 (0x6e bytes), align: 0
  Segment part 20.            Intra module refs:   osal_mem_free::?relay
           ENTRY                   ADDRESS         REF BY
           =====                   =======         ======
           osal_mem_free           00004A23 
               calls direct
               XSTACK = 00000000 ( 00000009 )
    -------------------------------------------------------------------------
<BANKED_CODE,BANK_RELAYS..> 1 (was BANK_RELAYS)
  Relative segment, address: CODE 000028D5 - 000028DA (0x6 bytes), align: 0
  Segment part 19.
           ENTRY                   ADDRESS         REF BY
           =====                   =======         ======
           osal_mem_alloc::?relay
                                   000028D5        osal_msg_allocate (OSAL)
    -------------------------------------------------------------------------
<BANKED_CODE,BANK_RELAYS..> 1 (was BANK_RELAYS)
  Relative segment, address: CODE 000028CF - 000028D4 (0x6 bytes), align: 0
  Segment part 21.
           ENTRY                   ADDRESS         REF BY
           =====                   =======         ======
           osal_mem_free::?relay   000028CF        osal_msg_deallocate (OSAL)

    *************************************************************************

  FILE NAME : C:\Users\freeman\Documents\work\NBK\Nikon\Nikon_Rf\SimpliciTI-IAR-1.2.0\Projects\Examples\SRF05_8051\nik_sb5000\IAR\LinkTo\Obj\OSAL_Nv.r51
    *************************************************************************

  FILE NAME : C:\Users\freeman\Documents\work\NBK\Nikon\Nikon_Rf\SimpliciTI-IAR-1.2.0\Projects\Examples\SRF05_8051\nik_sb5000\IAR\LinkTo\Obj\OSAL_PwrMgr.r51
    *************************************************************************

  FILE NAME : C:\Users\freeman\Documents\work\NBK\Nikon\Nikon_Rf\SimpliciTI-IAR-1.2.0\Projects\Examples\SRF05_8051\nik_sb5000\IAR\LinkTo\Obj\OSAL_Timers.r51
  PROGRAM MODULE, NAME : OSAL_Timers

  SEGMENTS IN THE MODULE
  ======================
XDATA_Z
  Relative segment, address: XDATA 00000C06 - 00000C09 (0x4 bytes), align: 0
  Segment part 8.             Intra module refs:   osal_GetSystemClock
           LOCAL                   ADDRESS         
           =====                   =======         
           osal_systemClock        00000C06 
    -------------------------------------------------------------------------
<BANKED_CODE,BANK_RELAYS..> 1 (was BANKED_CODE)
  Relative segment, address: CODE 00005248 - 0000524E (0x7 bytes), align: 0
  Segment part 20.            Intra module refs:   osal_GetSystemClock
           LOCAL                   ADDRESS         
           =====                   =======         
           ?Subroutine0            00005248 
    -------------------------------------------------------------------------
<BANKED_CODE,BANK_RELAYS..> 1 (was BANKED_CODE)
  Relative segment, address: CODE 0000524F - 0000525B (0xd bytes), align: 0
  Segment part 37.            Intra module refs:   osal_GetSystemClock::?relay
           ENTRY                   ADDRESS         REF BY
           =====                   =======         ======
           osal_GetSystemClock     0000524F 
               ISTACK = 00000000 ( 00000002 )
    -------------------------------------------------------------------------
<BANKED_CODE,BANK_RELAYS..> 1 (was BANK_RELAYS)
  Relative segment, address: CODE 000028BD - 000028C2 (0x6 bytes), align: 0
  Segment part 38.
           ENTRY                   ADDRESS         REF BY
           =====                   =======         ======
           osal_GetSystemClock::?relay
                                   000028BD        HalLedBlink (hal_led)

    *************************************************************************

  FILE NAME : C:\Users\freeman\Documents\work\NBK\Nikon\Nikon_Rf\SimpliciTI-IAR-1.2.0\Projects\Examples\SRF05_8051\nik_sb5000\IAR\LinkTo\Obj\OnBoard.r51
  PROGRAM MODULE, NAME : OnBoard

  SEGMENTS IN THE MODULE
  ======================
SFR_AN
  Relative segment, address: DATA 0000009D - 0000009D (0x1 bytes), align: 0
  Segment part 1. ROOT.       Intra module refs:   InitBoard
                                                   MRFI_Init (mrfi)
                                                   main (main_UART_Bridge)
           ENTRY                   ADDRESS         REF BY
           =====                   =======         ======
           SLEEPSTA                0000009D 
    -------------------------------------------------------------------------
XDATA_Z
  Relative segment, address: XDATA 00000C0A - 00000C0A (0x1 bytes), align: 0
  Segment part 8.             Intra module refs:   InitBoard
           ENTRY                   ADDRESS         REF BY
           =====                   =======         ======
           OnboardKeyIntEnable     00000C0A 
    -------------------------------------------------------------------------
XDATA_I
  Relative segment, address: XDATA 000011B8 - 000011B8 (0x1 bytes), align: 0
  Segment part 10.            Intra module refs:   OnBoard_SendKeys
           LOCAL                   ADDRESS         
           =====                   =======         
           registeredKeysTaskID    000011B8 
    -------------------------------------------------------------------------
<BANKED_CODE,BANK_RELAYS..> 1 (was BANKED_CODE)
  Relative segment, address: CODE 00004BE9 - 00004C50 (0x68 bytes), align: 0
  Segment part 12.            Intra module refs:   InitBoard::?relay
           ENTRY                   ADDRESS         REF BY
           =====                   =======         ======
           InitBoard               00004BE9 
               calls direct
               XSTACK = 00000000 ( 00000009 )
    -------------------------------------------------------------------------
<BANKED_CODE,BANK_RELAYS..> 1 (was BANKED_CODE)
  Relative segment, address: CODE 00004C51 - 00004C55 (0x5 bytes), align: 0
  Segment part 14.            Intra module refs:   InitBoard
                                                   OnBoard_KeyCallback
           LOCAL                   ADDRESS         
           =====                   =======         
           ?Subroutine0            00004C51 
    -------------------------------------------------------------------------
<BANKED_CODE,BANK_RELAYS..> 1 (was BANKED_CODE)
  Relative segment, address: CODE 00004C56 - 00004C97 (0x42 bytes), align: 0
  Segment part 18.            Intra module refs:   OnBoard_SendKeys::?relay
           ENTRY                   ADDRESS         REF BY
           =====                   =======         ======
           OnBoard_SendKeys        00004C56 
               calls direct
               XSTACK = 00000009 ( 0000000A )
               ISTACK = 00000000 ( 00000001 )
    -------------------------------------------------------------------------
<BANKED_CODE,BANK_RELAYS..> 1 (was BANKED_CODE)
  Relative segment, address: CODE 00004C98 - 00004CA7 (0x10 bytes), align: 0
  Segment part 20.            Intra module refs:   OnBoard_KeyCallback::?relay
           ENTRY                   ADDRESS         REF BY
           =====                   =======         ======
           OnBoard_KeyCallback     00004C98 
               calls direct, is indirectly called
               XSTACK = 00000000 ( 00000009 )
    -------------------------------------------------------------------------
<BANKED_CODE,BANK_RELAYS..> 1 (was BANKED_CODE)
  Relative segment, address: CODE 00004CA8 - 00004CBF (0x18 bytes), align: 0
  Segment part 28.            Intra module refs:   Onboard_wait::?relay
           ENTRY                   ADDRESS         REF BY
           =====                   =======         ======
           Onboard_wait            00004CA8 
               XSTACK = 00000009 ( 00000000 )
    -------------------------------------------------------------------------
XDATA_ID
  Relative segment, address: CODE 0000208A - 0000208A (0x1 bytes), align: 0
  Segment part 11.            Intra module refs:   registeredKeysTaskID
    -------------------------------------------------------------------------
<BANKED_CODE,BANK_RELAYS..> 1 (was BANK_RELAYS)
  Relative segment, address: CODE 000028B7 - 000028BC (0x6 bytes), align: 0
  Segment part 13.
           ENTRY                   ADDRESS         REF BY
           =====                   =======         ======
           InitBoard::?relay       000028B7        main (main_UART_Bridge)
    -------------------------------------------------------------------------
<BANKED_CODE,BANK_RELAYS..> 1 (was BANK_RELAYS)
  Relative segment, address: CODE 000028B1 - 000028B6 (0x6 bytes), align: 0
  Segment part 19.            Intra module refs:   OnBoard_KeyCallback
           ENTRY                   ADDRESS         REF BY
           =====                   =======         ======
           OnBoard_SendKeys::?relay
                                   000028B1 
    -------------------------------------------------------------------------
<BANKED_CODE,BANK_RELAYS..> 1 (was BANK_RELAYS)
  Relative segment, address: CODE 000028AB - 000028B0 (0x6 bytes), align: 0
  Segment part 21.            Intra module refs:   InitBoard
           ENTRY                   ADDRESS         REF BY
           =====                   =======         ======
           OnBoard_KeyCallback::?relay
                                   000028AB 
    -------------------------------------------------------------------------
<BANKED_CODE,BANK_RELAYS..> 1 (was BANK_RELAYS)
  Relative segment, address: CODE 0000289F - 000028A4 (0x6 bytes), align: 0
  Segment part 29.            Intra module refs:   InitBoard
           ENTRY                   ADDRESS         REF BY
           =====                   =======         ======
           Onboard_wait::?relay    0000289F 

    *************************************************************************

  FILE NAME : C:\Users\freeman\Documents\work\NBK\Nikon\Nikon_Rf\SimpliciTI-IAR-1.2.0\Projects\Examples\SRF05_8051\nik_sb5000\IAR\LinkTo\Obj\bsp.r51
  PROGRAM MODULE, NAME : bsp

  SEGMENTS IN THE MODULE
  ======================
SFR_AN
  Relative segment, address: DATA 0000008F - 0000008F (0x1 bytes), align: 0
  Segment part 1. ROOT.       Intra module refs:   main (main_UART_Bridge)
           ENTRY                   ADDRESS         REF BY
           =====                   =======         ======
           P0INP                   0000008F 
    -------------------------------------------------------------------------
SFR_AN
  Relative segment, address: DATA 00000090 - 00000090 (0x1 bytes), align: 0
  Segment part 2. ROOT.       Intra module refs:   HalLedOnOff (hal_led)
                                                   MstPacketParse (nwk_api)
                                                   main (main_UART_Bridge)
           ENTRY                   ADDRESS         REF BY
           =====                   =======         ======
           _A_P1                   00000090 
           LOCAL                   ADDRESS         
           =====                   =======         
           P1                      00000090 
    -------------------------------------------------------------------------
SFR_AN
  Relative segment, address: DATA 000000CB - 000000CB (0x1 bytes), align: 0
  Segment part 4. ROOT.       Intra module refs:   BSP_Delay
           ENTRY                   ADDRESS         REF BY
           =====                   =======         ======
           T3CTL                   000000CB 
    -------------------------------------------------------------------------
SFR_AN
  Relative segment, address: DATA 000000CC - 000000CC (0x1 bytes), align: 0
  Segment part 5. ROOT.       Intra module refs:   BSP_Delay
           ENTRY                   ADDRESS         REF BY
           =====                   =======         ======
           T3CCTL0                 000000CC 
    -------------------------------------------------------------------------
SFR_AN
  Relative segment, address: DATA 000000CD - 000000CD (0x1 bytes), align: 0
  Segment part 6. ROOT.       Intra module refs:   BSP_Delay
           ENTRY                   ADDRESS         REF BY
           =====                   =======         ======
           T3CC0                   000000CD 
    -------------------------------------------------------------------------
SFR_AN
  Relative segment, address: DATA 000000D8 - 000000D8 (0x1 bytes), align: 0
  Segment part 7. ROOT.       Intra module refs:   BSP_Delay
                                                   halProcessTimer3 (hal_timer)
                                                   halProcessTimer4 (hal_timer)
           ENTRY                   ADDRESS         REF BY
           =====                   =======         ======
           _A_TIMIF                000000D8 
           LOCAL                   ADDRESS         
           =====                   =======         
           TIMIF                   000000D8 
    -------------------------------------------------------------------------
SFR_AN
  Relative segment, address: DATA 000000F7 - 000000F7 (0x1 bytes), align: 0
  Segment part 8. ROOT.
           ENTRY                   ADDRESS         REF BY
           =====                   =======         ======
           P2INP                   000000F7 
    -------------------------------------------------------------------------
SFR_AN
  Relative segment, address: DATA 000000FE - 000000FE (0x1 bytes), align: 0
  Segment part 9. ROOT.       Intra module refs:   main (main_UART_Bridge)
           ENTRY                   ADDRESS         REF BY
           =====                   =======         ======
           P1DIR                   000000FE 
    -------------------------------------------------------------------------
<BANKED_CODE,BANK_RELAYS..> 1 (was BANKED_CODE)
  Relative segment, address: CODE 000051DC - 000051F8 (0x1d bytes), align: 0
  Segment part 20.            Intra module refs:   BSP_Delay::?relay
           ENTRY                   ADDRESS         REF BY
           =====                   =======         ======
           BSP_Delay               000051DC 
    -------------------------------------------------------------------------
<BANKED_CODE,BANK_RELAYS..> 1 (was BANK_RELAYS)
  Relative segment, address: CODE 0000287B - 00002880 (0x6 bytes), align: 0
  Segment part 21.
           ENTRY                   ADDRESS         REF BY
           =====                   =======         ======
           BSP_Delay::?relay       0000287B        ?Subroutine4 (mrfi)
                                                   MRFI_ReplyDelay (mrfi)
                                                   Mrfi_DelayUsecLong (mrfi)

    *************************************************************************

  FILE NAME : C:\Users\freeman\Documents\work\NBK\Nikon\Nikon_Rf\SimpliciTI-IAR-1.2.0\Projects\Examples\SRF05_8051\nik_sb5000\IAR\LinkTo\Obj\chipcon_cstartup.r51
  PROGRAM MODULE, NAME : CSTARTUP

  SEGMENTS IN THE MODULE
  ======================
REGISTERS
  Relative segment, address: DATA 00000000, align: 0
  Segment part 0.             Intra module refs:   Segment part 6
           ENTRY                   ADDRESS         REF BY
           =====                   =======         ======
           ?REGISTERS              00000000 
    -------------------------------------------------------------------------
ISTACK
  Relative segment, address: IDATA 00000040, align: 0
  Segment part 1.             Intra module refs:   Segment part 6
           ENTRY                   ADDRESS         REF BY
           =====                   =======         ======
           ?ISTACK_START           00000040 
    -------------------------------------------------------------------------
XSTACK
  Relative segment, address: XDATA 00000001, align: 0
  Segment part 3.             Intra module refs:   ?RESET_XSP
           ENTRY                   ADDRESS         REF BY
           =====                   =======         ======
           ?XSTACK_START           00000001 
    -------------------------------------------------------------------------
INTVEC
  Common segment, address: CODE 00002000 - 00002002 (0x3 bytes), align: 0
  Segment part 5. ROOT.       Intra module refs:   Segment part 6
           LOCAL                   ADDRESS         
           =====                   =======         
           ?reset_vector           00002000 
    -------------------------------------------------------------------------
<BANKED_CODE,BANK_RELAYS..> 1 (was CSTART)
  Relative segment, address: CODE 000025B8 - 000025BD (0x6 bytes), align: 0
  Segment part 6. ROOT.       Intra module refs:   ?reset_vector
           ENTRY                   ADDRESS         REF BY
           =====                   =======         ======
           __program_start         000025B8        Absolute parts (?ABS_ENTRY_MOD)
           ?RESET_SP               000025BB 
    -------------------------------------------------------------------------
<BANKED_CODE,BANK_RELAYS..> 1 (was CSTART)
  Relative segment, address: CODE 000025BE - 000025C3 (0x6 bytes), align: 0
  Segment part 8.
           ENTRY                   ADDRESS         REF BY
           =====                   =======         ======
           ?RESET_XSP              000025BE        ?XSP (VIRTUAL_REGISTERS)
    -------------------------------------------------------------------------
<BANKED_CODE,BANK_RELAYS..> 1 (was CSTART)
  Relative segment, address: CODE 000025C4 - 000025C4 (0x1 bytes), align: 0
  Segment part 9.
           ENTRY                   ADDRESS         REF BY
           =====                   =======         ======
           ?RESET_CODE_BANK        000025C4        Absolute parts (?BANKED_CODE_SUPPORT)
    -------------------------------------------------------------------------
<BANKED_CODE,BANK_RELAYS..> 1 (was CSTART)
  Relative segment, address: CODE 000025C5 - 000025C7 (0x3 bytes), align: 0
  Segment part 11.            Intra module refs:   Absolute parts
           LOCAL                   ADDRESS         
           =====                   =======         
           __call_main             000025C5 

    -------------------------------------------------------------------------
  LIBRARY MODULE, NAME : VIRTUAL_REGISTERS

  SEGMENTS IN THE MODULE
  ======================
BREG
  Relative segment, address: BIT 00000020.0 - 00000020.7 (0x8 bits), align: 0
  Segment part 0.
           ENTRY                   ADDRESS         REF BY
           =====                   =======         ======
           ?B0                     00000020.0      Absolute parts (CSTARTUP)
    -------------------------------------------------------------------------
VREG
  Relative segment, address: DATA 00000008, align: 0
  Segment part 1.
           ENTRY                   ADDRESS         REF BY
           =====                   =======         ======
           ?V0                     00000008        ?BANKED_ENTER_XDATA (?BANKED_ENTER_XDATA)
                                                   ?BANKED_LEAVE_XDATA (?BANKED_LEAVE_XDATA)
                                                   ?INTERRUPT_ENTER_SP (?INTERRUPT_ENTER_SP)
                                                   ?INTERRUPT_ENTER_XSP (?INTERRUPT_ENTER_XSP)
                                                   ?INTERRUPT_LEAVE_SP (?INTERRUPT_LEAVE_SP)
                                                   ?INTERRUPT_LEAVE_XSP (?INTERRUPT_LEAVE_XSP)
                                                   ?Subroutine1 (hal_led)
                                                   ?Subroutine1 (nwk_frame)
                                                   ?Subroutine11 (hal_uart)
                                                   ?Subroutine12 (hal_uart)
                                                   ?Subroutine14 (nwk_api)
                                                   ?Subroutine3 (hal_uart)
                                                   ?Subroutine4 (hal_uart)
                                                   ?Subroutine4 (mrfi)
                                                   ?Subroutine5 (hal_uart)
                                                   ?Subroutine9 (hal_uart)
                                                   CalcSum (nwk_api)
                                                   HalFlashInit (hal_flash)
                                                   HalFlashRead (hal_flash)
                                                   HalLedBlink (hal_led)
                                                   HalLedSet (hal_led)
                                                   HalUARTPollDMA (hal_uart)
                                                   HalUARTReadDMA (hal_uart)
                                                   HalUARTWriteDMA (hal_uart)
                                                   MRFI_Init (mrfi)
                                                   MRFI_ReplyDelay (mrfi)
                                                   MRFI_RxIsr (mrfi)
                                                   MRFI_SetLogicalChannel (mrfi)
                                                   MRFI_SetRFPwr (mrfi)
                                                   MRFI_Transmit (mrfi)
                                                   Mrfi_DelayUsec (mrfi)
                                                   Mrfi_DelayUsecLong (mrfi)
                                                   MstPacketParse (nwk_api)
                                                   SMPL_Ioctl (nwk_api)
                                                   Segment part 49 (hal_uart)
                                                   Segment part 8 (?memmove)
                                                   UartProcessData (uart_intfc)
                                                   UartSctSend (nwk_api)
                                                   halTimerSendCallBack (hal_timer)
                                                   memcpy (?memcpy)
                                                   memmove (?memmove)
                                                   nwk_QInit (nwk_QMgmt)
                                                   nwk_QfindOldest (nwk_QMgmt)
                                                   nwk_QfindSlot (nwk_QMgmt)
                                                   nwk_buildFrame (nwk_frame)
                                                   nwk_deviceAddress (nwk_ioctl)
                                                   nwk_globalsInit (nwk_globals)
                                                   nwk_join (nwk_join)
                                                   nwk_joinInit (nwk_join)
                                                   nwk_linkInit (nwk_link)
                                                   nwk_nwkInit (nwk)
                                                   nwk_putNumObjectIntoMsg (nwk)
                                                   nwk_radioControl (nwk_ioctl)
                                                   nwk_rawReceive (nwk_ioctl)
                                                   nwk_rawSend (nwk_ioctl)
                                                   nwk_retrieveFrame (nwk_frame)
                                                   nwk_setAPAddress (nwk_globals)
                                                   nwk_setLinkToken (nwk_link)
                                                   nwk_setMyAddress (nwk_globals)
                                                   osal_mem_alloc (OSAL_Memory)
                                                   osal_mem_free (OSAL_Memory)
                                                   osal_memset (OSAL)
                                                   osal_msg_allocate (OSAL)
    -------------------------------------------------------------------------
XSP
  Relative segment, address: DATA 00000018 - 00000019 (0x2 bytes), align: 0
  Segment part 3.
           ENTRY                   ADDRESS         REF BY
           =====                   =======         ======
           ?XSP                    00000018        ?ADD_XSTACK_DISP0_8 (?ADD_XSTACK_DISP8)
                                                   ?ALLOC_XSTACK8 (?ALLOC_XSTACK8)
                                                   ?BANKED_ENTER_XDATA (?BANKED_ENTER_XDATA)
                                                   ?BANKED_LEAVE_XDATA (?BANKED_LEAVE_XDATA)
                                                   ?DEALLOC_XSTACK8 (?DEALLOC_XSTACK8)
                                                   ?INTERRUPT_ENTER_XSP (?INTERRUPT_ENTER_XSP)
                                                   ?INTERRUPT_LEAVE_XSP (?INTERRUPT_LEAVE_XSP)
                                                   ?PUSH_XSTACK8_X (?PUSH_XSTACK8_X)
                                                   ?RESET_XSP (CSTARTUP)
                                                   ?Subroutine14 (nwk_api)
                                                   ?Subroutine15 (nwk_api)
                                                   ?XSTACK_DISP0_8 (?XSTACK_DISP8)
                                                   DmaUartInit (uart_intfc)
                                                   FlashInfoSend (nwk_api)
                                                   PreFlashInfoSend (nwk_api)
                                                   RptFlashInfoSend (nwk_api)
                                                   nwk_QfindOldest (nwk_QMgmt)
                                                   nwk_getConnInfo (nwk)
                                                   nwk_join (nwk_join)
                                                   nwk_putNumObjectIntoMsg (nwk)
                                                   nwk_rawReceive (nwk_ioctl)
                                                   uart_tx_irq (uart)

    *************************************************************************

  FILE NAME : C:\Users\freeman\Documents\work\NBK\Nikon\Nikon_Rf\SimpliciTI-IAR-1.2.0\Projects\Examples\SRF05_8051\nik_sb5000\IAR\LinkTo\Obj\hal_adc.r51
  PROGRAM MODULE, NAME : hal_adc

  SEGMENTS IN THE MODULE
  ======================
SFR_AN
  Relative segment, address: DATA 00000088 - 00000088 (0x1 bytes), align: 0
  Segment part 1. ROOT.
           ENTRY                   ADDRESS         REF BY
           =====                   =======         ======
           _A_TCON                 00000088 
           LOCAL                   ADDRESS         
           =====                   =======         
           TCON                    00000088 
    -------------------------------------------------------------------------
SFR_AN
  Relative segment, address: DATA 000000B6 - 000000B6 (0x1 bytes), align: 0
  Segment part 2. ROOT.
           ENTRY                   ADDRESS         REF BY
           =====                   =======         ======
           ADCCON3                 000000B6 
    -------------------------------------------------------------------------
SFR_AN
  Relative segment, address: DATA 000000BA - 000000BA (0x1 bytes), align: 0
  Segment part 3. ROOT.
           ENTRY                   ADDRESS         REF BY
           =====                   =======         ======
           ADCL                    000000BA 
    -------------------------------------------------------------------------
SFR_AN
  Relative segment, address: DATA 000000BB - 000000BB (0x1 bytes), align: 0
  Segment part 4. ROOT.
           ENTRY                   ADDRESS         REF BY
           =====                   =======         ======
           ADCH                    000000BB 

    *************************************************************************

  FILE NAME : C:\Users\freeman\Documents\work\NBK\Nikon\Nikon_Rf\SimpliciTI-IAR-1.2.0\Projects\Examples\SRF05_8051\nik_sb5000\IAR\LinkTo\Obj\hal_assert.r51
  PROGRAM MODULE, NAME : hal_assert

  SEGMENTS IN THE MODULE
  ======================
SFR_AN
  Relative segment, address: DATA 00000080 - 00000080 (0x1 bytes), align: 0
  Segment part 1. ROOT.       Intra module refs:   HalUARTOpenDMA (hal_uart)
                                                   HalUARTPollDMA (hal_uart)
                                                   HalUARTReadDMA (hal_uart)
                                                   MAC_RfFrontendSetup (mac_rffrontend)
                                                   MRFI_Init (mrfi)
                                                   MstPacketParse (nwk_api)
           ENTRY                   ADDRESS         REF BY
           =====                   =======         ======
           _A_P0                   00000080 
           LOCAL                   ADDRESS         
           =====                   =======         
           P0                      00000080 
    -------------------------------------------------------------------------
SFR_AN
  Relative segment, address: DATA 0000009E - 0000009E (0x1 bytes), align: 0
  Segment part 5. ROOT.       Intra module refs:   MRFI_Init (mrfi)
                                                   main (main_UART_Bridge)
           ENTRY                   ADDRESS         REF BY
           =====                   =======         ======
           CLKCONSTA               0000009E 
    -------------------------------------------------------------------------
SFR_AN
  Relative segment, address: DATA 000000BE - 000000BE (0x1 bytes), align: 0
  Segment part 7. ROOT.       Intra module refs:   MRFI_Init (mrfi)
                                                   main (main_UART_Bridge)
           ENTRY                   ADDRESS         REF BY
           =====                   =======         ======
           SLEEPCMD                000000BE 
    -------------------------------------------------------------------------
SFR_AN
  Relative segment, address: DATA 000000C6 - 000000C6 (0x1 bytes), align: 0
  Segment part 8. ROOT.       Intra module refs:   MRFI_Init (mrfi)
                                                   main (main_UART_Bridge)
           ENTRY                   ADDRESS         REF BY
           =====                   =======         ======
           CLKCONCMD               000000C6 
    -------------------------------------------------------------------------
SFR_AN
  Relative segment, address: DATA 000000C9 - 000000C9 (0x1 bytes), align: 0
  Segment part 9. ROOT.       Intra module refs:   halAssertHandler
           ENTRY                   ADDRESS         REF BY
           =====                   =======         ======
           WDCTL                   000000C9 
    -------------------------------------------------------------------------
SFR_AN
  Relative segment, address: DATA 000000FD - 000000FD (0x1 bytes), align: 0
  Segment part 10. ROOT.      Intra module refs:   HalUARTOpenDMA (hal_uart)
                                                   MRFI_Init (mrfi)
                                                   main (main_UART_Bridge)
           ENTRY                   ADDRESS         REF BY
           =====                   =======         ======
           P0DIR                   000000FD 
    -------------------------------------------------------------------------
<BANKED_CODE,BANK_RELAYS..> 1 (was BANKED_CODE)
  Relative segment, address: CODE 00005295 - 0000529E (0xa bytes), align: 0
  Segment part 23.            Intra module refs:   halAssertHandler::?relay
           ENTRY                   ADDRESS         REF BY
           =====                   =======         ======
           halAssertHandler        00005295 
    -------------------------------------------------------------------------
<BANKED_CODE,BANK_RELAYS..> 1 (was BANK_RELAYS)
  Relative segment, address: CODE 0000274F - 00002754 (0x6 bytes), align: 0
  Segment part 24.
           ENTRY                   ADDRESS         REF BY
           =====                   =======         ======
           halAssertHandler::?relay
                                   0000274F        osal_mem_free (OSAL_Memory)

    *************************************************************************

  FILE NAME : C:\Users\freeman\Documents\work\NBK\Nikon\Nikon_Rf\SimpliciTI-IAR-1.2.0\Projects\Examples\SRF05_8051\nik_sb5000\IAR\LinkTo\Obj\hal_dma.r51
  PROGRAM MODULE, NAME : hal_dma

  SEGMENTS IN THE MODULE
  ======================
SFR_AN
  Relative segment, address: DATA 000000B8 - 000000B8 (0x1 bytes), align: 0
  Segment part 1. ROOT.       Intra module refs:   HalDmaInit
           ENTRY                   ADDRESS         REF BY
           =====                   =======         ======
           _A_IEN1                 000000B8 
           LOCAL                   ADDRESS         
           =====                   =======         
           IEN1                    000000B8 
    -------------------------------------------------------------------------
SFR_AN
  Relative segment, address: DATA 000000C0 - 000000C0 (0x1 bytes), align: 0
  Segment part 2. ROOT.       Intra module refs:   halDmaIsr
                                                   halSleepTimerIsr (hal_sleep)
           ENTRY                   ADDRESS         REF BY
           =====                   =======         ======
           _A_IRCON                000000C0 
           LOCAL                   ADDRESS         
           =====                   =======         
           IRCON                   000000C0 
    -------------------------------------------------------------------------
SFR_AN
  Relative segment, address: DATA 000000D1 - 000000D1 (0x1 bytes), align: 0
  Segment part 3. ROOT.       Intra module refs:   HalUARTIsrDMA (hal_uart)
                                                   HalUARTOpenDMA (hal_uart)
                                                   HalUARTPollDMA (hal_uart)
                                                   UartDMAIntSend (hal_uart)
                                                   halDmaIsr
           ENTRY                   ADDRESS         REF BY
           =====                   =======         ======
           DMAIRQ                  000000D1 
    -------------------------------------------------------------------------
SFR_AN
  Relative segment, address: DATA 000000D2 - 000000D2 (0x1 bytes), align: 0
  Segment part 4. ROOT.       Intra module refs:   HalDmaInit
           ENTRY                   ADDRESS         REF BY
           =====                   =======         ======
           DMA1CFGL                000000D2 
    -------------------------------------------------------------------------
SFR_AN
  Relative segment, address: DATA 000000D3 - 000000D3 (0x1 bytes), align: 0
  Segment part 5. ROOT.       Intra module refs:   HalDmaInit
           ENTRY                   ADDRESS         REF BY
           =====                   =======         ======
           DMA1CFGH                000000D3 
    -------------------------------------------------------------------------
SFR_AN
  Relative segment, address: DATA 000000D4 - 000000D4 (0x1 bytes), align: 0
  Segment part 6. ROOT.       Intra module refs:   HalDmaInit
           ENTRY                   ADDRESS         REF BY
           =====                   =======         ======
           DMA0CFGL                000000D4 
    -------------------------------------------------------------------------
SFR_AN
  Relative segment, address: DATA 000000D5 - 000000D5 (0x1 bytes), align: 0
  Segment part 7. ROOT.       Intra module refs:   HalDmaInit
           ENTRY                   ADDRESS         REF BY
           =====                   =======         ======
           DMA0CFGH                000000D5 
    -------------------------------------------------------------------------
XDATA_Z
  Relative segment, address: XDATA 00000C0B - 00000C12 (0x8 bytes), align: 0
  Segment part 14.            Intra module refs:   HalDmaInit
           ENTRY                   ADDRESS         REF BY
           =====                   =======         ======
           dmaCh0                  00000C0B 
    -------------------------------------------------------------------------
XDATA_Z
  Relative segment, address: XDATA 00000C13 - 00000C32 (0x20 bytes), align: 0
  Segment part 15.            Intra module refs:   HalDmaInit
           ENTRY                   ADDRESS         REF BY
           =====                   =======         ======
           dmaCh1234               00000C13        ?Subroutine3 (hal_uart)
                                                   ?Subroutine4 (hal_uart)
                                                   HalUARTInitDMA (hal_uart)
    -------------------------------------------------------------------------
<BANKED_CODE,BANK_RELAYS..> 1 (was BANKED_CODE)
  Relative segment, address: CODE 0000526F - 00005281 (0x13 bytes), align: 0
  Segment part 16.            Intra module refs:   HalDmaInit::?relay
           ENTRY                   ADDRESS         REF BY
           =====                   =======         ======
           HalDmaInit              0000526F 
    -------------------------------------------------------------------------
<BANKED_CODE,BANK_RELAYS..> 1 (was NEAR_CODE)
  Relative segment, address: CODE 00002554 - 0000256A (0x17 bytes), align: 0
  Segment part 18.            Intra module refs:   halDmaIsr::??INTVEC 67
           ENTRY                   ADDRESS         REF BY
           =====                   =======         ======
           halDmaIsr               00002554 
               interrupt function
               calls direct
               XSTACK = 00000000 ( 0000000E )
    -------------------------------------------------------------------------
INTVEC
  Common segment, address: CODE 00002000 - 00002045 (0x46 bytes), align: 0
  Segment part 8. ROOT.
           ENTRY                   ADDRESS         REF BY
           =====                   =======         ======
           halDmaIsr::??INTVEC 67
                                   00002043 
    -------------------------------------------------------------------------
<BANKED_CODE,BANK_RELAYS..> 1 (was BANK_RELAYS)
  Relative segment, address: CODE 000028C9 - 000028CE (0x6 bytes), align: 0
  Segment part 17.
           ENTRY                   ADDRESS         REF BY
           =====                   =======         ======
           HalDmaInit::?relay      000028C9        HalDriverInit (hal_drivers)

    *************************************************************************

  FILE NAME : C:\Users\freeman\Documents\work\NBK\Nikon\Nikon_Rf\SimpliciTI-IAR-1.2.0\Projects\Examples\SRF05_8051\nik_sb5000\IAR\LinkTo\Obj\hal_drivers.r51
  PROGRAM MODULE, NAME : hal_drivers

  SEGMENTS IN THE MODULE
  ======================
XDATA_Z
  Relative segment, address: XDATA 00000C33 - 00000C33 (0x1 bytes), align: 0
  Segment part 6.
           ENTRY                   ADDRESS         REF BY
           =====                   =======         ======
           Hal_TaskID              00000C33        HalLedBlink (hal_led)
    -------------------------------------------------------------------------
<BANKED_CODE,BANK_RELAYS..> 1 (was BANKED_CODE)
  Relative segment, address: CODE 0000522F - 00005235 (0x7 bytes), align: 0
  Segment part 9.             Intra module refs:   HalDriverInit
           LOCAL                   ADDRESS         
           =====                   =======         
           ?Subroutine0            0000522F 
    -------------------------------------------------------------------------
<BANKED_CODE,BANK_RELAYS..> 1 (was BANKED_CODE)
  Relative segment, address: CODE 00005236 - 00005247 (0x12 bytes), align: 0
  Segment part 10.            Intra module refs:   HalDriverInit::?relay
           ENTRY                   ADDRESS         REF BY
           =====                   =======         ======
           HalDriverInit           00005236 
               calls direct
               ISTACK = 00000000 ( 00000002 )
    -------------------------------------------------------------------------
<BANKED_CODE,BANK_RELAYS..> 1 (was BANK_RELAYS)
  Relative segment, address: CODE 000028A5 - 000028AA (0x6 bytes), align: 0
  Segment part 11.
           ENTRY                   ADDRESS         REF BY
           =====                   =======         ======
           HalDriverInit::?relay   000028A5        main (main_UART_Bridge)

    *************************************************************************

  FILE NAME : C:\Users\freeman\Documents\work\NBK\Nikon\Nikon_Rf\SimpliciTI-IAR-1.2.0\Projects\Examples\SRF05_8051\nik_sb5000\IAR\LinkTo\Obj\hal_flash.r51
  PROGRAM MODULE, NAME : hal_flash

  SEGMENTS IN THE MODULE
  ======================
SFR_AN
  Relative segment, address: DATA 000000C7 - 000000C7 (0x1 bytes), align: 0
  Segment part 2. ROOT.       Intra module refs:   HalFlashRead
                                                   __low_level_init (hal_startup)
           ENTRY                   ADDRESS         REF BY
           =====                   =======         ======
           MEMCTR                  000000C7 
    -------------------------------------------------------------------------
SFR_AN
  Relative segment, address: DATA 000000D6 - 000000D6 (0x1 bytes), align: 0
  Segment part 4. ROOT.       Intra module refs:   HalUARTOpenDMA (hal_uart)
                                                   HalUARTPollDMA (hal_uart)
                                                   UartDMAIntSend (hal_uart)
           ENTRY                   ADDRESS         REF BY
           =====                   =======         ======
           DMAARM                  000000D6 
    -------------------------------------------------------------------------
RAM_CODE_XDATA
  Relative segment, address: XDATA 00001EDD - 00001EFF (0x23 bytes), align: 0
  Segment part 10.            Intra module refs:   HalFlashInit
           LOCAL                   ADDRESS         
           =====                   =======         
           ramCode                 00001EDD 
    -------------------------------------------------------------------------
<BANKED_CODE,BANK_RELAYS..> 1 (was BANKED_CODE)
  Relative segment, address: CODE 00004E3B - 00004E5C (0x22 bytes), align: 0
  Segment part 11.            Intra module refs:   HalFlashInit::?relay
           ENTRY                   ADDRESS         REF BY
           =====                   =======         ======
           HalFlashInit            00004E3B 
               calls direct
               XSTACK = 00000000 ( 0000000C )
    -------------------------------------------------------------------------
<BANKED_CODE,BANK_RELAYS..> 1 (was BANKED_CODE)
  Relative segment, address: CODE 00004E5D - 00004E61 (0x5 bytes), align: 0
  Segment part 13.            Intra module refs:   HalFlashInit
           LOCAL                   ADDRESS         
           =====                   =======         
           ?Subroutine0            00004E5D 
    -------------------------------------------------------------------------
<BANKED_CODE,BANK_RELAYS..> 1 (was BANKED_CODE)
  Relative segment, address: CODE 00004E62 - 00004EE6 (0x85 bytes), align: 0
  Segment part 14.            Intra module refs:   HalFlashRead::?relay
           ENTRY                   ADDRESS         REF BY
           =====                   =======         ======
           HalFlashRead            00004E62 
               XSTACK = 0000000C ( 0000000C )
               ISTACK = 00000000 ( 00000001 )
    -------------------------------------------------------------------------
<BANKED_CODE,BANK_RELAYS..> 1 (was BANK_RELAYS)
  Relative segment, address: CODE 00002899 - 0000289E (0x6 bytes), align: 0
  Segment part 12.
           ENTRY                   ADDRESS         REF BY
           =====                   =======         ======
           HalFlashInit::?relay    00002899        HalDriverInit (hal_drivers)
    -------------------------------------------------------------------------
<BANKED_CODE,BANK_RELAYS..> 1 (was BANK_RELAYS)
  Relative segment, address: CODE 00002893 - 00002898 (0x6 bytes), align: 0
  Segment part 15.            Intra module refs:   HalFlashInit
           ENTRY                   ADDRESS         REF BY
           =====                   =======         ======
           HalFlashRead::?relay    00002893 

    *************************************************************************

  FILE NAME : C:\Users\freeman\Documents\work\NBK\Nikon\Nikon_Rf\SimpliciTI-IAR-1.2.0\Projects\Examples\SRF05_8051\nik_sb5000\IAR\LinkTo\Obj\hal_key.r51
  PROGRAM MODULE, NAME : hal_key

  SEGMENTS IN THE MODULE
  ======================
<BANKED_CODE,BANK_RELAYS..> 1 (was BANKED_CODE)
  Relative segment, address: CODE 000052A5 - 000052A7 (0x3 bytes), align: 0
  Segment part 8.             Intra module refs:   HalKeyConfig::?relay
           ENTRY                   ADDRESS         REF BY
           =====                   =======         ======
           HalKeyConfig            000052A5 
    -------------------------------------------------------------------------
<BANKED_CODE,BANK_RELAYS..> 1 (was BANK_RELAYS)
  Relative segment, address: CODE 0000288D - 00002892 (0x6 bytes), align: 0
  Segment part 9.
           ENTRY                   ADDRESS         REF BY
           =====                   =======         ======
           HalKeyConfig::?relay    0000288D        InitBoard (OnBoard)

    *************************************************************************

  FILE NAME : C:\Users\freeman\Documents\work\NBK\Nikon\Nikon_Rf\SimpliciTI-IAR-1.2.0\Projects\Examples\SRF05_8051\nik_sb5000\IAR\LinkTo\Obj\hal_lcd.r51
    *************************************************************************

  FILE NAME : C:\Users\freeman\Documents\work\NBK\Nikon\Nikon_Rf\SimpliciTI-IAR-1.2.0\Projects\Examples\SRF05_8051\nik_sb5000\IAR\LinkTo\Obj\hal_led.r51
  PROGRAM MODULE, NAME : hal_led

  SEGMENTS IN THE MODULE
  ======================
XDATA_Z
  Relative segment, address: XDATA 00000C34 - 00000C34 (0x1 bytes), align: 0
  Segment part 7.             Intra module refs:   HalLedBlink
                                                   HalLedOnOff
                                                   HalLedSet
           LOCAL                   ADDRESS         
           =====                   =======         
           HalLedState             00000C34 
    -------------------------------------------------------------------------
XDATA_Z
  Relative segment, address: XDATA 00000C35 - 00000C35 (0x1 bytes), align: 0
  Segment part 9.             Intra module refs:   HalLedBlink
           LOCAL                   ADDRESS         
           =====                   =======         
           preBlinkState           00000C35 
    -------------------------------------------------------------------------
XDATA_Z
  Relative segment, address: XDATA 00000C36 - 00000C5A (0x25 bytes), align: 0
  Segment part 10.            Intra module refs:   ?Subroutine0
                                                   HalLedBlink
                                                   HalLedSet
           LOCAL                   ADDRESS         
           =====                   =======         
           HalLedStatusControl     00000C36 
    -------------------------------------------------------------------------
<BANKED_CODE,BANK_RELAYS..> 1 (was BANKED_CODE)
  Relative segment, address: CODE 00004439 - 00004446 (0xe bytes), align: 0
  Segment part 13.            Intra module refs:   HalLedInit::?relay
           ENTRY                   ADDRESS         REF BY
           =====                   =======         ======
           HalLedInit              00004439 
               calls direct
               ISTACK = 00000000 ( 00000002 )
    -------------------------------------------------------------------------
<BANKED_CODE,BANK_RELAYS..> 1 (was BANKED_CODE)
  Relative segment, address: CODE 00004447 - 000044C0 (0x7a bytes), align: 0
  Segment part 15.            Intra module refs:   HalLedSet::?relay
           ENTRY                   ADDRESS         REF BY
           =====                   =======         ======
           HalLedSet               00004447 
               calls direct, is recursive
               XSTACK = 00000019 ( 0000000B )
               ISTACK = 00000000 ( 00000001 )
    -------------------------------------------------------------------------
<BANKED_CODE,BANK_RELAYS..> 1 (was BANKED_CODE)
  Relative segment, address: CODE 000044C1 - 00004583 (0xc3 bytes), align: 0
  Segment part 17.            Intra module refs:   HalLedBlink::?relay
           ENTRY                   ADDRESS         REF BY
           =====                   =======         ======
           HalLedBlink             000044C1 
               calls direct, is recursive
               XSTACK = 0000000B ( 0000000E )
               ISTACK = 00000000 ( 00000001 )
    -------------------------------------------------------------------------
<BANKED_CODE,BANK_RELAYS..> 1 (was BANKED_CODE)
  Relative segment, address: CODE 00004584 - 0000458C (0x9 bytes), align: 0
  Segment part 19.            Intra module refs:   HalLedBlink
           LOCAL                   ADDRESS         
           =====                   =======         
           ?Subroutine1            00004584 
    -------------------------------------------------------------------------
<BANKED_CODE,BANK_RELAYS..> 1 (was BANKED_CODE)
  Relative segment, address: CODE 0000458D - 000045E5 (0x59 bytes), align: 0
  Segment part 22.            Intra module refs:   HalLedOnOff::?relay
           ENTRY                   ADDRESS         REF BY
           =====                   =======         ======
           HalLedOnOff             0000458D 
               XSTACK = 00000019 ( 00000000 )
               ISTACK = 00000000 ( 00000002 )
    -------------------------------------------------------------------------
<BANKED_CODE,BANK_RELAYS..> 1 (was BANKED_CODE)
  Relative segment, address: CODE 000045E6 - 000045E9 (0x4 bytes), align: 0
  Segment part 24.            Intra module refs:   HalLedInit
           LOCAL                   ADDRESS         
           =====                   =======         
           ?Subroutine0            000045E6 
    -------------------------------------------------------------------------
<BANKED_CODE,BANK_RELAYS..> 1 (was BANKED_CODE)
  Relative segment, address: CODE 000045EA - 000045EA (0x1 bytes), align: 0
  Segment part 25.            Intra module refs:   ?Subroutine0
                                                   HalLedOnOff
    -------------------------------------------------------------------------
<BANKED_CODE,BANK_RELAYS..> 1 (was BANKED_CODE)
  Relative segment, address: CODE 000045EB - 000045F1 (0x7 bytes), align: 0
  Segment part 26.            Intra module refs:   Segment part 25
    -------------------------------------------------------------------------
<BANKED_CODE,BANK_RELAYS..> 1 (was BANK_RELAYS)
  Relative segment, address: CODE 00002887 - 0000288C (0x6 bytes), align: 0
  Segment part 14.
           ENTRY                   ADDRESS         REF BY
           =====                   =======         ======
           HalLedInit::?relay      00002887        HalDriverInit (hal_drivers)
    -------------------------------------------------------------------------
<BANKED_CODE,BANK_RELAYS..> 1 (was BANK_RELAYS)
  Relative segment, address: CODE 00002881 - 00002886 (0x6 bytes), align: 0
  Segment part 16.            Intra module refs:   HalLedBlink
                                                   HalLedInit
           ENTRY                   ADDRESS         REF BY
           =====                   =======         ======
           HalLedSet::?relay       00002881        InitBoard (OnBoard)
    -------------------------------------------------------------------------
<BANKED_CODE,BANK_RELAYS..> 1 (was BANK_RELAYS)
  Relative segment, address: CODE 00002761 - 00002766 (0x6 bytes), align: 0
  Segment part 18.            Intra module refs:   HalLedSet
           ENTRY                   ADDRESS         REF BY
           =====                   =======         ======
           HalLedBlink::?relay     00002761 
    -------------------------------------------------------------------------
<BANKED_CODE,BANK_RELAYS..> 1 (was BANK_RELAYS)
  Relative segment, address: CODE 0000262F - 00002634 (0x6 bytes), align: 0
  Segment part 23.            Intra module refs:   HalLedSet
           ENTRY                   ADDRESS         REF BY
           =====                   =======         ======
           HalLedOnOff::?relay     0000262F 

    *************************************************************************

  FILE NAME : C:\Users\freeman\Documents\work\NBK\Nikon\Nikon_Rf\SimpliciTI-IAR-1.2.0\Projects\Examples\SRF05_8051\nik_sb5000\IAR\LinkTo\Obj\hal_sleep.r51
  PROGRAM MODULE, NAME : hal_sleep

  SEGMENTS IN THE MODULE
  ======================
SFR_AN
  Relative segment, address: DATA 00000087 - 00000087 (0x1 bytes), align: 0
  Segment part 1. ROOT.
           ENTRY                   ADDRESS         REF BY
           =====                   =======         ======
           PCON                    00000087 
    -------------------------------------------------------------------------
SFR_AN
  Relative segment, address: DATA 00000095 - 00000095 (0x1 bytes), align: 0
  Segment part 2. ROOT.       Intra module refs:   HalUARTIsrDMA (hal_uart)
                                                   HalUARTPollDMA (hal_uart)
           ENTRY                   ADDRESS         REF BY
           =====                   =======         ======
           ST0                     00000095 
    -------------------------------------------------------------------------
SFR_AN
  Relative segment, address: DATA 00000096 - 00000096 (0x1 bytes), align: 0
  Segment part 3. ROOT.
           ENTRY                   ADDRESS         REF BY
           =====                   =======         ======
           ST1                     00000096 
    -------------------------------------------------------------------------
SFR_AN
  Relative segment, address: DATA 00000097 - 00000097 (0x1 bytes), align: 0
  Segment part 4. ROOT.
           ENTRY                   ADDRESS         REF BY
           =====                   =======         ======
           ST2                     00000097 
    -------------------------------------------------------------------------
SFR_AN
  Relative segment, address: DATA 0000009A - 0000009A (0x1 bytes), align: 0
  Segment part 5. ROOT.       Intra module refs:   MRFI_Init (mrfi)
           ENTRY                   ADDRESS         REF BY
           =====                   =======         ======
           IEN2                    0000009A 
    -------------------------------------------------------------------------
SFR_AN
  Relative segment, address: DATA 000000AD - 000000AD (0x1 bytes), align: 0
  Segment part 7. ROOT.
           ENTRY                   ADDRESS         REF BY
           =====                   =======         ======
           STLOAD                  000000AD 
    -------------------------------------------------------------------------
<BANKED_CODE,BANK_RELAYS..> 1 (was NEAR_CODE)
  Relative segment, address: CODE 00002910 - 00002912 (0x3 bytes), align: 0
  Segment part 62.            Intra module refs:   halSleepTimerIsr::??INTVEC 43
           ENTRY                   ADDRESS         REF BY
           =====                   =======         ======
           halSleepTimerIsr        00002910 
               interrupt function
               ISTACK = 00000000 ( 00000001 )
    -------------------------------------------------------------------------
INTVEC
  Common segment, address: CODE 00002000 - 0000202D (0x2e bytes), align: 0
  Segment part 11. ROOT.
           ENTRY                   ADDRESS         REF BY
           =====                   =======         ======
           halSleepTimerIsr::??INTVEC 43
                                   0000202B 

    *************************************************************************

  FILE NAME : C:\Users\freeman\Documents\work\NBK\Nikon\Nikon_Rf\SimpliciTI-IAR-1.2.0\Projects\Examples\SRF05_8051\nik_sb5000\IAR\LinkTo\Obj\hal_startup.r51
  PROGRAM MODULE, NAME : hal_startup

  SEGMENTS IN THE MODULE
  ======================
<BANKED_CODE,BANK_RELAYS..> 1 (was CSTART)
  Relative segment, address: CODE 0000261A - 00002624 (0xb bytes), align: 0
  Segment part 7. ROOT.
           ENTRY                   ADDRESS         REF BY
           =====                   =======         ======
           __low_level_init        0000261A        __low_level_init_call (?cmain)

    *************************************************************************

  FILE NAME : C:\Users\freeman\Documents\work\NBK\Nikon\Nikon_Rf\SimpliciTI-IAR-1.2.0\Projects\Examples\SRF05_8051\nik_sb5000\IAR\LinkTo\Obj\hal_timer.r51
  PROGRAM MODULE, NAME : hal_timer

  SEGMENTS IN THE MODULE
  ======================
SFR_AN
  Relative segment, address: DATA 000000CE - 000000CE (0x1 bytes), align: 0
  Segment part 4. ROOT.
           ENTRY                   ADDRESS         REF BY
           =====                   =======         ======
           T3CCTL1                 000000CE 
    -------------------------------------------------------------------------
SFR_AN
  Relative segment, address: DATA 000000E4 - 000000E4 (0x1 bytes), align: 0
  Segment part 6. ROOT.       Intra module refs:   halProcessTimer1
           ENTRY                   ADDRESS         REF BY
           =====                   =======         ======
           T1CTL                   000000E4 
    -------------------------------------------------------------------------
SFR_AN
  Relative segment, address: DATA 000000E5 - 000000E5 (0x1 bytes), align: 0
  Segment part 7. ROOT.
           ENTRY                   ADDRESS         REF BY
           =====                   =======         ======
           T1CCTL0                 000000E5 
    -------------------------------------------------------------------------
SFR_AN
  Relative segment, address: DATA 000000E6 - 000000E6 (0x1 bytes), align: 0
  Segment part 8. ROOT.
           ENTRY                   ADDRESS         REF BY
           =====                   =======         ======
           T1CCTL1                 000000E6 
    -------------------------------------------------------------------------
SFR_AN
  Relative segment, address: DATA 000000E7 - 000000E7 (0x1 bytes), align: 0
  Segment part 9. ROOT.
           ENTRY                   ADDRESS         REF BY
           =====                   =======         ======
           T1CCTL2                 000000E7 
    -------------------------------------------------------------------------
SFR_AN
  Relative segment, address: DATA 000000EB - 000000EB (0x1 bytes), align: 0
  Segment part 10. ROOT.
           ENTRY                   ADDRESS         REF BY
           =====                   =======         ======
           T4CTL                   000000EB 
    -------------------------------------------------------------------------
SFR_AN
  Relative segment, address: DATA 000000EC - 000000EC (0x1 bytes), align: 0
  Segment part 11. ROOT.
           ENTRY                   ADDRESS         REF BY
           =====                   =======         ======
           T4CCTL0                 000000EC 
    -------------------------------------------------------------------------
SFR_AN
  Relative segment, address: DATA 000000EE - 000000EE (0x1 bytes), align: 0
  Segment part 12. ROOT.
           ENTRY                   ADDRESS         REF BY
           =====                   =======         ======
           T4CCTL1                 000000EE 
    -------------------------------------------------------------------------
XDATA_Z
  Relative segment, address: XDATA 00000C5B - 00000C78 (0x1e bytes), align: 0
  Segment part 21.            Intra module refs:   ?Subroutine11
                                                   halTimerSendCallBack
           LOCAL                   ADDRESS         
           =====                   =======         
           halTimerRecord          00000C5B 
    -------------------------------------------------------------------------
<BANKED_CODE,BANK_RELAYS..> 1 (was BANKED_CODE)
  Relative segment, address: CODE 00004A91 - 00004ABA (0x2a bytes), align: 0
  Segment part 52.            Intra module refs:   halTimerSendCallBack::?relay
           ENTRY                   ADDRESS         REF BY
           =====                   =======         ======
           halTimerSendCallBack    00004A91 
               calls direct
               XSTACK = 00000000 ( 00000009 )
    -------------------------------------------------------------------------
<BANKED_CODE,BANK_RELAYS..> 1 (was BANKED_CODE)
  Relative segment, address: CODE 00004ABB - 00004ABF (0x5 bytes), align: 0
  Segment part 54.            Intra module refs:   halTimerSendCallBack
           LOCAL                   ADDRESS         
           =====                   =======         
           ?Subroutine2            00004ABB 
    -------------------------------------------------------------------------
<BANKED_CODE,BANK_RELAYS..> 1 (was BANKED_CODE)
  Relative segment, address: CODE 00004AC0 - 00004AC9 (0xa bytes), align: 0
  Segment part 55.            Intra module refs:   halTimerSendCallBack
           LOCAL                   ADDRESS         
           =====                   =======         
           ?Subroutine8            00004AC0 
    -------------------------------------------------------------------------
<BANKED_CODE,BANK_RELAYS..> 1 (was BANKED_CODE)
  Relative segment, address: CODE 00004ACA - 00004AE6 (0x1d bytes), align: 0
  Segment part 56.            Intra module refs:   halTimerRemap::?relay
           ENTRY                   ADDRESS         REF BY
           =====                   =======         ======
           halTimerRemap           00004ACA 
               XSTACK = 00000010 ( 00000000 )
    -------------------------------------------------------------------------
<BANKED_CODE,BANK_RELAYS..> 1 (was BANKED_CODE)
  Relative segment, address: CODE 00004AE7 - 00004B3D (0x57 bytes), align: 0
  Segment part 58.            Intra module refs:   halProcessTimer1::?relay
           ENTRY                   ADDRESS         REF BY
           =====                   =======         ======
           halProcessTimer1        00004AE7 
               calls direct
               XSTACK = 0000000E ( 00000000 )
               ISTACK = 00000000 ( 00000002 )
    -------------------------------------------------------------------------
<BANKED_CODE,BANK_RELAYS..> 1 (was BANKED_CODE)
  Relative segment, address: CODE 00004B3E - 00004B44 (0x7 bytes), align: 0
  Segment part 60.            Intra module refs:   halProcessTimer1
                                                   halProcessTimer3
                                                   halProcessTimer4
           LOCAL                   ADDRESS         
           =====                   =======         
           ?Subroutine0            00004B3E 
    -------------------------------------------------------------------------
<BANKED_CODE,BANK_RELAYS..> 1 (was BANKED_CODE)
  Relative segment, address: CODE 00004B45 - 00004B82 (0x3e bytes), align: 0
  Segment part 61.            Intra module refs:   halProcessTimer3::?relay
           ENTRY                   ADDRESS         REF BY
           =====                   =======         ======
           halProcessTimer3        00004B45 
               calls direct
               XSTACK = 0000000E ( 00000000 )
               ISTACK = 00000000 ( 00000002 )
    -------------------------------------------------------------------------
<BANKED_CODE,BANK_RELAYS..> 1 (was BANKED_CODE)
  Relative segment, address: CODE 00004B83 - 00004B88 (0x6 bytes), align: 0
  Segment part 63.            Intra module refs:   halProcessTimer1
                                                   halProcessTimer3
                                                   halProcessTimer4
           LOCAL                   ADDRESS         
           =====                   =======         
           ?Subroutine10           00004B83 
    -------------------------------------------------------------------------
<BANKED_CODE,BANK_RELAYS..> 1 (was BANKED_CODE)
  Relative segment, address: CODE 00004B89 - 00004B8E (0x6 bytes), align: 0
  Segment part 64.            Intra module refs:   halProcessTimer1
                                                   halProcessTimer3
                                                   halProcessTimer4
           LOCAL                   ADDRESS         
           =====                   =======         
           ?Subroutine9            00004B89 
    -------------------------------------------------------------------------
<BANKED_CODE,BANK_RELAYS..> 1 (was BANKED_CODE)
  Relative segment, address: CODE 00004B8F - 00004B9D (0xf bytes), align: 0
  Segment part 65.            Intra module refs:   ?Subroutine10
                                                   ?Subroutine9
           LOCAL                   ADDRESS         
           =====                   =======         
           ?Subroutine11           00004B8F 
    -------------------------------------------------------------------------
<BANKED_CODE,BANK_RELAYS..> 1 (was BANKED_CODE)
  Relative segment, address: CODE 00004B9E - 00004BA9 (0xc bytes), align: 0
  Segment part 66.            Intra module refs:   ?Subroutine11
                                                   halTimerSendCallBack
           LOCAL                   ADDRESS         
           =====                   =======         
           ?Subroutine14           00004B9E 
    -------------------------------------------------------------------------
<BANKED_CODE,BANK_RELAYS..> 1 (was BANKED_CODE)
  Relative segment, address: CODE 00004BAA - 00004BE8 (0x3f bytes), align: 0
  Segment part 67.            Intra module refs:   halProcessTimer4::?relay
           ENTRY                   ADDRESS         REF BY
           =====                   =======         ======
           halProcessTimer4        00004BAA 
               calls direct
               XSTACK = 0000000E ( 00000000 )
               ISTACK = 00000000 ( 00000002 )
    -------------------------------------------------------------------------
<BANKED_CODE,BANK_RELAYS..> 1 (was NEAR_CODE)
  Relative segment, address: CODE 000024D7 - 000024E0 (0xa bytes), align: 0
  Segment part 69.            Intra module refs:   halTimer1Isr::??INTVEC 75
           ENTRY                   ADDRESS         REF BY
           =====                   =======         ======
           halTimer1Isr            000024D7 
               interrupt function
               calls direct
               XSTACK = 00000000 ( 0000000E )
    -------------------------------------------------------------------------
<BANKED_CODE,BANK_RELAYS..> 1 (was NEAR_CODE)
  Relative segment, address: CODE 000024E1 - 000024E5 (0x5 bytes), align: 0
  Segment part 70.            Intra module refs:   halTimer1Isr
                                                   halTimer3Isr
                                                   halTimer4Isr
           LOCAL                   ADDRESS         
           =====                   =======         
           ?Subroutine3            000024E1 
    -------------------------------------------------------------------------
<BANKED_CODE,BANK_RELAYS..> 1 (was NEAR_CODE)
  Relative segment, address: CODE 000024E6 - 000024F1 (0xc bytes), align: 0
  Segment part 71.            Intra module refs:   halTimer3Isr::??INTVEC 91
           ENTRY                   ADDRESS         REF BY
           =====                   =======         ======
           halTimer3Isr            000024E6 
               interrupt function
               calls direct
               XSTACK = 00000000 ( 0000000E )
    -------------------------------------------------------------------------
<BANKED_CODE,BANK_RELAYS..> 1 (was NEAR_CODE)
  Relative segment, address: CODE 000024F2 - 000024FD (0xc bytes), align: 0
  Segment part 72.            Intra module refs:   halTimer4Isr::??INTVEC 99
           ENTRY                   ADDRESS         REF BY
           =====                   =======         ======
           halTimer4Isr            000024F2 
               interrupt function
               calls direct
               XSTACK = 00000000 ( 0000000E )
    -------------------------------------------------------------------------
INTVEC
  Common segment, address: CODE 00002000 - 0000204D (0x4e bytes), align: 0
  Segment part 13. ROOT.
           ENTRY                   ADDRESS         REF BY
           =====                   =======         ======
           halTimer1Isr::??INTVEC 75
                                   0000204B 
    -------------------------------------------------------------------------
INTVEC
  Common segment, address: CODE 00002000 - 0000205D (0x5e bytes), align: 0
  Segment part 14. ROOT.
           ENTRY                   ADDRESS         REF BY
           =====                   =======         ======
           halTimer3Isr::??INTVEC 91
                                   0000205B 
    -------------------------------------------------------------------------
INTVEC
  Common segment, address: CODE 00002000 - 00002065 (0x66 bytes), align: 0
  Segment part 15. ROOT.
           ENTRY                   ADDRESS         REF BY
           =====                   =======         ======
           halTimer4Isr::??INTVEC 99
                                   00002063 
    -------------------------------------------------------------------------
<BANKED_CODE,BANK_RELAYS..> 1 (was BANK_RELAYS)
  Relative segment, address: CODE 00002635 - 0000263A (0x6 bytes), align: 0
  Segment part 53.            Intra module refs:   halProcessTimer1
                                                   halProcessTimer3
                                                   halProcessTimer4
           ENTRY                   ADDRESS         REF BY
           =====                   =======         ======
           halTimerSendCallBack::?relay
                                   00002635 
    -------------------------------------------------------------------------
<BANKED_CODE,BANK_RELAYS..> 1 (was BANK_RELAYS)
  Relative segment, address: CODE 0000263B - 00002640 (0x6 bytes), align: 0
  Segment part 57.            Intra module refs:   ?Subroutine14
           ENTRY                   ADDRESS         REF BY
           =====                   =======         ======
           halTimerRemap::?relay   0000263B 
    -------------------------------------------------------------------------
<BANKED_CODE,BANK_RELAYS..> 1 (was BANK_RELAYS)
  Relative segment, address: CODE 00002641 - 00002646 (0x6 bytes), align: 0
  Segment part 59.            Intra module refs:   halTimer1Isr
           ENTRY                   ADDRESS         REF BY
           =====                   =======         ======
           halProcessTimer1::?relay
                                   00002641 
    -------------------------------------------------------------------------
<BANKED_CODE,BANK_RELAYS..> 1 (was BANK_RELAYS)
  Relative segment, address: CODE 00002647 - 0000264C (0x6 bytes), align: 0
  Segment part 62.            Intra module refs:   halTimer3Isr
           ENTRY                   ADDRESS         REF BY
           =====                   =======         ======
           halProcessTimer3::?relay
                                   00002647 
    -------------------------------------------------------------------------
<BANKED_CODE,BANK_RELAYS..> 1 (was BANK_RELAYS)
  Relative segment, address: CODE 0000264D - 00002652 (0x6 bytes), align: 0
  Segment part 68.            Intra module refs:   halTimer4Isr
           ENTRY                   ADDRESS         REF BY
           =====                   =======         ======
           halProcessTimer4::?relay
                                   0000264D 

    *************************************************************************

  FILE NAME : C:\Users\freeman\Documents\work\NBK\Nikon\Nikon_Rf\SimpliciTI-IAR-1.2.0\Projects\Examples\SRF05_8051\nik_sb5000\IAR\LinkTo\Obj\hal_uart.r51
  PROGRAM MODULE, NAME : hal_uart

  SEGMENTS IN THE MODULE
  ======================
SFR_AN
  Relative segment, address: DATA 00000086 - 00000086 (0x1 bytes), align: 0
  Segment part 2. ROOT.       Intra module refs:   HalUARTInitDMA
                                                   HalUARTOpenDMA
           ENTRY                   ADDRESS         REF BY
           =====                   =======         ======
           U0CSR                   00000086 
    -------------------------------------------------------------------------
SFR_AN
  Relative segment, address: DATA 000000C2 - 000000C2 (0x1 bytes), align: 0
  Segment part 5. ROOT.       Intra module refs:   HalUARTOpenDMA
                                                   HalUARTPollDMA
                                                   HalUARTReadDMA
                                                   HalUARTRxAvailDMA
           ENTRY                   ADDRESS         REF BY
           =====                   =======         ======
           U0BAUD                  000000C2 
    -------------------------------------------------------------------------
SFR_AN
  Relative segment, address: DATA 000000C4 - 000000C4 (0x1 bytes), align: 0
  Segment part 6. ROOT.       Intra module refs:   HalUARTInitDMA
                                                   HalUARTOpenDMA
           ENTRY                   ADDRESS         REF BY
           =====                   =======         ======
           U0UCR                   000000C4 
    -------------------------------------------------------------------------
SFR_AN
  Relative segment, address: DATA 000000C5 - 000000C5 (0x1 bytes), align: 0
  Segment part 7. ROOT.       Intra module refs:   HalUARTOpenDMA
           ENTRY                   ADDRESS         REF BY
           =====                   =======         ======
           U0GCR                   000000C5 
    -------------------------------------------------------------------------
SFR_AN
  Relative segment, address: DATA 000000D7 - 000000D7 (0x1 bytes), align: 0
  Segment part 10. ROOT.      Intra module refs:   HalUARTPollDMA
                                                   UartDMAIntSend
           ENTRY                   ADDRESS         REF BY
           =====                   =======         ======
           DMAREQ                  000000D7 
    -------------------------------------------------------------------------
SFR_AN
  Relative segment, address: DATA 000000F1 - 000000F1 (0x1 bytes), align: 0
  Segment part 11. ROOT.      Intra module refs:   HalUARTInitDMA
           ENTRY                   ADDRESS         REF BY
           =====                   =======         ======
           PERCFG                  000000F1 
    -------------------------------------------------------------------------
SFR_AN
  Relative segment, address: DATA 000000F2 - 000000F2 (0x1 bytes), align: 0
  Segment part 12. ROOT.      Intra module refs:   HalUARTInitDMA
           ENTRY                   ADDRESS         REF BY
           =====                   =======         ======
           ADCCFG                  000000F2 
    -------------------------------------------------------------------------
SFR_AN
  Relative segment, address: DATA 000000F3 - 000000F3 (0x1 bytes), align: 0
  Segment part 13. ROOT.      Intra module refs:   HalUARTInitDMA
                                                   HalUARTOpenDMA
                                                   MRFI_Init (mrfi)
           ENTRY                   ADDRESS         REF BY
           =====                   =======         ======
           P0SEL                   000000F3 
    -------------------------------------------------------------------------
SFR_AN
  Relative segment, address: DATA 000000FF - 000000FF (0x1 bytes), align: 0
  Segment part 15. ROOT.      Intra module refs:   HalUARTInitDMA
           ENTRY                   ADDRESS         REF BY
           =====                   =======         ======
           P2DIR                   000000FF 
    -------------------------------------------------------------------------
XDATA_Z
  Relative segment, address: XDATA 00000C79 - 00000E86 (0x20e bytes), align: 0
  Segment part 21.            Intra module refs:   ?Subroutine11
                                                   ?Subroutine13
                                                   ?Subroutine16
                                                   ?Subroutine17
                                                   ?Subroutine3
                                                   ?Subroutine4
                                                   ?Subroutine7
                                                   ?Subroutine8
                                                   ?Subroutine9
                                                   HalUARTInitDMA
                                                   HalUARTIsrDMA
                                                   HalUARTOpenDMA
                                                   HalUARTPollDMA
                                                   HalUARTReadDMA
                                                   HalUARTRxAvailDMA
                                                   HalUARTWriteDMA
                                                   Segment part 35
                                                   Segment part 49
                                                   UartDMAIntSend
           LOCAL                   ADDRESS         
           =====                   =======         
           dmaCfg                  00000C79 
    -------------------------------------------------------------------------
<BANKED_CODE,BANK_RELAYS..> 1 (was BANKED_CODE)
  Relative segment, address: CODE 00003012 - 0000307E (0x6d bytes), align: 0
  Segment part 22.            Intra module refs:   HalUARTInitDMA::?relay
           LOCAL                   ADDRESS         
           =====                   =======         
           HalUARTInitDMA          00003012 
               ISTACK = 00000000 ( 00000002 )
    -------------------------------------------------------------------------
<BANKED_CODE,BANK_RELAYS..> 1 (was BANKED_CODE)
  Relative segment, address: CODE 0000307F - 00003135 (0xb7 bytes), align: 0
  Segment part 24.            Intra module refs:   HalUARTOpenDMA::?relay
           LOCAL                   ADDRESS         
           =====                   =======         
           HalUARTOpenDMA          0000307F 
               calls direct
               XSTACK = 00000009 ( 00000000 )
               ISTACK = 00000000 ( 00000002 )
    -------------------------------------------------------------------------
<BANKED_CODE,BANK_RELAYS..> 1 (was BANKED_CODE)
  Relative segment, address: CODE 00003136 - 00003188 (0x53 bytes), align: 0
  Segment part 26.            Intra module refs:   HalUARTReadDMA::?relay
           LOCAL                   ADDRESS         
           =====                   =======         
           HalUARTReadDMA          00003136 
               XSTACK = 00000009 ( 0000000A )
               ISTACK = 00000000 ( 00000001 )
    -------------------------------------------------------------------------
<BANKED_CODE,BANK_RELAYS..> 1 (was BANKED_CODE)
  Relative segment, address: CODE 00003189 - 0000318D (0x5 bytes), align: 0
  Segment part 28.            Intra module refs:   HalUARTPollDMA
                                                   HalUARTReadDMA
                                                   UartDMAIntSend
           LOCAL                   ADDRESS         
           =====                   =======         
           ?Subroutine1            00003189 
    -------------------------------------------------------------------------
<BANKED_CODE,BANK_RELAYS..> 1 (was BANKED_CODE)
  Relative segment, address: CODE 0000318E - 000031A2 (0x15 bytes), align: 0
  Segment part 29.            Intra module refs:   HalUARTReadDMA
           LOCAL                   ADDRESS         
           =====                   =======         
           ?Subroutine7            0000318E 
    -------------------------------------------------------------------------
<BANKED_CODE,BANK_RELAYS..> 1 (was BANKED_CODE)
  Relative segment, address: CODE 000031A3 - 0000327A (0xd8 bytes), align: 0
  Segment part 30.            Intra module refs:   HalUARTWriteDMA::?relay
           LOCAL                   ADDRESS         
           =====                   =======         
           HalUARTWriteDMA         000031A3 
               XSTACK = 00000009 ( 00000010 )
               ISTACK = 00000000 ( 00000001 )
    -------------------------------------------------------------------------
<BANKED_CODE,BANK_RELAYS..> 1 (was BANKED_CODE)
  Relative segment, address: CODE 0000327B - 00003284 (0xa bytes), align: 0
  Segment part 32.            Intra module refs:   HalUARTWriteDMA
           LOCAL                   ADDRESS         
           =====                   =======         
           ?Subroutine15           0000327B 
    -------------------------------------------------------------------------
<BANKED_CODE,BANK_RELAYS..> 1 (was BANKED_CODE)
  Relative segment, address: CODE 00003285 - 0000328D (0x9 bytes), align: 0
  Segment part 33.            Intra module refs:   HalUARTWriteDMA
           LOCAL                   ADDRESS         
           =====                   =======         
           ?Subroutine12           00003285 
    -------------------------------------------------------------------------
<BANKED_CODE,BANK_RELAYS..> 1 (was BANKED_CODE)
  Relative segment, address: CODE 0000328E - 00003291 (0x4 bytes), align: 0
  Segment part 34.            Intra module refs:   HalUARTWriteDMA
           LOCAL                   ADDRESS         
           =====                   =======         
           ?Subroutine11           0000328E 
    -------------------------------------------------------------------------
<BANKED_CODE,BANK_RELAYS..> 1 (was BANKED_CODE)
  Relative segment, address: CODE 00003292 - 00003295 (0x4 bytes), align: 0
  Segment part 35.            Intra module refs:   ?Subroutine11
                                                   HalUARTWriteDMA
    -------------------------------------------------------------------------
<BANKED_CODE,BANK_RELAYS..> 1 (was BANKED_CODE)
  Relative segment, address: CODE 00003296 - 0000329B (0x6 bytes), align: 0
  Segment part 36.            Intra module refs:   HalUARTOpenDMA
                                                   Segment part 35
    -------------------------------------------------------------------------
<BANKED_CODE,BANK_RELAYS..> 1 (was BANKED_CODE)
  Relative segment, address: CODE 0000329C - 000032B3 (0x18 bytes), align: 0
  Segment part 37.            Intra module refs:   HalUARTWriteDMA
           LOCAL                   ADDRESS         
           =====                   =======         
           ?Subroutine9            0000329C 
    -------------------------------------------------------------------------
<BANKED_CODE,BANK_RELAYS..> 1 (was BANKED_CODE)
  Relative segment, address: CODE 000032B4 - 000032BF (0xc bytes), align: 0
  Segment part 38.            Intra module refs:   HalUARTWriteDMA
           LOCAL                   ADDRESS         
           =====                   =======         
           ?Subroutine5            000032B4 
    -------------------------------------------------------------------------
<BANKED_CODE,BANK_RELAYS..> 1 (was BANKED_CODE)
  Relative segment, address: CODE 000032C0 - 00003411 (0x152 bytes), align: 0
  Segment part 39.            Intra module refs:   HalUARTPollDMA::?relay
           LOCAL                   ADDRESS         
           =====                   =======         
           HalUARTPollDMA          000032C0 
               calls direct
               XSTACK = 00000000 ( 0000000A )
    -------------------------------------------------------------------------
<BANKED_CODE,BANK_RELAYS..> 1 (was BANKED_CODE)
  Relative segment, address: CODE 00003412 - 00003415 (0x4 bytes), align: 0
  Segment part 41.            Intra module refs:   HalUARTIsrDMA
                                                   HalUARTPollDMA
                                                   HalUARTWriteDMA
           LOCAL                   ADDRESS         
           =====                   =======         
           ?Subroutine6            00003412 
    -------------------------------------------------------------------------
<BANKED_CODE,BANK_RELAYS..> 1 (was BANKED_CODE)
  Relative segment, address: CODE 00003416 - 0000341F (0xa bytes), align: 0
  Segment part 42.            Intra module refs:   ?Subroutine3
                                                   ?Subroutine6
           LOCAL                   ADDRESS         
           =====                   =======         
           ?Subroutine16           00003416 
    -------------------------------------------------------------------------
<BANKED_CODE,BANK_RELAYS..> 1 (was BANKED_CODE)
  Relative segment, address: CODE 00003420 - 00003430 (0x11 bytes), align: 0
  Segment part 45.            Intra module refs:   HalUARTPollDMA
           LOCAL                   ADDRESS         
           =====                   =======         
           ?Subroutine8            00003420 
    -------------------------------------------------------------------------
<BANKED_CODE,BANK_RELAYS..> 1 (was BANKED_CODE)
  Relative segment, address: CODE 00003431 - 0000345D (0x2d bytes), align: 0
  Segment part 46.            Intra module refs:   UartDMAIntSend::?relay
           ENTRY                   ADDRESS         REF BY
           =====                   =======         ======
           UartDMAIntSend          00003431 
               XSTACK = 00000000 ( 0000000A )
    -------------------------------------------------------------------------
<BANKED_CODE,BANK_RELAYS..> 1 (was BANKED_CODE)
  Relative segment, address: CODE 0000345E - 00003468 (0xb bytes), align: 0
  Segment part 48.            Intra module refs:   HalUARTPollDMA
                                                   UartDMAIntSend
           LOCAL                   ADDRESS         
           =====                   =======         
           ?Subroutine4            0000345E 
    -------------------------------------------------------------------------
<BANKED_CODE,BANK_RELAYS..> 1 (was BANKED_CODE)
  Relative segment, address: CODE 00003469 - 00003477 (0xf bytes), align: 0
  Segment part 49.            Intra module refs:   ?Subroutine4
                                                   HalUARTPollDMA
                                                   UartDMAIntSend
    -------------------------------------------------------------------------
<BANKED_CODE,BANK_RELAYS..> 1 (was BANKED_CODE)
  Relative segment, address: CODE 00003478 - 000034A0 (0x29 bytes), align: 0
  Segment part 50.            Intra module refs:   HalUARTPollDMA
                                                   UartDMAIntSend
           LOCAL                   ADDRESS         
           =====                   =======         
           ?Subroutine3            00003478 
    -------------------------------------------------------------------------
<BANKED_CODE,BANK_RELAYS..> 1 (was BANKED_CODE)
  Relative segment, address: CODE 000034A1 - 000034DF (0x3f bytes), align: 0
  Segment part 51.            Intra module refs:   HalUARTRxAvailDMA::?relay
           LOCAL                   ADDRESS         
           =====                   =======         
           HalUARTRxAvailDMA       000034A1 
               XSTACK = 0000000A ( 00000000 )
               ISTACK = 00000000 ( 00000002 )
    -------------------------------------------------------------------------
<BANKED_CODE,BANK_RELAYS..> 1 (was BANKED_CODE)
  Relative segment, address: CODE 000034E0 - 000034F4 (0x15 bytes), align: 0
  Segment part 53.            Intra module refs:   HalUARTPollDMA
                                                   HalUARTRxAvailDMA
           LOCAL                   ADDRESS         
           =====                   =======         
           ?Subroutine13           000034E0 
    -------------------------------------------------------------------------
<BANKED_CODE,BANK_RELAYS..> 1 (was BANKED_CODE)
  Relative segment, address: CODE 000034F5 - 00003504 (0x10 bytes), align: 0
  Segment part 54.            Intra module refs:   HalUARTPollDMA
                                                   HalUARTRxAvailDMA
           LOCAL                   ADDRESS         
           =====                   =======         
           ?Subroutine10           000034F5 
    -------------------------------------------------------------------------
<BANKED_CODE,BANK_RELAYS..> 1 (was BANKED_CODE)
  Relative segment, address: CODE 00003505 - 00003505 (0x1 bytes), align: 0
  Segment part 55.            Intra module refs:   HalUARTInitDMA
                                                   HalUARTOpenDMA
           LOCAL                   ADDRESS         
           =====                   =======         
           ?Subroutine0            00003505 
    -------------------------------------------------------------------------
<BANKED_CODE,BANK_RELAYS..> 1 (was BANKED_CODE)
  Relative segment, address: CODE 00003506 - 0000350C (0x7 bytes), align: 0
  Segment part 56.            Intra module refs:   ?Subroutine0
                                                   HalUARTInit
                                                   HalUARTIsrDMA
                                                   HalUARTPoll
                                                   HalUARTRxAvailDMA
    -------------------------------------------------------------------------
<BANKED_CODE,BANK_RELAYS..> 1 (was BANKED_CODE)
  Relative segment, address: CODE 0000350D - 0000353B (0x2f bytes), align: 0
  Segment part 57.            Intra module refs:   HalUARTIsrDMA::?relay
           ENTRY                   ADDRESS         REF BY
           =====                   =======         ======
           HalUARTIsrDMA           0000350D 
               XSTACK = 0000000A ( 00000000 )
               ISTACK = 00000000 ( 00000002 )
    -------------------------------------------------------------------------
<BANKED_CODE,BANK_RELAYS..> 1 (was BANKED_CODE)
  Relative segment, address: CODE 0000353C - 0000353F (0x4 bytes), align: 0
  Segment part 59.            Intra module refs:   HalUARTIsrDMA
                                                   HalUARTWriteDMA
           LOCAL                   ADDRESS         
           =====                   =======         
           ?Subroutine14           0000353C 
    -------------------------------------------------------------------------
<BANKED_CODE,BANK_RELAYS..> 1 (was BANKED_CODE)
  Relative segment, address: CODE 00003540 - 0000354B (0xc bytes), align: 0
  Segment part 60.            Intra module refs:   ?Subroutine14
                                                   ?Subroutine16
           LOCAL                   ADDRESS         
           =====                   =======         
           ?Subroutine17           00003540 
    -------------------------------------------------------------------------
<BANKED_CODE,BANK_RELAYS..> 1 (was BANKED_CODE)
  Relative segment, address: CODE 0000354C - 00003554 (0x9 bytes), align: 0
  Segment part 61.            Intra module refs:   HalUARTInit::?relay
           ENTRY                   ADDRESS         REF BY
           =====                   =======         ======
           HalUARTInit             0000354C 
               calls direct
               ISTACK = 00000000 ( 00000002 )
    -------------------------------------------------------------------------
<BANKED_CODE,BANK_RELAYS..> 1 (was BANKED_CODE)
  Relative segment, address: CODE 00003555 - 00003563 (0xf bytes), align: 0
  Segment part 63.            Intra module refs:   HalUARTOpen::?relay
           ENTRY                   ADDRESS         REF BY
           =====                   =======         ======
           HalUARTOpen             00003555 
               calls direct
               XSTACK = 00000000 ( 00000009 )
    -------------------------------------------------------------------------
<BANKED_CODE,BANK_RELAYS..> 1 (was BANKED_CODE)
  Relative segment, address: CODE 00003564 - 00003576 (0x13 bytes), align: 0
  Segment part 65.            Intra module refs:   HalUARTRead::?relay
           ENTRY                   ADDRESS         REF BY
           =====                   =======         ======
           HalUARTRead             00003564 
               calls direct
               XSTACK = 00000000 ( 00000009 )
    -------------------------------------------------------------------------
<BANKED_CODE,BANK_RELAYS..> 1 (was BANKED_CODE)
  Relative segment, address: CODE 00003577 - 00003587 (0x11 bytes), align: 0
  Segment part 67.            Intra module refs:   HalUARTWrite::?relay
           ENTRY                   ADDRESS         REF BY
           =====                   =======         ======
           HalUARTWrite            00003577 
               calls direct
               XSTACK = 00000000 ( 00000009 )
    -------------------------------------------------------------------------
<BANKED_CODE,BANK_RELAYS..> 1 (was BANKED_CODE)
  Relative segment, address: CODE 00003588 - 0000358C (0x5 bytes), align: 0
  Segment part 69.            Intra module refs:   HalUARTOpen
                                                   HalUARTRead
                                                   HalUARTWrite
                                                   Hal_UART_RxBufLen
           LOCAL                   ADDRESS         
           =====                   =======         
           ?Subroutine2            00003588 
    -------------------------------------------------------------------------
<BANKED_CODE,BANK_RELAYS..> 1 (was BANKED_CODE)
  Relative segment, address: CODE 0000358D - 00003596 (0xa bytes), align: 0
  Segment part 74.            Intra module refs:   HalUARTPoll::?relay
           ENTRY                   ADDRESS         REF BY
           =====                   =======         ======
           HalUARTPoll             0000358D 
               calls direct
               ISTACK = 00000000 ( 00000002 )
    -------------------------------------------------------------------------
<BANKED_CODE,BANK_RELAYS..> 1 (was BANKED_CODE)
  Relative segment, address: CODE 00003597 - 000035A9 (0x13 bytes), align: 0
  Segment part 76.            Intra module refs:   Hal_UART_RxBufLen::?relay
           ENTRY                   ADDRESS         REF BY
           =====                   =======         ======
           Hal_UART_RxBufLen       00003597 
               calls direct
               XSTACK = 00000000 ( 00000009 )
    -------------------------------------------------------------------------
<BANKED_CODE,BANK_RELAYS..> 1 (was BANK_RELAYS)
  Relative segment, address: CODE 00002653 - 00002658 (0x6 bytes), align: 0
  Segment part 23.            Intra module refs:   HalUARTInit
           LOCAL                   ADDRESS         
           =====                   =======         
           HalUARTInitDMA::?relay
                                   00002653 
    -------------------------------------------------------------------------
<BANKED_CODE,BANK_RELAYS..> 1 (was BANK_RELAYS)
  Relative segment, address: CODE 00002659 - 0000265E (0x6 bytes), align: 0
  Segment part 25.            Intra module refs:   HalUARTOpen
           LOCAL                   ADDRESS         
           =====                   =======         
           HalUARTOpenDMA::?relay
                                   00002659 
    -------------------------------------------------------------------------
<BANKED_CODE,BANK_RELAYS..> 1 (was BANK_RELAYS)
  Relative segment, address: CODE 0000265F - 00002664 (0x6 bytes), align: 0
  Segment part 27.            Intra module refs:   HalUARTRead
           LOCAL                   ADDRESS         
           =====                   =======         
           HalUARTReadDMA::?relay
                                   0000265F 
    -------------------------------------------------------------------------
<BANKED_CODE,BANK_RELAYS..> 1 (was BANK_RELAYS)
  Relative segment, address: CODE 00002665 - 0000266A (0x6 bytes), align: 0
  Segment part 31.            Intra module refs:   HalUARTWrite
           LOCAL                   ADDRESS         
           =====                   =======         
           HalUARTWriteDMA::?relay
                                   00002665 
    -------------------------------------------------------------------------
<BANKED_CODE,BANK_RELAYS..> 1 (was BANK_RELAYS)
  Relative segment, address: CODE 0000266B - 00002670 (0x6 bytes), align: 0
  Segment part 40.            Intra module refs:   HalUARTPoll
           LOCAL                   ADDRESS         
           =====                   =======         
           HalUARTPollDMA::?relay
                                   0000266B 
    -------------------------------------------------------------------------
<BANKED_CODE,BANK_RELAYS..> 1 (was BANK_RELAYS)
  Relative segment, address: CODE 00002671 - 00002676 (0x6 bytes), align: 0
  Segment part 47.
           ENTRY                   ADDRESS         REF BY
           =====                   =======         ======
           UartDMAIntSend::?relay
                                   00002671        Segment part 54 (nwk_api)
                                                   tx_send (uart_intfc)
    -------------------------------------------------------------------------
<BANKED_CODE,BANK_RELAYS..> 1 (was BANK_RELAYS)
  Relative segment, address: CODE 00002677 - 0000267C (0x6 bytes), align: 0
  Segment part 52.            Intra module refs:   HalUARTPollDMA
                                                   Hal_UART_RxBufLen
           LOCAL                   ADDRESS         
           =====                   =======         
           HalUARTRxAvailDMA::?relay
                                   00002677 
    -------------------------------------------------------------------------
<BANKED_CODE,BANK_RELAYS..> 1 (was BANK_RELAYS)
  Relative segment, address: CODE 0000267D - 00002682 (0x6 bytes), align: 0
  Segment part 58.            Intra module refs:   HalUARTPollDMA
           ENTRY                   ADDRESS         REF BY
           =====                   =======         ======
           HalUARTIsrDMA::?relay   0000267D        halDmaIsr (hal_dma)
    -------------------------------------------------------------------------
<BANKED_CODE,BANK_RELAYS..> 1 (was BANK_RELAYS)
  Relative segment, address: CODE 00002683 - 00002688 (0x6 bytes), align: 0
  Segment part 62.
           ENTRY                   ADDRESS         REF BY
           =====                   =======         ======
           HalUARTInit::?relay     00002683        HalDriverInit (hal_drivers)
    -------------------------------------------------------------------------
<BANKED_CODE,BANK_RELAYS..> 1 (was BANK_RELAYS)
  Relative segment, address: CODE 00002689 - 0000268E (0x6 bytes), align: 0
  Segment part 64.
           ENTRY                   ADDRESS         REF BY
           =====                   =======         ======
           HalUARTOpen::?relay     00002689        DmaUartInit (uart_intfc)
    -------------------------------------------------------------------------
<BANKED_CODE,BANK_RELAYS..> 1 (was BANK_RELAYS)
  Relative segment, address: CODE 0000268F - 00002694 (0x6 bytes), align: 0
  Segment part 66.
           ENTRY                   ADDRESS         REF BY
           =====                   =======         ======
           HalUARTRead::?relay     0000268F        UartProcessData (uart_intfc)
    -------------------------------------------------------------------------
<BANKED_CODE,BANK_RELAYS..> 1 (was BANK_RELAYS)
  Relative segment, address: CODE 00002695 - 0000269A (0x6 bytes), align: 0
  Segment part 68.
           ENTRY                   ADDRESS         REF BY
           =====                   =======         ======
           HalUARTWrite::?relay    00002695        Segment part 54 (nwk_api)
                                                   UartSctSend (nwk_api)
                                                   tx_send (uart_intfc)
    -------------------------------------------------------------------------
<BANKED_CODE,BANK_RELAYS..> 1 (was BANK_RELAYS)
  Relative segment, address: CODE 0000269B - 000026A0 (0x6 bytes), align: 0
  Segment part 75.
           ENTRY                   ADDRESS         REF BY
           =====                   =======         ======
           HalUARTPoll::?relay     0000269B        main (main_UART_Bridge)
    -------------------------------------------------------------------------
<BANKED_CODE,BANK_RELAYS..> 1 (was BANK_RELAYS)
  Relative segment, address: CODE 000026A1 - 000026A6 (0x6 bytes), align: 0
  Segment part 77.
           ENTRY                   ADDRESS         REF BY
           =====                   =======         ======
           Hal_UART_RxBufLen::?relay
                                   000026A1        UartProcessData (uart_intfc)

    *************************************************************************

  FILE NAME : C:\Users\freeman\Documents\work\NBK\Nikon\Nikon_Rf\SimpliciTI-IAR-1.2.0\Projects\Examples\SRF05_8051\nik_sb5000\IAR\LinkTo\Obj\mac_autopend.r51
    *************************************************************************

  FILE NAME : C:\Users\freeman\Documents\work\NBK\Nikon\Nikon_Rf\SimpliciTI-IAR-1.2.0\Projects\Examples\SRF05_8051\nik_sb5000\IAR\LinkTo\Obj\mac_backoff_timer.r51
  PROGRAM MODULE, NAME : mac_backoff_timer

  SEGMENTS IN THE MODULE
  ======================
SFR_AN
  Relative segment, address: DATA 00000094 - 00000094 (0x1 bytes), align: 0
  Segment part 1. ROOT.
           ENTRY                   ADDRESS         REF BY
           =====                   =======         ======
           T2CTRL                  00000094 
    -------------------------------------------------------------------------
SFR_AN
  Relative segment, address: DATA 000000A1 - 000000A1 (0x1 bytes), align: 0
  Segment part 2. ROOT.
           ENTRY                   ADDRESS         REF BY
           =====                   =======         ======
           T2IRQF                  000000A1 
    -------------------------------------------------------------------------
SFR_AN
  Relative segment, address: DATA 000000A7 - 000000A7 (0x1 bytes), align: 0
  Segment part 3. ROOT.
           ENTRY                   ADDRESS         REF BY
           =====                   =======         ======
           T2IRQM                  000000A7 
    -------------------------------------------------------------------------
XDATA_I
  Relative segment, address: XDATA 000011B9 - 000011BC (0x4 bytes), align: 0
  Segment part 19.            Intra module refs:   Mrfi_DelayUsecLong (mrfi)
           ENTRY                   ADDRESS         REF BY
           =====                   =======         ======
           __Constant_ffffffff     000011B9 
    -------------------------------------------------------------------------
XDATA_ID
  Relative segment, address: CODE 0000208B - 0000208E (0x4 bytes), align: 0
  Segment part 20.            Intra module refs:   __Constant_ffffffff

    *************************************************************************

  FILE NAME : C:\Users\freeman\Documents\work\NBK\Nikon\Nikon_Rf\SimpliciTI-IAR-1.2.0\Projects\Examples\SRF05_8051\nik_sb5000\IAR\LinkTo\Obj\mac_cfg.r51
    *************************************************************************

  FILE NAME : C:\Users\freeman\Documents\work\NBK\Nikon\Nikon_Rf\SimpliciTI-IAR-1.2.0\Projects\Examples\SRF05_8051\nik_sb5000\IAR\LinkTo\Obj\mac_low_level.r51
  PROGRAM MODULE, NAME : mac_low_level

  SEGMENTS IN THE MODULE
  ======================

    *************************************************************************

  FILE NAME : C:\Users\freeman\Documents\work\NBK\Nikon\Nikon_Rf\SimpliciTI-IAR-1.2.0\Projects\Examples\SRF05_8051\nik_sb5000\IAR\LinkTo\Obj\mac_radio.r51
  PROGRAM MODULE, NAME : mac_radio

  SEGMENTS IN THE MODULE
  ======================

    *************************************************************************

  FILE NAME : C:\Users\freeman\Documents\work\NBK\Nikon\Nikon_Rf\SimpliciTI-IAR-1.2.0\Projects\Examples\SRF05_8051\nik_sb5000\IAR\LinkTo\Obj\mac_radio_defs.r51
  PROGRAM MODULE, NAME : mac_radio_defs

  SEGMENTS IN THE MODULE
  ======================
XDATA_Z
  Relative segment, address: XDATA 00000E87 - 00000E87 (0x1 bytes), align: 0
  Segment part 9.             Intra module refs:   MAC_SetRadioRegTable
           ENTRY                   ADDRESS         REF BY
           =====                   =======         ======
           macRadioDefsRefTableId
                                   00000E87 
    -------------------------------------------------------------------------
<BANKED_CODE,BANK_RELAYS..> 1 (was BANKED_CODE)
  Relative segment, address: CODE 000051F9 - 0000520C (0x14 bytes), align: 0
  Segment part 10.            Intra module refs:   MAC_SetRadioRegTable::?relay
           ENTRY                   ADDRESS         REF BY
           =====                   =======         ======
           MAC_SetRadioRegTable    000051F9 
               ISTACK = 00000000 ( 00000002 )
    -------------------------------------------------------------------------
<BANKED_CODE,BANK_RELAYS..> 1 (was BANKED_CODE)
  Relative segment, address: CODE 0000520D - 0000520D (0x1 bytes), align: 0
  Segment part 12.            Intra module refs:   MAC_SetRadioRegTable
           LOCAL                   ADDRESS         
           =====                   =======         
           ?Subroutine0            0000520D 
    -------------------------------------------------------------------------
<BANKED_CODE,BANK_RELAYS..> 1 (was BANKED_CODE)
  Relative segment, address: CODE 0000520E - 00005214 (0x7 bytes), align: 0
  Segment part 13.            Intra module refs:   ?Subroutine0
    -------------------------------------------------------------------------
<BANKED_CODE,BANK_RELAYS..> 1 (was BANK_RELAYS)
  Relative segment, address: CODE 000026A7 - 000026AC (0x6 bytes), align: 0
  Segment part 11.
           ENTRY                   ADDRESS         REF BY
           =====                   =======         ======
           MAC_SetRadioRegTable::?relay
                                   000026A7        MAC_RfFrontendSetup (mac_rffrontend)

    *************************************************************************

  FILE NAME : C:\Users\freeman\Documents\work\NBK\Nikon\Nikon_Rf\SimpliciTI-IAR-1.2.0\Projects\Examples\SRF05_8051\nik_sb5000\IAR\LinkTo\Obj\mac_rffrontend.r51
  PROGRAM MODULE, NAME : mac_rffrontend

  SEGMENTS IN THE MODULE
  ======================
<BANKED_CODE,BANK_RELAYS..> 1 (was BANKED_CODE)
  Relative segment, address: CODE 00005215 - 0000522E (0x1a bytes), align: 0
  Segment part 7.             Intra module refs:   MAC_RfFrontendSetup::?relay
           ENTRY                   ADDRESS         REF BY
           =====                   =======         ======
           MAC_RfFrontendSetup     00005215 
               calls direct
               ISTACK = 00000000 ( 00000002 )
    -------------------------------------------------------------------------
<BANKED_CODE,BANK_RELAYS..> 1 (was BANK_RELAYS)
  Relative segment, address: CODE 000026AD - 000026B2 (0x6 bytes), align: 0
  Segment part 8.
           ENTRY                   ADDRESS         REF BY
           =====                   =======         ======
           MAC_RfFrontendSetup::?relay
                                   000026AD        main (main_UART_Bridge)

    *************************************************************************

  FILE NAME : C:\Users\freeman\Documents\work\NBK\Nikon\Nikon_Rf\SimpliciTI-IAR-1.2.0\Projects\Examples\SRF05_8051\nik_sb5000\IAR\LinkTo\Obj\mac_rx.r51
  PROGRAM MODULE, NAME : mac_rx

  SEGMENTS IN THE MODULE
  ======================
SFR_AN
  Relative segment, address: DATA 00000091 - 00000091 (0x1 bytes), align: 0
  Segment part 1. ROOT.       Intra module refs:   MRFI_Transmit (mrfi)
                                                   mrfi_TxDone (mrfi)
           ENTRY                   ADDRESS         REF BY
           =====                   =======         ======
           RFIRQF1                 00000091 
    -------------------------------------------------------------------------
SFR_AN
  Relative segment, address: DATA 0000009B - 0000009B (0x1 bytes), align: 0
  Segment part 2. ROOT.       Intra module refs:   MRFI_RxIsr (mrfi)
           ENTRY                   ADDRESS         REF BY
           =====                   =======         ======
           S1CON                   0000009B 
    -------------------------------------------------------------------------
SFR_AN
  Relative segment, address: DATA 000000E1 - 000000E1 (0x1 bytes), align: 0
  Segment part 4. ROOT.       Intra module refs:   MRFI_Init (mrfi)
                                                   MRFI_RxIsr (mrfi)
                                                   MRFI_Transmit (mrfi)
                                                   Mrfi_RxModeOff (mrfi)
                                                   Mrfi_RxModeOn (mrfi)
           ENTRY                   ADDRESS         REF BY
           =====                   =======         ======
           RFST                    000000E1 
    -------------------------------------------------------------------------
SFR_AN
  Relative segment, address: DATA 000000E9 - 000000E9 (0x1 bytes), align: 0
  Segment part 5. ROOT.       Intra module refs:   MRFI_RxIsr (mrfi)
                                                   Mrfi_RxModeOff (mrfi)
           ENTRY                   ADDRESS         REF BY
           =====                   =======         ======
           RFIRQF0                 000000E9 

    *************************************************************************

  FILE NAME : C:\Users\freeman\Documents\work\NBK\Nikon\Nikon_Rf\SimpliciTI-IAR-1.2.0\Projects\Examples\SRF05_8051\nik_sb5000\IAR\LinkTo\Obj\mac_rx_onoff.r51
  PROGRAM MODULE, NAME : mac_rx_onoff

  SEGMENTS IN THE MODULE
  ======================

    *************************************************************************

  FILE NAME : C:\Users\freeman\Documents\work\NBK\Nikon\Nikon_Rf\SimpliciTI-IAR-1.2.0\Projects\Examples\SRF05_8051\nik_sb5000\IAR\LinkTo\Obj\mac_sleep.r51
  PROGRAM MODULE, NAME : mac_sleep

  SEGMENTS IN THE MODULE
  ======================

    *************************************************************************

  FILE NAME : C:\Users\freeman\Documents\work\NBK\Nikon\Nikon_Rf\SimpliciTI-IAR-1.2.0\Projects\Examples\SRF05_8051\nik_sb5000\IAR\LinkTo\Obj\mac_tx.r51
  PROGRAM MODULE, NAME : mac_tx

  SEGMENTS IN THE MODULE
  ======================

    *************************************************************************

  FILE NAME : C:\Users\freeman\Documents\work\NBK\Nikon\Nikon_Rf\SimpliciTI-IAR-1.2.0\Projects\Examples\SRF05_8051\nik_sb5000\IAR\LinkTo\Obj\main_UART_Bridge.r51
  PROGRAM MODULE, NAME : main_UART_Bridge

  SEGMENTS IN THE MODULE
  ======================
XDATA_Z
  Relative segment, address: XDATA 00000E88 - 00000E88 (0x1 bytes), align: 0
  Segment part 16.
           ENTRY                   ADDRESS         REF BY
           =====                   =======         ======
           tasksCnt                00000E88        osal_msg_send (OSAL)
                                                   osal_set_event (OSAL)
    -------------------------------------------------------------------------
XDATA_Z
  Relative segment, address: XDATA 00000E89 - 00000E8A (0x2 bytes), align: 0
  Segment part 17.
           ENTRY                   ADDRESS         REF BY
           =====                   =======         ======
           tasksEvents             00000E89        osal_set_event (OSAL)
    -------------------------------------------------------------------------
XDATA_I
  Relative segment, address: XDATA 000011BD - 000011D7 (0x1b bytes), align: 0
  Segment part 14.            Intra module refs:   main
    -------------------------------------------------------------------------
XDATA_I
  Relative segment, address: XDATA 000011D8 - 00001202 (0x2b bytes), align: 0
  Segment part 18.
           ENTRY                   ADDRESS         REF BY
           =====                   =======         ======
           g_veriBuf               000011D8        MstPacketParse (nwk_api)
    -------------------------------------------------------------------------
XDATA_I
  Relative segment, address: XDATA 00001203 - 0000122B (0x29 bytes), align: 0
  Segment part 20.
           ENTRY                   ADDRESS         REF BY
           =====                   =======         ======
           g_veriBuf2              00001203        MstPacketParse (nwk_api)
    -------------------------------------------------------------------------
XDATA_Z
  Relative segment, address: XDATA 00000E8B - 00000E8B (0x1 bytes), align: 0
  Segment part 24.
           ENTRY                   ADDRESS         REF BY
           =====                   =======         ======
           g_rcvPkt                00000E8B        MRFI_RxCompleteISR (nwk_frame)
                                                   NIK_LINK (nwk_api)
    -------------------------------------------------------------------------
<BANKED_CODE,BANK_RELAYS..> 1 (was BANKED_CODE)
  Relative segment, address: CODE 0000502B - 000050A5 (0x7b bytes), align: 0
  Segment part 25.
           ENTRY                   ADDRESS         REF BY
           =====                   =======         ======
           main                    0000502B        ?call_main (?cmain)
               calls direct
    -------------------------------------------------------------------------
XDATA_ID
  Relative segment, address: CODE 0000208F - 000020A9 (0x1b bytes), align: 0
  Segment part 15.            Intra module refs:   Segment part 14
    -------------------------------------------------------------------------
XDATA_ID
  Relative segment, address: CODE 000020AA - 000020D4 (0x2b bytes), align: 0
  Segment part 19.            Intra module refs:   g_veriBuf
    -------------------------------------------------------------------------
XDATA_ID
  Relative segment, address: CODE 000020D5 - 000020FD (0x29 bytes), align: 0
  Segment part 21.            Intra module refs:   g_veriBuf2

    *************************************************************************

  FILE NAME : C:\Users\freeman\Documents\work\NBK\Nikon\Nikon_Rf\SimpliciTI-IAR-1.2.0\Projects\Examples\SRF05_8051\nik_sb5000\IAR\LinkTo\Obj\mrfi.r51
  PROGRAM MODULE, NAME : mrfi

  SEGMENTS IN THE MODULE
  ======================
SFR_AN
  Relative segment, address: DATA 000000A9 - 000000A9 (0x1 bytes), align: 0
  Segment part 1. ROOT.       Intra module refs:   MRFI_Init
           ENTRY                   ADDRESS         REF BY
           =====                   =======         ======
           _A_IP0xx                000000A9 
           LOCAL                   ADDRESS         
           =====                   =======         
           IP0xx                   000000A9 
    -------------------------------------------------------------------------
SFR_AN
  Relative segment, address: DATA 000000B9 - 000000B9 (0x1 bytes), align: 0
  Segment part 2. ROOT.       Intra module refs:   MRFI_Init
           ENTRY                   ADDRESS         REF BY
           =====                   =======         ======
           _A_IP1xx                000000B9 
           LOCAL                   ADDRESS         
           =====                   =======         
           IP1xx                   000000B9 
    -------------------------------------------------------------------------
SFR_AN
  Relative segment, address: DATA 000000B4 - 000000B4 (0x1 bytes), align: 0
  Segment part 10. ROOT.      Intra module refs:   MRFI_RandomByte
           ENTRY                   ADDRESS         REF BY
           =====                   =======         ======
           ADCCON1                 000000B4 
    -------------------------------------------------------------------------
SFR_AN
  Relative segment, address: DATA 000000BC - 000000BC (0x1 bytes), align: 0
  Segment part 11. ROOT.      Intra module refs:   MRFI_Init
           ENTRY                   ADDRESS         REF BY
           =====                   =======         ======
           RNDL                    000000BC 
    -------------------------------------------------------------------------
SFR_AN
  Relative segment, address: DATA 000000BD - 000000BD (0x1 bytes), align: 0
  Segment part 12. ROOT.      Intra module refs:   MRFI_RandomByte
           ENTRY                   ADDRESS         REF BY
           =====                   =======         ======
           RNDH                    000000BD 
    -------------------------------------------------------------------------
SFR_AN
  Relative segment, address: DATA 000000D9 - 000000D9 (0x1 bytes), align: 0
  Segment part 15. ROOT.      Intra module refs:   MRFI_RxIsr
                                                   MRFI_Transmit
           ENTRY                   ADDRESS         REF BY
           =====                   =======         ======
           RFD                     000000D9 
    -------------------------------------------------------------------------
XDATA_I
  Relative segment, address: XDATA 0000122C - 0000122F (0x4 bytes), align: 0
  Segment part 26.
           ENTRY                   ADDRESS         REF BY
           =====                   =======         ======
           mrfiBroadcastAddr       0000122C        nwk_getBCastAddress (nwk_globals)
    -------------------------------------------------------------------------
XDATA_I
  Relative segment, address: XDATA 00001230 - 00001233 (0x4 bytes), align: 0
  Segment part 28.            Intra module refs:   MRFI_SetLogicalChannel
           LOCAL                   ADDRESS         
           =====                   =======         
           mrfiLogicalChanTable    00001230 
    -------------------------------------------------------------------------
XDATA_I
  Relative segment, address: XDATA 00001234 - 00001236 (0x3 bytes), align: 0
  Segment part 30.            Intra module refs:   MRFI_SetRFPwr
           LOCAL                   ADDRESS         
           =====                   =======         
           mrfiRFPowerTable        00001234 
    -------------------------------------------------------------------------
XDATA_I
  Relative segment, address: XDATA 00001237 - 0000123A (0x4 bytes), align: 0
  Segment part 38.            Intra module refs:   MRFI_Transmit
           ENTRY                   ADDRESS         REF BY
           =====                   =======         ======
           __Constant_2            00001237 
    -------------------------------------------------------------------------
XDATA_Z
  Relative segment, address: XDATA 00000E8C - 00000E8C (0x1 bytes), align: 0
  Segment part 32.            Intra module refs:   MRFI_GetRadioState
                                                   MRFI_Init
                                                   MRFI_Rssi
                                                   MRFI_RxIdle
                                                   MRFI_RxIsr
                                                   MRFI_RxOn
                                                   MRFI_SetLogicalChannel
                                                   MRFI_SetRFPwr
                                                   MRFI_Sleep
                                                   MRFI_Transmit
                                                   MRFI_WakeUp
           LOCAL                   ADDRESS         
           =====                   =======         
           mrfiRadioState          00000E8C 
    -------------------------------------------------------------------------
XDATA_Z
  Relative segment, address: XDATA 00000E8D - 00000EBD (0x31 bytes), align: 0
  Segment part 33.            Intra module refs:   MRFI_Init
                                                   MRFI_Receive
                                                   MRFI_RxIsr
           LOCAL                   ADDRESS         
           =====                   =======         
           mrfiIncomingPacket      00000E8D 
    -------------------------------------------------------------------------
XDATA_Z
  Relative segment, address: XDATA 00000EBE - 00000EBE (0x1 bytes), align: 0
  Segment part 34.            Intra module refs:   MRFI_ReplyDelay
           LOCAL                   ADDRESS         
           =====                   =======         
           sReplyDelayContext      00000EBE 
    -------------------------------------------------------------------------
XDATA_Z
  Relative segment, address: XDATA 00000EBF - 00000EBF (0x1 bytes), align: 0
  Segment part 35.            Intra module refs:   MRFI_ReplyDelay
           LOCAL                   ADDRESS         
           =====                   =======         
           sKillSem                00000EBF 
    -------------------------------------------------------------------------
XDATA_Z
  Relative segment, address: XDATA 00000EC0 - 00000EC1 (0x2 bytes), align: 0
  Segment part 36.            Intra module refs:   MRFI_Init
                                                   MRFI_ReplyDelay
           LOCAL                   ADDRESS         
           =====                   =======         
           sReplyDelayScalar       00000EC0 
    -------------------------------------------------------------------------
<BANKED_CODE,BANK_RELAYS..> 1 (was BANKED_CODE)
  Relative segment, address: CODE 000035AA - 00003701 (0x158 bytes), align: 0
  Segment part 42.            Intra module refs:   MRFI_Init::?relay
           ENTRY                   ADDRESS         REF BY
           =====                   =======         ======
           MRFI_Init               000035AA 
               calls direct
               XSTACK = 00000000 ( 0000000C )
    -------------------------------------------------------------------------
<BANKED_CODE,BANK_RELAYS..> 1 (was BANKED_CODE)
  Relative segment, address: CODE 00003702 - 00003708 (0x7 bytes), align: 0
  Segment part 44.            Intra module refs:   mrfi_TxDone::?relay
           LOCAL                   ADDRESS         
           =====                   =======         
           mrfi_TxDone             00003702 
               is indirectly called
    -------------------------------------------------------------------------
<BANKED_CODE,BANK_RELAYS..> 1 (was BANKED_CODE)
  Relative segment, address: CODE 00003709 - 000037D0 (0xc8 bytes), align: 0
  Segment part 46.            Intra module refs:   MRFI_Transmit::?relay
           ENTRY                   ADDRESS         REF BY
           =====                   =======         ======
           MRFI_Transmit           00003709 
               calls direct
               XSTACK = 00000000 ( 00000010 )
               ISTACK = 00000000 ( 00000001 )
    -------------------------------------------------------------------------
XDATA_Z
  Relative segment, address: XDATA 00000EC2 - 00000EC2 (0x1 bytes), align: 0
  Segment part 37.            Intra module refs:   MRFI_Transmit
           LOCAL                   ADDRESS         
           =====                   =======         
           MRFI_Transmit::dsn      00000EC2 
    -------------------------------------------------------------------------
<BANKED_CODE,BANK_RELAYS..> 1 (was BANKED_CODE)
  Relative segment, address: CODE 000037D1 - 000037E3 (0x13 bytes), align: 0
  Segment part 48.            Intra module refs:   MRFI_Receive::?relay
           ENTRY                   ADDRESS         REF BY
           =====                   =======         ======
           MRFI_Receive            000037D1 
               ISTACK = 00000000 ( 00000002 )
    -------------------------------------------------------------------------
<BANKED_CODE,BANK_RELAYS..> 1 (was BANKED_CODE)
  Relative segment, address: CODE 000037E4 - 00003801 (0x1e bytes), align: 0
  Segment part 50.            Intra module refs:   MRFI_RxOn::?relay
           ENTRY                   ADDRESS         REF BY
           =====                   =======         ======
           MRFI_RxOn               000037E4 
               calls direct
               ISTACK = 00000000 ( 00000002 )
    -------------------------------------------------------------------------
<BANKED_CODE,BANK_RELAYS..> 1 (was BANKED_CODE)
  Relative segment, address: CODE 00003802 - 00003821 (0x20 bytes), align: 0
  Segment part 52.            Intra module refs:   MRFI_RxIdle::?relay
           ENTRY                   ADDRESS         REF BY
           =====                   =======         ======
           MRFI_RxIdle             00003802 
               calls direct
               ISTACK = 00000000 ( 00000002 )
    -------------------------------------------------------------------------
<BANKED_CODE,BANK_RELAYS..> 1 (was NEAR_CODE)
  Relative segment, address: CODE 00002144 - 00002208 (0xc5 bytes), align: 0
  Segment part 97.            Intra module refs:   MRFI_RxIsr::??INTVEC 131
           ENTRY                   ADDRESS         REF BY
           =====                   =======         ======
           MRFI_RxIsr              00002144 
               interrupt function
               calls direct
               XSTACK = 00000000 ( 00000015 )
               ISTACK = 00000000 ( 00000001 )
    -------------------------------------------------------------------------
<BANKED_CODE,BANK_RELAYS..> 1 (was BANKED_CODE)
  Relative segment, address: CODE 00003822 - 0000385A (0x39 bytes), align: 0
  Segment part 54.            Intra module refs:   MRFI_SetLogicalChannel::?relay
           ENTRY                   ADDRESS         REF BY
           =====                   =======         ======
           MRFI_SetLogicalChannel
                                   00003822 
               calls direct
               XSTACK = 0000000A ( 0000000A )
    -------------------------------------------------------------------------
<BANKED_CODE,BANK_RELAYS..> 1 (was BANKED_CODE)
  Relative segment, address: CODE 0000385B - 00003882 (0x28 bytes), align: 0
  Segment part 56.            Intra module refs:   MRFI_SetRFPwr::?relay
           ENTRY                   ADDRESS         REF BY
           =====                   =======         ======
           MRFI_SetRFPwr           0000385B 
               calls direct
               XSTACK = 0000000A ( 0000000A )
    -------------------------------------------------------------------------
<BANKED_CODE,BANK_RELAYS..> 1 (was BANKED_CODE)
  Relative segment, address: CODE 00003883 - 00003887 (0x5 bytes), align: 0
  Segment part 58.            Intra module refs:   MRFI_Init
                                                   MRFI_SetLogicalChannel
                                                   MRFI_SetRFPwr
                                                   Mrfi_DelayUsec
           LOCAL                   ADDRESS         
           =====                   =======         
           ?Subroutine0            00003883 
    -------------------------------------------------------------------------
<BANKED_CODE,BANK_RELAYS..> 1 (was BANKED_CODE)
  Relative segment, address: CODE 00003888 - 00003898 (0x11 bytes), align: 0
  Segment part 59.            Intra module refs:   MRFI_WakeUp::?relay
           ENTRY                   ADDRESS         REF BY
           =====                   =======         ======
           MRFI_WakeUp             00003888 
               ISTACK = 00000000 ( 00000002 )
    -------------------------------------------------------------------------
<BANKED_CODE,BANK_RELAYS..> 1 (was BANKED_CODE)
  Relative segment, address: CODE 00003899 - 00003899 (0x1 bytes), align: 0
  Segment part 61.            Intra module refs:   MRFI_DisableRxAddrFilter
                                                   Mrfi_RxModeOn
           LOCAL                   ADDRESS         
           =====                   =======         
           ?Subroutine1            00003899 
    -------------------------------------------------------------------------
<BANKED_CODE,BANK_RELAYS..> 1 (was BANKED_CODE)
  Relative segment, address: CODE 0000389A - 000038A0 (0x7 bytes), align: 0
  Segment part 62.            Intra module refs:   ?Subroutine1
                                                   MRFI_GetRadioState
                                                   MRFI_Receive
                                                   MRFI_Rssi
                                                   MRFI_RxIdle
                                                   MRFI_RxOn
                                                   MRFI_Sleep
                                                   MRFI_WakeUp
                                                   Mrfi_RxModeOff
    -------------------------------------------------------------------------
<BANKED_CODE,BANK_RELAYS..> 1 (was BANKED_CODE)
  Relative segment, address: CODE 000038A1 - 000038B7 (0x17 bytes), align: 0
  Segment part 63.            Intra module refs:   MRFI_Sleep::?relay
           ENTRY                   ADDRESS         REF BY
           =====                   =======         ======
           MRFI_Sleep              000038A1 
               calls direct
               ISTACK = 00000000 ( 00000002 )
    -------------------------------------------------------------------------
<BANKED_CODE,BANK_RELAYS..> 1 (was BANKED_CODE)
  Relative segment, address: CODE 000038B8 - 00003924 (0x6d bytes), align: 0
  Segment part 65.            Intra module refs:   MRFI_SetRxAddrFilter::?relay
           ENTRY                   ADDRESS         REF BY
           =====                   =======         ======
           MRFI_SetRxAddrFilter    000038B8 
               XSTACK = 00000000 ( 00000009 )
    -------------------------------------------------------------------------
<BANKED_CODE,BANK_RELAYS..> 1 (was BANKED_CODE)
  Relative segment, address: CODE 00003925 - 00003929 (0x5 bytes), align: 0
  Segment part 67.            Intra module refs:   MRFI_DelayMs
                                                   MRFI_SetRxAddrFilter
                                                   Mrfi_RandomBackoffDelay
           LOCAL                   ADDRESS         
           =====                   =======         
           ?Subroutine2            00003925 
    -------------------------------------------------------------------------
<BANKED_CODE,BANK_RELAYS..> 1 (was BANKED_CODE)
  Relative segment, address: CODE 0000392A - 00003936 (0xd bytes), align: 0
  Segment part 70.            Intra module refs:   MRFI_DisableRxAddrFilter::?relay
           ENTRY                   ADDRESS         REF BY
           =====                   =======         ======
           MRFI_DisableRxAddrFilter
                                   0000392A 
               ISTACK = 00000000 ( 00000002 )
    -------------------------------------------------------------------------
<BANKED_CODE,BANK_RELAYS..> 1 (was BANKED_CODE)
  Relative segment, address: CODE 00003937 - 0000395A (0x24 bytes), align: 0
  Segment part 72.            Intra module refs:   MRFI_Rssi::?relay
           ENTRY                   ADDRESS         REF BY
           =====                   =======         ======
           MRFI_Rssi               00003937 
               ISTACK = 00000000 ( 00000002 )
    -------------------------------------------------------------------------
<BANKED_CODE,BANK_RELAYS..> 1 (was BANKED_CODE)
  Relative segment, address: CODE 0000395B - 00003967 (0xd bytes), align: 0
  Segment part 74.            Intra module refs:   MRFI_RandomByte::?relay
           ENTRY                   ADDRESS         REF BY
           =====                   =======         ======
           MRFI_RandomByte         0000395B 
               XSTACK = 00000009 ( 00000000 )
    -------------------------------------------------------------------------
<BANKED_CODE,BANK_RELAYS..> 1 (was BANKED_CODE)
  Relative segment, address: CODE 00003968 - 00003986 (0x1f bytes), align: 0
  Segment part 76.            Intra module refs:   MRFI_DelayMs::?relay
           ENTRY                   ADDRESS         REF BY
           =====                   =======         ======
           MRFI_DelayMs            00003968 
               calls direct
               XSTACK = 00000000 ( 00000009 )
    -------------------------------------------------------------------------
<BANKED_CODE,BANK_RELAYS..> 1 (was BANKED_CODE)
  Relative segment, address: CODE 00003987 - 000039F2 (0x6c bytes), align: 0
  Segment part 78.            Intra module refs:   MRFI_ReplyDelay::?relay
           ENTRY                   ADDRESS         REF BY
           =====                   =======         ======
           MRFI_ReplyDelay         00003987 
               calls direct
               XSTACK = 00000000 ( 0000000B )
    -------------------------------------------------------------------------
<BANKED_CODE,BANK_RELAYS..> 1 (was BANKED_CODE)
  Relative segment, address: CODE 000039F3 - 000039FB (0x9 bytes), align: 0
  Segment part 80.            Intra module refs:   MRFI_ReplyDelay
           LOCAL                   ADDRESS         
           =====                   =======         
           ?Subroutine5            000039F3 
    -------------------------------------------------------------------------
<BANKED_CODE,BANK_RELAYS..> 1 (was BANKED_CODE)
  Relative segment, address: CODE 000039FC - 00003AA6 (0xab bytes), align: 0
  Segment part 81.            Intra module refs:   Mrfi_DelayUsecLong::?relay
           ENTRY                   ADDRESS         REF BY
           =====                   =======         ======
           Mrfi_DelayUsecLong      000039FC 
               calls direct
               XSTACK = 00000010 ( 00000011 )
    -------------------------------------------------------------------------
<BANKED_CODE,BANK_RELAYS..> 1 (was BANKED_CODE)
  Relative segment, address: CODE 00003AA7 - 00003AB5 (0xf bytes), align: 0
  Segment part 83.            Intra module refs:   MRFI_ReplyDelay
                                                   Mrfi_DelayUsec
                                                   Mrfi_DelayUsecLong
           LOCAL                   ADDRESS         
           =====                   =======         
           ?Subroutine3            00003AA7 
    -------------------------------------------------------------------------
<BANKED_CODE,BANK_RELAYS..> 1 (was BANKED_CODE)
  Relative segment, address: CODE 00003AB6 - 00003AC5 (0x10 bytes), align: 0
  Segment part 86.            Intra module refs:   Mrfi_RxModeOn::?relay
           LOCAL                   ADDRESS         
           =====                   =======         
           Mrfi_RxModeOn           00003AB6 
               XSTACK = 0000000C ( 00000000 )
               ISTACK = 00000000 ( 00000002 )
    -------------------------------------------------------------------------
<BANKED_CODE,BANK_RELAYS..> 1 (was BANKED_CODE)
  Relative segment, address: CODE 00003AC6 - 00003ADF (0x1a bytes), align: 0
  Segment part 88.            Intra module refs:   Mrfi_RxModeOff::?relay
           LOCAL                   ADDRESS         
           =====                   =======         
           Mrfi_RxModeOff          00003AC6 
               XSTACK = 0000000C ( 00000000 )
               ISTACK = 00000000 ( 00000002 )
    -------------------------------------------------------------------------
<BANKED_CODE,BANK_RELAYS..> 1 (was BANKED_CODE)
  Relative segment, address: CODE 00003AE0 - 00003AFA (0x1b bytes), align: 0
  Segment part 90.            Intra module refs:   Mrfi_RandomBackoffDelay::?relay
           LOCAL                   ADDRESS         
           =====                   =======         
           Mrfi_RandomBackoffDelay
                                   00003AE0 
               calls direct
               XSTACK = 0000000C ( 00000009 )
    -------------------------------------------------------------------------
<BANKED_CODE,BANK_RELAYS..> 1 (was BANKED_CODE)
  Relative segment, address: CODE 00003AFB - 00003B1D (0x23 bytes), align: 0
  Segment part 92.            Intra module refs:   Mrfi_DelayUsec::?relay
           LOCAL                   ADDRESS         
           =====                   =======         
           Mrfi_DelayUsec          00003AFB 
               calls direct
               XSTACK = 00000009 ( 0000000A )
    -------------------------------------------------------------------------
<BANKED_CODE,BANK_RELAYS..> 1 (was BANKED_CODE)
  Relative segment, address: CODE 00003B1E - 00003B33 (0x16 bytes), align: 0
  Segment part 94.            Intra module refs:   Mrfi_DelayUsec
                                                   Mrfi_DelayUsecLong
           LOCAL                   ADDRESS         
           =====                   =======         
           ?Subroutine4            00003B1E 
    -------------------------------------------------------------------------
<BANKED_CODE,BANK_RELAYS..> 1 (was BANKED_CODE)
  Relative segment, address: CODE 00003B34 - 00003B3F (0xc bytes), align: 0
  Segment part 95.            Intra module refs:   MRFI_GetRadioState::?relay
           ENTRY                   ADDRESS         REF BY
           =====                   =======         ======
           MRFI_GetRadioState      00003B34 
               ISTACK = 00000000 ( 00000002 )
    -------------------------------------------------------------------------
INTVEC
  Common segment, address: CODE 00002000 - 00002085 (0x86 bytes), align: 0
  Segment part 20. ROOT.
           ENTRY                   ADDRESS         REF BY
           =====                   =======         ======
           MRFI_RxIsr::??INTVEC 131
                                   00002083 
    -------------------------------------------------------------------------
XDATA_ID
  Relative segment, address: CODE 000020FE - 00002101 (0x4 bytes), align: 0
  Segment part 27.            Intra module refs:   mrfiBroadcastAddr
    -------------------------------------------------------------------------
XDATA_ID
  Relative segment, address: CODE 00002102 - 00002105 (0x4 bytes), align: 0
  Segment part 29.            Intra module refs:   mrfiLogicalChanTable
    -------------------------------------------------------------------------
XDATA_ID
  Relative segment, address: CODE 00002106 - 00002108 (0x3 bytes), align: 0
  Segment part 31.            Intra module refs:   mrfiRFPowerTable
    -------------------------------------------------------------------------
XDATA_ID
  Relative segment, address: CODE 00002109 - 0000210C (0x4 bytes), align: 0
  Segment part 39.            Intra module refs:   __Constant_2
    -------------------------------------------------------------------------
<BANKED_CODE,BANK_RELAYS..> 1 (was BANK_RELAYS)
  Relative segment, address: CODE 000026B3 - 000026B8 (0x6 bytes), align: 0
  Segment part 43.
           ENTRY                   ADDRESS         REF BY
           =====                   =======         ======
           MRFI_Init::?relay       000026B3        SMPL_Init (nwk_api)
    -------------------------------------------------------------------------
<BANKED_CODE,BANK_RELAYS..> 1 (was BANK_RELAYS)
  Relative segment, address: CODE 000026B9 - 000026BE (0x6 bytes), align: 0
  Segment part 45.            Intra module refs:   MRFI_Transmit
           LOCAL                   ADDRESS         
           =====                   =======         
           mrfi_TxDone::?relay     000026B9 
    -------------------------------------------------------------------------
<BANKED_CODE,BANK_RELAYS..> 1 (was BANK_RELAYS)
  Relative segment, address: CODE 000026BF - 000026C4 (0x6 bytes), align: 0
  Segment part 47.
           ENTRY                   ADDRESS         REF BY
           =====                   =======         ======
           MRFI_Transmit::?relay   000026BF        nwk_sendFrame (nwk_frame)
    -------------------------------------------------------------------------
<BANKED_CODE,BANK_RELAYS..> 1 (was BANK_RELAYS)
  Relative segment, address: CODE 000026C5 - 000026CA (0x6 bytes), align: 0
  Segment part 49.
           ENTRY                   ADDRESS         REF BY
           =====                   =======         ======
           MRFI_Receive::?relay    000026C5        MRFI_RxCompleteISR (nwk_frame)
    -------------------------------------------------------------------------
<BANKED_CODE,BANK_RELAYS..> 1 (was BANK_RELAYS)
  Relative segment, address: CODE 000026CB - 000026D0 (0x6 bytes), align: 0
  Segment part 51.
           ENTRY                   ADDRESS         REF BY
           =====                   =======         ======
           MRFI_RxOn::?relay       000026CB        nwk_join (nwk_join)
                                                   nwk_radioControl (nwk_ioctl)
    -------------------------------------------------------------------------
<BANKED_CODE,BANK_RELAYS..> 1 (was BANK_RELAYS)
  Relative segment, address: CODE 000026D1 - 000026D6 (0x6 bytes), align: 0
  Segment part 53.            Intra module refs:   MRFI_Sleep
           ENTRY                   ADDRESS         REF BY
           =====                   =======         ======
           MRFI_RxIdle::?relay     000026D1        nwk_join (nwk_join)
                                                   nwk_radioControl (nwk_ioctl)
    -------------------------------------------------------------------------
<BANKED_CODE,BANK_RELAYS..> 1 (was BANK_RELAYS)
  Relative segment, address: CODE 000026D7 - 000026DC (0x6 bytes), align: 0
  Segment part 55.            Intra module refs:   MRFI_Init
           ENTRY                   ADDRESS         REF BY
           =====                   =======         ======
           MRFI_SetLogicalChannel::?relay
                                   000026D7 
    -------------------------------------------------------------------------
<BANKED_CODE,BANK_RELAYS..> 1 (was BANK_RELAYS)
  Relative segment, address: CODE 000026DD - 000026E2 (0x6 bytes), align: 0
  Segment part 57.            Intra module refs:   MRFI_Init
           ENTRY                   ADDRESS         REF BY
           =====                   =======         ======
           MRFI_SetRFPwr::?relay   000026DD 
    -------------------------------------------------------------------------
<BANKED_CODE,BANK_RELAYS..> 1 (was BANK_RELAYS)
  Relative segment, address: CODE 000026E3 - 000026E8 (0x6 bytes), align: 0
  Segment part 60.
           ENTRY                   ADDRESS         REF BY
           =====                   =======         ======
           MRFI_WakeUp::?relay     000026E3        SMPL_Init (nwk_api)
                                                   nwk_join (nwk_join)
                                                   nwk_radioControl (nwk_ioctl)
    -------------------------------------------------------------------------
<BANKED_CODE,BANK_RELAYS..> 1 (was BANK_RELAYS)
  Relative segment, address: CODE 000026E9 - 000026EE (0x6 bytes), align: 0
  Segment part 64.
           ENTRY                   ADDRESS         REF BY
           =====                   =======         ======
           MRFI_Sleep::?relay      000026E9        nwk_join (nwk_join)
                                                   nwk_radioControl (nwk_ioctl)
    -------------------------------------------------------------------------
<BANKED_CODE,BANK_RELAYS..> 1 (was BANK_RELAYS)
  Relative segment, address: CODE 000026EF - 000026F4 (0x6 bytes), align: 0
  Segment part 66.
           ENTRY                   ADDRESS         REF BY
           =====                   =======         ======
           MRFI_SetRxAddrFilter::?relay
                                   000026EF        SMPL_Init (nwk_api)
    -------------------------------------------------------------------------
<BANKED_CODE,BANK_RELAYS..> 1 (was BANK_RELAYS)
  Relative segment, address: CODE 000026F5 - 000026FA (0x6 bytes), align: 0
  Segment part 71.
           ENTRY                   ADDRESS         REF BY
           =====                   =======         ======
           MRFI_DisableRxAddrFilter::?relay
                                   000026F5        SMPL_Init (nwk_api)
    -------------------------------------------------------------------------
<BANKED_CODE,BANK_RELAYS..> 1 (was BANK_RELAYS)
  Relative segment, address: CODE 000026FB - 00002700 (0x6 bytes), align: 0
  Segment part 73.
           ENTRY                   ADDRESS         REF BY
           =====                   =======         ======
           MRFI_Rssi::?relay       000026FB        nwk_radioControl (nwk_ioctl)
    -------------------------------------------------------------------------
<BANKED_CODE,BANK_RELAYS..> 1 (was BANK_RELAYS)
  Relative segment, address: CODE 00002701 - 00002706 (0x6 bytes), align: 0
  Segment part 75.            Intra module refs:   Mrfi_RandomBackoffDelay
           ENTRY                   ADDRESS         REF BY
           =====                   =======         ======
           MRFI_RandomByte::?relay
                                   00002701        nwk_frameInit (nwk_frame)
                                                   nwk_joinInit (nwk_join)
                                                   nwk_linkInit (nwk_link)
                                                   nwk_mgmtInit (nwk_mgmt)
                                                   nwk_pingInit (nwk_ping)
    -------------------------------------------------------------------------
<BANKED_CODE,BANK_RELAYS..> 1 (was BANK_RELAYS)
  Relative segment, address: CODE 00002707 - 0000270C (0x6 bytes), align: 0
  Segment part 77.
           ENTRY                   ADDRESS         REF BY
           =====                   =======         ======
           MRFI_DelayMs::?relay    00002707        ?Subroutine12 (nwk_api)
                                                   MstPacketParse (nwk_api)
    -------------------------------------------------------------------------
<BANKED_CODE,BANK_RELAYS..> 1 (was BANK_RELAYS)
  Relative segment, address: CODE 0000270D - 00002712 (0x6 bytes), align: 0
  Segment part 79.
           ENTRY                   ADDRESS         REF BY
           =====                   =======         ======
           MRFI_ReplyDelay::?relay
                                   0000270D        nwk_join (nwk_join)
    -------------------------------------------------------------------------
<BANKED_CODE,BANK_RELAYS..> 1 (was BANK_RELAYS)
  Relative segment, address: CODE 00002713 - 00002718 (0x6 bytes), align: 0
  Segment part 82.            Intra module refs:   MRFI_Transmit
           ENTRY                   ADDRESS         REF BY
           =====                   =======         ======
           Mrfi_DelayUsecLong::?relay
                                   00002713 
    -------------------------------------------------------------------------
<BANKED_CODE,BANK_RELAYS..> 1 (was BANK_RELAYS)
  Relative segment, address: CODE 00002719 - 0000271E (0x6 bytes), align: 0
  Segment part 87.            Intra module refs:   MRFI_RxOn
                                                   MRFI_SetLogicalChannel
                                                   MRFI_SetRFPwr
                                                   MRFI_Transmit
           LOCAL                   ADDRESS         
           =====                   =======         
           Mrfi_RxModeOn::?relay   00002719 
    -------------------------------------------------------------------------
<BANKED_CODE,BANK_RELAYS..> 1 (was BANK_RELAYS)
  Relative segment, address: CODE 0000271F - 00002724 (0x6 bytes), align: 0
  Segment part 89.            Intra module refs:   MRFI_RxIdle
                                                   MRFI_SetLogicalChannel
                                                   MRFI_SetRFPwr
                                                   MRFI_Transmit
           LOCAL                   ADDRESS         
           =====                   =======         
           Mrfi_RxModeOff::?relay
                                   0000271F 
    -------------------------------------------------------------------------
<BANKED_CODE,BANK_RELAYS..> 1 (was BANK_RELAYS)
  Relative segment, address: CODE 00002725 - 0000272A (0x6 bytes), align: 0
  Segment part 91.            Intra module refs:   MRFI_Init
                                                   MRFI_Transmit
           LOCAL                   ADDRESS         
           =====                   =======         
           Mrfi_RandomBackoffDelay::?relay
                                   00002725 
    -------------------------------------------------------------------------
<BANKED_CODE,BANK_RELAYS..> 1 (was BANK_RELAYS)
  Relative segment, address: CODE 0000272B - 00002730 (0x6 bytes), align: 0
  Segment part 93.            Intra module refs:   MRFI_DelayMs
                                                   Mrfi_RandomBackoffDelay
           LOCAL                   ADDRESS         
           =====                   =======         
           Mrfi_DelayUsec::?relay
                                   0000272B 
    -------------------------------------------------------------------------
<BANKED_CODE,BANK_RELAYS..> 1 (was BANK_RELAYS)
  Relative segment, address: CODE 00002731 - 00002736 (0x6 bytes), align: 0
  Segment part 96.
           ENTRY                   ADDRESS         REF BY
           =====                   =======         ======
           MRFI_GetRadioState::?relay
                                   00002731        nwk_join (nwk_join)

    *************************************************************************

  FILE NAME : C:\Users\freeman\Documents\work\NBK\Nikon\Nikon_Rf\SimpliciTI-IAR-1.2.0\Projects\Examples\SRF05_8051\nik_sb5000\IAR\LinkTo\Obj\nwk.r51
  PROGRAM MODULE, NAME : nwk

  SEGMENTS IN THE MODULE
  ======================
XDATA_I
  Relative segment, address: XDATA 0000123B - 00001260 (0x26 bytes), align: 0
  Segment part 6.             Intra module refs:   ?Subroutine6
                                                   map_lid2idx
                                                   nwk_nwkInit
           LOCAL                   ADDRESS         
           =====                   =======         
           sPersistInfo            0000123B 
    -------------------------------------------------------------------------
<BANKED_CODE,BANK_RELAYS..> 1 (was BANKED_CODE)
  Relative segment, address: CODE 000045F2 - 00004684 (0x93 bytes), align: 0
  Segment part 8.             Intra module refs:   nwk_nwkInit::?relay
           ENTRY                   ADDRESS         REF BY
           =====                   =======         ======
           nwk_nwkInit             000045F2 
               calls direct
               XSTACK = 00000000 ( 0000000C )
    -------------------------------------------------------------------------
<BANKED_CODE,BANK_RELAYS..> 1 (was BANKED_CODE)
  Relative segment, address: CODE 00004685 - 00004689 (0x5 bytes), align: 0
  Segment part 12.            Intra module refs:   nwk_getConnInfo
           LOCAL                   ADDRESS         
           =====                   =======         
           ?Subroutine0            00004685 
    -------------------------------------------------------------------------
<BANKED_CODE,BANK_RELAYS..> 1 (was BANKED_CODE)
  Relative segment, address: CODE 0000468A - 0000468E (0x5 bytes), align: 0
  Segment part 13.            Intra module refs:   ?Subroutine0
                                                   map_lid2idx
    -------------------------------------------------------------------------
<BANKED_CODE,BANK_RELAYS..> 1 (was BANKED_CODE)
  Relative segment, address: CODE 0000468F - 00004698 (0xa bytes), align: 0
  Segment part 14.            Intra module refs:   nwk_freeConnection::?relay
           ENTRY                   ADDRESS         REF BY
           =====                   =======         ======
           nwk_freeConnection      0000468F 
               ISTACK = 00000000 ( 00000002 )
    -------------------------------------------------------------------------
<BANKED_CODE,BANK_RELAYS..> 1 (was BANKED_CODE)
  Relative segment, address: CODE 00004699 - 0000469F (0x7 bytes), align: 0
  Segment part 16.            Intra module refs:   nwk_freeConnection
           LOCAL                   ADDRESS         
           =====                   =======         
           ?Subroutine1            00004699 
    -------------------------------------------------------------------------
<BANKED_CODE,BANK_RELAYS..> 1 (was BANKED_CODE)
  Relative segment, address: CODE 000046A0 - 000046D1 (0x32 bytes), align: 0
  Segment part 17.            Intra module refs:   nwk_getConnInfo::?relay
           ENTRY                   ADDRESS         REF BY
           =====                   =======         ======
           nwk_getConnInfo         000046A0 
               calls direct
               XSTACK = 00000000 ( 0000000A )
    -------------------------------------------------------------------------
<BANKED_CODE,BANK_RELAYS..> 1 (was BANKED_CODE)
  Relative segment, address: CODE 000046D2 - 000046E6 (0x15 bytes), align: 0
  Segment part 19.            Intra module refs:   nwk_getConnInfo
           LOCAL                   ADDRESS         
           =====                   =======         
           ?Subroutine6            000046D2 
    -------------------------------------------------------------------------
<BANKED_CODE,BANK_RELAYS..> 1 (was BANKED_CODE)
  Relative segment, address: CODE 000046E7 - 00004728 (0x42 bytes), align: 0
  Segment part 41.            Intra module refs:   map_lid2idx::?relay
           LOCAL                   ADDRESS         
           =====                   =======         
           map_lid2idx             000046E7 
               XSTACK = 0000000A ( 00000009 )
               ISTACK = 00000000 ( 00000001 )
    -------------------------------------------------------------------------
<BANKED_CODE,BANK_RELAYS..> 1 (was BANKED_CODE)
  Relative segment, address: CODE 00004729 - 0000472D (0x5 bytes), align: 0
  Segment part 50.            Intra module refs:   nwk_putNumObjectIntoMsg
           LOCAL                   ADDRESS         
           =====                   =======         
           ?Subroutine4            00004729 
    -------------------------------------------------------------------------
<BANKED_CODE,BANK_RELAYS..> 1 (was BANKED_CODE)
  Relative segment, address: CODE 0000472E - 00004796 (0x69 bytes), align: 0
  Segment part 51.            Intra module refs:   nwk_putNumObjectIntoMsg::?relay
           ENTRY                   ADDRESS         REF BY
           =====                   =======         ======
           nwk_putNumObjectIntoMsg
                                   0000472E 
               calls direct
               XSTACK = 00000000 ( 00000013 )
    -------------------------------------------------------------------------
XDATA_ID
  Relative segment, address: CODE 0000210D - 00002132 (0x26 bytes), align: 0
  Segment part 7.             Intra module refs:   sPersistInfo
    -------------------------------------------------------------------------
<BANKED_CODE,BANK_RELAYS..> 1 (was BANK_RELAYS)
  Relative segment, address: CODE 00002737 - 0000273C (0x6 bytes), align: 0
  Segment part 9.
           ENTRY                   ADDRESS         REF BY
           =====                   =======         ======
           nwk_nwkInit::?relay     00002737        SMPL_Init (nwk_api)
    -------------------------------------------------------------------------
<BANKED_CODE,BANK_RELAYS..> 1 (was BANK_RELAYS)
  Relative segment, address: CODE 0000273D - 00002742 (0x6 bytes), align: 0
  Segment part 15.
           ENTRY                   ADDRESS         REF BY
           =====                   =======         ======
           nwk_freeConnection::?relay
                                   0000273D        nwk_connectionControl (nwk_ioctl)
    -------------------------------------------------------------------------
<BANKED_CODE,BANK_RELAYS..> 1 (was BANK_RELAYS)
  Relative segment, address: CODE 00002743 - 00002748 (0x6 bytes), align: 0
  Segment part 18.
           ENTRY                   ADDRESS         REF BY
           =====                   =======         ======
           nwk_getConnInfo::?relay
                                   00002743        nwk_QfindOldest (nwk_QMgmt)
                                                   nwk_connectionControl (nwk_ioctl)
                                                   nwk_radioControl (nwk_ioctl)
                                                   nwk_retrieveFrame (nwk_frame)
    -------------------------------------------------------------------------
<BANKED_CODE,BANK_RELAYS..> 1 (was BANK_RELAYS)
  Relative segment, address: CODE 00002749 - 0000274E (0x6 bytes), align: 0
  Segment part 42.            Intra module refs:   nwk_getConnInfo
           LOCAL                   ADDRESS         
           =====                   =======         
           map_lid2idx::?relay     00002749 
    -------------------------------------------------------------------------
<BANKED_CODE,BANK_RELAYS..> 1 (was BANK_RELAYS)
  Relative segment, address: CODE 00002905 - 0000290A (0x6 bytes), align: 0
  Segment part 52.
           ENTRY                   ADDRESS         REF BY
           =====                   =======         ======
           nwk_putNumObjectIntoMsg::?relay
                                   00002905        nwk_join (nwk_join)

    *************************************************************************

  FILE NAME : C:\Users\freeman\Documents\work\NBK\Nikon\Nikon_Rf\SimpliciTI-IAR-1.2.0\Projects\Examples\SRF05_8051\nik_sb5000\IAR\LinkTo\Obj\nwk_QMgmt.r51
  PROGRAM MODULE, NAME : nwk_QMgmt

  SEGMENTS IN THE MODULE
  ======================
XDATA_Z
  Relative segment, address: XDATA 00000EC3 - 00000F8E (0xcc bytes), align: 0
  Segment part 7.             Intra module refs:   nwk_QInit
                                                   nwk_QadjustOrder
                                                   nwk_QfindOldest
                                                   nwk_QfindSlot
           LOCAL                   ADDRESS         
           =====                   =======         
           sInFrameQ               00000EC3 
    -------------------------------------------------------------------------
XDATA_Z
  Relative segment, address: XDATA 00000F8F - 00000FF4 (0x66 bytes), align: 0
  Segment part 8.             Intra module refs:   nwk_QInit
                                                   nwk_QfindSlot
           LOCAL                   ADDRESS         
           =====                   =======         
           sOutFrameQ              00000F8F 
    -------------------------------------------------------------------------
<BANKED_CODE,BANK_RELAYS..> 1 (was BANKED_CODE)
  Relative segment, address: CODE 00003B40 - 00003B7C (0x3d bytes), align: 0
  Segment part 9.             Intra module refs:   nwk_QInit::?relay
           ENTRY                   ADDRESS         REF BY
           =====                   =======         ======
           nwk_QInit               00003B40 
               calls direct
               XSTACK = 00000000 ( 0000000C )
    -------------------------------------------------------------------------
<BANKED_CODE,BANK_RELAYS..> 1 (was BANKED_CODE)
  Relative segment, address: CODE 00003B7D - 00003C2B (0xaf bytes), align: 0
  Segment part 11.            Intra module refs:   nwk_QfindSlot::?relay
           ENTRY                   ADDRESS         REF BY
           =====                   =======         ======
           nwk_QfindSlot           00003B7D 
               calls direct
               XSTACK = 00000000 ( 0000000D )
               ISTACK = 00000000 ( 00000001 )
    -------------------------------------------------------------------------
<BANKED_CODE,BANK_RELAYS..> 1 (was BANKED_CODE)
  Relative segment, address: CODE 00003C2C - 00003C6C (0x41 bytes), align: 0
  Segment part 13.            Intra module refs:   nwk_QadjustOrder::?relay
           ENTRY                   ADDRESS         REF BY
           =====                   =======         ======
           nwk_QadjustOrder        00003C2C 
               XSTACK = 0000000D ( 00000009 )
    -------------------------------------------------------------------------
<BANKED_CODE,BANK_RELAYS..> 1 (was BANKED_CODE)
  Relative segment, address: CODE 00003C6D - 00003DEC (0x180 bytes), align: 0
  Segment part 15.            Intra module refs:   nwk_QfindOldest::?relay
           ENTRY                   ADDRESS         REF BY
           =====                   =======         ======
           nwk_QfindOldest         00003C6D 
               calls direct
               XSTACK = 00000000 ( 0000001C )
               ISTACK = 00000000 ( 00000001 )
    -------------------------------------------------------------------------
<BANKED_CODE,BANK_RELAYS..> 1 (was BANK_RELAYS)
  Relative segment, address: CODE 00002755 - 0000275A (0x6 bytes), align: 0
  Segment part 10.
           ENTRY                   ADDRESS         REF BY
           =====                   =======         ======
           nwk_QInit::?relay       00002755        nwk_nwkInit (nwk)
    -------------------------------------------------------------------------
<BANKED_CODE,BANK_RELAYS..> 1 (was BANK_RELAYS)
  Relative segment, address: CODE 0000275B - 00002760 (0x6 bytes), align: 0
  Segment part 12.
           ENTRY                   ADDRESS         REF BY
           =====                   =======         ======
           nwk_QfindSlot::?relay   0000275B        MRFI_RxCompleteISR (nwk_frame)
                                                   nwk_buildFrame (nwk_frame)
    -------------------------------------------------------------------------
<BANKED_CODE,BANK_RELAYS..> 1 (was BANK_RELAYS)
  Relative segment, address: CODE 000028C3 - 000028C8 (0x6 bytes), align: 0
  Segment part 14.            Intra module refs:   nwk_QfindSlot
           ENTRY                   ADDRESS         REF BY
           =====                   =======         ======
           nwk_QadjustOrder::?relay
                                   000028C3        nwk_retrieveFrame (nwk_frame)
    -------------------------------------------------------------------------
<BANKED_CODE,BANK_RELAYS..> 1 (was BANK_RELAYS)
  Relative segment, address: CODE 00002767 - 0000276C (0x6 bytes), align: 0
  Segment part 16.
           ENTRY                   ADDRESS         REF BY
           =====                   =======         ======
           nwk_QfindOldest::?relay
                                   00002767        nwk_retrieveFrame (nwk_frame)

    *************************************************************************

  FILE NAME : C:\Users\freeman\Documents\work\NBK\Nikon\Nikon_Rf\SimpliciTI-IAR-1.2.0\Projects\Examples\SRF05_8051\nik_sb5000\IAR\LinkTo\Obj\nwk_api.r51
  PROGRAM MODULE, NAME : nwk_api

  SEGMENTS IN THE MODULE
  ======================
XDATA_Z
  Relative segment, address: XDATA 00000FF5 - 00001058 (0x64 bytes), align: 0
  Segment part 8.             Intra module refs:   FlashInfoSend
    -------------------------------------------------------------------------
XDATA_Z
  Relative segment, address: XDATA 00001059 - 000010BC (0x64 bytes), align: 0
  Segment part 9.             Intra module refs:   PreFlashInfoSend
    -------------------------------------------------------------------------
XDATA_Z
  Relative segment, address: XDATA 000010BD - 000010BD (0x1 bytes), align: 0
  Segment part 10.            Intra module refs:   SMPL_Init
                                                   SMPL_Ioctl
           LOCAL                   ADDRESS         
           =====                   =======         
           sInit_done              000010BD 
    -------------------------------------------------------------------------
XDATA_Z
  Relative segment, address: XDATA 000010BE - 000010F0 (0x33 bytes), align: 0
  Segment part 11.            Intra module refs:   ?Subroutine13
                                                   ?Subroutine16
           ENTRY                   ADDRESS         REF BY
           =====                   =======         ======
           g_frameInfo             000010BE 
    -------------------------------------------------------------------------
XDATA_Z
  Relative segment, address: XDATA 000010F1 - 000010F2 (0x2 bytes), align: 0
  Segment part 12.            Intra module refs:   ?Subroutine10
                                                   ?Subroutine18
                                                   ?Subroutine5
                                                   ?Subroutine6
                                                   MstPacketParse
                                                   RptFlashInfoSend
           ENTRY                   ADDRESS         REF BY
           =====                   =======         ======
           g_pRcvPkt               000010F1        MRFI_RxCompleteISR (nwk_frame)
    -------------------------------------------------------------------------
XDATA_Z
  Relative segment, address: XDATA 000010F3 - 0000111C (0x2a bytes), align: 0
  Segment part 13.            Intra module refs:   FlashInfoSend
           ENTRY                   ADDRESS         REF BY
           =====                   =======         ======
           radioSet                000010F3 
    -------------------------------------------------------------------------
XDATA_Z
  Relative segment, address: XDATA 0000111D - 0000111D (0x1 bytes), align: 0
  Segment part 14.            Intra module refs:   ?Subroutine19
                                                   UartSctSend
           ENTRY                   ADDRESS         REF BY
           =====                   =======         ======
           gBUartTotalByte         0000111D 
    -------------------------------------------------------------------------
XDATA_Z
  Relative segment, address: XDATA 0000111E - 0000115D (0x40 bytes), align: 0
  Segment part 16.            Intra module refs:   ?Subroutine20
                                                   UartSctSend
           ENTRY                   ADDRESS         REF BY
           =====                   =======         ======
           gBUartBuf               0000111E 
    -------------------------------------------------------------------------
XDATA_Z
  Relative segment, address: XDATA 0000115E - 0000115E (0x1 bytes), align: 0
  Segment part 17.            Intra module refs:   UartSctSend
           ENTRY                   ADDRESS         REF BY
           =====                   =======         ======
           uart_tran_flag          0000115E 
    -------------------------------------------------------------------------
<BANKED_CODE,BANK_RELAYS..> 1 (was BANKED_CODE)
  Relative segment, address: CODE 00002915 - 0000294A (0x36 bytes), align: 0
  Segment part 22.            Intra module refs:   SMPL_Init::?relay
           ENTRY                   ADDRESS         REF BY
           =====                   =======         ======
           SMPL_Init               00002915 
               calls direct
               XSTACK = 00000000 ( 00000009 )
    -------------------------------------------------------------------------
<BANKED_CODE,BANK_RELAYS..> 1 (was BANKED_CODE)
  Relative segment, address: CODE 0000294B - 0000294F (0x5 bytes), align: 0
  Segment part 26.            Intra module refs:   SMPL_Ioctl
           LOCAL                   ADDRESS         
           =====                   =======         
           ?Subroutine0            0000294B 
    -------------------------------------------------------------------------
<BANKED_CODE,BANK_RELAYS..> 1 (was BANKED_CODE)
  Relative segment, address: CODE 00002950 - 00002952 (0x3 bytes), align: 0
  Segment part 35.            Intra module refs:   FlashInfoSend
                                                   PreFlashInfoSend
           LOCAL                   ADDRESS         
           =====                   =======         
           ?Subroutine2            00002950 
    -------------------------------------------------------------------------
<BANKED_CODE,BANK_RELAYS..> 1 (was BANKED_CODE)
  Relative segment, address: CODE 00002953 - 00002959 (0x7 bytes), align: 0
  Segment part 36.            Intra module refs:   ?Subroutine2
                                                   NIK_Init
                                                   NIK_LINK
    -------------------------------------------------------------------------
<BANKED_CODE,BANK_RELAYS..> 1 (was BANKED_CODE)
  Relative segment, address: CODE 0000295A - 00002977 (0x1e bytes), align: 0
  Segment part 37.            Intra module refs:   NIK_Init::?relay
           ENTRY                   ADDRESS         REF BY
           =====                   =======         ======
           NIK_Init                0000295A 
               ISTACK = 00000000 ( 00000002 )
    -------------------------------------------------------------------------
<BANKED_CODE,BANK_RELAYS..> 1 (was BANKED_CODE)
  Relative segment, address: CODE 00002978 - 0000299E (0x27 bytes), align: 0
  Segment part 39.            Intra module refs:   macDelay::?relay
           LOCAL                   ADDRESS         
           =====                   =======         
           macDelay                00002978 
               XSTACK = 0000000A ( 00000000 )
    -------------------------------------------------------------------------
<BANKED_CODE,BANK_RELAYS..> 1 (was BANKED_CODE)
  Relative segment, address: CODE 0000299F - 000029C2 (0x24 bytes), align: 0
  Segment part 41.            Intra module refs:   CalcSum::?relay
           LOCAL                   ADDRESS         
           =====                   =======         
           CalcSum                 0000299F 
               XSTACK = 00000065 ( 0000000A )
    -------------------------------------------------------------------------
<BANKED_CODE,BANK_RELAYS..> 1 (was BANKED_CODE)
  Relative segment, address: CODE 000029C3 - 000029C5 (0x3 bytes), align: 0
  Segment part 43.            Intra module refs:   RptFlashInfoSend
           LOCAL                   ADDRESS         
           =====                   =======         
           ?Subroutine1            000029C3 
    -------------------------------------------------------------------------
<BANKED_CODE,BANK_RELAYS..> 1 (was BANKED_CODE)
  Relative segment, address: CODE 000029C6 - 000029CA (0x5 bytes), align: 0
  Segment part 44.            Intra module refs:   ?Subroutine1
                                                   CalcSum
                                                   MstPacketParse
    -------------------------------------------------------------------------
<BANKED_CODE,BANK_RELAYS..> 1 (was BANKED_CODE)
  Relative segment, address: CODE 000029CB - 00002BC4 (0x1fa bytes), align: 0
  Segment part 45.            Intra module refs:   FlashInfoSend::?relay
           LOCAL                   ADDRESS         
           =====                   =======         
           FlashInfoSend           000029CB 
               calls direct
               XSTACK = 0000000A ( 00000065 )
               ISTACK = 00000000 ( 00000004 )
    -------------------------------------------------------------------------
<BANKED_CODE,BANK_RELAYS..> 1 (was BANKED_CODE)
  Relative segment, address: CODE 00002BC5 - 00002BCE (0xa bytes), align: 0
  Segment part 47.            Intra module refs:   FlashInfoSend
           LOCAL                   ADDRESS         
           =====                   =======         
           ?Subroutine11           00002BC5 
    -------------------------------------------------------------------------
<BANKED_CODE,BANK_RELAYS..> 1 (was BANKED_CODE)
  Relative segment, address: CODE 00002BCF - 00002BD4 (0x6 bytes), align: 0
  Segment part 48.            Intra module refs:   FlashInfoSend
           LOCAL                   ADDRESS         
           =====                   =======         
           ?Subroutine10           00002BCF 
    -------------------------------------------------------------------------
<BANKED_CODE,BANK_RELAYS..> 1 (was BANKED_CODE)
  Relative segment, address: CODE 00002BD5 - 00002BE0 (0xc bytes), align: 0
  Segment part 49.            Intra module refs:   FlashInfoSend
           LOCAL                   ADDRESS         
           =====                   =======         
           ?Subroutine7            00002BD5 
    -------------------------------------------------------------------------
<BANKED_CODE,BANK_RELAYS..> 1 (was BANKED_CODE)
  Relative segment, address: CODE 00002BE1 - 00002BE8 (0x8 bytes), align: 0
  Segment part 50.            Intra module refs:   FlashInfoSend
           LOCAL                   ADDRESS         
           =====                   =======         
           ?Subroutine3            00002BE1 
    -------------------------------------------------------------------------
<BANKED_CODE,BANK_RELAYS..> 1 (was BANKED_CODE)
  Relative segment, address: CODE 00002BE9 - 00002C5B (0x73 bytes), align: 0
  Segment part 51.            Intra module refs:   PreFlashInfoSend::?relay
           LOCAL                   ADDRESS         
           =====                   =======         
           PreFlashInfoSend        00002BE9 
               calls direct
               XSTACK = 0000000A ( 00000064 )
               ISTACK = 00000000 ( 00000004 )
    -------------------------------------------------------------------------
<BANKED_CODE,BANK_RELAYS..> 1 (was BANKED_CODE)
  Relative segment, address: CODE 00002C5C - 00002C63 (0x8 bytes), align: 0
  Segment part 53.            Intra module refs:   PreFlashInfoSend
                                                   RptFlashInfoSend
           LOCAL                   ADDRESS         
           =====                   =======         
           ?Subroutine15           00002C5C 
    -------------------------------------------------------------------------
<BANKED_CODE,BANK_RELAYS..> 1 (was BANKED_CODE)
  Relative segment, address: CODE 00002C64 - 00002C70 (0xd bytes), align: 0
  Segment part 54.            Intra module refs:   ?Subroutine15
                                                   FlashInfoSend
    -------------------------------------------------------------------------
<BANKED_CODE,BANK_RELAYS..> 1 (was BANKED_CODE)
  Relative segment, address: CODE 00002C71 - 00002D0E (0x9e bytes), align: 0
  Segment part 55.            Intra module refs:   RptFlashInfoSend::?relay
           LOCAL                   ADDRESS         
           =====                   =======         
           RptFlashInfoSend        00002C71 
               calls direct
               XSTACK = 0000000A ( 0000001E )
               ISTACK = 00000000 ( 00000001 )
    -------------------------------------------------------------------------
<BANKED_CODE,BANK_RELAYS..> 1 (was BANKED_CODE)
  Relative segment, address: CODE 00002D0F - 00002D23 (0x15 bytes), align: 0
  Segment part 57.            Intra module refs:   RptFlashInfoSend
           LOCAL                   ADDRESS         
           =====                   =======         
           ?Subroutine14           00002D0F 
    -------------------------------------------------------------------------
XDATA_Z
  Relative segment, address: XDATA 0000115F - 0000115F (0x1 bytes), align: 0
  Segment part 18.            Intra module refs:   MstPacketParse
           ENTRY                   ADDRESS         REF BY
           =====                   =======         ======
           g_flashReady            0000115F 
    -------------------------------------------------------------------------
XDATA_Z
  Relative segment, address: XDATA 00001160 - 00001160 (0x1 bytes), align: 0
  Segment part 19.            Intra module refs:   MstPacketParse
           ENTRY                   ADDRESS         REF BY
           =====                   =======         ======
           g_preFlashRdy           00001160 
    -------------------------------------------------------------------------
XDATA_Z
  Relative segment, address: XDATA 00001161 - 00001161 (0x1 bytes), align: 0
  Segment part 20.            Intra module refs:   MstPacketParse
           ENTRY                   ADDRESS         REF BY
           =====                   =======         ======
           g_rptFlashRdy           00001161 
    -------------------------------------------------------------------------
<BANKED_CODE,BANK_RELAYS..> 1 (was BANKED_CODE)
  Relative segment, address: CODE 00002D24 - 00002D29 (0x6 bytes), align: 0
  Segment part 58.            Intra module refs:   MstPacketParse
           LOCAL                   ADDRESS         
           =====                   =======         
           ?Subroutine6            00002D24 
    -------------------------------------------------------------------------
<BANKED_CODE,BANK_RELAYS..> 1 (was BANKED_CODE)
  Relative segment, address: CODE 00002D2A - 00002D2D (0x4 bytes), align: 0
  Segment part 59.            Intra module refs:   ?Subroutine6
                                                   FlashInfoSend
                                                   MstPacketParse
                                                   RptFlashInfoSend
    -------------------------------------------------------------------------
<BANKED_CODE,BANK_RELAYS..> 1 (was BANKED_CODE)
  Relative segment, address: CODE 00002D2E - 00002D39 (0xc bytes), align: 0
  Segment part 60.            Intra module refs:   ?Subroutine3
                                                   ?Subroutine5
                                                   Segment part 59
           LOCAL                   ADDRESS         
           =====                   =======         
           ?Subroutine17           00002D2E 
    -------------------------------------------------------------------------
<BANKED_CODE,BANK_RELAYS..> 1 (was BANKED_CODE)
  Relative segment, address: CODE 00002D3A - 00002DC1 (0x88 bytes), align: 0
  Segment part 61.            Intra module refs:   UartSctSend::?relay
           LOCAL                   ADDRESS         
           =====                   =======         
           UartSctSend             00002D3A 
               calls direct
               XSTACK = 0000000A ( 0000000B )
               ISTACK = 00000000 ( 00000001 )
    -------------------------------------------------------------------------
<BANKED_CODE,BANK_RELAYS..> 1 (was BANKED_CODE)
  Relative segment, address: CODE 00002DC2 - 00002DC6 (0x5 bytes), align: 0
  Segment part 63.            Intra module refs:   UartSctSend
           LOCAL                   ADDRESS         
           =====                   =======         
           ?Subroutine9            00002DC2 
    -------------------------------------------------------------------------
<BANKED_CODE,BANK_RELAYS..> 1 (was BANKED_CODE)
  Relative segment, address: CODE 00002DC7 - 00002DCD (0x7 bytes), align: 0
  Segment part 64.            Intra module refs:   UartSctSend
           LOCAL                   ADDRESS         
           =====                   =======         
           ?Subroutine8            00002DC7 
    -------------------------------------------------------------------------
<BANKED_CODE,BANK_RELAYS..> 1 (was BANKED_CODE)
  Relative segment, address: CODE 00002DCE - 00002DDA (0xd bytes), align: 0
  Segment part 65.            Intra module refs:   ?Subroutine8
                                                   ?Subroutine9
           LOCAL                   ADDRESS         
           =====                   =======         
           ?Subroutine20           00002DCE 
    -------------------------------------------------------------------------
<BANKED_CODE,BANK_RELAYS..> 1 (was BANKED_CODE)
  Relative segment, address: CODE 00002DDB - 00002DE2 (0x8 bytes), align: 0
  Segment part 66.            Intra module refs:   ?Subroutine8
                                                   UartSctSend
           LOCAL                   ADDRESS         
           =====                   =======         
           ?Subroutine19           00002DDB 
    -------------------------------------------------------------------------
<BANKED_CODE,BANK_RELAYS..> 1 (was BANKED_CODE)
  Relative segment, address: CODE 00002DE3 - 00002EFF (0x11d bytes), align: 0
  Segment part 67.            Intra module refs:   MstPacketParse::?relay
           LOCAL                   ADDRESS         
           =====                   =======         
           MstPacketParse          00002DE3 
               calls direct
               XSTACK = 00000000 ( 0000000C )
    -------------------------------------------------------------------------
<BANKED_CODE,BANK_RELAYS..> 1 (was BANKED_CODE)
  Relative segment, address: CODE 00002F00 - 00002F0D (0xe bytes), align: 0
  Segment part 69.            Intra module refs:   MstPacketParse
           LOCAL                   ADDRESS         
           =====                   =======         
           ?Subroutine13           00002F00 
    -------------------------------------------------------------------------
<BANKED_CODE,BANK_RELAYS..> 1 (was BANKED_CODE)
  Relative segment, address: CODE 00002F0E - 00002F20 (0x13 bytes), align: 0
  Segment part 70.            Intra module refs:   MstPacketParse
           LOCAL                   ADDRESS         
           =====                   =======         
           ?Subroutine12           00002F0E 
    -------------------------------------------------------------------------
<BANKED_CODE,BANK_RELAYS..> 1 (was BANKED_CODE)
  Relative segment, address: CODE 00002F21 - 00002F2C (0xc bytes), align: 0
  Segment part 71.            Intra module refs:   MstPacketParse
           LOCAL                   ADDRESS         
           =====                   =======         
           ?Subroutine5            00002F21 
    -------------------------------------------------------------------------
<BANKED_CODE,BANK_RELAYS..> 1 (was BANKED_CODE)
  Relative segment, address: CODE 00002F2D - 00002F31 (0x5 bytes), align: 0
  Segment part 72.            Intra module refs:   MstPacketParse
           LOCAL                   ADDRESS         
           =====                   =======         
           ?Subroutine4            00002F2D 
    -------------------------------------------------------------------------
<BANKED_CODE,BANK_RELAYS..> 1 (was BANKED_CODE)
  Relative segment, address: CODE 00002F32 - 00002F37 (0x6 bytes), align: 0
  Segment part 73.            Intra module refs:   ?Subroutine4
                                                   MstPacketParse
           LOCAL                   ADDRESS         
           =====                   =======         
           ?Subroutine18           00002F32 
    -------------------------------------------------------------------------
<BANKED_CODE,BANK_RELAYS..> 1 (was BANKED_CODE)
  Relative segment, address: CODE 00002F38 - 00002F3D (0x6 bytes), align: 0
  Segment part 74.            Intra module refs:   ?Subroutine18
                                                   MstPacketParse
    -------------------------------------------------------------------------
<BANKED_CODE,BANK_RELAYS..> 1 (was BANKED_CODE)
  Relative segment, address: CODE 00002F3E - 00002F4F (0x12 bytes), align: 0
  Segment part 75.            Intra module refs:   NIK_LINK::?relay
           ENTRY                   ADDRESS         REF BY
           =====                   =======         ======
           NIK_LINK                00002F3E 
               calls direct
               ISTACK = 00000000 ( 00000002 )
    -------------------------------------------------------------------------
<BANKED_CODE,BANK_RELAYS..> 1 (was BANKED_CODE)
  Relative segment, address: CODE 00002F50 - 00003007 (0xb8 bytes), align: 0
  Segment part 77.            Intra module refs:   SMPL_Ioctl::?relay
           ENTRY                   ADDRESS         REF BY
           =====                   =======         ======
           SMPL_Ioctl              00002F50 
               calls direct
               XSTACK = 00000000 ( 0000000E )
               ISTACK = 00000000 ( 00000001 )
    -------------------------------------------------------------------------
<BANKED_CODE,BANK_RELAYS..> 1 (was BANKED_CODE)
  Relative segment, address: CODE 00003008 - 0000300B (0x4 bytes), align: 0
  Segment part 79.            Intra module refs:   MstPacketParse
           LOCAL                   ADDRESS         
           =====                   =======         
           ?Subroutine16           00003008 
    -------------------------------------------------------------------------
<BANKED_CODE,BANK_RELAYS..> 1 (was BANKED_CODE)
  Relative segment, address: CODE 0000300C - 00003011 (0x6 bytes), align: 0
  Segment part 80.            Intra module refs:   ?Subroutine16
                                                   SMPL_Ioctl
    -------------------------------------------------------------------------
<BANKED_CODE,BANK_RELAYS..> 1 (was BANK_RELAYS)
  Relative segment, address: CODE 0000276D - 00002772 (0x6 bytes), align: 0
  Segment part 23.
           ENTRY                   ADDRESS         REF BY
           =====                   =======         ======
           SMPL_Init::?relay       0000276D        main (main_UART_Bridge)
    -------------------------------------------------------------------------
<BANKED_CODE,BANK_RELAYS..> 1 (was BANK_RELAYS)
  Relative segment, address: CODE 00002773 - 00002778 (0x6 bytes), align: 0
  Segment part 38.
           ENTRY                   ADDRESS         REF BY
           =====                   =======         ======
           NIK_Init::?relay        00002773        main (main_UART_Bridge)
    -------------------------------------------------------------------------
<BANKED_CODE,BANK_RELAYS..> 1 (was BANK_RELAYS)
  Relative segment, address: CODE 00002779 - 0000277E (0x6 bytes), align: 0
  Segment part 40.            Intra module refs:   ?Subroutine12
           LOCAL                   ADDRESS         
           =====                   =======         
           macDelay::?relay        00002779 
    -------------------------------------------------------------------------
<BANKED_CODE,BANK_RELAYS..> 1 (was BANK_RELAYS)
  Relative segment, address: CODE 0000277F - 00002784 (0x6 bytes), align: 0
  Segment part 42.            Intra module refs:   FlashInfoSend
                                                   PreFlashInfoSend
                                                   RptFlashInfoSend
           LOCAL                   ADDRESS         
           =====                   =======         
           CalcSum::?relay         0000277F 
    -------------------------------------------------------------------------
<BANKED_CODE,BANK_RELAYS..> 1 (was BANK_RELAYS)
  Relative segment, address: CODE 00002785 - 0000278A (0x6 bytes), align: 0
  Segment part 46.            Intra module refs:   MstPacketParse
           LOCAL                   ADDRESS         
           =====                   =======         
           FlashInfoSend::?relay   00002785 
    -------------------------------------------------------------------------
<BANKED_CODE,BANK_RELAYS..> 1 (was BANK_RELAYS)
  Relative segment, address: CODE 0000278B - 00002790 (0x6 bytes), align: 0
  Segment part 52.            Intra module refs:   MstPacketParse
           LOCAL                   ADDRESS         
           =====                   =======         
           PreFlashInfoSend::?relay
                                   0000278B 
    -------------------------------------------------------------------------
<BANKED_CODE,BANK_RELAYS..> 1 (was BANK_RELAYS)
  Relative segment, address: CODE 00002791 - 00002796 (0x6 bytes), align: 0
  Segment part 56.            Intra module refs:   MstPacketParse
           LOCAL                   ADDRESS         
           =====                   =======         
           RptFlashInfoSend::?relay
                                   00002791 
    -------------------------------------------------------------------------
<BANKED_CODE,BANK_RELAYS..> 1 (was BANK_RELAYS)
  Relative segment, address: CODE 00002797 - 0000279C (0x6 bytes), align: 0
  Segment part 62.            Intra module refs:   MstPacketParse
           LOCAL                   ADDRESS         
           =====                   =======         
           UartSctSend::?relay     00002797 
    -------------------------------------------------------------------------
<BANKED_CODE,BANK_RELAYS..> 1 (was BANK_RELAYS)
  Relative segment, address: CODE 0000279D - 000027A2 (0x6 bytes), align: 0
  Segment part 68.            Intra module refs:   NIK_LINK
           LOCAL                   ADDRESS         
           =====                   =======         
           MstPacketParse::?relay
                                   0000279D 
    -------------------------------------------------------------------------
<BANKED_CODE,BANK_RELAYS..> 1 (was BANK_RELAYS)
  Relative segment, address: CODE 000027A3 - 000027A8 (0x6 bytes), align: 0
  Segment part 76.
           ENTRY                   ADDRESS         REF BY
           =====                   =======         ======
           NIK_LINK::?relay        000027A3        main (main_UART_Bridge)
    -------------------------------------------------------------------------
<BANKED_CODE,BANK_RELAYS..> 1 (was BANK_RELAYS)
  Relative segment, address: CODE 000027A9 - 000027AE (0x6 bytes), align: 0
  Segment part 78.
           ENTRY                   ADDRESS         REF BY
           =====                   =======         ======
           SMPL_Ioctl::?relay      000027A9        main (main_UART_Bridge)
                                                   nwk_join (nwk_join)

    *************************************************************************

  FILE NAME : C:\Users\freeman\Documents\work\NBK\Nikon\Nikon_Rf\SimpliciTI-IAR-1.2.0\Projects\Examples\SRF05_8051\nik_sb5000\IAR\LinkTo\Obj\nwk_frame.r51
  PROGRAM MODULE, NAME : nwk_frame

  SEGMENTS IN THE MODULE
  ======================
XDATA_Z
  Relative segment, address: XDATA 00001162 - 00001162 (0x1 bytes), align: 0
  Segment part 6.             Intra module refs:   nwk_buildFrame
                                                   nwk_frameInit
           LOCAL                   ADDRESS         
           =====                   =======         
           sTRACTID                00001162 
    -------------------------------------------------------------------------
XDATA_Z
  Relative segment, address: XDATA 00001163 - 00001164 (0x2 bytes), align: 0
  Segment part 7.             Intra module refs:   nwk_buildFrame
                                                   nwk_frameInit
           LOCAL                   ADDRESS         
           =====                   =======         
           sMyAddr                 00001163 
    -------------------------------------------------------------------------
XDATA_Z
  Relative segment, address: XDATA 00001165 - 00001165 (0x1 bytes), align: 0
  Segment part 8.             Intra module refs:   nwk_buildFrame
           LOCAL                   ADDRESS         
           =====                   =======         
           sMyRxType               00001165 
    -------------------------------------------------------------------------
XDATA_Z
  Relative segment, address: XDATA 00001166 - 00001166 (0x1 bytes), align: 0
  Segment part 9.             Intra module refs:   nwk_frameInit
           LOCAL                   ADDRESS         
           =====                   =======         
           sMyTxType               00001166 
    -------------------------------------------------------------------------
XDATA_Z
  Relative segment, address: XDATA 00001167 - 00001168 (0x2 bytes), align: 0
  Segment part 10.            Intra module refs:   nwk_frameInit
           LOCAL                   ADDRESS         
           =====                   =======         
           spCallback              00001167 
    -------------------------------------------------------------------------
<BANKED_CODE,BANK_RELAYS..> 1 (was BANKED_CODE)
  Relative segment, address: CODE 00003DED - 00003E12 (0x26 bytes), align: 0
  Segment part 11.            Intra module refs:   nwk_frameInit::?relay
           ENTRY                   ADDRESS         REF BY
           =====                   =======         ======
           nwk_frameInit           00003DED 
               calls direct
               ISTACK = 00000000 ( 00000002 )
    -------------------------------------------------------------------------
<BANKED_CODE,BANK_RELAYS..> 1 (was BANKED_CODE)
  Relative segment, address: CODE 00003E13 - 00003E19 (0x7 bytes), align: 0
  Segment part 13.            Intra module refs:   nwk_frameInit
           LOCAL                   ADDRESS         
           =====                   =======         
           ?Subroutine0            00003E13 
    -------------------------------------------------------------------------
<BANKED_CODE,BANK_RELAYS..> 1 (was BANKED_CODE)
  Relative segment, address: CODE 00003E1A - 00003EE7 (0xce bytes), align: 0
  Segment part 14.            Intra module refs:   nwk_buildFrame::?relay
           ENTRY                   ADDRESS         REF BY
           =====                   =======         ======
           nwk_buildFrame          00003E1A 
               calls direct
               XSTACK = 00000000 ( 00000012 )
               ISTACK = 00000000 ( 00000002 )
    -------------------------------------------------------------------------
<BANKED_CODE,BANK_RELAYS..> 1 (was BANKED_CODE)
  Relative segment, address: CODE 00003EE8 - 00003EEB (0x4 bytes), align: 0
  Segment part 16.            Intra module refs:   nwk_buildFrame
           LOCAL                   ADDRESS         
           =====                   =======         
           ?Subroutine2            00003EE8 
    -------------------------------------------------------------------------
<BANKED_CODE,BANK_RELAYS..> 1 (was BANKED_CODE)
  Relative segment, address: CODE 00003EEC - 00003EF1 (0x6 bytes), align: 0
  Segment part 17.            Intra module refs:   ?Subroutine2
                                                   nwk_retrieveFrame
    -------------------------------------------------------------------------
<BANKED_CODE,BANK_RELAYS..> 1 (was BANKED_CODE)
  Relative segment, address: CODE 00003EF2 - 00003F28 (0x37 bytes), align: 0
  Segment part 18.            Intra module refs:   MRFI_RxCompleteISR::?relay
           ENTRY                   ADDRESS         REF BY
           =====                   =======         ======
           MRFI_RxCompleteISR      00003EF2 
               calls direct
               XSTACK = 00000000 ( 0000000A )
    -------------------------------------------------------------------------
<BANKED_CODE,BANK_RELAYS..> 1 (was BANKED_CODE)
  Relative segment, address: CODE 00003F29 - 00004040 (0x118 bytes), align: 0
  Segment part 20.            Intra module refs:   nwk_retrieveFrame::?relay
           ENTRY                   ADDRESS         REF BY
           =====                   =======         ======
           nwk_retrieveFrame       00003F29 
               calls direct
               XSTACK = 00000006 ( 00000018 )
               ISTACK = 00000000 ( 00000001 )
    -------------------------------------------------------------------------
<BANKED_CODE,BANK_RELAYS..> 1 (was BANKED_CODE)
  Relative segment, address: CODE 00004041 - 00004056 (0x16 bytes), align: 0
  Segment part 22.            Intra module refs:   nwk_retrieveFrame
           LOCAL                   ADDRESS         
           =====                   =======         
           ?Subroutine1            00004041 
    -------------------------------------------------------------------------
<BANKED_CODE,BANK_RELAYS..> 1 (was BANKED_CODE)
  Relative segment, address: CODE 00004057 - 0000407F (0x29 bytes), align: 0
  Segment part 23.            Intra module refs:   nwk_sendFrame::?relay
           ENTRY                   ADDRESS         REF BY
           =====                   =======         ======
           nwk_sendFrame           00004057 
               calls direct
               XSTACK = 00000000 ( 00000009 )
    -------------------------------------------------------------------------
<BANKED_CODE,BANK_RELAYS..> 1 (was BANK_RELAYS)
  Relative segment, address: CODE 000027AF - 000027B4 (0x6 bytes), align: 0
  Segment part 12.
           ENTRY                   ADDRESS         REF BY
           =====                   =======         ======
           nwk_frameInit::?relay   000027AF        nwk_nwkInit (nwk)
    -------------------------------------------------------------------------
<BANKED_CODE,BANK_RELAYS..> 1 (was BANK_RELAYS)
  Relative segment, address: CODE 000027B5 - 000027BA (0x6 bytes), align: 0
  Segment part 15.
           ENTRY                   ADDRESS         REF BY
           =====                   =======         ======
           nwk_buildFrame::?relay
                                   000027B5        nwk_rawSend (nwk_ioctl)
    -------------------------------------------------------------------------
<BANKED_CODE,BANK_RELAYS..> 1 (was BANK_RELAYS)
  Relative segment, address: CODE 000027BB - 000027C0 (0x6 bytes), align: 0
  Segment part 19.
           ENTRY                   ADDRESS         REF BY
           =====                   =======         ======
           MRFI_RxCompleteISR::?relay
                                   000027BB        MRFI_RxIsr (mrfi)
    -------------------------------------------------------------------------
<BANKED_CODE,BANK_RELAYS..> 1 (was BANK_RELAYS)
  Relative segment, address: CODE 000027C1 - 000027C6 (0x6 bytes), align: 0
  Segment part 21.
           ENTRY                   ADDRESS         REF BY
           =====                   =======         ======
           nwk_retrieveFrame::?relay
                                   000027C1        nwk_rawReceive (nwk_ioctl)
    -------------------------------------------------------------------------
<BANKED_CODE,BANK_RELAYS..> 1 (was BANK_RELAYS)
  Relative segment, address: CODE 000027C7 - 000027CC (0x6 bytes), align: 0
  Segment part 24.
           ENTRY                   ADDRESS         REF BY
           =====                   =======         ======
           nwk_sendFrame::?relay   000027C7        ?Subroutine13 (nwk_api)
                                                   nwk_rawSend (nwk_ioctl)

    *************************************************************************

  FILE NAME : C:\Users\freeman\Documents\work\NBK\Nikon\Nikon_Rf\SimpliciTI-IAR-1.2.0\Projects\Examples\SRF05_8051\nik_sb5000\IAR\LinkTo\Obj\nwk_freq.r51
  PROGRAM MODULE, NAME : nwk_freq

  SEGMENTS IN THE MODULE
  ======================
<BANKED_CODE,BANK_RELAYS..> 1 (was BANKED_CODE)
  Relative segment, address: CODE 000052A2 - 000052A4 (0x3 bytes), align: 0
  Segment part 6.             Intra module refs:   nwk_freqInit::?relay
           ENTRY                   ADDRESS         REF BY
           =====                   =======         ======
           nwk_freqInit            000052A2 
    -------------------------------------------------------------------------
<BANKED_CODE,BANK_RELAYS..> 1 (was BANK_RELAYS)
  Relative segment, address: CODE 000027CD - 000027D2 (0x6 bytes), align: 0
  Segment part 7.
           ENTRY                   ADDRESS         REF BY
           =====                   =======         ======
           nwk_freqInit::?relay    000027CD        nwk_nwkInit (nwk)

    *************************************************************************

  FILE NAME : C:\Users\freeman\Documents\work\NBK\Nikon\Nikon_Rf\SimpliciTI-IAR-1.2.0\Projects\Examples\SRF05_8051\nik_sb5000\IAR\LinkTo\Obj\nwk_globals.r51
  PROGRAM MODULE, NAME : nwk_globals

  SEGMENTS IN THE MODULE
  ======================
XDATA_I
  Relative segment, address: XDATA 00001261 - 00001264 (0x4 bytes), align: 0
  Segment part 6.             Intra module refs:   nwk_getMyAddress
                                                   nwk_globalsInit
           LOCAL                   ADDRESS         
           =====                   =======         
           sMyROMAddress           00001261 
    -------------------------------------------------------------------------
XDATA_Z
  Relative segment, address: XDATA 00001169 - 0000116C (0x4 bytes), align: 0
  Segment part 8.             Intra module refs:   nwk_globalsInit
                                                   nwk_setAPAddress
           LOCAL                   ADDRESS         
           =====                   =======         
           sAPAddress              00001169 
    -------------------------------------------------------------------------
XDATA_Z
  Relative segment, address: XDATA 0000116D - 00001170 (0x4 bytes), align: 0
  Segment part 9.             Intra module refs:   nwk_getMyAddress
                                                   nwk_globalsInit
                                                   nwk_setMyAddress
           LOCAL                   ADDRESS         
           =====                   =======         
           sMyRAMAddress           0000116D 
    -------------------------------------------------------------------------
XDATA_Z
  Relative segment, address: XDATA 00001171 - 00001171 (0x1 bytes), align: 0
  Segment part 10.            Intra module refs:   nwk_getMyAddress
                                                   nwk_globalsInit
                                                   nwk_setMyAddress
           LOCAL                   ADDRESS         
           =====                   =======         
           sRAMAddressIsSet        00001171 
    -------------------------------------------------------------------------
XDATA_I
  Relative segment, address: XDATA 00001265 - 00001269 (0x5 bytes), align: 0
  Segment part 11.            Intra module refs:   nwk_getFWVersion
           LOCAL                   ADDRESS         
           =====                   =======         
           sVersionInfo            00001265 
    -------------------------------------------------------------------------
<BANKED_CODE,BANK_RELAYS..> 1 (was BANKED_CODE)
  Relative segment, address: CODE 00004CC0 - 00004D02 (0x43 bytes), align: 0
  Segment part 13.            Intra module refs:   nwk_globalsInit::?relay
           ENTRY                   ADDRESS         REF BY
           =====                   =======         ======
           nwk_globalsInit         00004CC0 
               calls direct
               XSTACK = 00000000 ( 0000000C )
    -------------------------------------------------------------------------
<BANKED_CODE,BANK_RELAYS..> 1 (was BANKED_CODE)
  Relative segment, address: CODE 00004D03 - 00004D05 (0x3 bytes), align: 0
  Segment part 15.            Intra module refs:   nwk_setAPAddress
           LOCAL                   ADDRESS         
           =====                   =======         
           ?Subroutine0            00004D03 
    -------------------------------------------------------------------------
<BANKED_CODE,BANK_RELAYS..> 1 (was BANKED_CODE)
  Relative segment, address: CODE 00004D06 - 00004D0A (0x5 bytes), align: 0
  Segment part 16.            Intra module refs:   ?Subroutine0
                                                   nwk_globalsInit
                                                   nwk_setMyAddress
    -------------------------------------------------------------------------
<BANKED_CODE,BANK_RELAYS..> 1 (was BANKED_CODE)
  Relative segment, address: CODE 00004D0B - 00004D25 (0x1b bytes), align: 0
  Segment part 17.            Intra module refs:   nwk_getMyAddress::?relay
           ENTRY                   ADDRESS         REF BY
           =====                   =======         ======
           nwk_getMyAddress        00004D0B 
               ISTACK = 00000000 ( 00000002 )
    -------------------------------------------------------------------------
<BANKED_CODE,BANK_RELAYS..> 1 (was BANKED_CODE)
  Relative segment, address: CODE 00004D26 - 00004D2C (0x7 bytes), align: 0
  Segment part 19.            Intra module refs:   nwk_getFWVersion::?relay
           ENTRY                   ADDRESS         REF BY
           =====                   =======         ======
           nwk_getFWVersion        00004D26 
    -------------------------------------------------------------------------
<BANKED_CODE,BANK_RELAYS..> 1 (was BANKED_CODE)
  Relative segment, address: CODE 00004D2D - 00004D31 (0x5 bytes), align: 0
  Segment part 21.            Intra module refs:   nwk_getProtocolVersion::?relay
           ENTRY                   ADDRESS         REF BY
           =====                   =======         ======
           nwk_getProtocolVersion
                                   00004D2D 
    -------------------------------------------------------------------------
<BANKED_CODE,BANK_RELAYS..> 1 (was BANKED_CODE)
  Relative segment, address: CODE 00004D32 - 00004D61 (0x30 bytes), align: 0
  Segment part 23.            Intra module refs:   nwk_setMyAddress::?relay
           ENTRY                   ADDRESS         REF BY
           =====                   =======         ======
           nwk_setMyAddress        00004D32 
               calls direct
               XSTACK = 00000000 ( 0000000C )
    -------------------------------------------------------------------------
<BANKED_CODE,BANK_RELAYS..> 1 (was BANKED_CODE)
  Relative segment, address: CODE 00004D62 - 00004D80 (0x1f bytes), align: 0
  Segment part 25.            Intra module refs:   nwk_setAPAddress::?relay
           ENTRY                   ADDRESS         REF BY
           =====                   =======         ======
           nwk_setAPAddress        00004D62 
               calls direct
               XSTACK = 00000000 ( 0000000C )
    -------------------------------------------------------------------------
<BANKED_CODE,BANK_RELAYS..> 1 (was BANKED_CODE)
  Relative segment, address: CODE 00004D81 - 00004D87 (0x7 bytes), align: 0
  Segment part 29.            Intra module refs:   nwk_getBCastAddress::?relay
           ENTRY                   ADDRESS         REF BY
           =====                   =======         ======
           nwk_getBCastAddress     00004D81 
    -------------------------------------------------------------------------
XDATA_ID
  Relative segment, address: CODE 00002133 - 00002136 (0x4 bytes), align: 0
  Segment part 7.             Intra module refs:   sMyROMAddress
    -------------------------------------------------------------------------
XDATA_ID
  Relative segment, address: CODE 00002137 - 0000213B (0x5 bytes), align: 0
  Segment part 12.            Intra module refs:   sVersionInfo
    -------------------------------------------------------------------------
<BANKED_CODE,BANK_RELAYS..> 1 (was BANK_RELAYS)
  Relative segment, address: CODE 000027D3 - 000027D8 (0x6 bytes), align: 0
  Segment part 14.
           ENTRY                   ADDRESS         REF BY
           =====                   =======         ======
           nwk_globalsInit::?relay
                                   000027D3        nwk_nwkInit (nwk)
    -------------------------------------------------------------------------
<BANKED_CODE,BANK_RELAYS..> 1 (was BANK_RELAYS)
  Relative segment, address: CODE 000027D9 - 000027DE (0x6 bytes), align: 0
  Segment part 18.
           ENTRY                   ADDRESS         REF BY
           =====                   =======         ======
           nwk_getMyAddress::?relay
                                   000027D9        SMPL_Init (nwk_api)
                                                   nwk_deviceAddress (nwk_ioctl)
                                                   nwk_frameInit (nwk_frame)
    -------------------------------------------------------------------------
<BANKED_CODE,BANK_RELAYS..> 1 (was BANK_RELAYS)
  Relative segment, address: CODE 000027DF - 000027E4 (0x6 bytes), align: 0
  Segment part 20.
           ENTRY                   ADDRESS         REF BY
           =====                   =======         ======
           nwk_getFWVersion::?relay
                                   000027DF        SMPL_Ioctl (nwk_api)
    -------------------------------------------------------------------------
<BANKED_CODE,BANK_RELAYS..> 1 (was BANK_RELAYS)
  Relative segment, address: CODE 000027E5 - 000027EA (0x6 bytes), align: 0
  Segment part 22.
           ENTRY                   ADDRESS         REF BY
           =====                   =======         ======
           nwk_getProtocolVersion::?relay
                                   000027E5        SMPL_Ioctl (nwk_api)
                                                   nwk_join (nwk_join)
    -------------------------------------------------------------------------
<BANKED_CODE,BANK_RELAYS..> 1 (was BANK_RELAYS)
  Relative segment, address: CODE 000027EB - 000027F0 (0x6 bytes), align: 0
  Segment part 24.
           ENTRY                   ADDRESS         REF BY
           =====                   =======         ======
           nwk_setMyAddress::?relay
                                   000027EB        nwk_deviceAddress (nwk_ioctl)
    -------------------------------------------------------------------------
<BANKED_CODE,BANK_RELAYS..> 1 (was BANK_RELAYS)
  Relative segment, address: CODE 000027F1 - 000027F6 (0x6 bytes), align: 0
  Segment part 26.
           ENTRY                   ADDRESS         REF BY
           =====                   =======         ======
           nwk_setAPAddress::?relay
                                   000027F1        nwk_join (nwk_join)
    -------------------------------------------------------------------------
<BANKED_CODE,BANK_RELAYS..> 1 (was BANK_RELAYS)
  Relative segment, address: CODE 000027F7 - 000027FC (0x6 bytes), align: 0
  Segment part 30.
           ENTRY                   ADDRESS         REF BY
           =====                   =======         ======
           nwk_getBCastAddress::?relay
                                   000027F7        nwk_join (nwk_join)
                                                   nwk_nwkInit (nwk)

    *************************************************************************

  FILE NAME : C:\Users\freeman\Documents\work\NBK\Nikon\Nikon_Rf\SimpliciTI-IAR-1.2.0\Projects\Examples\SRF05_8051\nik_sb5000\IAR\LinkTo\Obj\nwk_ioctl.r51
  PROGRAM MODULE, NAME : nwk_ioctl

  SEGMENTS IN THE MODULE
  ======================
<BANKED_CODE,BANK_RELAYS..> 1 (was BANKED_CODE)
  Relative segment, address: CODE 00004080 - 000040FF (0x80 bytes), align: 0
  Segment part 6.             Intra module refs:   nwk_rawSend::?relay
           ENTRY                   ADDRESS         REF BY
           =====                   =======         ======
           nwk_rawSend             00004080 
               calls direct
               XSTACK = 00000000 ( 0000000E )
    -------------------------------------------------------------------------
<BANKED_CODE,BANK_RELAYS..> 1 (was BANKED_CODE)
  Relative segment, address: CODE 00004100 - 00004104 (0x5 bytes), align: 0
  Segment part 8.             Intra module refs:   nwk_deviceAddress
                                                   nwk_radioControl
                                                   nwk_rawSend
           LOCAL                   ADDRESS         
           =====                   =======         
           ?Subroutine0            00004100 
    -------------------------------------------------------------------------
<BANKED_CODE,BANK_RELAYS..> 1 (was BANKED_CODE)
  Relative segment, address: CODE 00004105 - 00004170 (0x6c bytes), align: 0
  Segment part 9.             Intra module refs:   nwk_rawReceive::?relay
           ENTRY                   ADDRESS         REF BY
           =====                   =======         ======
           nwk_rawReceive          00004105 
               calls direct
               XSTACK = 00000000 ( 00000013 )
               ISTACK = 00000000 ( 00000001 )
    -------------------------------------------------------------------------
<BANKED_CODE,BANK_RELAYS..> 1 (was BANKED_CODE)
  Relative segment, address: CODE 00004171 - 00004175 (0x5 bytes), align: 0
  Segment part 11.            Intra module refs:   nwk_connectionControl
                                                   nwk_rawReceive
           LOCAL                   ADDRESS         
           =====                   =======         
           ?Subroutine1            00004171 
    -------------------------------------------------------------------------
<BANKED_CODE,BANK_RELAYS..> 1 (was BANKED_CODE)
  Relative segment, address: CODE 00004176 - 00004208 (0x93 bytes), align: 0
  Segment part 12.            Intra module refs:   nwk_radioControl::?relay
           ENTRY                   ADDRESS         REF BY
           =====                   =======         ======
           nwk_radioControl        00004176 
               calls direct
               XSTACK = 00000000 ( 0000000E )
               ISTACK = 00000000 ( 00000001 )
    -------------------------------------------------------------------------
<BANKED_CODE,BANK_RELAYS..> 1 (was BANKED_CODE)
  Relative segment, address: CODE 00004209 - 0000424D (0x45 bytes), align: 0
  Segment part 14.            Intra module refs:   nwk_deviceAddress::?relay
           ENTRY                   ADDRESS         REF BY
           =====                   =======         ======
           nwk_deviceAddress       00004209 
               calls direct
               XSTACK = 00000000 ( 0000000E )
    -------------------------------------------------------------------------
<BANKED_CODE,BANK_RELAYS..> 1 (was BANKED_CODE)
  Relative segment, address: CODE 0000424E - 00004277 (0x2a bytes), align: 0
  Segment part 16.            Intra module refs:   nwk_connectionControl::?relay
           ENTRY                   ADDRESS         REF BY
           =====                   =======         ======
           nwk_connectionControl   0000424E 
               calls direct
               XSTACK = 00000000 ( 0000000A )
    -------------------------------------------------------------------------
<BANKED_CODE,BANK_RELAYS..> 1 (was BANK_RELAYS)
  Relative segment, address: CODE 000027FD - 00002802 (0x6 bytes), align: 0
  Segment part 7.
           ENTRY                   ADDRESS         REF BY
           =====                   =======         ======
           nwk_rawSend::?relay     000027FD        SMPL_Ioctl (nwk_api)
    -------------------------------------------------------------------------
<BANKED_CODE,BANK_RELAYS..> 1 (was BANK_RELAYS)
  Relative segment, address: CODE 00002803 - 00002808 (0x6 bytes), align: 0
  Segment part 10.
           ENTRY                   ADDRESS         REF BY
           =====                   =======         ======
           nwk_rawReceive::?relay
                                   00002803        SMPL_Ioctl (nwk_api)
    -------------------------------------------------------------------------
<BANKED_CODE,BANK_RELAYS..> 1 (was BANK_RELAYS)
  Relative segment, address: CODE 00002809 - 0000280E (0x6 bytes), align: 0
  Segment part 13.
           ENTRY                   ADDRESS         REF BY
           =====                   =======         ======
           nwk_radioControl::?relay
                                   00002809        SMPL_Ioctl (nwk_api)
    -------------------------------------------------------------------------
<BANKED_CODE,BANK_RELAYS..> 1 (was BANK_RELAYS)
  Relative segment, address: CODE 0000280F - 00002814 (0x6 bytes), align: 0
  Segment part 15.
           ENTRY                   ADDRESS         REF BY
           =====                   =======         ======
           nwk_deviceAddress::?relay
                                   0000280F        SMPL_Ioctl (nwk_api)
    -------------------------------------------------------------------------
<BANKED_CODE,BANK_RELAYS..> 1 (was BANK_RELAYS)
  Relative segment, address: CODE 00002815 - 0000281A (0x6 bytes), align: 0
  Segment part 17.
           ENTRY                   ADDRESS         REF BY
           =====                   =======         ======
           nwk_connectionControl::?relay
                                   00002815        SMPL_Ioctl (nwk_api)

    *************************************************************************

  FILE NAME : C:\Users\freeman\Documents\work\NBK\Nikon\Nikon_Rf\SimpliciTI-IAR-1.2.0\Projects\Examples\SRF05_8051\nik_sb5000\IAR\LinkTo\Obj\nwk_join.r51
  PROGRAM MODULE, NAME : nwk_join

  SEGMENTS IN THE MODULE
  ======================
XDATA_Z
  Relative segment, address: XDATA 00001172 - 00001175 (0x4 bytes), align: 0
  Segment part 6.             Intra module refs:   nwk_join
                                                   nwk_joinInit
           LOCAL                   ADDRESS         
           =====                   =======         
           sJoinToken              00001172 
    -------------------------------------------------------------------------
XDATA_Z
  Relative segment, address: XDATA 00001176 - 00001177 (0x2 bytes), align: 0
  Segment part 7.             Intra module refs:   nwk_joinInit
           LOCAL                   ADDRESS         
           =====                   =======         
           spCallback              00001176 
    -------------------------------------------------------------------------
XDATA_Z
  Relative segment, address: XDATA 00001178 - 00001178 (0x1 bytes), align: 0
  Segment part 8.             Intra module refs:   nwk_join
                                                   nwk_joinInit
           LOCAL                   ADDRESS         
           =====                   =======         
           sTid                    00001178 
    -------------------------------------------------------------------------
<BANKED_CODE,BANK_RELAYS..> 1 (was BANKED_CODE)
  Relative segment, address: CODE 00004797 - 000047CD (0x37 bytes), align: 0
  Segment part 11.            Intra module refs:   nwk_joinInit::?relay
           ENTRY                   ADDRESS         REF BY
           =====                   =======         ======
           nwk_joinInit            00004797 
               calls direct
               XSTACK = 00000000 ( 0000000C )
    -------------------------------------------------------------------------
<BANKED_CODE,BANK_RELAYS..> 1 (was BANKED_CODE)
  Relative segment, address: CODE 000047CE - 000047D2 (0x5 bytes), align: 0
  Segment part 13.            Intra module refs:   nwk_joinInit
           LOCAL                   ADDRESS         
           =====                   =======         
           ?Subroutine0            000047CE 
    -------------------------------------------------------------------------
<BANKED_CODE,BANK_RELAYS..> 1 (was BANKED_CODE)
  Relative segment, address: CODE 000047D3 - 00004929 (0x157 bytes), align: 0
  Segment part 19.            Intra module refs:   nwk_join::?relay
           ENTRY                   ADDRESS         REF BY
           =====                   =======         ======
           nwk_join                000047D3 
               calls direct
               XSTACK = 00000000 ( 00000023 )
               ISTACK = 00000000 ( 00000001 )
    -------------------------------------------------------------------------
XDATA_I
  Relative segment, address: XDATA 0000126A - 0000126D (0x4 bytes), align: 0
  Segment part 9.             Intra module refs:   nwk_joinInit
           ENTRY                   ADDRESS         REF BY
           =====                   =======         ======
           __Constant_5060708      0000126A 
    -------------------------------------------------------------------------
XDATA_ID
  Relative segment, address: CODE 0000213C - 0000213F (0x4 bytes), align: 0
  Segment part 10.            Intra module refs:   __Constant_5060708
    -------------------------------------------------------------------------
<BANKED_CODE,BANK_RELAYS..> 1 (was BANK_RELAYS)
  Relative segment, address: CODE 0000281B - 00002820 (0x6 bytes), align: 0
  Segment part 12.
           ENTRY                   ADDRESS         REF BY
           =====                   =======         ======
           nwk_joinInit::?relay    0000281B        nwk_nwkInit (nwk)
    -------------------------------------------------------------------------
<BANKED_CODE,BANK_RELAYS..> 1 (was BANK_RELAYS)
  Relative segment, address: CODE 00002821 - 00002826 (0x6 bytes), align: 0
  Segment part 20.
           ENTRY                   ADDRESS         REF BY
           =====                   =======         ======
           nwk_join::?relay        00002821        SMPL_Init (nwk_api)

    *************************************************************************

  FILE NAME : C:\Users\freeman\Documents\work\NBK\Nikon\Nikon_Rf\SimpliciTI-IAR-1.2.0\Projects\Examples\SRF05_8051\nik_sb5000\IAR\LinkTo\Obj\nwk_link.r51
  PROGRAM MODULE, NAME : nwk_link

  SEGMENTS IN THE MODULE
  ======================
XDATA_Z
  Relative segment, address: XDATA 00001179 - 0000117C (0x4 bytes), align: 0
  Segment part 7.             Intra module refs:   nwk_linkInit
                                                   nwk_setLinkToken
           LOCAL                   ADDRESS         
           =====                   =======         
           sLinkToken              00001179 
    -------------------------------------------------------------------------
XDATA_Z
  Relative segment, address: XDATA 0000117D - 0000117E (0x2 bytes), align: 0
  Segment part 9.             Intra module refs:   nwk_linkInit
           LOCAL                   ADDRESS         
           =====                   =======         
           sServiceLinkID          0000117D 
    -------------------------------------------------------------------------
XDATA_Z
  Relative segment, address: XDATA 0000117F - 0000117F (0x1 bytes), align: 0
  Segment part 11.            Intra module refs:   nwk_linkInit
           LOCAL                   ADDRESS         
           =====                   =======         
           sTid                    0000117F 
    -------------------------------------------------------------------------
<BANKED_CODE,BANK_RELAYS..> 1 (was BANKED_CODE)
  Relative segment, address: CODE 000050A6 - 000050EA (0x45 bytes), align: 0
  Segment part 14.            Intra module refs:   nwk_linkInit::?relay
           ENTRY                   ADDRESS         REF BY
           =====                   =======         ======
           nwk_linkInit            000050A6 
               calls direct
               XSTACK = 00000000 ( 0000000E )
    -------------------------------------------------------------------------
<BANKED_CODE,BANK_RELAYS..> 1 (was BANKED_CODE)
  Relative segment, address: CODE 000050EB - 000050ED (0x3 bytes), align: 0
  Segment part 16.            Intra module refs:   nwk_linkInit
           LOCAL                   ADDRESS         
           =====                   =======         
           ?Subroutine0            000050EB 
    -------------------------------------------------------------------------
<BANKED_CODE,BANK_RELAYS..> 1 (was BANKED_CODE)
  Relative segment, address: CODE 000050EE - 000050F2 (0x5 bytes), align: 0
  Segment part 17.            Intra module refs:   ?Subroutine0
                                                   nwk_setLinkToken
    -------------------------------------------------------------------------
<BANKED_CODE,BANK_RELAYS..> 1 (was BANKED_CODE)
  Relative segment, address: CODE 000050F3 - 00005112 (0x20 bytes), align: 0
  Segment part 18.            Intra module refs:   nwk_setLinkToken::?relay
           ENTRY                   ADDRESS         REF BY
           =====                   =======         ======
           nwk_setLinkToken        000050F3 
               XSTACK = 00000000 ( 0000000C )
    -------------------------------------------------------------------------
XDATA_I
  Relative segment, address: XDATA 0000126E - 00001271 (0x4 bytes), align: 0
  Segment part 12.            Intra module refs:   nwk_linkInit
           ENTRY                   ADDRESS         REF BY
           =====                   =======         ======
           __Constant_1020304      0000126E 
    -------------------------------------------------------------------------
XDATA_ID
  Relative segment, address: CODE 00002140 - 00002143 (0x4 bytes), align: 0
  Segment part 13.            Intra module refs:   __Constant_1020304
    -------------------------------------------------------------------------
<BANKED_CODE,BANK_RELAYS..> 1 (was BANK_RELAYS)
  Relative segment, address: CODE 00002827 - 0000282C (0x6 bytes), align: 0
  Segment part 15.
           ENTRY                   ADDRESS         REF BY
           =====                   =======         ======
           nwk_linkInit::?relay    00002827        nwk_nwkInit (nwk)
    -------------------------------------------------------------------------
<BANKED_CODE,BANK_RELAYS..> 1 (was BANK_RELAYS)
  Relative segment, address: CODE 0000282D - 00002832 (0x6 bytes), align: 0
  Segment part 19.
           ENTRY                   ADDRESS         REF BY
           =====                   =======         ======
           nwk_setLinkToken::?relay
                                   0000282D        nwk_join (nwk_join)

    *************************************************************************

  FILE NAME : C:\Users\freeman\Documents\work\NBK\Nikon\Nikon_Rf\SimpliciTI-IAR-1.2.0\Projects\Examples\SRF05_8051\nik_sb5000\IAR\LinkTo\Obj\nwk_mgmt.r51
  PROGRAM MODULE, NAME : nwk_mgmt

  SEGMENTS IN THE MODULE
  ======================
XDATA_Z
  Relative segment, address: XDATA 00001180 - 00001180 (0x1 bytes), align: 0
  Segment part 7.             Intra module refs:   nwk_mgmtInit
           LOCAL                   ADDRESS         
           =====                   =======         
           sTid                    00001180 
    -------------------------------------------------------------------------
<BANKED_CODE,BANK_RELAYS..> 1 (was BANKED_CODE)
  Relative segment, address: CODE 00005282 - 00005294 (0x13 bytes), align: 0
  Segment part 8.             Intra module refs:   nwk_mgmtInit::?relay
           ENTRY                   ADDRESS         REF BY
           =====                   =======         ======
           nwk_mgmtInit            00005282 
               calls direct
               ISTACK = 00000000 ( 00000002 )
    -------------------------------------------------------------------------
<BANKED_CODE,BANK_RELAYS..> 1 (was BANK_RELAYS)
  Relative segment, address: CODE 00002833 - 00002838 (0x6 bytes), align: 0
  Segment part 9.
           ENTRY                   ADDRESS         REF BY
           =====                   =======         ======
           nwk_mgmtInit::?relay    00002833        nwk_nwkInit (nwk)

    *************************************************************************

  FILE NAME : C:\Users\freeman\Documents\work\NBK\Nikon\Nikon_Rf\SimpliciTI-IAR-1.2.0\Projects\Examples\SRF05_8051\nik_sb5000\IAR\LinkTo\Obj\nwk_ping.r51
  PROGRAM MODULE, NAME : nwk_ping

  SEGMENTS IN THE MODULE
  ======================
XDATA_Z
  Relative segment, address: XDATA 00001181 - 00001181 (0x1 bytes), align: 0
  Segment part 6.             Intra module refs:   nwk_pingInit
           LOCAL                   ADDRESS         
           =====                   =======         
           sTid                    00001181 
    -------------------------------------------------------------------------
<BANKED_CODE,BANK_RELAYS..> 1 (was BANKED_CODE)
  Relative segment, address: CODE 0000525C - 0000526E (0x13 bytes), align: 0
  Segment part 7.             Intra module refs:   nwk_pingInit::?relay
           ENTRY                   ADDRESS         REF BY
           =====                   =======         ======
           nwk_pingInit            0000525C 
               calls direct
               ISTACK = 00000000 ( 00000002 )
    -------------------------------------------------------------------------
<BANKED_CODE,BANK_RELAYS..> 1 (was BANK_RELAYS)
  Relative segment, address: CODE 00002839 - 0000283E (0x6 bytes), align: 0
  Segment part 8.
           ENTRY                   ADDRESS         REF BY
           =====                   =======         ======
           nwk_pingInit::?relay    00002839        nwk_nwkInit (nwk)

    *************************************************************************

  FILE NAME : C:\Users\freeman\Documents\work\NBK\Nikon\Nikon_Rf\SimpliciTI-IAR-1.2.0\Projects\Examples\SRF05_8051\nik_sb5000\IAR\LinkTo\Obj\nwk_pll.r51
    *************************************************************************

  FILE NAME : C:\Users\freeman\Documents\work\NBK\Nikon\Nikon_Rf\SimpliciTI-IAR-1.2.0\Projects\Examples\SRF05_8051\nik_sb5000\IAR\LinkTo\Obj\nwk_security.r51
  PROGRAM MODULE, NAME : nwk_security

  SEGMENTS IN THE MODULE
  ======================
<BANKED_CODE,BANK_RELAYS..> 1 (was BANKED_CODE)
  Relative segment, address: CODE 0000529F - 000052A1 (0x3 bytes), align: 0
  Segment part 6.             Intra module refs:   nwk_securityInit::?relay
           ENTRY                   ADDRESS         REF BY
           =====                   =======         ======
           nwk_securityInit        0000529F 
    -------------------------------------------------------------------------
<BANKED_CODE,BANK_RELAYS..> 1 (was BANK_RELAYS)
  Relative segment, address: CODE 0000283F - 00002844 (0x6 bytes), align: 0
  Segment part 7.
           ENTRY                   ADDRESS         REF BY
           =====                   =======         ======
           nwk_securityInit::?relay
                                   0000283F        nwk_nwkInit (nwk)

    *************************************************************************

  FILE NAME : C:\Users\freeman\Documents\work\NBK\Nikon\Nikon_Rf\SimpliciTI-IAR-1.2.0\Projects\Examples\SRF05_8051\nik_sb5000\IAR\LinkTo\Obj\saddr.r51
    *************************************************************************

  FILE NAME : C:\Users\freeman\Documents\work\NBK\Nikon\Nikon_Rf\SimpliciTI-IAR-1.2.0\Projects\Examples\SRF05_8051\nik_sb5000\IAR\LinkTo\Obj\uart.r51
  PROGRAM MODULE, NAME : uart

  SEGMENTS IN THE MODULE
  ======================
SFR_AN
  Relative segment, address: DATA 000000C1 - 000000C1 (0x1 bytes), align: 0
  Segment part 2. ROOT.       Intra module refs:   uart_rx_irq
                                                   uart_tx_irq
           ENTRY                   ADDRESS         REF BY
           =====                   =======         ======
           U0DBUF                  000000C1 
    -------------------------------------------------------------------------
SFR_AN
  Relative segment, address: DATA 000000E8 - 000000E8 (0x1 bytes), align: 0
  Segment part 4. ROOT.       Intra module refs:   uart_tx_irq
           ENTRY                   ADDRESS         REF BY
           =====                   =======         ======
           _A_IRCON2               000000E8 
           LOCAL                   ADDRESS         
           =====                   =======         
           IRCON2                  000000E8 
    -------------------------------------------------------------------------
SFR_AN
  Relative segment, address: DATA 0000009A - 0000009A (0x1 bytes), align: 0
  Segment part 5. ROOT.       Intra module refs:   uart_tx_irq
           ENTRY                   ADDRESS         REF BY
           =====                   =======         ======
           _A__IEN2_               0000009A 
           LOCAL                   ADDRESS         
           =====                   =======         
           _IEN2_                  0000009A 
    -------------------------------------------------------------------------
SFR_AN
  Relative segment, address: DATA 000000F1 - 000000F1 (0x1 bytes), align: 0
  Segment part 6. ROOT.
           ENTRY                   ADDRESS         REF BY
           =====                   =======         ======
           _A__PERCFG_             000000F1 
           LOCAL                   ADDRESS         
           =====                   =======         
           _PERCFG_                000000F1 
    -------------------------------------------------------------------------
SFR_AN
  Relative segment, address: DATA 000000F2 - 000000F2 (0x1 bytes), align: 0
  Segment part 7. ROOT.
           ENTRY                   ADDRESS         REF BY
           =====                   =======         ======
           _A__ADCCFG_             000000F2 
           LOCAL                   ADDRESS         
           =====                   =======         
           _ADCCFG_                000000F2 
    -------------------------------------------------------------------------
SFR_AN
  Relative segment, address: DATA 000000F3 - 000000F3 (0x1 bytes), align: 0
  Segment part 8. ROOT.
           ENTRY                   ADDRESS         REF BY
           =====                   =======         ======
           _A__P0SEL_              000000F3 
           LOCAL                   ADDRESS         
           =====                   =======         
           _P0SEL_                 000000F3 
    -------------------------------------------------------------------------
SFR_AN
  Relative segment, address: DATA 000000F5 - 000000F5 (0x1 bytes), align: 0
  Segment part 9. ROOT.
           ENTRY                   ADDRESS         REF BY
           =====                   =======         ======
           _A__P2SEL_              000000F5 
           LOCAL                   ADDRESS         
           =====                   =======         
           _P2SEL_                 000000F5 
    -------------------------------------------------------------------------
SFR_AN
  Relative segment, address: DATA 00000086 - 00000086 (0x1 bytes), align: 0
  Segment part 10. ROOT.
           ENTRY                   ADDRESS         REF BY
           =====                   =======         ======
           _A__U0CSR_              00000086 
           LOCAL                   ADDRESS         
           =====                   =======         
           _U0CSR_                 00000086 
    -------------------------------------------------------------------------
SFR_AN
  Relative segment, address: DATA 000000C4 - 000000C4 (0x1 bytes), align: 0
  Segment part 11. ROOT.
           ENTRY                   ADDRESS         REF BY
           =====                   =======         ======
           _A__U0UCR_              000000C4 
           LOCAL                   ADDRESS         
           =====                   =======         
           _U0UCR_                 000000C4 
    -------------------------------------------------------------------------
SFR_AN
  Relative segment, address: DATA 000000C5 - 000000C5 (0x1 bytes), align: 0
  Segment part 12. ROOT.
           ENTRY                   ADDRESS         REF BY
           =====                   =======         ======
           _A__U0GCR_              000000C5 
           LOCAL                   ADDRESS         
           =====                   =======         
           _U0GCR_                 000000C5 
    -------------------------------------------------------------------------
XDATA_Z
  Relative segment, address: XDATA 00001182 - 00001183 (0x2 bytes), align: 0
  Segment part 22.            Intra module refs:   uart_tx_irq
           LOCAL                   ADDRESS         
           =====                   =======         
           uart_tx_handler         00001182 
    -------------------------------------------------------------------------
XDATA_Z
  Relative segment, address: XDATA 00001184 - 00001185 (0x2 bytes), align: 0
  Segment part 23.            Intra module refs:   uart_rx_irq
           LOCAL                   ADDRESS         
           =====                   =======         
           uart_rx_handler         00001184 
    -------------------------------------------------------------------------
<BANKED_CODE,BANK_RELAYS..> 1 (was NEAR_CODE)
  Relative segment, address: CODE 0000244B - 0000244C (0x2 bytes), align: 0
  Segment part 24.            Intra module refs:   uart_0_tx_irq::??INTVEC 59
           ENTRY                   ADDRESS         REF BY
           =====                   =======         ======
           uart_0_tx_irq           0000244B 
               interrupt function
               calls direct
               ISTACK = 00000000 ( 0000000D )
    -------------------------------------------------------------------------
<BANKED_CODE,BANK_RELAYS..> 1 (was NEAR_CODE)
  Relative segment, address: CODE 0000244D - 0000244E (0x2 bytes), align: 0
  Segment part 25.            Intra module refs:   uart_1_tx_irq::??INTVEC 115
           ENTRY                   ADDRESS         REF BY
           =====                   =======         ======
           uart_1_tx_irq           0000244D 
               interrupt function
               calls direct
               ISTACK = 00000000 ( 0000000D )
    -------------------------------------------------------------------------
<BANKED_CODE,BANK_RELAYS..> 1 (was NEAR_CODE)
  Relative segment, address: CODE 0000244F, align: 0
  Segment part 26.            Intra module refs:   uart_0_rx_irq::??INTVEC 19
           ENTRY                   ADDRESS         REF BY
           =====                   =======         ======
           uart_0_rx_irq           0000244F 
               interrupt function
               calls direct
               ISTACK = 00000000 ( 0000000D )
    -------------------------------------------------------------------------
<BANKED_CODE,BANK_RELAYS..> 1 (was NEAR_CODE)
  Relative segment, address: CODE 0000244F - 0000245F (0x11 bytes), align: 0
  Segment part 27.            Intra module refs:   uart_0_rx_irq
                                                   uart_1_rx_irq
           LOCAL                   ADDRESS         
           =====                   =======         
           ?Subroutine2            0000244F 
    -------------------------------------------------------------------------
<BANKED_CODE,BANK_RELAYS..> 1 (was NEAR_CODE)
  Relative segment, address: CODE 00002460 - 0000246E (0xf bytes), align: 0
  Segment part 28.            Intra module refs:   uart_0_tx_irq
                                                   uart_1_tx_irq
           LOCAL                   ADDRESS         
           =====                   =======         
           ?Subroutine0            00002460 
    -------------------------------------------------------------------------
<BANKED_CODE,BANK_RELAYS..> 1 (was NEAR_CODE)
  Relative segment, address: CODE 0000246F - 00002478 (0xa bytes), align: 0
  Segment part 29.            Intra module refs:   ?Subroutine0
                                                   ?Subroutine2
    -------------------------------------------------------------------------
<BANKED_CODE,BANK_RELAYS..> 1 (was NEAR_CODE)
  Relative segment, address: CODE 00002479 - 0000247A (0x2 bytes), align: 0
  Segment part 30.            Intra module refs:   uart_1_rx_irq::??INTVEC 27
           ENTRY                   ADDRESS         REF BY
           =====                   =======         ======
           uart_1_rx_irq           00002479 
               interrupt function
               calls direct
               ISTACK = 00000000 ( 0000000D )
    -------------------------------------------------------------------------
<BANKED_CODE,BANK_RELAYS..> 1 (was BANKED_CODE)
  Relative segment, address: CODE 00004EE7 - 00004F46 (0x60 bytes), align: 0
  Segment part 31.            Intra module refs:   uart_tx_irq::?relay
           ENTRY                   ADDRESS         REF BY
           =====                   =======         ======
           uart_tx_irq             00004EE7 
               XSTACK = 00000000 ( 00000001 )
               ISTACK = 00000000 ( 00000002 )
    -------------------------------------------------------------------------
<BANKED_CODE,BANK_RELAYS..> 1 (was BANKED_CODE)
  Relative segment, address: CODE 00004F47 - 00004F4B (0x5 bytes), align: 0
  Segment part 33.            Intra module refs:   uart_tx_irq
           LOCAL                   ADDRESS         
           =====                   =======         
           ?Subroutine3            00004F47 
    -------------------------------------------------------------------------
<BANKED_CODE,BANK_RELAYS..> 1 (was BANKED_CODE)
  Relative segment, address: CODE 00004F4C - 00004F52 (0x7 bytes), align: 0
  Segment part 35.            Intra module refs:   ?Subroutine3
                                                   uart_rx_irq
    -------------------------------------------------------------------------
<BANKED_CODE,BANK_RELAYS..> 1 (was BANKED_CODE)
  Relative segment, address: CODE 00004F53 - 00004F91 (0x3f bytes), align: 0
  Segment part 36.            Intra module refs:   uart_rx_irq::?relay
           ENTRY                   ADDRESS         REF BY
           =====                   =======         ======
           uart_rx_irq             00004F53 
               ISTACK = 00000000 ( 00000002 )
    -------------------------------------------------------------------------
INTVEC
  Common segment, address: CODE 00002000 - 00002015 (0x16 bytes), align: 0
  Segment part 13. ROOT.
           ENTRY                   ADDRESS         REF BY
           =====                   =======         ======
           uart_0_rx_irq::??INTVEC 19
                                   00002013 
    -------------------------------------------------------------------------
INTVEC
  Common segment, address: CODE 00002000 - 0000201D (0x1e bytes), align: 0
  Segment part 14. ROOT.
           ENTRY                   ADDRESS         REF BY
           =====                   =======         ======
           uart_1_rx_irq::??INTVEC 27
                                   0000201B 
    -------------------------------------------------------------------------
INTVEC
  Common segment, address: CODE 00002000 - 0000203D (0x3e bytes), align: 0
  Segment part 15. ROOT.
           ENTRY                   ADDRESS         REF BY
           =====                   =======         ======
           uart_0_tx_irq::??INTVEC 59
                                   0000203B 
    -------------------------------------------------------------------------
INTVEC
  Common segment, address: CODE 00002000 - 00002075 (0x76 bytes), align: 0
  Segment part 16. ROOT.
           ENTRY                   ADDRESS         REF BY
           =====                   =======         ======
           uart_1_tx_irq::??INTVEC 115
                                   00002073 
    -------------------------------------------------------------------------
<BANKED_CODE,BANK_RELAYS..> 1 (was BANK_RELAYS)
  Relative segment, address: CODE 00002845 - 0000284A (0x6 bytes), align: 0
  Segment part 32.            Intra module refs:   ?Subroutine0
           ENTRY                   ADDRESS         REF BY
           =====                   =======         ======
           uart_tx_irq::?relay     00002845 
    -------------------------------------------------------------------------
<BANKED_CODE,BANK_RELAYS..> 1 (was BANK_RELAYS)
  Relative segment, address: CODE 0000284B - 00002850 (0x6 bytes), align: 0
  Segment part 37.            Intra module refs:   ?Subroutine2
           ENTRY                   ADDRESS         REF BY
           =====                   =======         ======
           uart_rx_irq::?relay     0000284B 

    *************************************************************************

  FILE NAME : C:\Users\freeman\Documents\work\NBK\Nikon\Nikon_Rf\SimpliciTI-IAR-1.2.0\Projects\Examples\SRF05_8051\nik_sb5000\IAR\LinkTo\Obj\uart_intfc.r51
  PROGRAM MODULE, NAME : uart_intfc

  SEGMENTS IN THE MODULE
  ======================
XDATA_Z
  Relative segment, address: XDATA 00001186 - 000011B7 (0x32 bytes), align: 0
  Segment part 7.             Intra module refs:   UartProcessData
           LOCAL                   ADDRESS         
           =====                   =======         
           rx_buff                 00001186 
    -------------------------------------------------------------------------
<BANKED_CODE,BANK_RELAYS..> 1 (was BANKED_CODE)
  Relative segment, address: CODE 00004D88 - 00004D95 (0xe bytes), align: 0
  Segment part 32.            Intra module refs:   tx_send::?relay
           ENTRY                   ADDRESS         REF BY
           =====                   =======         ======
           tx_send                 00004D88 
               calls direct
               XSTACK = 0000000E ( 00000000 )
               ISTACK = 00000000 ( 00000002 )
    -------------------------------------------------------------------------
<BANKED_CODE,BANK_RELAYS..> 1 (was BANKED_CODE)
  Relative segment, address: CODE 00004D96 - 00004D9C (0x7 bytes), align: 0
  Segment part 36.            Intra module refs:   DmaUartInit
                                                   tx_send
           LOCAL                   ADDRESS         
           =====                   =======         
           ?Subroutine0            00004D96 
    -------------------------------------------------------------------------
<BANKED_CODE,BANK_RELAYS..> 1 (was BANKED_CODE)
  Relative segment, address: CODE 00004D9D - 00004E0F (0x73 bytes), align: 0
  Segment part 51.            Intra module refs:   DmaUartInit::?relay
           ENTRY                   ADDRESS         REF BY
           =====                   =======         ======
           DmaUartInit             00004D9D 
               calls direct
               XSTACK = 00000000 ( 0000001D )
               ISTACK = 00000000 ( 00000003 )
    -------------------------------------------------------------------------
<BANKED_CODE,BANK_RELAYS..> 1 (was BANKED_CODE)
  Relative segment, address: CODE 00004E10 - 00004E3A (0x2b bytes), align: 0
  Segment part 53.            Intra module refs:   UartProcessData::?relay
           LOCAL                   ADDRESS         
           =====                   =======         
           UartProcessData         00004E10 
               calls direct, is indirectly called
               XSTACK = 00000000 ( 0000000C )
    -------------------------------------------------------------------------
<BANKED_CODE,BANK_RELAYS..> 1 (was BANK_RELAYS)
  Relative segment, address: CODE 00002851 - 00002856 (0x6 bytes), align: 0
  Segment part 33.
           ENTRY                   ADDRESS         REF BY
           =====                   =======         ======
           tx_send::?relay         00002851        main (main_UART_Bridge)
    -------------------------------------------------------------------------
<BANKED_CODE,BANK_RELAYS..> 1 (was BANK_RELAYS)
  Relative segment, address: CODE 00002857 - 0000285C (0x6 bytes), align: 0
  Segment part 52.
           ENTRY                   ADDRESS         REF BY
           =====                   =======         ======
           DmaUartInit::?relay     00002857        main (main_UART_Bridge)
    -------------------------------------------------------------------------
<BANKED_CODE,BANK_RELAYS..> 1 (was BANK_RELAYS)
  Relative segment, address: CODE 0000285D - 00002862 (0x6 bytes), align: 0
  Segment part 54.            Intra module refs:   DmaUartInit
           LOCAL                   ADDRESS         
           =====                   =======         
           UartProcessData::?relay
                                   0000285D 

    *************************************************************************

  FILE NAME : C:\Program Files (x86)\IAR Systems\Embedded Workbench 6.0\8051\LIB\CLIB\cl-pli-blxd-1e16x01.r51
  LIBRARY MODULE, NAME : ?cexit

  SEGMENTS IN THE MODULE
  ======================
<BANKED_CODE,BANK_RELAYS..> 1 (was CSTART)
  Relative segment, address: CODE 0000290B - 0000290F (0x5 bytes), align: 0
  Segment part 0.
           ENTRY                   ADDRESS         REF BY
           =====                   =======         ======
           exit                    0000290B        ?call_main (?cmain)
           ?C_EXIT                 0000290B 
           ?ROM_MONITOR_NOPS       0000290B 

    -------------------------------------------------------------------------
  LIBRARY MODULE, NAME : ?cmain

  SEGMENTS IN THE MODULE
  ======================
<BANKED_CODE,BANK_RELAYS..> 1 (was CSTART)
  Relative segment, address: CODE 0000232C, align: 0
  Segment part 0.
           ENTRY                   ADDRESS         REF BY
           =====                   =======         ======
           ?cmain                  0000232C        __call_main (CSTARTUP)
    -------------------------------------------------------------------------
<BANKED_CODE,BANK_RELAYS..> 1 (was CSTART)
  Relative segment, address: CODE 0000232C - 00002334 (0x9 bytes), align: 0
  Segment part 1.
           ENTRY                   ADDRESS         REF BY
           =====                   =======         ======
           __low_level_init_call   0000232C        __low_level_init (hal_startup)
    -------------------------------------------------------------------------
<BANKED_CODE,BANK_RELAYS..> 1 (was CSTART)
  Relative segment, address: CODE 00002335 - 00002344 (0x10 bytes), align: 0
  Segment part 11.
           ENTRY                   ADDRESS         REF BY
           =====                   =======         ======
           __INIT_XDATA_Z          00002335        HalLedState (hal_led)
                                                   HalLedStatusControl (hal_led)
                                                   Hal_TaskID (hal_drivers)
                                                   MRFI_Transmit::dsn (mrfi)
                                                   OnboardKeyIntEnable (OnBoard)
                                                   Segment part 8 (nwk_api)
                                                   Segment part 9 (nwk_api)
                                                   _theHeap (OSAL_Memory)
                                                   dmaCfg (hal_uart)
                                                   dmaCh0 (hal_dma)
                                                   dmaCh1234 (hal_dma)
                                                   ff1 (OSAL_Memory)
                                                   ff2 (OSAL_Memory)
                                                   gBUartBuf (nwk_api)
                                                   gBUartTotalByte (nwk_api)
                                                   g_flashReady (nwk_api)
                                                   g_frameInfo (nwk_api)
                                                   g_pRcvPkt (nwk_api)
                                                   g_preFlashRdy (nwk_api)
                                                   g_rcvPkt (main_UART_Bridge)
                                                   g_rptFlashRdy (nwk_api)
                                                   halTimerRecord (hal_timer)
                                                   macRadioDefsRefTableId (mac_radio_defs)
                                                   mrfiIncomingPacket (mrfi)
                                                   mrfiRadioState (mrfi)
                                                   osal_qHead (OSAL)
                                                   osal_systemClock (OSAL_Timers)
                                                   preBlinkState (hal_led)
                                                   radioSet (nwk_api)
                                                   rx_buff (uart_intfc)
                                                   sAPAddress (nwk_globals)
                                                   sInFrameQ (nwk_QMgmt)
                                                   sInit_done (nwk_api)
                                                   sJoinToken (nwk_join)
                                                   sKillSem (mrfi)
                                                   sLinkToken (nwk_link)
                                                   sMyAddr (nwk_frame)
                                                   sMyRAMAddress (nwk_globals)
                                                   sMyRxType (nwk_frame)
                                                   sMyTxType (nwk_frame)
                                                   sOutFrameQ (nwk_QMgmt)
                                                   sRAMAddressIsSet (nwk_globals)
                                                   sReplyDelayContext (mrfi)
                                                   sReplyDelayScalar (mrfi)
                                                   sServiceLinkID (nwk_link)
                                                   sTRACTID (nwk_frame)
                                                   sTid (nwk_join)
                                                   sTid (nwk_link)
                                                   sTid (nwk_mgmt)
                                                   sTid (nwk_ping)
                                                   spCallback (nwk_frame)
                                                   spCallback (nwk_join)
                                                   tasksCnt (main_UART_Bridge)
                                                   tasksEvents (main_UART_Bridge)
                                                   uart_rx_handler (uart)
                                                   uart_tran_flag (nwk_api)
                                                   uart_tx_handler (uart)
    -------------------------------------------------------------------------
<BANKED_CODE,BANK_RELAYS..> 1 (was CSTART)
  Relative segment, address: CODE 00002345 - 0000236D (0x29 bytes), align: 0
  Segment part 28.
           ENTRY                   ADDRESS         REF BY
           =====                   =======         ======
           __INIT_XDATA_I          00002345        Segment part 14 (main_UART_Bridge)
                                                   __Constant_1020304 (nwk_link)
                                                   __Constant_2 (mrfi)
                                                   __Constant_5060708 (nwk_join)
                                                   __Constant_ffffffff (mac_backoff_timer)
                                                   g_veriBuf (main_UART_Bridge)
                                                   g_veriBuf2 (main_UART_Bridge)
                                                   mrfiBroadcastAddr (mrfi)
                                                   mrfiLogicalChanTable (mrfi)
                                                   mrfiRFPowerTable (mrfi)
                                                   registeredKeysTaskID (OnBoard)
                                                   sMyROMAddress (nwk_globals)
                                                   sPersistInfo (nwk)
                                                   sVersionInfo (nwk_globals)
    -------------------------------------------------------------------------
<BANKED_CODE,BANK_RELAYS..> 1 (was CSTART)
  Relative segment, address: CODE 0000236E, align: 0
  Segment part 32.            Intra module refs:   __low_level_init_call
    -------------------------------------------------------------------------
<BANKED_CODE,BANK_RELAYS..> 1 (was CSTART)
  Relative segment, address: CODE 0000236E - 00002383 (0x16 bytes), align: 0
  Segment part 33.            Intra module refs:   ?cmain
           ENTRY                   ADDRESS         REF BY
           =====                   =======         ======
           ?call_main              0000236E 

    -------------------------------------------------------------------------
  LIBRARY MODULE, NAME : ?BANKED_CODE_SUPPORT

  SEGMENTS IN THE MODULE
  ======================
<BANKED_CODE,BANK_RELAYS..> 1 (was CSTART)
  Relative segment, address: CODE 00002384 - 000023CD (0x4a bytes), align: 0
  Segment part 3.
           ENTRY                   ADDRESS         REF BY
           =====                   =======         ======
           ?BCALL_07               00002384        ?call_main (?cmain)
           ?BRET_07                0000239A        ?BANKED_LEAVE_XDATA (?BANKED_LEAVE_XDATA)
                                                   ?Subroutine0 (OSAL)
                                                   ?Subroutine0 (OSAL_Timers)
                                                   ?Subroutine0 (hal_drivers)
                                                   ?Subroutine0 (hal_timer)
                                                   ?Subroutine0 (nwk_frame)
                                                   ?Subroutine0 (uart_intfc)
                                                   ?Subroutine1 (nwk)
                                                   BSP_Delay (bsp)
                                                   HalDmaInit (hal_dma)
                                                   HalKeyConfig (hal_key)
                                                   MAC_RfFrontendSetup (mac_rffrontend)
                                                   MRFI_RandomByte (mrfi)
                                                   Onboard_wait (OnBoard)
                                                   Segment part 13 (mac_radio_defs)
                                                   Segment part 26 (hal_led)
                                                   Segment part 35 (uart)
                                                   Segment part 36 (nwk_api)
                                                   Segment part 56 (hal_uart)
                                                   Segment part 62 (mrfi)
                                                   halTimerRemap (hal_timer)
                                                   macDelay (nwk_api)
                                                   mrfi_TxDone (mrfi)
                                                   nwk_freqInit (nwk_freq)
                                                   nwk_getBCastAddress (nwk_globals)
                                                   nwk_getFWVersion (nwk_globals)
                                                   nwk_getMyAddress (nwk_globals)
                                                   nwk_getProtocolVersion (nwk_globals)
                                                   nwk_mgmtInit (nwk_mgmt)
                                                   nwk_pingInit (nwk_ping)
                                                   nwk_securityInit (nwk_security)
                                                   osal_int_disable (OSAL)
           ?BDISPATCH_07           000023A7        BSP_Delay::?relay (bsp)
                                                   CalcSum::?relay (nwk_api)
                                                   DmaUartInit::?relay (uart_intfc)
                                                   FlashInfoSend::?relay (nwk_api)
                                                   HalDmaInit::?relay (hal_dma)
                                                   HalDriverInit::?relay (hal_drivers)
                                                   HalFlashInit::?relay (hal_flash)
                                                   HalFlashRead::?relay (hal_flash)
                                                   HalKeyConfig::?relay (hal_key)
                                                   HalLedBlink::?relay (hal_led)
                                                   HalLedInit::?relay (hal_led)
                                                   HalLedOnOff::?relay (hal_led)
                                                   HalLedSet::?relay (hal_led)
                                                   HalUARTInit::?relay (hal_uart)
                                                   HalUARTInitDMA::?relay (hal_uart)
                                                   HalUARTIsrDMA::?relay (hal_uart)
                                                   HalUARTOpen::?relay (hal_uart)
                                                   HalUARTOpenDMA::?relay (hal_uart)
                                                   HalUARTPoll::?relay (hal_uart)
                                                   HalUARTPollDMA::?relay (hal_uart)
                                                   HalUARTRead::?relay (hal_uart)
                                                   HalUARTReadDMA::?relay (hal_uart)
                                                   HalUARTRxAvailDMA::?relay (hal_uart)
                                                   HalUARTWrite::?relay (hal_uart)
                                                   HalUARTWriteDMA::?relay (hal_uart)
                                                   Hal_UART_RxBufLen::?relay (hal_uart)
                                                   InitBoard::?relay (OnBoard)
                                                   MAC_RfFrontendSetup::?relay (mac_rffrontend)
                                                   MAC_SetRadioRegTable::?relay (mac_radio_defs)
                                                   MRFI_DelayMs::?relay (mrfi)
                                                   MRFI_DisableRxAddrFilter::?relay (mrfi)
                                                   MRFI_GetRadioState::?relay (mrfi)
                                                   MRFI_Init::?relay (mrfi)
                                                   MRFI_RandomByte::?relay (mrfi)
                                                   MRFI_Receive::?relay (mrfi)
                                                   MRFI_ReplyDelay::?relay (mrfi)
                                                   MRFI_Rssi::?relay (mrfi)
                                                   MRFI_RxCompleteISR::?relay (nwk_frame)
                                                   MRFI_RxIdle::?relay (mrfi)
                                                   MRFI_RxOn::?relay (mrfi)
                                                   MRFI_SetLogicalChannel::?relay (mrfi)
                                                   MRFI_SetRFPwr::?relay (mrfi)
                                                   MRFI_SetRxAddrFilter::?relay (mrfi)
                                                   MRFI_Sleep::?relay (mrfi)
                                                   MRFI_Transmit::?relay (mrfi)
                                                   MRFI_WakeUp::?relay (mrfi)
                                                   Mrfi_DelayUsec::?relay (mrfi)
                                                   Mrfi_DelayUsecLong::?relay (mrfi)
                                                   Mrfi_RandomBackoffDelay::?relay (mrfi)
                                                   Mrfi_RxModeOff::?relay (mrfi)
                                                   Mrfi_RxModeOn::?relay (mrfi)
                                                   MstPacketParse::?relay (nwk_api)
                                                   NIK_Init::?relay (nwk_api)
                                                   NIK_LINK::?relay (nwk_api)
                                                   OnBoard_KeyCallback::?relay (OnBoard)
                                                   OnBoard_SendKeys::?relay (OnBoard)
                                                   Onboard_wait::?relay (OnBoard)
                                                   PreFlashInfoSend::?relay (nwk_api)
                                                   RptFlashInfoSend::?relay (nwk_api)
                                                   SMPL_Init::?relay (nwk_api)
                                                   SMPL_Ioctl::?relay (nwk_api)
                                                   UartDMAIntSend::?relay (hal_uart)
                                                   UartProcessData::?relay (uart_intfc)
                                                   UartSctSend::?relay (nwk_api)
                                                   halAssertHandler::?relay (hal_assert)
                                                   halProcessTimer1::?relay (hal_timer)
                                                   halProcessTimer3::?relay (hal_timer)
                                                   halProcessTimer4::?relay (hal_timer)
                                                   halTimerRemap::?relay (hal_timer)
                                                   halTimerSendCallBack::?relay (hal_timer)
                                                   macDelay::?relay (nwk_api)
                                                   map_lid2idx::?relay (nwk)
                                                   memcmp::?relay (?memcmp)
                                                   memcpy::?relay (?memcpy)
                                                   memmove::?relay (?memmove)
                                                   memset::?relay (?memset)
                                                   mrfi_TxDone::?relay (mrfi)
                                                   nwk_QInit::?relay (nwk_QMgmt)
                                                   nwk_QadjustOrder::?relay (nwk_QMgmt)
                                                   nwk_QfindOldest::?relay (nwk_QMgmt)
                                                   nwk_QfindSlot::?relay (nwk_QMgmt)
                                                   nwk_buildFrame::?relay (nwk_frame)
                                                   nwk_connectionControl::?relay (nwk_ioctl)
                                                   nwk_deviceAddress::?relay (nwk_ioctl)
                                                   nwk_frameInit::?relay (nwk_frame)
                                                   nwk_freeConnection::?relay (nwk)
                                                   nwk_freqInit::?relay (nwk_freq)
                                                   nwk_getBCastAddress::?relay (nwk_globals)
                                                   nwk_getConnInfo::?relay (nwk)
                                                   nwk_getFWVersion::?relay (nwk_globals)
                                                   nwk_getMyAddress::?relay (nwk_globals)
                                                   nwk_getProtocolVersion::?relay (nwk_globals)
                                                   nwk_globalsInit::?relay (nwk_globals)
                                                   nwk_join::?relay (nwk_join)
                                                   nwk_joinInit::?relay (nwk_join)
                                                   nwk_linkInit::?relay (nwk_link)
                                                   nwk_mgmtInit::?relay (nwk_mgmt)
                                                   nwk_nwkInit::?relay (nwk)
                                                   nwk_pingInit::?relay (nwk_ping)
                                                   nwk_putNumObjectIntoMsg::?relay (nwk)
                                                   nwk_radioControl::?relay (nwk_ioctl)
                                                   nwk_rawReceive::?relay (nwk_ioctl)
                                                   nwk_rawSend::?relay (nwk_ioctl)
                                                   nwk_retrieveFrame::?relay (nwk_frame)
                                                   nwk_securityInit::?relay (nwk_security)
                                                   nwk_sendFrame::?relay (nwk_frame)
                                                   nwk_setAPAddress::?relay (nwk_globals)
                                                   nwk_setLinkToken::?relay (nwk_link)
                                                   nwk_setMyAddress::?relay (nwk_globals)
                                                   osal_GetSystemClock::?relay (OSAL_Timers)
                                                   osal_int_disable::?relay (OSAL)
                                                   osal_mem_alloc::?relay (OSAL_Memory)
                                                   osal_mem_free::?relay (OSAL_Memory)
                                                   osal_memset::?relay (OSAL)
                                                   osal_msg_allocate::?relay (OSAL)
                                                   osal_msg_deallocate::?relay (OSAL)
                                                   osal_msg_enqueue::?relay (OSAL)
                                                   osal_msg_send::?relay (OSAL)
                                                   osal_set_event::?relay (OSAL)
                                                   tx_send::?relay (uart_intfc)
                                                   uart_rx_irq::?relay (uart)
                                                   uart_tx_irq::?relay (uart)

    -------------------------------------------------------------------------
  LIBRARY MODULE, NAME : ?L_ADD_X

  SEGMENTS IN THE MODULE
  ======================
<BANKED_CODE,BANK_RELAYS..> 1 (was RCODE)
  Relative segment, address: CODE 00002594 - 000025A6 (0x13 bytes), align: 0
  Segment part 1.
           ENTRY                   ADDRESS         REF BY
           =====                   =======         ======
           ?L_ADD_X                00002594        Mrfi_DelayUsecLong (mrfi)

    -------------------------------------------------------------------------
  LIBRARY MODULE, NAME : ?L_MOV_X

  SEGMENTS IN THE MODULE
  ======================
<BANKED_CODE,BANK_RELAYS..> 1 (was RCODE)
  Relative segment, address: CODE 000025E6 - 000025F4 (0xf bytes), align: 0
  Segment part 0.
           ENTRY                   ADDRESS         REF BY
           =====                   =======         ======
           ?L_MOV_X                000025E6        nwk_joinInit (nwk_join)
                                                   nwk_linkInit (nwk_link)

    -------------------------------------------------------------------------
  LIBRARY MODULE, NAME : ?L_MOV_TO_X

  SEGMENTS IN THE MODULE
  ======================
<BANKED_CODE,BANK_RELAYS..> 1 (was RCODE)
  Relative segment, address: CODE 000025D7 - 000025E5 (0xf bytes), align: 0
  Segment part 2.
           ENTRY                   ADDRESS         REF BY
           =====                   =======         ======
           ?L_MOV_TO_X             000025D7        nwk_setLinkToken (nwk_link)

    -------------------------------------------------------------------------
  LIBRARY MODULE, NAME : ?XLOAD_R2345

  SEGMENTS IN THE MODULE
  ======================
<BANKED_CODE,BANK_RELAYS..> 1 (was RCODE)
  Relative segment, address: CODE 00002602 - 0000260D (0xc bytes), align: 0
  Segment part 0.
           ENTRY                   ADDRESS         REF BY
           =====                   =======         ======
           ?XLOAD_R2345            00002602        MRFI_Transmit (mrfi)
                                                   nwk_join (nwk_join)
                                                   nwk_joinInit (nwk_join)
                                                   nwk_linkInit (nwk_link)
                                                   nwk_putNumObjectIntoMsg (nwk)
                                                   osal_GetSystemClock (OSAL_Timers)

    -------------------------------------------------------------------------
  LIBRARY MODULE, NAME : ?XSTORE_R2345

  SEGMENTS IN THE MODULE
  ======================
<BANKED_CODE,BANK_RELAYS..> 1 (was RCODE)
  Relative segment, address: CODE 0000260E - 00002619 (0xc bytes), align: 0
  Segment part 0.
           ENTRY                   ADDRESS         REF BY
           =====                   =======         ======
           ?XSTORE_R2345           0000260E        HalLedBlink (hal_led)
                                                   nwk_joinInit (nwk_join)
                                                   nwk_linkInit (nwk_link)
                                                   nwk_putNumObjectIntoMsg (nwk)

    -------------------------------------------------------------------------
  LIBRARY MODULE, NAME : ?MOVE_LONG8_XDATA_IDATA

  SEGMENTS IN THE MODULE
  ======================
<BANKED_CODE,BANK_RELAYS..> 1 (was RCODE)
  Relative segment, address: CODE 000025F5 - 00002601 (0xd bytes), align: 0
  Segment part 0.
           ENTRY                   ADDRESS         REF BY
           =====                   =======         ======
           ?MOVE_LONG8_XDATA_IDATA
                                   000025F5        ?PUSH_XSTACK_I (?PUSH_XSTACK_I)

    -------------------------------------------------------------------------
  LIBRARY MODULE, NAME : ?MOVE_LONG8_XDATA_XDATA

  SEGMENTS IN THE MODULE
  ======================
<BANKED_CODE,BANK_RELAYS..> 1 (was RCODE)
  Relative segment, address: CODE 000024FE - 0000251E (0x21 bytes), align: 0
  Segment part 0.
           ENTRY                   ADDRESS         REF BY
           =====                   =======         ======
           ?MOVE_LONG8_XDATA_XDATA
                                   000024FE        ?PUSH_XSTACK8_X (?PUSH_XSTACK8_X)
                                                   FlashInfoSend (nwk_api)
                                                   MRFI_Receive (mrfi)
                                                   PreFlashInfoSend (nwk_api)

    -------------------------------------------------------------------------
  LIBRARY MODULE, NAME : ?US_SHR

  SEGMENTS IN THE MODULE
  ======================
<BANKED_CODE,BANK_RELAYS..> 1 (was RCODE)
  Relative segment, address: CODE 000025C8 - 000025CA (0x3 bytes), align: 0
  Segment part 1.             Intra module refs:   Segment part 2
           ENTRY                   ADDRESS         REF BY
           =====                   =======         ======
           ?US_SHR                 000025C8        Mrfi_DelayUsec (mrfi)
                                                   Mrfi_DelayUsecLong (mrfi)
    -------------------------------------------------------------------------
<BANKED_CODE,BANK_RELAYS..> 1 (was RCODE)
  Relative segment, address: CODE 000025CB - 000025D6 (0xc bytes), align: 0
  Segment part 2.             Intra module refs:   ?US_SHR

    -------------------------------------------------------------------------
  LIBRARY MODULE, NAME : ?S_SHL

  SEGMENTS IN THE MODULE
  ======================
<BANKED_CODE,BANK_RELAYS..> 1 (was RCODE)
  Relative segment, address: CODE 00002581 - 00002583 (0x3 bytes), align: 0
  Segment part 0.
           ENTRY                   ADDRESS         REF BY
           =====                   =======         ======
           ?S_SHL                  00002581        HalFlashRead (hal_flash)
                                                   HalUARTPollDMA (hal_uart)
                                                   HalUARTWriteDMA (hal_uart)
                                                   UartDMAIntSend (hal_uart)
    -------------------------------------------------------------------------
<BANKED_CODE,BANK_RELAYS..> 1 (was RCODE)
  Relative segment, address: CODE 00002584 - 00002586 (0x3 bytes), align: 0
  Segment part 1.             Intra module refs:   Segment part 2
           ENTRY                   ADDRESS         REF BY
           =====                   =======         ======
           ?S_SHL_REW              00002584 
    -------------------------------------------------------------------------
<BANKED_CODE,BANK_RELAYS..> 1 (was RCODE)
  Relative segment, address: CODE 00002587 - 00002593 (0xd bytes), align: 0
  Segment part 2.             Intra module refs:   ?S_SHL
                                                   ?S_SHL_REW

    -------------------------------------------------------------------------
  LIBRARY MODULE, NAME : ?ALLOC_XSTACK8

  SEGMENTS IN THE MODULE
  ======================
<BANKED_CODE,BANK_RELAYS..> 1 (was RCODE)
  Relative segment, address: CODE 0000256B - 00002580 (0x16 bytes), align: 0
  Segment part 0.
           ENTRY                   ADDRESS         REF BY
           =====                   =======         ======
           ?ALLOC_XSTACK8          0000256B        DmaUartInit (uart_intfc)
                                                   FlashInfoSend (nwk_api)
                                                   PreFlashInfoSend (nwk_api)
                                                   RptFlashInfoSend (nwk_api)
                                                   nwk_QfindOldest (nwk_QMgmt)
                                                   nwk_getConnInfo (nwk)
                                                   nwk_join (nwk_join)
                                                   nwk_putNumObjectIntoMsg (nwk)
                                                   nwk_rawReceive (nwk_ioctl)
                                                   uart_tx_irq (uart)

    -------------------------------------------------------------------------
  LIBRARY MODULE, NAME : ?DEALLOC_XSTACK8

  SEGMENTS IN THE MODULE
  ======================
<BANKED_CODE,BANK_RELAYS..> 1 (was RCODE)
  Relative segment, address: CODE 0000253A - 00002553 (0x1a bytes), align: 0
  Segment part 0.
           ENTRY                   ADDRESS         REF BY
           =====                   =======         ======
           ?DEALLOC_XSTACK8        0000253A        ?Subroutine0 (nwk)
                                                   ?Subroutine0 (nwk_globals)
                                                   ?Subroutine0 (nwk_link)
                                                   ?Subroutine1 (nwk_api)
                                                   ?Subroutine2 (nwk_api)
                                                   ?Subroutine3 (uart)
                                                   DmaUartInit (uart_intfc)
                                                   HalFlashInit (hal_flash)
                                                   MRFI_Init (mrfi)
                                                   MRFI_RxIsr (mrfi)
                                                   MRFI_Transmit (mrfi)
                                                   MstPacketParse (nwk_api)
                                                   SMPL_Ioctl (nwk_api)
                                                   nwk_QInit (nwk_QMgmt)
                                                   nwk_QfindOldest (nwk_QMgmt)
                                                   nwk_buildFrame (nwk_frame)
                                                   nwk_deviceAddress (nwk_ioctl)
                                                   nwk_globalsInit (nwk_globals)
                                                   nwk_join (nwk_join)
                                                   nwk_nwkInit (nwk)
                                                   nwk_putNumObjectIntoMsg (nwk)
                                                   nwk_radioControl (nwk_ioctl)
                                                   nwk_rawReceive (nwk_ioctl)
                                                   nwk_rawSend (nwk_ioctl)
                                                   nwk_retrieveFrame (nwk_frame)
                                                   nwk_setMyAddress (nwk_globals)
                                                   osal_memset (OSAL)

    -------------------------------------------------------------------------
  LIBRARY MODULE, NAME : ?ADD_XSTACK_DISP8

  SEGMENTS IN THE MODULE
  ======================
<BANKED_CODE,BANK_RELAYS..> 1 (was RCODE)
  Relative segment, address: CODE 0000251F - 00002539 (0x1b bytes), align: 0
  Segment part 1.
           ENTRY                   ADDRESS         REF BY
           =====                   =======         ======
           ?ADD_XSTACK_DISP0_8     0000251F        ?PUSH_XSTACK_I (?PUSH_XSTACK_I)

    -------------------------------------------------------------------------
  LIBRARY MODULE, NAME : ?XSTACK_DISP8

  SEGMENTS IN THE MODULE
  ======================
<BANKED_CODE,BANK_RELAYS..> 1 (was RCODE)
  Relative segment, address: CODE 00002625 - 0000262E (0xa bytes), align: 0
  Segment part 1.
           ENTRY                   ADDRESS         REF BY
           =====                   =======         ======
           ?XSTACK_DISP0_8         00002625        DmaUartInit (uart_intfc)
                                                   FlashInfoSend (nwk_api)
                                                   HalFlashRead (hal_flash)
                                                   Mrfi_DelayUsecLong (mrfi)
                                                   PreFlashInfoSend (nwk_api)
                                                   RptFlashInfoSend (nwk_api)
                                                   memcmp (?memcmp)
                                                   memcpy (?memcpy)
                                                   memmove (?memmove)
                                                   memset (?memset)
                                                   nwk_QfindOldest (nwk_QMgmt)
                                                   nwk_join (nwk_join)
                                                   nwk_putNumObjectIntoMsg (nwk)
                                                   nwk_rawReceive (nwk_ioctl)
                                                   nwk_retrieveFrame (nwk_frame)

    -------------------------------------------------------------------------
  LIBRARY MODULE, NAME : ?CALL_IND

  SEGMENTS IN THE MODULE
  ======================
<BANKED_CODE,BANK_RELAYS..> 1 (was RCODE)
  Relative segment, address: CODE 00002913 - 00002914 (0x2 bytes), align: 0
  Segment part 0.
           ENTRY                   ADDRESS         REF BY
           =====                   =======         ======
           ?CALL_IND               00002913        HalUARTPollDMA (hal_uart)
                                                   Mrfi_DelayUsecLong (mrfi)
                                                   halTimerSendCallBack (hal_timer)
                                                   uart_rx_irq (uart)
                                                   uart_tx_irq (uart)

    -------------------------------------------------------------------------
  LIBRARY MODULE, NAME : ?BANKED_ENTER_XDATA

  SEGMENTS IN THE MODULE
  ======================
<BANKED_CODE,BANK_RELAYS..> 1 (was RCODE)
  Relative segment, address: CODE 00002209 - 00002274 (0x6c bytes), align: 0
  Segment part 1.
           ENTRY                   ADDRESS         REF BY
           =====                   =======         ======
           ?BANKED_ENTER_XDATA     00002209        CalcSum (nwk_api)
                                                   HalFlashInit (hal_flash)
                                                   HalFlashRead (hal_flash)
                                                   HalLedBlink (hal_led)
                                                   HalLedSet (hal_led)
                                                   HalUARTOpen (hal_uart)
                                                   HalUARTPollDMA (hal_uart)
                                                   HalUARTRead (hal_uart)
                                                   HalUARTReadDMA (hal_uart)
                                                   HalUARTWrite (hal_uart)
                                                   HalUARTWriteDMA (hal_uart)
                                                   Hal_UART_RxBufLen (hal_uart)
                                                   InitBoard (OnBoard)
                                                   MRFI_DelayMs (mrfi)
                                                   MRFI_Init (mrfi)
                                                   MRFI_ReplyDelay (mrfi)
                                                   MRFI_RxCompleteISR (nwk_frame)
                                                   MRFI_SetLogicalChannel (mrfi)
                                                   MRFI_SetRFPwr (mrfi)
                                                   MRFI_SetRxAddrFilter (mrfi)
                                                   MRFI_Transmit (mrfi)
                                                   Mrfi_DelayUsec (mrfi)
                                                   Mrfi_DelayUsecLong (mrfi)
                                                   Mrfi_RandomBackoffDelay (mrfi)
                                                   MstPacketParse (nwk_api)
                                                   OnBoard_KeyCallback (OnBoard)
                                                   OnBoard_SendKeys (OnBoard)
                                                   RptFlashInfoSend (nwk_api)
                                                   SMPL_Init (nwk_api)
                                                   SMPL_Ioctl (nwk_api)
                                                   UartDMAIntSend (hal_uart)
                                                   UartProcessData (uart_intfc)
                                                   UartSctSend (nwk_api)
                                                   halTimerSendCallBack (hal_timer)
                                                   map_lid2idx (nwk)
                                                   memcmp (?memcmp)
                                                   memcpy (?memcpy)
                                                   memmove (?memmove)
                                                   memset (?memset)
                                                   nwk_QInit (nwk_QMgmt)
                                                   nwk_QadjustOrder (nwk_QMgmt)
                                                   nwk_QfindOldest (nwk_QMgmt)
                                                   nwk_QfindSlot (nwk_QMgmt)
                                                   nwk_buildFrame (nwk_frame)
                                                   nwk_connectionControl (nwk_ioctl)
                                                   nwk_deviceAddress (nwk_ioctl)
                                                   nwk_getConnInfo (nwk)
                                                   nwk_globalsInit (nwk_globals)
                                                   nwk_join (nwk_join)
                                                   nwk_joinInit (nwk_join)
                                                   nwk_linkInit (nwk_link)
                                                   nwk_nwkInit (nwk)
                                                   nwk_putNumObjectIntoMsg (nwk)
                                                   nwk_radioControl (nwk_ioctl)
                                                   nwk_rawReceive (nwk_ioctl)
                                                   nwk_rawSend (nwk_ioctl)
                                                   nwk_retrieveFrame (nwk_frame)
                                                   nwk_sendFrame (nwk_frame)
                                                   nwk_setAPAddress (nwk_globals)
                                                   nwk_setLinkToken (nwk_link)
                                                   nwk_setMyAddress (nwk_globals)
                                                   osal_mem_alloc (OSAL_Memory)
                                                   osal_mem_free (OSAL_Memory)
                                                   osal_memset (OSAL)
                                                   osal_msg_allocate (OSAL)
                                                   osal_msg_enqueue (OSAL)
                                                   osal_msg_send (OSAL)
                                                   osal_set_event (OSAL)

    -------------------------------------------------------------------------
  LIBRARY MODULE, NAME : ?BANKED_LEAVE_XDATA

  SEGMENTS IN THE MODULE
  ======================
<BANKED_CODE,BANK_RELAYS..> 1 (was RCODE)
  Relative segment, address: CODE 000023CE - 00002413 (0x46 bytes), align: 0
  Segment part 1.
           ENTRY                   ADDRESS         REF BY
           =====                   =======         ======
           ?BANKED_LEAVE_XDATA     000023CE        ?Subroutine0 (OnBoard)
                                                   ?Subroutine0 (hal_flash)
                                                   ?Subroutine0 (mrfi)
                                                   ?Subroutine0 (nwk_api)
                                                   ?Subroutine0 (nwk_ioctl)
                                                   ?Subroutine0 (nwk_join)
                                                   ?Subroutine1 (hal_uart)
                                                   ?Subroutine1 (nwk_ioctl)
                                                   ?Subroutine2 (hal_timer)
                                                   ?Subroutine2 (hal_uart)
                                                   ?Subroutine2 (mrfi)
                                                   ?Subroutine4 (OSAL)
                                                   ?Subroutine4 (nwk)
                                                   HalFlashRead (hal_flash)
                                                   HalLedBlink (hal_led)
                                                   HalLedSet (hal_led)
                                                   HalUARTWriteDMA (hal_uart)
                                                   MRFI_ReplyDelay (mrfi)
                                                   MRFI_RxCompleteISR (nwk_frame)
                                                   MRFI_Transmit (mrfi)
                                                   Mrfi_DelayUsecLong (mrfi)
                                                   OnBoard_SendKeys (OnBoard)
                                                   SMPL_Init (nwk_api)
                                                   Segment part 13 (nwk)
                                                   Segment part 16 (nwk_globals)
                                                   Segment part 17 (nwk_link)
                                                   Segment part 44 (nwk_api)
                                                   Segment part 58 (OSAL)
                                                   UartProcessData (uart_intfc)
                                                   UartSctSend (nwk_api)
                                                   memcmp (?memcmp)
                                                   memcpy (?memcpy)
                                                   memmove (?memmove)
                                                   memset (?memset)
                                                   nwk_QInit (nwk_QMgmt)
                                                   nwk_QadjustOrder (nwk_QMgmt)
                                                   nwk_QfindOldest (nwk_QMgmt)
                                                   nwk_QfindSlot (nwk_QMgmt)
                                                   nwk_buildFrame (nwk_frame)
                                                   nwk_join (nwk_join)
                                                   nwk_nwkInit (nwk)
                                                   nwk_retrieveFrame (nwk_frame)
                                                   nwk_sendFrame (nwk_frame)
                                                   osal_mem_alloc (OSAL_Memory)
                                                   osal_mem_free (OSAL_Memory)

    -------------------------------------------------------------------------
  LIBRARY MODULE, NAME : ?INTERRUPT_ENTER_SP

  SEGMENTS IN THE MODULE
  ======================
<BANKED_CODE,BANK_RELAYS..> 1 (was RCODE)
  Relative segment, address: CODE 00002414 - 0000244A (0x37 bytes), align: 0
  Segment part 0.
           ENTRY                   ADDRESS         REF BY
           =====                   =======         ======
           ?INTERRUPT_ENTER_SP     00002414        ?Subroutine0 (uart)
                                                   ?Subroutine2 (uart)

    -------------------------------------------------------------------------
  LIBRARY MODULE, NAME : ?INTERRUPT_LEAVE_SP

  SEGMENTS IN THE MODULE
  ======================
<BANKED_CODE,BANK_RELAYS..> 1 (was RCODE)
  Relative segment, address: CODE 0000247B - 000024A9 (0x2f bytes), align: 0
  Segment part 0.
           ENTRY                   ADDRESS         REF BY
           =====                   =======         ======
           ?INTERRUPT_LEAVE_SP     0000247B        Segment part 29 (uart)

    -------------------------------------------------------------------------
  LIBRARY MODULE, NAME : ?INTERRUPT_ENTER_XSP

  SEGMENTS IN THE MODULE
  ======================
<BANKED_CODE,BANK_RELAYS..> 1 (was RCODE)
  Relative segment, address: CODE 00002275 - 000022D3 (0x5f bytes), align: 0
  Segment part 1.
           ENTRY                   ADDRESS         REF BY
           =====                   =======         ======
           ?INTERRUPT_ENTER_XSP    00002275        MRFI_RxIsr (mrfi)
                                                   halDmaIsr (hal_dma)
                                                   halTimer1Isr (hal_timer)
                                                   halTimer3Isr (hal_timer)
                                                   halTimer4Isr (hal_timer)

    -------------------------------------------------------------------------
  LIBRARY MODULE, NAME : ?INTERRUPT_LEAVE_XSP

  SEGMENTS IN THE MODULE
  ======================
<BANKED_CODE,BANK_RELAYS..> 1 (was RCODE)
  Relative segment, address: CODE 000022D4 - 0000232B (0x58 bytes), align: 0
  Segment part 1.
           ENTRY                   ADDRESS         REF BY
           =====                   =======         ======
           ?INTERRUPT_LEAVE_XSP    000022D4        ?Subroutine3 (hal_timer)
                                                   MRFI_RxIsr (mrfi)
                                                   halDmaIsr (hal_dma)

    -------------------------------------------------------------------------
  LIBRARY MODULE, NAME : ?PUSH_XSTACK_I

  SEGMENTS IN THE MODULE
  ======================
<BANKED_CODE,BANK_RELAYS..> 1 (was RCODE)
  Relative segment, address: CODE 000025A7 - 000025AA (0x4 bytes), align: 0
  Segment part 2.
           ENTRY                   ADDRESS         REF BY
           =====                   =======         ======
           ?PUSH_XSTACK_I_TWO      000025A7        HalFlashInit (hal_flash)
                                                   MRFI_Init (mrfi)
                                                   MRFI_RxIsr (mrfi)
                                                   MRFI_Transmit (mrfi)
                                                   MstPacketParse (nwk_api)
                                                   SMPL_Ioctl (nwk_api)
                                                   nwk_QInit (nwk_QMgmt)
                                                   nwk_QfindOldest (nwk_QMgmt)
                                                   nwk_buildFrame (nwk_frame)
                                                   nwk_deviceAddress (nwk_ioctl)
                                                   nwk_globalsInit (nwk_globals)
                                                   nwk_join (nwk_join)
                                                   nwk_linkInit (nwk_link)
                                                   nwk_nwkInit (nwk)
                                                   nwk_putNumObjectIntoMsg (nwk)
                                                   nwk_radioControl (nwk_ioctl)
                                                   nwk_rawReceive (nwk_ioctl)
                                                   nwk_rawSend (nwk_ioctl)
                                                   nwk_retrieveFrame (nwk_frame)
                                                   nwk_setAPAddress (nwk_globals)
                                                   nwk_setMyAddress (nwk_globals)
                                                   osal_memset (OSAL)
    -------------------------------------------------------------------------
<BANKED_CODE,BANK_RELAYS..> 1 (was RCODE)
  Relative segment, address: CODE 000025AB - 000025B7 (0xd bytes), align: 0
  Segment part 4.             Intra module refs:   ?PUSH_XSTACK_I_TWO
           ENTRY                   ADDRESS         REF BY
           =====                   =======         ======
           ?PUSH_XSTACK_I          000025AB 

    -------------------------------------------------------------------------
  LIBRARY MODULE, NAME : ?PUSH_XSTACK8_X

  SEGMENTS IN THE MODULE
  ======================
<BANKED_CODE,BANK_RELAYS..> 1 (was RCODE)
  Relative segment, address: CODE 000024AA - 000024AD (0x4 bytes), align: 0
  Segment part 3.
           ENTRY                   ADDRESS         REF BY
           =====                   =======         ======
           ?PUSH_XSTACK8_X_TWO     000024AA        nwk_rawReceive (nwk_ioctl)
    -------------------------------------------------------------------------
<BANKED_CODE,BANK_RELAYS..> 1 (was RCODE)
  Relative segment, address: CODE 000024AE - 000024D6 (0x29 bytes), align: 0
  Segment part 5.             Intra module refs:   ?PUSH_XSTACK8_X_TWO
           ENTRY                   ADDRESS         REF BY
           =====                   =======         ======
           ?PUSH_XSTACK8_X         000024AE 

    -------------------------------------------------------------------------
  LIBRARY MODULE, NAME : ?memcmp

  SEGMENTS IN THE MODULE
  ======================
<BANKED_CODE,BANK_RELAYS..> 1 (was BANKED_CODE)
  Relative segment, address: CODE 00005113 - 00005168 (0x56 bytes), align: 0
  Segment part 6.             Intra module refs:   memcmp::?relay
           ENTRY                   ADDRESS         REF BY
           =====                   =======         ======
           memcmp                  00005113 
               XSTACK = 00000002 ( 00000009 )
    -------------------------------------------------------------------------
<BANKED_CODE,BANK_RELAYS..> 1 (was BANK_RELAYS)
  Relative segment, address: CODE 00002863 - 00002868 (0x6 bytes), align: 0
  Segment part 7.
           ENTRY                   ADDRESS         REF BY
           =====                   =======         ======
           memcmp::?relay          00002863        nwk_QfindOldest (nwk_QMgmt)

    -------------------------------------------------------------------------
  LIBRARY MODULE, NAME : ?memcpy

  SEGMENTS IN THE MODULE
  ======================
<BANKED_CODE,BANK_RELAYS..> 1 (was BANKED_CODE)
  Relative segment, address: CODE 00005169 - 000051AE (0x46 bytes), align: 0
  Segment part 6.             Intra module refs:   memcpy::?relay
           ENTRY                   ADDRESS         REF BY
           =====                   =======         ======
           memcpy                  00005169 
               XSTACK = 00000002 ( 0000000A )
               ISTACK = 00000000 ( 00000001 )
    -------------------------------------------------------------------------
<BANKED_CODE,BANK_RELAYS..> 1 (was BANK_RELAYS)
  Relative segment, address: CODE 00002869 - 0000286E (0x6 bytes), align: 0
  Segment part 7.
           ENTRY                   ADDRESS         REF BY
           =====                   =======         ======
           memcpy::?relay          00002869        Segment part 17 (nwk_frame)
                                                   Segment part 80 (nwk_api)
                                                   nwk_deviceAddress (nwk_ioctl)
                                                   nwk_globalsInit (nwk_globals)
                                                   nwk_join (nwk_join)
                                                   nwk_nwkInit (nwk)
                                                   nwk_radioControl (nwk_ioctl)
                                                   nwk_rawSend (nwk_ioctl)
                                                   nwk_setAPAddress (nwk_globals)
                                                   nwk_setMyAddress (nwk_globals)

    -------------------------------------------------------------------------
  LIBRARY MODULE, NAME : ?memmove

  SEGMENTS IN THE MODULE
  ======================
<BANKED_CODE,BANK_RELAYS..> 1 (was BANKED_CODE)
  Relative segment, address: CODE 00004F92 - 00005017 (0x86 bytes), align: 0
  Segment part 6.             Intra module refs:   memmove::?relay
           ENTRY                   ADDRESS         REF BY
           =====                   =======         ======
           memmove                 00004F92 
               XSTACK = 00000002 ( 0000000A )
               ISTACK = 00000000 ( 00000001 )
    -------------------------------------------------------------------------
<BANKED_CODE,BANK_RELAYS..> 1 (was BANKED_CODE)
  Relative segment, address: CODE 00005018 - 0000502A (0x13 bytes), align: 0
  Segment part 8.             Intra module refs:   memmove
    -------------------------------------------------------------------------
<BANKED_CODE,BANK_RELAYS..> 1 (was BANK_RELAYS)
  Relative segment, address: CODE 0000286F - 00002874 (0x6 bytes), align: 0
  Segment part 7.
           ENTRY                   ADDRESS         REF BY
           =====                   =======         ======
           memmove::?relay         0000286F        nwk_putNumObjectIntoMsg (nwk)

    -------------------------------------------------------------------------
  LIBRARY MODULE, NAME : ?memset

  SEGMENTS IN THE MODULE
  ======================
<BANKED_CODE,BANK_RELAYS..> 1 (was BANKED_CODE)
  Relative segment, address: CODE 000051AF - 000051DB (0x2d bytes), align: 0
  Segment part 6.             Intra module refs:   memset::?relay
           ENTRY                   ADDRESS         REF BY
           =====                   =======         ======
           memset                  000051AF 
               XSTACK = 00000002 ( 00000009 )
               ISTACK = 00000000 ( 00000001 )
    -------------------------------------------------------------------------
<BANKED_CODE,BANK_RELAYS..> 1 (was BANK_RELAYS)
  Relative segment, address: CODE 00002875 - 0000287A (0x6 bytes), align: 0
  Segment part 7.
           ENTRY                   ADDRESS         REF BY
           =====                   =======         ======
           memset::?relay          00002875        MRFI_Init (mrfi)
                                                   MRFI_RxIsr (mrfi)
                                                   nwk_QInit (nwk_QMgmt)
                                                   nwk_globalsInit (nwk_globals)
                                                   nwk_linkInit (nwk_link)
                                                   nwk_nwkInit (nwk)
                                                   osal_memset (OSAL)

    *************************************************************************

  DEFINED ABSOLUTE ENTRIES
  PROGRAM MODULE, NAME : ?FILLER_BYTES

  SEGMENTS IN THE MODULE
  ======================
INTVEC
  Common segment, address: CODE 00002000 - 00002085 (0x86 bytes), align: 0
  Segment part 9.
    -------------------------------------------------------------------------
?FILL9
  Relative segment, address: CODE 00078000 - 0007C7FF (0x4800 bytes), align: 0
  Segment part 8.
    -------------------------------------------------------------------------
?FILL8
  Relative segment, address: CODE 00068000 - 0006FFFF (0x8000 bytes), align: 0
  Segment part 7.
    -------------------------------------------------------------------------
?FILL7
  Relative segment, address: CODE 00058000 - 0005FFFF (0x8000 bytes), align: 0
  Segment part 6.
    -------------------------------------------------------------------------
?FILL6
  Relative segment, address: CODE 00048000 - 0004FFFF (0x8000 bytes), align: 0
  Segment part 5.
    -------------------------------------------------------------------------
?FILL5
  Relative segment, address: CODE 00038000 - 0003FFFF (0x8000 bytes), align: 0
  Segment part 4.
    -------------------------------------------------------------------------
?FILL4
  Relative segment, address: CODE 00028000 - 0002FFFF (0x8000 bytes), align: 0
  Segment part 3.
    -------------------------------------------------------------------------
?FILL3
  Relative segment, address: CODE 00018000 - 0001FFFF (0x8000 bytes), align: 0
  Segment part 2.
    -------------------------------------------------------------------------
?FILL2
  Relative segment, address: CODE 000052A8 - 00007FFF (0x2d58 bytes), align: 0
  Segment part 1.
    -------------------------------------------------------------------------
?FILL1
  Relative segment, address: CODE 00002086 - 00002087 (0x2 bytes), align: 0
  Segment part 0.

    *************************************************************************

  DEFINED ABSOLUTE ENTRIES
  PROGRAM MODULE, NAME : ?CHECKSUM

  SEGMENTS IN THE MODULE
  ======================
CHECKSUM
  Relative segment, address: CODE 00002088 - 00002089 (0x2 bytes), align: 0
  Segment part 1. ROOT.
           ENTRY                   ADDRESS         REF BY
           =====                   =======         ======
           __checksum              00002088 




                ****************************************
                *                                      *
                *            MODULE SUMMARY            *
                *                                      *
                ****************************************

Module                      CODE      DATA      XDATA  IDATA    BIT
------                      ----      ----      -----  -----    ---
                           (Rel)  (Rel)  (Abs)  (Rel)  (Rel)  (Rel)
?ADD_XSTACK_DISP8             27
?ALLOC_XSTACK8                22
?BANKED_CODE_SUPPORT          74
?BANKED_ENTER_XDATA          108
?BANKED_LEAVE_XDATA           70
?CALL_IND                      2
?CHECKSUM                      2
?DEALLOC_XSTACK8              26
?FILLER_BYTES            226 650
  + common                   134
?INTERRUPT_ENTER_SP           55
?INTERRUPT_ENTER_XSP          95
?INTERRUPT_LEAVE_SP           47
?INTERRUPT_LEAVE_XSP          88
?L_ADD_X                      19
?L_MOV_TO_X                   15
?L_MOV_X                      15
?MOVE_LONG8_XDATA_IDATA       13
?MOVE_LONG8_XDATA_XDATA       33
?PUSH_XSTACK8_X               45
?PUSH_XSTACK_I                17
?S_SHL                        19
?US_SHR                       15
?XLOAD_R2345                  12
?XSTACK_DISP8                 10
?XSTORE_R2345                 12
?cexit                         5
?cmain                        88
?memcmp                       92
?memcpy                       76
?memmove                     159
?memset                       51
CSTARTUP                      16
  + common                     3
OSAL                         491                    2
  + shared                                   1
OSAL_Memory                  371                2 052
OSAL_Timers                   26                    4
OnBoard                      240                    2
  + shared                                   1
VIRTUAL_REGISTERS                     2                           8
bsp                           35             2
  + shared                                   6
hal_adc                                      4
hal_assert                    16             1
  + shared                                   5
hal_dma                       48             4     40
  + shared                    70             3
  + common
hal_drivers                   31                    1
hal_flash                    184                   35
  + shared                                   2
hal_key                        9
hal_led                      465                   39
hal_sleep                      3             4
  + shared                    46             2
  + common
hal_startup                   11
hal_timer                    413             8     30
  + common                   102
hal_uart                   1 516             7    526
  + shared                                   2
mac_backoff_timer              4             2
  + shared                                   1      4
mac_radio_defs                34                    1
mac_rffrontend                32
mac_rx
  + shared                                   4
main_UART_Bridge             234                  115
mrfi                       1 774             6     70
  + common                   134
nwk                          489                   38
nwk_QMgmt                    709                  306
nwk_api                    1 855                  365
nwk_frame                    689                    7
nwk_freq                       9
nwk_globals                  251                   18
nwk_ioctl                    534
nwk_join                     419                   11
nwk_link                     125                   11
nwk_mgmt                      25                    1
nwk_ping                      25                    1
nwk_security                   9
uart                         231            10      4
  + common                   118
uart_intfc                   197                   50
N/A (command line)                   24         1 023    192
N/A (alignment)
----------               -------     --     --  -----    ---      -
Total:                   239 482     26     75  4 756    192      8
  + common                   134


                ****************************************
                *                                      *
                *      SEGMENTS IN ADDRESS ORDER       *
                *                                      *
                ****************************************


SEGMENT              SPACE    START ADDRESS   END ADDRESS     SIZE  TYPE  ALIGN
=======              =====    =============   ===========     ====  ====  =====
INTVEC               CODE          00002000 - 00002085          86   com    0
BDATA_ID             CODE               00002086                     dse    0
PDATA_ID             CODE               00002086                     dse    0
IXDATA_ID            CODE               00002086                     dse    0
IDATA_ID             CODE               00002086                     dse    0
DATA_ID              CODE               00002086                     dse    0
BIT_ID               CODE               00002086                     dse    0
?FILL1               CODE          00002086 - 00002087           2   rel    0
CHECKSUM             CODE          00002088 - 00002089           2   rel    0
XDATA_ID             CODE          0000208A - 00002143          BA   rel    0
<BANKED_CODE,BANK_RELAYS..> 1
                     CODE          00002144 - 000052A7        3164   rel    0
?FILL2               CODE          000052A8 - 00007FFF        2D58   rel    0
?FILL3               CODE          00018000 - 0001FFFF        8000   rel    0
?FILL4               CODE          00028000 - 0002FFFF        8000   rel    0
?FILL5               CODE          00038000 - 0003FFFF        8000   rel    0
?FILL6               CODE          00048000 - 0004FFFF        8000   rel    0
?FILL7               CODE          00058000 - 0005FFFF        8000   rel    0
?FILL8               CODE          00068000 - 0006FFFF        8000   rel    0
?FILL9               CODE          00078000 - 0007C7FF        4800   rel    0
REGISTERS            DATA          00000000 - 00000007           8   rel    0
VREG                 DATA          00000008 - 00000017          10   rel    0
PSP                  DATA               00000018                     dse    0
XSP                  DATA          00000018 - 00000019           2   rel    0
BREG                 BIT        00000020.0  -  00000020.7        8   rel    0
SFR_AN               DATA          00000080 - 00000080           1   rel    0
                     DATA          00000086 - 00000086           1 
                     DATA          00000086 - 00000088           3 
                     DATA          0000008F - 00000091           3 
                     DATA          00000094 - 00000097           4 
                     DATA          0000009A - 0000009A           1 
                     DATA          0000009A - 0000009B           2 
                     DATA          0000009D - 0000009E           2 
                     DATA          000000A1 - 000000A1           1 
                     DATA          000000A7 - 000000A9           3 
                     DATA          000000AD - 000000AD           1 
                     DATA          000000B4 - 000000B4           1 
                     DATA          000000B6 - 000000B6           1 
                     DATA          000000B8 - 000000BE           7 
                     DATA          000000C0 - 000000C2           3 
                     DATA          000000C4 - 000000C4           1 
                     DATA          000000C4 - 000000C5           2 
                     DATA          000000C5 - 000000C7           3 
                     DATA          000000C9 - 000000C9           1 
                     DATA          000000CB - 000000CE           4 
                     DATA          000000D1 - 000000D9           9 
                     DATA          000000E1 - 000000E1           1 
                     DATA          000000E4 - 000000E9           6 
                     DATA          000000EB - 000000EC           2 
                     DATA          000000EE - 000000EE           1 
                     DATA          000000F1 - 000000F1           1 
                     DATA          000000F1 - 000000F2           2 
                     DATA          000000F2 - 000000F3           2 
                     DATA          000000F3 - 000000F3           1 
                     DATA          000000F5 - 000000F5           1 
                     DATA          000000F7 - 000000F7           1 
                     DATA          000000FD - 000000FF           3 
XSTACK               XDATA         00000001 - 000003FF         3FF   rel    0
XDATA_Z              XDATA         00000400 - 000011B7         DB8   rel    0
XDATA_I              XDATA         000011B8 - 00001271          BA   rel    0
RAM_CODE_XDATA       XDATA         00001EDD - 00001EFF          23   rel    0
ISTACK               IDATA         00000040 - 000000FF          C0   rel    0


                ****************************************
                *                                      *
                *              CHECKSUMS               *
                *                                      *
                ****************************************

Symbol      Checksum  Memory  Start      End       Initial value
------      --------  ------  -----      ---       -------------
__checksum    0x901d   CODE   00002000 - 00002087  0x0000 (#0x0000)
                       CODE   0000208A - 00007FFF
                       CODE   00018000 - 0001FFFF
                       CODE   00028000 - 0002FFFF
                       CODE   00038000 - 0003FFFF
                       CODE   00048000 - 0004FFFF
                       CODE   00058000 - 0005FFFF
                       CODE   00068000 - 0006FFFF
                       CODE   00078000 - 0007C7FF

                ****************************************
                *                                      *
                *        END OF CROSS REFERENCE        *
                *                                      *
                ****************************************

 12 966 bytes of CODE  memory (+             226 650 range fill )
     26 bytes of DATA  memory (+ 75 absolute )
  4 756 bytes of XDATA memory
    192 bytes of IDATA memory
      8 bits  of BIT   memory

Errors: none
Warnings: 1

