///////////////////////////////////////////////////////////////////////////////
//                                                                            /
// IAR C/C++ Compiler V8.10.3.40338/W32 for 8051        22/Jul/2014  14:54:27 /
// Copyright 2004-2011 IAR Systems AB.                                        /
//                                                                            /
//    Core               =  plain                                             /
//    Code model         =  banked                                            /
//    Data model         =  large                                             /
//    Calling convention =  xdata reentrant                                   /
//    Constant location  =  data_rom                                          /
//    Dptr setup         =  1,16                                              /
//    Source file        =  D:\WorkReserve\project\AES_BOOT\CC2531UsbSlave\Co /
//                          mponents\usb\class_hid\usb_hid_reports.c          /
//    Command line       =  -f "D:\WorkReserve\project\AES_BOOT\CC2531UsbSlav /
//                          e\Projects\zstack\Samples\SampleApp               /
//                          com\CC2530DB\..\..\..\Tools\CC2530DB\f8wConfig.cf /
//                          g" (-DSECURE=0 -DZG_SECURE_DYNAMIC=0 -DREFLECTOR  /
//                          -DDEFAULT_CHANLIST=0x00000800                     /
//                          -DZDAPP_CONFIG_PAN_ID=0xFFF0                      /
//                          -DNWK_START_DELAY=100 -DEXTENDED_JOINING_RANDOM_M /
//                          ASK=0x007F -DBEACON_REQUEST_DELAY=100             /
//                          -DBEACON_REQ_DELAY_MASK=0x00FF                    /
//                          -DROUTE_EXPIRY_TIME=30 -DAPSC_ACK_WAIT_DURATION_P /
//                          OLLED=3000 -DNWK_INDIRECT_MSG_TIMEOUT=7           /
//                          -DMAX_RREQ_ENTRIES=8 -DAPSC_MAX_FRAME_RETRIES=3   /
//                          -DNWK_MAX_DATA_RETRIES=2                          /
//                          -DMAX_POLL_FAILURE_RETRIES=2 -DMAX_BCAST=9        /
//                          -DAPS_MAX_GROUPS=16 -DMAX_RTG_ENTRIES=40          /
//                          -DNWK_MAX_BINDING_ENTRIES=4                       /
//                          -DMAX_BINDING_CLUSTER_IDS=4                       /
//                          "-DDEFAULT_KEY={0x01, 0x03, 0x05, 0x07, 0x09,     /
//                          0x0B, 0x0D, 0x0F, 0x00, 0x02, 0x04, 0x06, 0x08,   /
//                          0x0A, 0x0C, 0x0D}" -DMAC_MAX_FRAME_SIZE=116       /
//                          "-DCONST=const __code" -DGENERIC=__generic        /
//                          -DRFD_RCVC_ALWAYS_ON=FALSE -DPOLL_RATE=1000       /
//                          -DQUEUED_POLL_RATE=100 -DRESPONSE_POLL_RATE=100   /
//                          -DREJOIN_POLL_RATE=440)                           /
//                          D:\WorkReserve\project\AES_BOOT\CC2531UsbSlave\Co /
//                          mponents\usb\class_hid\usb_hid_reports.c -D       /
//                          ZIGBEEPRO -D ZTOOL_P1 -lC                         /
//                          "D:\WorkReserve\project\AES_BOOT\CC2531UsbSlave\P /
//                          rojects\zstack\Samples\SampleApp                  /
//                          com\CC2530DB\CoordinatorEB-Pro\List\" -lA         /
//                          "D:\WorkReserve\project\AES_BOOT\CC2531UsbSlave\P /
//                          rojects\zstack\Samples\SampleApp                  /
//                          com\CC2530DB\CoordinatorEB-Pro\List\"             /
//                          --diag_suppress Pe001,Pa010 -o                    /
//                          "D:\WorkReserve\project\AES_BOOT\CC2531UsbSlave\P /
//                          rojects\zstack\Samples\SampleApp                  /
//                          com\CC2530DB\CoordinatorEB-Pro\Obj\" -e --debug   /
//                          --core=plain --dptr=16,1 --data_model=large       /
//                          --code_model=banked --calling_convention=xdata_re /
//                          entrant --place_constants=data_rom                /
//                          --nr_virtual_regs 16 -I                           /
//                          "D:\WorkReserve\project\AES_BOOT\CC2531UsbSlave\P /
//                          rojects\zstack\Samples\SampleApp com\CC2530DB\"   /
//                          -I "D:\WorkReserve\project\AES_BOOT\CC2531UsbSlav /
//                          e\Projects\zstack\Samples\SampleApp               /
//                          com\CC2530DB\..\SOURCE\" -I                       /
//                          "D:\WorkReserve\project\AES_BOOT\CC2531UsbSlave\P /
//                          rojects\zstack\Samples\SampleApp                  /
//                          com\CC2530DB\..\..\..\ZMAIN\TI2530DB\" -I         /
//                          "D:\WorkReserve\project\AES_BOOT\CC2531UsbSlave\P /
//                          rojects\zstack\Samples\SampleApp                  /
//                          com\CC2530DB\..\..\..\..\..\COMPONENTS\MT\" -I    /
//                          "D:\WorkReserve\project\AES_BOOT\CC2531UsbSlave\P /
//                          rojects\zstack\Samples\SampleApp                  /
//                          com\CC2530DB\..\..\..\..\..\COMPONENTS\HAL\INCLUD /
//                          E\" -I "D:\WorkReserve\project\AES_BOOT\CC2531Usb /
//                          Slave\Projects\zstack\Samples\SampleApp           /
//                          com\CC2530DB\..\..\..\..\..\COMPONENTS\HAL\TARGET /
//                          \CC2530EB\" -I "D:\WorkReserve\project\AES_BOOT\C /
//                          C2531UsbSlave\Projects\zstack\Samples\SampleApp   /
//                          com\CC2530DB\..\..\..\..\..\COMPONENTS\OSAL\MCU\C /
//                          CSOC\" -I "D:\WorkReserve\project\AES_BOOT\CC2531 /
//                          UsbSlave\Projects\zstack\Samples\SampleApp        /
//                          com\CC2530DB\..\..\..\..\..\COMPONENTS\OSAL\INCLU /
//                          DE\" -I "D:\WorkReserve\project\AES_BOOT\CC2531Us /
//                          bSlave\Projects\zstack\Samples\SampleApp          /
//                          com\CC2530DB\..\..\..\..\..\COMPONENTS\STACK\AF\" /
//                           -I "D:\WorkReserve\project\AES_BOOT\CC2531UsbSla /
//                          ve\Projects\zstack\Samples\SampleApp              /
//                          com\CC2530DB\..\..\..\..\..\COMPONENTS\STACK\NWK\ /
//                          " -I "D:\WorkReserve\project\AES_BOOT\CC2531UsbSl /
//                          ave\Projects\zstack\Samples\SampleApp             /
//                          com\CC2530DB\..\..\..\..\..\COMPONENTS\STACK\SEC\ /
//                          " -I "D:\WorkReserve\project\AES_BOOT\CC2531UsbSl /
//                          ave\Projects\zstack\Samples\SampleApp             /
//                          com\CC2530DB\..\..\..\..\..\COMPONENTS\STACK\SAPI /
//                          \" -I "D:\WorkReserve\project\AES_BOOT\CC2531UsbS /
//                          lave\Projects\zstack\Samples\SampleApp            /
//                          com\CC2530DB\..\..\..\..\..\COMPONENTS\STACK\SYS\ /
//                          " -I "D:\WorkReserve\project\AES_BOOT\CC2531UsbSl /
//                          ave\Projects\zstack\Samples\SampleApp             /
//                          com\CC2530DB\..\..\..\..\..\COMPONENTS\STACK\ZDO\ /
//                          " -I "D:\WorkReserve\project\AES_BOOT\CC2531UsbSl /
//                          ave\Projects\zstack\Samples\SampleApp             /
//                          com\CC2530DB\..\..\..\..\..\COMPONENTS\ZMAC\F8W\" /
//                           -I "D:\WorkReserve\project\AES_BOOT\CC2531UsbSla /
//                          ve\Projects\zstack\Samples\SampleApp              /
//                          com\CC2530DB\..\..\..\..\..\COMPONENTS\ZMAC\" -I  /
//                          "D:\WorkReserve\project\AES_BOOT\CC2531UsbSlave\P /
//                          rojects\zstack\Samples\SampleApp                  /
//                          com\CC2530DB\..\..\..\..\..\COMPONENTS\SERVICES\S /
//                          ADDR\" -I "D:\WorkReserve\project\AES_BOOT\CC2531 /
//                          UsbSlave\Projects\zstack\Samples\SampleApp        /
//                          com\CC2530DB\..\..\..\..\..\COMPONENTS\SERVICES\S /
//                          DATA\" -I "D:\WorkReserve\project\AES_BOOT\CC2531 /
//                          UsbSlave\Projects\zstack\Samples\SampleApp        /
//                          com\CC2530DB\..\..\..\..\..\COMPONENTS\MAC\INCLUD /
//                          E\" -I "D:\WorkReserve\project\AES_BOOT\CC2531Usb /
//                          Slave\Projects\zstack\Samples\SampleApp           /
//                          com\CC2530DB\..\..\..\..\..\COMPONENTS\MAC\HIGH_L /
//                          EVEL\" -I "D:\WorkReserve\project\AES_BOOT\CC2531 /
//                          UsbSlave\Projects\zstack\Samples\SampleApp        /
//                          com\CC2530DB\..\..\..\..\..\COMPONENTS\MAC\LOW_LE /
//                          VEL\srf04\" -I "D:\WorkReserve\project\AES_BOOT\C /
//                          C2531UsbSlave\Projects\zstack\Samples\SampleApp   /
//                          com\CC2530DB\..\..\..\..\..\COMPONENTS\MAC\LOW_LE /
//                          VEL\srf04\SINGLE_CHIP\" -I                        /
//                          "D:\WorkReserve\project\AES_BOOT\CC2531UsbSlave\P /
//                          rojects\zstack\Samples\SampleApp                  /
//                          com\CC2530DB\..\..\..\..\..\COMPONENTS\usb\librar /
//                          y\" -I "D:\WorkReserve\project\AES_BOOT\CC2531Usb /
//                          Slave\Projects\zstack\Samples\SampleApp           /
//                          com\CC2530DB\..\..\..\..\..\COMPONENTS\usb\class_ /
//                          hid\" -I "D:\WorkReserve\project\AES_BOOT\CC2531U /
//                          sbSlave\Projects\zstack\Samples\SampleApp         /
//                          com\CC2530DB\..\..\..\..\..\COMPONENTS\hal\common /
//                          \" -Ohz --require_prototypes                      /
//    List file          =  D:\WorkReserve\project\AES_BOOT\CC2531UsbSlave\Pr /
//                          ojects\zstack\Samples\SampleApp                   /
//                          com\CC2530DB\CoordinatorEB-Pro\List\usb_hid_repor /
//                          ts.s51                                            /
//                                                                            /
//                                                                            /
///////////////////////////////////////////////////////////////////////////////

        NAME usb_hid_reports

        RTMODEL "__SystemLibrary", "CLib"
        RTMODEL "__calling_convention", "xdata_reentrant"
        RTMODEL "__code_model", "banked"
        RTMODEL "__core", "plain"
        RTMODEL "__data_model", "large"
        RTMODEL "__dptr_size", "16"
        RTMODEL "__extended_stack", "disabled"
        RTMODEL "__location_for_constants", "data"
        RTMODEL "__number_of_dptrs", "1"
        RTMODEL "__rt_version", "1"

        RSEG DOVERLAY:DATA:NOROOT(0)
        RSEG IOVERLAY:IDATA:NOROOT(0)
        RSEG ISTACK:IDATA:NOROOT(0)
        RSEG PSTACK:XDATA:NOROOT(0)
        RSEG XSTACK:XDATA:NOROOT(0)

        EXTERN ?BANKED_ENTER_XDATA
        EXTERN ?BANKED_LEAVE_XDATA
        EXTERN ?BDISPATCH
        EXTERN ?DEALLOC_XSTACK8
        EXTERN ?PUSH_XSTACK_I_THREE
        EXTERN ?V0
        EXTERN __INIT_DATA_I

        PUBLIC ??hidSendKeyboardInReport?relay
        FUNCTION ??hidSendKeyboardInReport?relay,0203H
        PUBLIC ??hidSendMouseInReport?relay
        FUNCTION ??hidSendMouseInReport?relay,0203H
        PUBLIC ??hidUpdateKeyboardInReport?relay
        FUNCTION ??hidUpdateKeyboardInReport?relay,0203H
        PUBLIC ??hidUpdateMouseInReport?relay
        FUNCTION ??hidUpdateMouseInReport?relay,0203H
        PUBLIC hidData
        PUBLIC hidSendKeyboardInReport
        FUNCTION hidSendKeyboardInReport,021203H
        ARGFRAME XSTACK, 0, STACK
        LOCFRAME XSTACK, 14, STACK
        PUBLIC hidSendMouseInReport
        FUNCTION hidSendMouseInReport,021203H
        ARGFRAME XSTACK, 0, STACK
        LOCFRAME XSTACK, 14, STACK
        PUBLIC hidUpdateKeyboardInReport
        FUNCTION hidUpdateKeyboardInReport,021203H
        ARGFRAME XSTACK, 0, STACK
        LOCFRAME XSTACK, 10, STACK
        PUBLIC hidUpdateMouseInReport
        FUNCTION hidUpdateMouseInReport,021203H
        ARGFRAME XSTACK, 0, STACK
        LOCFRAME XSTACK, 10, STACK
        
        CFI Names cfiNames0
        CFI StackFrame CFA_SP SP IDATA
        CFI StackFrame CFA_PSP16 PSP16 XDATA
        CFI StackFrame CFA_XSP16 XSP16 XDATA
        CFI StaticOverlayFrame CFA_IOVERLAY IOVERLAY
        CFI StaticOverlayFrame CFA_DOVERLAY DOVERLAY
        CFI Resource `PSW.CY`:1, `B.BR0`:1, `B.BR1`:1, `B.BR2`:1, `B.BR3`:1
        CFI Resource `B.BR4`:1, `B.BR5`:1, `B.BR6`:1, `B.BR7`:1, `VB.BR8`:1
        CFI Resource `VB.BR9`:1, `VB.BR10`:1, `VB.BR11`:1, `VB.BR12`:1
        CFI Resource `VB.BR13`:1, `VB.BR14`:1, `VB.BR15`:1, VB:8, B:8, A:8
        CFI Resource PSW:8, DPL0:8, DPH0:8, R0:8, R1:8, R2:8, R3:8, R4:8, R5:8
        CFI Resource R6:8, R7:8, V0:8, V1:8, V2:8, V3:8, V4:8, V5:8, V6:8, V7:8
        CFI Resource V8:8, V9:8, V10:8, V11:8, V12:8, V13:8, V14:8, V15:8, SP:8
        CFI Resource PSPH:8, PSPL:8, PSP16:16, XSPH:8, XSPL:8, XSP16:16
        CFI VirtualResource ?RET:24
        CFI Resource ?BRET_EXT:8
        CFI VirtualResource ?RET_HIGH:8, ?RET_LOW:8
        CFI ResourceParts PSP16 PSPH, PSPL
        CFI ResourceParts XSP16 XSPH, XSPL
        CFI ResourceParts ?RET ?BRET_EXT, ?RET_HIGH, ?RET_LOW
        CFI EndNames cfiNames0
        
        CFI Common cfiCommon0 Using cfiNames0
        CFI CodeAlign 1
        CFI DataAlign -1
        CFI ReturnAddress ?RET CODE
        CFI CFA_DOVERLAY Used
        CFI CFA_IOVERLAY Used
        CFI CFA_SP SP+-3
        CFI CFA_PSP16 PSP16+0
        CFI CFA_XSP16 XSP16+0
        CFI `PSW.CY` SameValue
        CFI `B.BR0` SameValue
        CFI `B.BR1` SameValue
        CFI `B.BR2` SameValue
        CFI `B.BR3` SameValue
        CFI `B.BR4` SameValue
        CFI `B.BR5` SameValue
        CFI `B.BR6` SameValue
        CFI `B.BR7` SameValue
        CFI `VB.BR8` SameValue
        CFI `VB.BR9` SameValue
        CFI `VB.BR10` SameValue
        CFI `VB.BR11` SameValue
        CFI `VB.BR12` SameValue
        CFI `VB.BR13` SameValue
        CFI `VB.BR14` SameValue
        CFI `VB.BR15` SameValue
        CFI VB SameValue
        CFI B Undefined
        CFI A Undefined
        CFI PSW SameValue
        CFI DPL0 SameValue
        CFI DPH0 SameValue
        CFI R0 Undefined
        CFI R1 Undefined
        CFI R2 Undefined
        CFI R3 Undefined
        CFI R4 Undefined
        CFI R5 Undefined
        CFI R6 SameValue
        CFI R7 SameValue
        CFI V0 SameValue
        CFI V1 SameValue
        CFI V2 SameValue
        CFI V3 SameValue
        CFI V4 SameValue
        CFI V5 SameValue
        CFI V6 SameValue
        CFI V7 SameValue
        CFI V8 SameValue
        CFI V9 SameValue
        CFI V10 SameValue
        CFI V11 SameValue
        CFI V12 SameValue
        CFI V13 SameValue
        CFI V14 SameValue
        CFI V15 SameValue
        CFI PSPH Undefined
        CFI PSPL Undefined
        CFI XSPH Undefined
        CFI XSPL Undefined
        CFI ?RET Concat
        CFI ?BRET_EXT Frame(CFA_SP, 3)
        CFI ?RET_HIGH Frame(CFA_SP, 2)
        CFI ?RET_LOW Frame(CFA_SP, 1)
        CFI EndCommon cfiCommon0
        
        
        CFI Common cfiCommon1 Using cfiNames0
        CFI CodeAlign 1
        CFI DataAlign -1
        CFI ReturnAddress ?RET CODE
        CFI CFA_DOVERLAY Used
        CFI CFA_IOVERLAY Used
        CFI CFA_SP SP+-2
        CFI CFA_PSP16 PSP16+0
        CFI CFA_XSP16 XSP16+0
        CFI `PSW.CY` SameValue
        CFI `B.BR0` SameValue
        CFI `B.BR1` SameValue
        CFI `B.BR2` SameValue
        CFI `B.BR3` SameValue
        CFI `B.BR4` SameValue
        CFI `B.BR5` SameValue
        CFI `B.BR6` SameValue
        CFI `B.BR7` SameValue
        CFI `VB.BR8` SameValue
        CFI `VB.BR9` SameValue
        CFI `VB.BR10` SameValue
        CFI `VB.BR11` SameValue
        CFI `VB.BR12` SameValue
        CFI `VB.BR13` SameValue
        CFI `VB.BR14` SameValue
        CFI `VB.BR15` SameValue
        CFI VB SameValue
        CFI B SameValue
        CFI A SameValue
        CFI PSW SameValue
        CFI DPL0 SameValue
        CFI DPH0 SameValue
        CFI R0 SameValue
        CFI R1 SameValue
        CFI R2 SameValue
        CFI R3 SameValue
        CFI R4 SameValue
        CFI R5 SameValue
        CFI R6 SameValue
        CFI R7 SameValue
        CFI V0 SameValue
        CFI V1 SameValue
        CFI V2 SameValue
        CFI V3 SameValue
        CFI V4 SameValue
        CFI V5 SameValue
        CFI V6 SameValue
        CFI V7 SameValue
        CFI V8 SameValue
        CFI V9 SameValue
        CFI V10 SameValue
        CFI V11 SameValue
        CFI V12 SameValue
        CFI V13 SameValue
        CFI V14 SameValue
        CFI V15 SameValue
        CFI PSPH Undefined
        CFI PSPL Undefined
        CFI XSPH Undefined
        CFI XSPL Undefined
        CFI ?RET Concat
        CFI ?BRET_EXT SameValue
        CFI ?RET_HIGH Frame(CFA_SP, 2)
        CFI ?RET_LOW Frame(CFA_SP, 1)
        CFI EndCommon cfiCommon1
        
halIntLock          SYMBOL "halIntLock"
usbfwWriteFifo      SYMBOL "usbfwWriteFifo"
halIntUnlock        SYMBOL "halIntUnlock"
??halIntLock?relay  SYMBOL "?relay", halIntLock
??halIntUnlock?relay SYMBOL "?relay", halIntUnlock
??usbfwWriteFifo?relay SYMBOL "?relay", usbfwWriteFifo
hidSendKeyboardInReport SYMBOL "hidSendKeyboardInReport"
??hidSendKeyboardInReport?relay SYMBOL "?relay", hidSendKeyboardInReport
hidSendMouseInReport SYMBOL "hidSendMouseInReport"
??hidSendMouseInReport?relay SYMBOL "?relay", hidSendMouseInReport
hidUpdateKeyboardInReport SYMBOL "hidUpdateKeyboardInReport"
??hidUpdateKeyboardInReport?relay SYMBOL "?relay", hidUpdateKeyboardInReport
hidUpdateMouseInReport SYMBOL "hidUpdateMouseInReport"
??hidUpdateMouseInReport?relay SYMBOL "?relay", hidUpdateMouseInReport

        EXTERN halIntLock
        FUNCTION halIntLock,0202H
        ARGFRAME ISTACK, 0, STACK
        ARGFRAME PSTACK, 0, STACK
        ARGFRAME XSTACK, 11, STACK
        ARGFRAME IOVERLAY, 0, STATIC
        ARGFRAME DOVERLAY, 0, STATIC
        EXTERN usbfwWriteFifo
        FUNCTION usbfwWriteFifo,0202H
        ARGFRAME ISTACK, 0, STACK
        ARGFRAME PSTACK, 0, STACK
        ARGFRAME XSTACK, 14, STACK
        ARGFRAME IOVERLAY, 0, STATIC
        ARGFRAME DOVERLAY, 0, STATIC
        EXTERN halIntUnlock
        FUNCTION halIntUnlock,0202H
        ARGFRAME ISTACK, 0, STACK
        ARGFRAME PSTACK, 0, STACK
        ARGFRAME XSTACK, 11, STACK
        ARGFRAME IOVERLAY, 0, STATIC
        ARGFRAME DOVERLAY, 0, STATIC
        EXTERN ??halIntLock?relay
        FUNCTION ??halIntLock?relay,00H
        EXTERN ??halIntUnlock?relay
        FUNCTION ??halIntUnlock?relay,00H
        EXTERN ??usbfwWriteFifo?relay
        FUNCTION ??usbfwWriteFifo?relay,00H

// D:\WorkReserve\project\AES_BOOT\CC2531UsbSlave\Components\usb\class_hid\usb_hid_reports.c
//    1 /***********************************************************************************
//    2 
//    3   Filename:		usb_hid_reports.h
//    4 
//    5   Description:	Implementation of HID reports
//    6 
//    7 ***********************************************************************************/
//    8 
//    9 #include "usb_firmware_library_headers.h"
//   10 #include "usb_class_requests.h"
//   11 #include "usb_hid_reports.h"
//   12 #include "hal_int.h"
//   13 
//   14 

        RSEG DATA_I:DATA:NOROOT(0)
//   15 HID_DATA __data hidData = {
hidData:
        DATA8
        DS 19
        REQUIRE `?<Initializer for hidData>`
        REQUIRE __INIT_DATA_I
//   16     .keyboardOutReport.ledStatus= 0,
//   17     .keyboardInReport           = {0},
//   18     .mouseInReport              = {0},
//   19     .keyboardProtocol           = HID_PROTOCOL_REPORT,  // Default, as suggested by HID spec
//   20     .mouseProtocol              = HID_PROTOCOL_REPORT,
//   21     .keyboardIdleRate           = HID_IDLE_NOT_SET,     // Use this as init value, until it is set by USB host
//   22     .mouseIdleRate              = HID_IDLE_NOT_SET,
//   23 };
//   24 

        RSEG BANKED_CODE:CODE:NOROOT(0)
//   25 uint8 hidSendKeyboardInReport(void)
hidSendKeyboardInReport:
        CFI Block cfiBlock0 Using cfiCommon0
        CFI Function hidSendKeyboardInReport
        CODE
//   26 {
        FUNCALL hidSendKeyboardInReport, halIntLock
        LOCFRAME ISTACK, 0, STACK
        LOCFRAME PSTACK, 0, STACK
        LOCFRAME XSTACK, 11, STACK
        LOCFRAME IOVERLAY, 0, STATIC
        LOCFRAME DOVERLAY, 0, STATIC
        ARGFRAME ISTACK, 0, STACK
        ARGFRAME PSTACK, 0, STACK
        ARGFRAME XSTACK, 11, STACK
        ARGFRAME IOVERLAY, 0, STATIC
        ARGFRAME DOVERLAY, 0, STATIC
        FUNCALL hidSendKeyboardInReport, usbfwWriteFifo
        LOCFRAME ISTACK, 0, STACK
        LOCFRAME PSTACK, 0, STACK
        LOCFRAME XSTACK, 14, STACK
        LOCFRAME IOVERLAY, 0, STATIC
        LOCFRAME DOVERLAY, 0, STATIC
        ARGFRAME ISTACK, 0, STACK
        ARGFRAME PSTACK, 0, STACK
        ARGFRAME XSTACK, 14, STACK
        ARGFRAME IOVERLAY, 0, STATIC
        ARGFRAME DOVERLAY, 0, STATIC
        FUNCALL hidSendKeyboardInReport, halIntUnlock
        LOCFRAME ISTACK, 0, STACK
        LOCFRAME PSTACK, 0, STACK
        LOCFRAME XSTACK, 11, STACK
        LOCFRAME IOVERLAY, 0, STATIC
        LOCFRAME DOVERLAY, 0, STATIC
        ARGFRAME ISTACK, 0, STACK
        ARGFRAME PSTACK, 0, STACK
        ARGFRAME XSTACK, 11, STACK
        ARGFRAME IOVERLAY, 0, STATIC
        ARGFRAME DOVERLAY, 0, STATIC
        MOV     A,#-0xb
        LCALL   ?BANKED_ENTER_XDATA
        CFI DPH0 load(1, XDATA, add(CFA_XSP16, literal(-1)))
        CFI DPL0 load(1, XDATA, add(CFA_XSP16, literal(-2)))
        CFI ?BRET_EXT load(1, XDATA, add(CFA_XSP16, literal(-3)))
        CFI ?RET_HIGH load(1, XDATA, add(CFA_XSP16, literal(-4)))
        CFI ?RET_LOW load(1, XDATA, add(CFA_XSP16, literal(-5)))
        CFI R7 load(1, XDATA, add(CFA_XSP16, literal(-6)))
        CFI V2 load(1, XDATA, add(CFA_XSP16, literal(-7)))
        CFI V1 load(1, XDATA, add(CFA_XSP16, literal(-8)))
        CFI V0 load(1, XDATA, add(CFA_XSP16, literal(-9)))
        CFI VB load(1, XDATA, add(CFA_XSP16, literal(-10)))
        CFI R6 load(1, XDATA, add(CFA_XSP16, literal(-11)))
        CFI CFA_SP SP+0
        CFI CFA_XSP16 add(XSP16, 11)
        ; Saved register size: 11
        ; Auto size: 0
//   27     uint8 result;
//   28     uint8 ea;
//   29 
//   30     result= FALSE;
        LCALL   ?Subroutine2 & 0xFFFF
//   31     ea = halIntLock();
//   32 
//   33     USBFW_SELECT_ENDPOINT(1);
??CrossCallReturnLabel_0:
        MOV     A,#0x1
        MOVX    @DPTR,A
//   34     if (!(USBCSIL & USBCSIL_INPKT_RDY)) {
        MOV     DPTR,#0x6211
        MOVX    A,@DPTR
        MOV     C,0xE0 /* A   */.0
        JC      ??hidSendKeyboardInReport_0
//   35         // Send the report
//   36         usbfwWriteFifo(&USBF1, sizeof(KEYBOARD_IN_REPORT), &hidData.keyboardInReport);
        ; Setup parameters for call to function usbfwWriteFifo
        MOV     ?V0 + 0,#hidData + 1
        MOV     ?V0 + 1,R7
        MOV     ?V0 + 2,#0x1
        MOV     R0,#?V0 + 0
        LCALL   ?PUSH_XSTACK_I_THREE
        CFI CFA_XSP16 add(XSP16, 14)
        MOV     R1,#0x8
        MOV     R2,#0x22
        MOV     R3,#0x62
        LCALL   ??usbfwWriteFifo?relay
        MOV     A,#0x3
        LCALL   ?DEALLOC_XSTACK8
        CFI CFA_XSP16 add(XSP16, 11)
//   37         USBCSIL |= USBCSIL_INPKT_RDY;
        MOV     DPTR,#0x6211
        MOVX    A,@DPTR
        SETB    0xE0 /* A   */.0
        MOVX    @DPTR,A
//   38         result = TRUE;
        INC     R7
        CFI EndBlock cfiBlock0
//   39     }
//   40     halIntUnlock(ea);
??hidSendKeyboardInReport_0:
        ; Setup parameters for call to function halIntUnlock
        REQUIRE ?Subroutine0
        ; // Fall through to label ?Subroutine0
//   41 
//   42     return result;
//   43 }

        RSEG BANKED_CODE:CODE:NOROOT(0)
?Subroutine0:
        CFI Block cfiBlock1 Using cfiCommon0
        CFI NoFunction
        CFI CFA_SP SP+0
        CFI CFA_XSP16 add(XSP16, 11)
        CFI VB load(1, XDATA, add(CFA_XSP16, literal(-10)))
        CFI DPL0 load(1, XDATA, add(CFA_XSP16, literal(-2)))
        CFI DPH0 load(1, XDATA, add(CFA_XSP16, literal(-1)))
        CFI R6 load(1, XDATA, add(CFA_XSP16, literal(-11)))
        CFI R7 load(1, XDATA, add(CFA_XSP16, literal(-6)))
        CFI V0 load(1, XDATA, add(CFA_XSP16, literal(-9)))
        CFI V1 load(1, XDATA, add(CFA_XSP16, literal(-8)))
        CFI V2 load(1, XDATA, add(CFA_XSP16, literal(-7)))
        CFI ?BRET_EXT load(1, XDATA, add(CFA_XSP16, literal(-3)))
        CFI ?RET_HIGH load(1, XDATA, add(CFA_XSP16, literal(-4)))
        CFI ?RET_LOW load(1, XDATA, add(CFA_XSP16, literal(-5)))
        MOV     ?V0 + 0,R6
        MOV     R2,?V0 + 0
        MOV     R3,#0x0
        LCALL   ??halIntUnlock?relay
        MOV     A,R7
        MOV     R1,A
        MOV     R7,#0x3
        LJMP    ?BANKED_LEAVE_XDATA
        CFI EndBlock cfiBlock1
//   44 
//   45 

        RSEG BANKED_CODE:CODE:NOROOT(0)
//   46 uint8 hidSendMouseInReport(void)
hidSendMouseInReport:
        CFI Block cfiBlock2 Using cfiCommon0
        CFI Function hidSendMouseInReport
        CODE
//   47 {
        FUNCALL hidSendMouseInReport, halIntLock
        LOCFRAME ISTACK, 0, STACK
        LOCFRAME PSTACK, 0, STACK
        LOCFRAME XSTACK, 11, STACK
        LOCFRAME IOVERLAY, 0, STATIC
        LOCFRAME DOVERLAY, 0, STATIC
        ARGFRAME ISTACK, 0, STACK
        ARGFRAME PSTACK, 0, STACK
        ARGFRAME XSTACK, 11, STACK
        ARGFRAME IOVERLAY, 0, STATIC
        ARGFRAME DOVERLAY, 0, STATIC
        FUNCALL hidSendMouseInReport, usbfwWriteFifo
        LOCFRAME ISTACK, 0, STACK
        LOCFRAME PSTACK, 0, STACK
        LOCFRAME XSTACK, 14, STACK
        LOCFRAME IOVERLAY, 0, STATIC
        LOCFRAME DOVERLAY, 0, STATIC
        ARGFRAME ISTACK, 0, STACK
        ARGFRAME PSTACK, 0, STACK
        ARGFRAME XSTACK, 14, STACK
        ARGFRAME IOVERLAY, 0, STATIC
        ARGFRAME DOVERLAY, 0, STATIC
        FUNCALL hidSendMouseInReport, halIntUnlock
        LOCFRAME ISTACK, 0, STACK
        LOCFRAME PSTACK, 0, STACK
        LOCFRAME XSTACK, 11, STACK
        LOCFRAME IOVERLAY, 0, STATIC
        LOCFRAME DOVERLAY, 0, STATIC
        ARGFRAME ISTACK, 0, STACK
        ARGFRAME PSTACK, 0, STACK
        ARGFRAME XSTACK, 11, STACK
        ARGFRAME IOVERLAY, 0, STATIC
        ARGFRAME DOVERLAY, 0, STATIC
        MOV     A,#-0xb
        LCALL   ?BANKED_ENTER_XDATA
        CFI DPH0 load(1, XDATA, add(CFA_XSP16, literal(-1)))
        CFI DPL0 load(1, XDATA, add(CFA_XSP16, literal(-2)))
        CFI ?BRET_EXT load(1, XDATA, add(CFA_XSP16, literal(-3)))
        CFI ?RET_HIGH load(1, XDATA, add(CFA_XSP16, literal(-4)))
        CFI ?RET_LOW load(1, XDATA, add(CFA_XSP16, literal(-5)))
        CFI R7 load(1, XDATA, add(CFA_XSP16, literal(-6)))
        CFI V2 load(1, XDATA, add(CFA_XSP16, literal(-7)))
        CFI V1 load(1, XDATA, add(CFA_XSP16, literal(-8)))
        CFI V0 load(1, XDATA, add(CFA_XSP16, literal(-9)))
        CFI VB load(1, XDATA, add(CFA_XSP16, literal(-10)))
        CFI R6 load(1, XDATA, add(CFA_XSP16, literal(-11)))
        CFI CFA_SP SP+0
        CFI CFA_XSP16 add(XSP16, 11)
        ; Saved register size: 11
        ; Auto size: 0
//   48     uint8 result;
//   49     uint8 ea;
//   50 
//   51     result= FALSE;
        LCALL   ?Subroutine2 & 0xFFFF
//   52     ea = halIntLock();
//   53 
//   54     USBFW_SELECT_ENDPOINT(2);
??CrossCallReturnLabel_1:
        MOV     A,#0x2
        MOVX    @DPTR,A
//   55     if (!(USBCSIL & USBCSIL_INPKT_RDY)) {
        MOV     DPTR,#0x6211
        MOVX    A,@DPTR
        MOV     C,0xE0 /* A   */.0
        JC      ??hidSendMouseInReport_0
//   56 
//   57         // Send the report
//   58         usbfwWriteFifo(&USBF2, sizeof(MOUSE_IN_REPORT), &hidData.mouseInReport);
        ; Setup parameters for call to function usbfwWriteFifo
        MOV     ?V0 + 0,#hidData + 9
        MOV     ?V0 + 1,R7
        MOV     ?V0 + 2,#0x1
        MOV     R0,#?V0 + 0
        LCALL   ?PUSH_XSTACK_I_THREE
        CFI CFA_XSP16 add(XSP16, 14)
        MOV     R1,#0x4
        MOV     R2,#0x24
        MOV     R3,#0x62
        LCALL   ??usbfwWriteFifo?relay
        MOV     A,#0x3
        LCALL   ?DEALLOC_XSTACK8
        CFI CFA_XSP16 add(XSP16, 11)
//   59         USBCSIL |= USBCSIL_INPKT_RDY;
        MOV     DPTR,#0x6211
        MOVX    A,@DPTR
        SETB    0xE0 /* A   */.0
        MOVX    @DPTR,A
//   60         result = TRUE;
        INC     R7
//   61     }
//   62     halIntUnlock(ea);
??hidSendMouseInReport_0:
        ; Setup parameters for call to function halIntUnlock
        SJMP    ?Subroutine0
        CFI EndBlock cfiBlock2
//   63 
//   64     return result;
//   65 }

        RSEG BANKED_CODE:CODE:NOROOT(0)
?Subroutine2:
        CFI Block cfiCond3 Using cfiCommon0
        CFI NoFunction
        CFI Conditional ??CrossCallReturnLabel_0
        CFI R6 load(1, XDATA, add(CFA_XSP16, literal(-11)))
        CFI VB load(1, XDATA, add(CFA_XSP16, literal(-10)))
        CFI V0 load(1, XDATA, add(CFA_XSP16, literal(-9)))
        CFI V1 load(1, XDATA, add(CFA_XSP16, literal(-8)))
        CFI V2 load(1, XDATA, add(CFA_XSP16, literal(-7)))
        CFI R7 load(1, XDATA, add(CFA_XSP16, literal(-6)))
        CFI ?RET_LOW load(1, XDATA, add(CFA_XSP16, literal(-5)))
        CFI ?RET_HIGH load(1, XDATA, add(CFA_XSP16, literal(-4)))
        CFI ?BRET_EXT load(1, XDATA, add(CFA_XSP16, literal(-3)))
        CFI DPL0 load(1, XDATA, add(CFA_XSP16, literal(-2)))
        CFI DPH0 load(1, XDATA, add(CFA_XSP16, literal(-1)))
        CFI CFA_SP SP+0
        CFI CFA_XSP16 add(XSP16, 11)
        CFI Block cfiCond4 Using cfiCommon0
        CFI (cfiCond4) NoFunction
        CFI (cfiCond4) Conditional ??CrossCallReturnLabel_1
        CFI (cfiCond4) R6 load(1, XDATA, add(CFA_XSP16, literal(-11)))
        CFI (cfiCond4) VB load(1, XDATA, add(CFA_XSP16, literal(-10)))
        CFI (cfiCond4) V0 load(1, XDATA, add(CFA_XSP16, literal(-9)))
        CFI (cfiCond4) V1 load(1, XDATA, add(CFA_XSP16, literal(-8)))
        CFI (cfiCond4) V2 load(1, XDATA, add(CFA_XSP16, literal(-7)))
        CFI (cfiCond4) R7 load(1, XDATA, add(CFA_XSP16, literal(-6)))
        CFI (cfiCond4) ?RET_LOW load(1, XDATA, add(CFA_XSP16, literal(-5)))
        CFI (cfiCond4) ?RET_HIGH load(1, XDATA, add(CFA_XSP16, literal(-4)))
        CFI (cfiCond4) ?BRET_EXT load(1, XDATA, add(CFA_XSP16, literal(-3)))
        CFI (cfiCond4) DPL0 load(1, XDATA, add(CFA_XSP16, literal(-2)))
        CFI (cfiCond4) DPH0 load(1, XDATA, add(CFA_XSP16, literal(-1)))
        CFI (cfiCond4) CFA_SP SP+0
        CFI (cfiCond4) CFA_XSP16 add(XSP16, 11)
        CFI Block cfiPicker5 Using cfiCommon1
        CFI (cfiPicker5) NoFunction
        CFI (cfiPicker5) Picker
        MOV     R7,#0x0
        ; Setup parameters for call to function halIntLock
        ; Setup parameters for call to function halIntLock
        LCALL   ??halIntLock?relay
        MOV     A,R2
        MOV     R6,A
        MOV     DPTR,#0x620e
        RET
        CFI EndBlock cfiCond3
        CFI EndBlock cfiCond4
        CFI EndBlock cfiPicker5
//   66 
//   67 
//   68 
//   69 

        RSEG BANKED_CODE:CODE:NOROOT(0)
//   70 void hidUpdateKeyboardInReport(KEYBOARD_IN_REPORT __data *pNewReport)
hidUpdateKeyboardInReport:
        CFI Block cfiBlock6 Using cfiCommon0
        CFI Function hidUpdateKeyboardInReport
        CODE
//   71 {
        FUNCALL hidUpdateKeyboardInReport, halIntLock
        LOCFRAME ISTACK, 0, STACK
        LOCFRAME PSTACK, 0, STACK
        LOCFRAME XSTACK, 10, STACK
        LOCFRAME IOVERLAY, 0, STATIC
        LOCFRAME DOVERLAY, 0, STATIC
        ARGFRAME ISTACK, 0, STACK
        ARGFRAME PSTACK, 0, STACK
        ARGFRAME XSTACK, 10, STACK
        ARGFRAME IOVERLAY, 0, STATIC
        ARGFRAME DOVERLAY, 0, STATIC
        FUNCALL hidUpdateKeyboardInReport, halIntUnlock
        LOCFRAME ISTACK, 0, STACK
        LOCFRAME PSTACK, 0, STACK
        LOCFRAME XSTACK, 10, STACK
        LOCFRAME IOVERLAY, 0, STATIC
        LOCFRAME DOVERLAY, 0, STATIC
        ARGFRAME ISTACK, 0, STACK
        ARGFRAME PSTACK, 0, STACK
        ARGFRAME XSTACK, 10, STACK
        ARGFRAME IOVERLAY, 0, STATIC
        ARGFRAME DOVERLAY, 0, STATIC
        MOV     A,#-0xa
        LCALL   ?BANKED_ENTER_XDATA
        CFI DPH0 load(1, XDATA, add(CFA_XSP16, literal(-1)))
        CFI DPL0 load(1, XDATA, add(CFA_XSP16, literal(-2)))
        CFI ?BRET_EXT load(1, XDATA, add(CFA_XSP16, literal(-3)))
        CFI ?RET_HIGH load(1, XDATA, add(CFA_XSP16, literal(-4)))
        CFI ?RET_LOW load(1, XDATA, add(CFA_XSP16, literal(-5)))
        CFI R7 load(1, XDATA, add(CFA_XSP16, literal(-6)))
        CFI V1 load(1, XDATA, add(CFA_XSP16, literal(-7)))
        CFI V0 load(1, XDATA, add(CFA_XSP16, literal(-8)))
        CFI VB load(1, XDATA, add(CFA_XSP16, literal(-9)))
        CFI R6 load(1, XDATA, add(CFA_XSP16, literal(-10)))
        CFI CFA_SP SP+0
        CFI CFA_XSP16 add(XSP16, 10)
        ; Saved register size: 10
        ; Auto size: 0
        MOV     A,R1
        MOV     R6,A
//   72     uint8 ea;
//   73 
//   74     ea = halIntLock();
        ; Setup parameters for call to function halIntLock
        LCALL   ??halIntLock?relay
//   75     hidData.keyboardInReport.modifiers = pNewReport->modifiers;
        MOV     A,R6
        MOV     R0,A
        MOV     A,@R0
        MOV     hidData + 1,A
//   76     hidData.keyboardInReport.pKeyCodes[0] = pNewReport->pKeyCodes[0];
        INC     R0
        INC     R0
        MOV     A,@R0
        MOV     hidData + 3,A
//   77     hidData.keyboardInReport.pKeyCodes[1] = pNewReport->pKeyCodes[1];
        INC     R0
        MOV     A,@R0
        MOV     hidData + 4,A
//   78     hidData.keyboardInReport.pKeyCodes[2] = pNewReport->pKeyCodes[2];
        INC     R0
        MOV     A,@R0
        MOV     hidData + 5,A
//   79     hidData.keyboardInReport.pKeyCodes[3] = pNewReport->pKeyCodes[3];
        INC     R0
        MOV     A,@R0
        MOV     hidData + 6,A
//   80     hidData.keyboardInReport.pKeyCodes[4] = pNewReport->pKeyCodes[4];
        INC     R0
        MOV     A,@R0
        MOV     hidData + 7,A
//   81     hidData.keyboardInReport.pKeyCodes[5] = pNewReport->pKeyCodes[5];
        INC     R0
        MOV     A,@R0
        MOV     hidData + 8,A
        CFI EndBlock cfiBlock6
//   82     halIntUnlock(ea);
        ; Setup parameters for call to function halIntUnlock
        REQUIRE ?Subroutine1
        ; // Fall through to label ?Subroutine1
//   83 }

        RSEG BANKED_CODE:CODE:NOROOT(0)
?Subroutine1:
        CFI Block cfiBlock7 Using cfiCommon0
        CFI NoFunction
        CFI CFA_SP SP+0
        CFI CFA_XSP16 add(XSP16, 10)
        CFI VB load(1, XDATA, add(CFA_XSP16, literal(-9)))
        CFI DPL0 load(1, XDATA, add(CFA_XSP16, literal(-2)))
        CFI DPH0 load(1, XDATA, add(CFA_XSP16, literal(-1)))
        CFI R6 load(1, XDATA, add(CFA_XSP16, literal(-10)))
        CFI R7 load(1, XDATA, add(CFA_XSP16, literal(-6)))
        CFI V0 load(1, XDATA, add(CFA_XSP16, literal(-8)))
        CFI V1 load(1, XDATA, add(CFA_XSP16, literal(-7)))
        CFI ?BRET_EXT load(1, XDATA, add(CFA_XSP16, literal(-3)))
        CFI ?RET_HIGH load(1, XDATA, add(CFA_XSP16, literal(-4)))
        CFI ?RET_LOW load(1, XDATA, add(CFA_XSP16, literal(-5)))
        MOV     R3,#0x0
        LCALL   ??halIntUnlock?relay
        MOV     R7,#0x2
        LJMP    ?BANKED_LEAVE_XDATA
        CFI EndBlock cfiBlock7
//   84 
//   85 
//   86 
//   87 

        RSEG BANKED_CODE:CODE:NOROOT(0)
//   88 void hidUpdateMouseInReport(MOUSE_IN_REPORT __data *pNewReport)
hidUpdateMouseInReport:
        CFI Block cfiBlock8 Using cfiCommon0
        CFI Function hidUpdateMouseInReport
        CODE
//   89 {
        FUNCALL hidUpdateMouseInReport, halIntLock
        LOCFRAME ISTACK, 0, STACK
        LOCFRAME PSTACK, 0, STACK
        LOCFRAME XSTACK, 10, STACK
        LOCFRAME IOVERLAY, 0, STATIC
        LOCFRAME DOVERLAY, 0, STATIC
        ARGFRAME ISTACK, 0, STACK
        ARGFRAME PSTACK, 0, STACK
        ARGFRAME XSTACK, 10, STACK
        ARGFRAME IOVERLAY, 0, STATIC
        ARGFRAME DOVERLAY, 0, STATIC
        FUNCALL hidUpdateMouseInReport, halIntUnlock
        LOCFRAME ISTACK, 0, STACK
        LOCFRAME PSTACK, 0, STACK
        LOCFRAME XSTACK, 10, STACK
        LOCFRAME IOVERLAY, 0, STATIC
        LOCFRAME DOVERLAY, 0, STATIC
        ARGFRAME ISTACK, 0, STACK
        ARGFRAME PSTACK, 0, STACK
        ARGFRAME XSTACK, 10, STACK
        ARGFRAME IOVERLAY, 0, STATIC
        ARGFRAME DOVERLAY, 0, STATIC
        MOV     A,#-0xa
        LCALL   ?BANKED_ENTER_XDATA
        CFI DPH0 load(1, XDATA, add(CFA_XSP16, literal(-1)))
        CFI DPL0 load(1, XDATA, add(CFA_XSP16, literal(-2)))
        CFI ?BRET_EXT load(1, XDATA, add(CFA_XSP16, literal(-3)))
        CFI ?RET_HIGH load(1, XDATA, add(CFA_XSP16, literal(-4)))
        CFI ?RET_LOW load(1, XDATA, add(CFA_XSP16, literal(-5)))
        CFI R7 load(1, XDATA, add(CFA_XSP16, literal(-6)))
        CFI V1 load(1, XDATA, add(CFA_XSP16, literal(-7)))
        CFI V0 load(1, XDATA, add(CFA_XSP16, literal(-8)))
        CFI VB load(1, XDATA, add(CFA_XSP16, literal(-9)))
        CFI R6 load(1, XDATA, add(CFA_XSP16, literal(-10)))
        CFI CFA_SP SP+0
        CFI CFA_XSP16 add(XSP16, 10)
        ; Saved register size: 10
        ; Auto size: 0
        MOV     A,R1
        MOV     R6,A
//   90     uint8 ea;
//   91 
//   92     ea = halIntLock();
        ; Setup parameters for call to function halIntLock
        LCALL   ??halIntLock?relay
//   93 
//   94     // Buttons are updated
//   95     hidData.mouseInReport.buttons = pNewReport->buttons;
        MOV     A,R6
        MOV     R0,A
        MOV     A,@R0
        MOV     hidData + 9,A
//   96 
//   97     // Movements are updated
//   98     hidData.mouseInReport.dX = pNewReport->dX;
        INC     R0
        MOV     A,@R0
        MOV     hidData + 10,A
//   99     hidData.mouseInReport.dY = pNewReport->dY;
        INC     R0
        MOV     A,@R0
        MOV     hidData + 11,A
//  100     hidData.mouseInReport.dZ = pNewReport->dZ;
        INC     R0
        MOV     A,@R0
        MOV     hidData + 12,A
//  101     halIntUnlock(ea);
        ; Setup parameters for call to function halIntUnlock
        SJMP    ?Subroutine1
        CFI EndBlock cfiBlock8
//  102 }

        RSEG DATA_ID:CODE:NOROOT(0)
`?<Initializer for hidData>`:
        DATA8
        DB 0
        DB 0
        DB 0, 0, 0, 0, 0, 0, 0
        DB 0
        DB 0, 0, 0
        DB 1
        DB 1
        DATA16
        DW 255
        DW 255

        RSEG BANK_RELAYS:CODE:REORDER:NOROOT(0)
??hidSendKeyboardInReport?relay:
        LCALL   ?BDISPATCH
        DATA
        DC24    hidSendKeyboardInReport

        RSEG BANK_RELAYS:CODE:REORDER:NOROOT(0)
??hidSendMouseInReport?relay:
        LCALL   ?BDISPATCH
        DATA
        DC24    hidSendMouseInReport

        RSEG BANK_RELAYS:CODE:REORDER:NOROOT(0)
??hidUpdateKeyboardInReport?relay:
        LCALL   ?BDISPATCH
        DATA
        DC24    hidUpdateKeyboardInReport

        RSEG BANK_RELAYS:CODE:REORDER:NOROOT(0)
??hidUpdateMouseInReport?relay:
        LCALL   ?BDISPATCH
        DATA
        DC24    hidUpdateMouseInReport

        END
//  103 /*
//  104 +------------------------------------------------------------------------------
//  105 |  Copyright 2004-2007 Texas Instruments Incorporated. All rights reserved.
//  106 |
//  107 |  IMPORTANT: Your use of this Software is limited to those specific rights
//  108 |  granted under the terms of a software license agreement between the user who
//  109 |  downloaded the software, his/her employer (which must be your employer) and
//  110 |  Texas Instruments Incorporated (the "License"). You may not use this Software
//  111 |  unless you agree to abide by the terms of the License. The License limits
//  112 |  your use, and you acknowledge, that the Software may not be modified, copied
//  113 |  or distributed unless embedded on a Texas Instruments microcontroller or used
//  114 |  solely and exclusively in conjunction with a Texas Instruments radio
//  115 |  frequency transceiver, which is integrated into your product. Other than for
//  116 |  the foregoing purpose, you may not use, reproduce, copy, prepare derivative
//  117 |  works of, modify, distribute, perform, display or sell this Software and/or
//  118 |  its documentation for any purpose.
//  119 |
//  120 |  YOU FURTHER ACKNOWLEDGE AND AGREE THAT THE SOFTWARE AND DOCUMENTATION ARE
//  121 |  PROVIDED “AS IS” WITHOUT WARRANTY OF ANY KIND, EITHER EXPRESS OR IMPLIED,
//  122 |  INCLUDING WITHOUT LIMITATION, ANY WARRANTY OF MERCHANTABILITY, TITLE,
//  123 |  NON-INFRINGEMENT AND FITNESS FOR A PARTICULAR PURPOSE. IN NO EVENT SHALL
//  124 |  TEXAS INSTRUMENTS OR ITS LICENSORS BE LIABLE OR OBLIGATED UNDER CONTRACT,
//  125 |  NEGLIGENCE, STRICT LIABILITY, CONTRIBUTION, BREACH OF WARRANTY, OR OTHER
//  126 |  LEGAL EQUITABLE THEORY ANY DIRECT OR INDIRECT DAMAGES OR EXPENSES INCLUDING
//  127 |  BUT NOT LIMITED TO ANY INCIDENTAL, SPECIAL, INDIRECT, PUNITIVE OR
//  128 |  CONSEQUENTIAL DAMAGES, LOST PROFITS OR LOST DATA, COST OF PROCUREMENT OF
//  129 |  SUBSTITUTE GOODS, TECHNOLOGY, SERVICES, OR ANY CLAIMS BY THIRD PARTIES
//  130 |  (INCLUDING BUT NOT LIMITED TO ANY DEFENSE THEREOF), OR OTHER SIMILAR COSTS.
//  131 |
//  132 |  Should you have any questions regarding your right to use this Software,
//  133 |  contact Texas Instruments Incorporated at www.TI.com.
//  134 |
//  135 +------------------------------------------------------------------------------
//  136 */
//  137 
// 
// 216 bytes in segment BANKED_CODE
//  24 bytes in segment BANK_RELAYS
//  19 bytes in segment DATA_I
//  19 bytes in segment DATA_ID
// 
// 259 bytes of CODE memory
//  19 bytes of DATA memory
//
//Errors: none
//Warnings: none
