###############################################################################
#                                                                             #
# IAR C/C++ Compiler V8.10.4.40412/W32 for 8051         19/Jun/2016  18:16:16 #
# Copyright 2004-2011 IAR Systems AB.                                         #
#                                                                             #
#    Core               =  plain                                              #
#    Code model         =  banked                                             #
#    Data model         =  large                                              #
#    Calling convention =  xdata reentrant                                    #
#    Constant location  =  data_rom                                           #
#    Dptr setup         =  1,16                                               #
#    Source file        =  C:\Users\freeman\Documents\work\SN\module\Componen #
#                          ts\usb\library\cc2531\usb_interrupt.c              #
#    Command line       =  -f "C:\Users\freeman\Documents\work\SN\module\Proj #
#                          ects\zstack\Samples\SampleApp                      #
#                          com\CC2530DB\..\..\..\Tools\CC2530DB\f8wConfig.cfg #
#                          " (-DSECURE=0 -DZG_SECURE_DYNAMIC=0 -DREFLECTOR    #
#                          -DDEFAULT_CHANLIST=0x00000800                      #
#                          -DZDAPP_CONFIG_PAN_ID=0xFFF0                       #
#                          -DNWK_START_DELAY=100 -DEXTENDED_JOINING_RANDOM_MA #
#                          SK=0x007F -DBEACON_REQUEST_DELAY=100               #
#                          -DBEACON_REQ_DELAY_MASK=0x00FF                     #
#                          -DROUTE_EXPIRY_TIME=30 -DAPSC_ACK_WAIT_DURATION_PO #
#                          LLED=3000 -DNWK_INDIRECT_MSG_TIMEOUT=7             #
#                          -DMAX_RREQ_ENTRIES=8 -DAPSC_MAX_FRAME_RETRIES=3    #
#                          -DNWK_MAX_DATA_RETRIES=2                           #
#                          -DMAX_POLL_FAILURE_RETRIES=2 -DMAX_BCAST=9         #
#                          -DAPS_MAX_GROUPS=16 -DMAX_RTG_ENTRIES=40           #
#                          -DNWK_MAX_BINDING_ENTRIES=4                        #
#                          -DMAX_BINDING_CLUSTER_IDS=4 "-DDEFAULT_KEY={0x01,  #
#                          0x03, 0x05, 0x07, 0x09, 0x0B, 0x0D, 0x0F, 0x00,    #
#                          0x02, 0x04, 0x06, 0x08, 0x0A, 0x0C, 0x0D}"         #
#                          -DMAC_MAX_FRAME_SIZE=116 "-DCONST=const __code"    #
#                          -DGENERIC=__generic -DRFD_RCVC_ALWAYS_ON=FALSE     #
#                          -DPOLL_RATE=1000 -DQUEUED_POLL_RATE=100            #
#                          -DRESPONSE_POLL_RATE=100 -DREJOIN_POLL_RATE=440)   #
#                          C:\Users\freeman\Documents\work\SN\module\Componen #
#                          ts\usb\library\cc2531\usb_interrupt.c -D           #
#                          ZIGBEEPRO -D ZTOOL_P1 -lC                          #
#                          "C:\Users\freeman\Documents\work\SN\module\Project #
#                          s\zstack\Samples\SampleApp                         #
#                          com\CC2530DB\CoordinatorEB-Pro\List\" -lA          #
#                          "C:\Users\freeman\Documents\work\SN\module\Project #
#                          s\zstack\Samples\SampleApp                         #
#                          com\CC2530DB\CoordinatorEB-Pro\List\"              #
#                          --diag_suppress Pe001,Pa010 -o                     #
#                          "C:\Users\freeman\Documents\work\SN\module\Project #
#                          s\zstack\Samples\SampleApp                         #
#                          com\CC2530DB\CoordinatorEB-Pro\Obj\" -e --debug    #
#                          --core=plain --dptr=16,1 --data_model=large        #
#                          --code_model=banked --calling_convention=xdata_ree #
#                          ntrant --place_constants=data_rom                  #
#                          --nr_virtual_regs 16 -I "C:\Users\freeman\Document #
#                          s\work\SN\module\Projects\zstack\Samples\SampleApp #
#                           com\CC2530DB\" -I "C:\Users\freeman\Documents\wor #
#                          k\SN\module\Projects\zstack\Samples\SampleApp      #
#                          com\CC2530DB\..\SOURCE\" -I                        #
#                          "C:\Users\freeman\Documents\work\SN\module\Project #
#                          s\zstack\Samples\SampleApp                         #
#                          com\CC2530DB\..\..\..\ZMAIN\TI2530DB\" -I          #
#                          "C:\Users\freeman\Documents\work\SN\module\Project #
#                          s\zstack\Samples\SampleApp                         #
#                          com\CC2530DB\..\..\..\..\..\COMPONENTS\MT\" -I     #
#                          "C:\Users\freeman\Documents\work\SN\module\Project #
#                          s\zstack\Samples\SampleApp                         #
#                          com\CC2530DB\..\..\..\..\..\COMPONENTS\HAL\INCLUDE #
#                          \" -I "C:\Users\freeman\Documents\work\SN\module\P #
#                          rojects\zstack\Samples\SampleApp                   #
#                          com\CC2530DB\..\..\..\..\..\COMPONENTS\HAL\TARGET\ #
#                          CC2530EB\" -I "C:\Users\freeman\Documents\work\SN\ #
#                          module\Projects\zstack\Samples\SampleApp           #
#                          com\CC2530DB\..\..\..\..\..\COMPONENTS\OSAL\MCU\CC #
#                          SOC\" -I "C:\Users\freeman\Documents\work\SN\modul #
#                          e\Projects\zstack\Samples\SampleApp                #
#                          com\CC2530DB\..\..\..\..\..\COMPONENTS\OSAL\INCLUD #
#                          E\" -I "C:\Users\freeman\Documents\work\SN\module\ #
#                          Projects\zstack\Samples\SampleApp                  #
#                          com\CC2530DB\..\..\..\..\..\COMPONENTS\STACK\AF\"  #
#                          -I "C:\Users\freeman\Documents\work\SN\module\Proj #
#                          ects\zstack\Samples\SampleApp                      #
#                          com\CC2530DB\..\..\..\..\..\COMPONENTS\STACK\NWK\" #
#                           -I "C:\Users\freeman\Documents\work\SN\module\Pro #
#                          jects\zstack\Samples\SampleApp                     #
#                          com\CC2530DB\..\..\..\..\..\COMPONENTS\STACK\SEC\" #
#                           -I "C:\Users\freeman\Documents\work\SN\module\Pro #
#                          jects\zstack\Samples\SampleApp                     #
#                          com\CC2530DB\..\..\..\..\..\COMPONENTS\STACK\SAPI\ #
#                          " -I "C:\Users\freeman\Documents\work\SN\module\Pr #
#                          ojects\zstack\Samples\SampleApp                    #
#                          com\CC2530DB\..\..\..\..\..\COMPONENTS\STACK\SYS\" #
#                           -I "C:\Users\freeman\Documents\work\SN\module\Pro #
#                          jects\zstack\Samples\SampleApp                     #
#                          com\CC2530DB\..\..\..\..\..\COMPONENTS\STACK\ZDO\" #
#                           -I "C:\Users\freeman\Documents\work\SN\module\Pro #
#                          jects\zstack\Samples\SampleApp                     #
#                          com\CC2530DB\..\..\..\..\..\COMPONENTS\ZMAC\F8W\"  #
#                          -I "C:\Users\freeman\Documents\work\SN\module\Proj #
#                          ects\zstack\Samples\SampleApp                      #
#                          com\CC2530DB\..\..\..\..\..\COMPONENTS\ZMAC\" -I   #
#                          "C:\Users\freeman\Documents\work\SN\module\Project #
#                          s\zstack\Samples\SampleApp                         #
#                          com\CC2530DB\..\..\..\..\..\COMPONENTS\SERVICES\SA #
#                          DDR\" -I "C:\Users\freeman\Documents\work\SN\modul #
#                          e\Projects\zstack\Samples\SampleApp                #
#                          com\CC2530DB\..\..\..\..\..\COMPONENTS\SERVICES\SD #
#                          ATA\" -I "C:\Users\freeman\Documents\work\SN\modul #
#                          e\Projects\zstack\Samples\SampleApp                #
#                          com\CC2530DB\..\..\..\..\..\COMPONENTS\MAC\INCLUDE #
#                          \" -I "C:\Users\freeman\Documents\work\SN\module\P #
#                          rojects\zstack\Samples\SampleApp                   #
#                          com\CC2530DB\..\..\..\..\..\COMPONENTS\MAC\HIGH_LE #
#                          VEL\" -I "C:\Users\freeman\Documents\work\SN\modul #
#                          e\Projects\zstack\Samples\SampleApp                #
#                          com\CC2530DB\..\..\..\..\..\COMPONENTS\MAC\LOW_LEV #
#                          EL\srf04\" -I "C:\Users\freeman\Documents\work\SN\ #
#                          module\Projects\zstack\Samples\SampleApp           #
#                          com\CC2530DB\..\..\..\..\..\COMPONENTS\MAC\LOW_LEV #
#                          EL\srf04\SINGLE_CHIP\" -I                          #
#                          "C:\Users\freeman\Documents\work\SN\module\Project #
#                          s\zstack\Samples\SampleApp                         #
#                          com\CC2530DB\..\..\..\..\..\COMPONENTS\usb\library #
#                          \" -I "C:\Users\freeman\Documents\work\SN\module\P #
#                          rojects\zstack\Samples\SampleApp                   #
#                          com\CC2530DB\..\..\..\..\..\COMPONENTS\usb\class_h #
#                          id\" -I "C:\Users\freeman\Documents\work\SN\module #
#                          \Projects\zstack\Samples\SampleApp                 #
#                          com\CC2530DB\..\..\..\..\..\COMPONENTS\hal\common\ #
#                          " -Ohz --require_prototypes                        #
#    List file          =  C:\Users\freeman\Documents\work\SN\module\Projects #
#                          \zstack\Samples\SampleApp                          #
#                          com\CC2530DB\CoordinatorEB-Pro\List\usb_interrupt. #
#                          lst                                                #
#    Object file        =  C:\Users\freeman\Documents\work\SN\module\Projects #
#                          \zstack\Samples\SampleApp                          #
#                          com\CC2530DB\CoordinatorEB-Pro\Obj\usb_interrupt.r #
#                          51                                                 #
#                                                                             #
#                                                                             #
###############################################################################

C:\Users\freeman\Documents\work\SN\module\Components\usb\library\cc2531\usb_interrupt.c
      1          /***********************************************************************************
      2          
      3              Filename:     usb_interrupt.c
      4          
      5              Description:  USB library interrupt initialisation and ISR.
      6          
      7          ***********************************************************************************/
      8          
      9          /// \addtogroup module_usb_interrupt
     10          /// @{
     11          #define USBINTERRUPT_C ///< Modifies the behavior of "EXTERN" in usb_interrupt.h
     12          #include "usb_firmware_library_headers.h"

   \                                 In  segment SFR_AN, at 0x8b
   \   unsigned char volatile __sfr P2IFG
   \                     P2IFG:
   \   000000                DS 1

   \                                 In  segment SFR_AN, at 0x9a
   \   unsigned char volatile __sfr IEN2
   \                     IEN2:
   \   000000                DS 1

   \                                 In  segment SFR_AN, at 0x9d
   \   unsigned char volatile __sfr SLEEPSTA
   \                     SLEEPSTA:
   \   000000                DS 1

   \                                 In  segment SFR_AN, at 0xac
   \   unsigned char volatile __sfr P2IEN
   \                     P2IEN:
   \   000000                DS 1

   \                                 In  segment SFR_AN, at 0xe8
   \   union <unnamed> volatile __sfr _A_IRCON2
   \                     _A_IRCON2:
   \   000000                DS 1

   \                                 In  segment DATA_Z, align 1, keep-with-next
   \   USBIRQ_DATA __data usbirqData
   \                     usbirqData:
   \   000000                DS 5
   \   000005                REQUIRE __INIT_DATA_Z
     13          #include "clock.h"
     14          #include "hal_board.h"
     15          #include "hal_led.h"
     16          
     17          
     18          /** \brief Initializes the \ref module_usb_interrupt module
     19           *
     20           * This function should be called after the \ref module_usb_framework module has been initialized.
     21           * Use interrupt group priority control (refer to the CC2531 datasheet) to adjust the priority of the
     22           * USB interrupt relative to other interrupts.
     23           *
     24           * \param[in]       irqMask
     25           *     A bit mask containing USBIRQ_EVENT bits for all events that shall be reported
     26           */

   \                                 In  segment BANKED_CODE, align 1, keep-with-next
     27          void usbirqInit(uint16 irqMask)
   \                     usbirqInit:
     28          {
   \   000000   74F6         MOV     A,#-0xa
   \   000002   12....       LCALL   ?BANKED_ENTER_XDATA
   \   000005                ; Saved register size: 10
   \   000005                ; Auto size: 0
     29              // Initialize variables
     30              usbirqData.eventMask = 0x0000;
   \   000005   75..00       MOV     usbirqData+0x0,#0x0
   \   000008   75..00       MOV     usbirqData+0x1,#0x0
     31              usbirqData.inSuspend = FALSE;
   \   00000B   75..00       MOV     usbirqData + 2,#0x0
     32              usbirqData.irqMask = irqMask;
   \   00000E   8A..         MOV     usbirqData + 3+0x0,R2
   \   000010   8B..         MOV     usbirqData + 3+0x1,R3
     33          
     34              // Select which IRQ flags to handle
     35              USBCIE = irqMask;
   \   000012   EA           MOV     A,R2
   \   000013   90620B       MOV     DPTR,#0x620b
   \   000016   F0           MOVX    @DPTR,A
     36              USBIIE = irqMask >> 4;
   \   000017   8A..         MOV     ?V0 + 0,R2
   \   000019   8B..         MOV     ?V0 + 1,R3
   \   00001B   7404         MOV     A,#0x4
   \   00001D   78..         MOV     R0,#?V0 + 0
   \   00001F   12....       LCALL   ?US_SHR
   \   000022   E5..         MOV     A,?V0 + 0
   \   000024   906207       MOV     DPTR,#0x6207
   \   000027   F0           MOVX    @DPTR,A
     37              USBOIE = (irqMask >> 9) & 0x3E;
   \   000028   8A..         MOV     ?V0 + 0,R2
   \   00002A   8B..         MOV     ?V0 + 1,R3
   \   00002C   7409         MOV     A,#0x9
   \   00002E   78..         MOV     R0,#?V0 + 0
   \   000030   12....       LCALL   ?US_SHR
   \   000033   E5..         MOV     A,?V0 + 0
   \   000035   543E         ANL     A,#0x3e
   \   000037   906209       MOV     DPTR,#0x6209
   \   00003A   F0           MOVX    @DPTR,A
     38          
     39              HAL_USB_INT_CLEAR();
   \   00003B   758B00       MOV     0x8b,#0x0
   \   00003E   C2E8         CLR     0xe8.0
     40              HAL_USB_INT_ENABLE();
   \   000040   43AC20       ORL     0xac,#0x20
   \   000043   439A02       ORL     0x9a,#0x2
     41          
     42          } // usbirqInit
   \   000046   7F02         MOV     R7,#0x2
   \   000048   02....       LJMP    ?BANKED_LEAVE_XDATA
   \   00004B                REQUIRE P2IFG
   \   00004B                REQUIRE _A_IRCON2
   \   00004B                REQUIRE P2IEN
   \   00004B                REQUIRE IEN2
     43          
     44          
     45          
     46          /** \brief USB interrupt handler
     47           *
     48           * Clears the P2 interrupt flag and converts all USB interrupt flags into events.
     49           * The interrupt also lets \ref usbsuspEnter() break from the suspend loop.
     50           */
     51          #pragma vector=P2INT_VECTOR

   \                                 In  segment NEAR_CODE, align 1, keep-with-next
     52          __interrupt void usbirqHandler(void)
   \                     usbirqHandler:
     53          {
   \   000000   C0E0         PUSH    A
   \   000002   74F1         MOV     A,#-0xf
   \   000004   12....       LCALL   ?INTERRUPT_ENTER_XSP
   \   000007                ; Saved register size: 15
   \   000007                ; Auto size: 0
     54             uint8 usbcif;
     55          
     56             // First make sure that the crystal oscillator is stable
     57             while (!CC2530_IS_XOSC_STABLE());
   \                     ??usbirqHandler_0:
   \   000007   E59D         MOV     A,0x9d
   \   000009   A2E6         MOV     C,0xE0 /* A   */.6
   \   00000B   50FA         JNC     ??usbirqHandler_0
     58          
     59             // Special handling for reset interrupts
     60             usbcif = USBCIF;
   \   00000D   906206       MOV     DPTR,#0x6206
   \   000010   E0           MOVX    A,@DPTR
   \   000011   FA           MOV     R2,A
     61             if (usbcif & USBCIF_RSTIF) {
   \   000012   A2E2         MOV     C,0xE0 /* A   */.2
   \   000014   5035         JNC     ??usbirqHandler_1
     62          
     63                 // All interrupts (except suspend) are by default enabled by hardware, so
     64                 // re-initialize the enable bits to avoid unwanted interrupts
     65                 USBCIE = usbirqData.irqMask;
   \   000016   A8..         MOV     R0,usbirqData + 3+0x0
   \   000018   E8           MOV     A,R0
   \   000019   90620B       MOV     DPTR,#0x620b
   \   00001C   F0           MOVX    @DPTR,A
     66                 USBIIE = usbirqData.irqMask >> 4;
   \   00001D   F5..         MOV     ?V0 + 0,A
   \   00001F   85....       MOV     ?V0 + 1,usbirqData + 3+0x1
   \   000022   7404         MOV     A,#0x4
   \   000024   78..         MOV     R0,#?V0 + 0
   \   000026   12....       LCALL   ?US_SHR
   \   000029   E5..         MOV     A,?V0 + 0
   \   00002B   906207       MOV     DPTR,#0x6207
   \   00002E   F0           MOVX    @DPTR,A
     67                 USBOIE = (usbirqData.irqMask >> 9) & 0x3E;
   \   00002F   85....       MOV     ?V0 + 0,usbirqData + 3+0x0
   \   000032   85....       MOV     ?V0 + 1,usbirqData + 3+0x1
   \   000035   7409         MOV     A,#0x9
   \   000037   78..         MOV     R0,#?V0 + 0
   \   000039   12....       LCALL   ?US_SHR
   \   00003C   E5..         MOV     A,?V0 + 0
   \   00003E   543E         ANL     A,#0x3e
   \   000040   906209       MOV     DPTR,#0x6209
   \   000043   F0           MOVX    @DPTR,A
     68          
     69                 // Enable suspend mode when suspend signaling is detected on the bus
     70                 USBPOW |= USBPOW_SUSPEND_EN;
   \   000044   906201       MOV     DPTR,#0x6201
   \   000047   E0           MOVX    A,@DPTR
   \   000048   D2E0         SETB    0xE0 /* A   */.0
   \   00004A   F0           MOVX    @DPTR,A
     71             }
     72          
     73             // Record events (keeping existing)
     74             usbirqData.eventMask |= (uint16) usbcif;
   \                     ??usbirqHandler_1:
   \   00004B   78..         MOV     R0,#usbirqData
   \   00004D   EA           MOV     A,R2
   \   00004E   46           ORL     A,@R0
   \   00004F   F6           MOV     @R0,A
     75             usbirqData.eventMask |= (uint16) USBIIF << 4;
   \   000050   906202       MOV     DPTR,#0x6202
   \   000053   E0           MOVX    A,@DPTR
   \   000054   F5..         MOV     ?V0 + 0,A
   \   000056   75..00       MOV     ?V0 + 1,#0x0
   \   000059   7404         MOV     A,#0x4
   \   00005B   78..         MOV     R0,#?V0 + 0
   \   00005D   12....       LCALL   ?S_SHL
   \   000060   78..         MOV     R0,#usbirqData
   \   000062   E5..         MOV     A,?V0 + 0
   \   000064   46           ORL     A,@R0
   \   000065   F6           MOV     @R0,A
   \   000066   08           INC     R0
   \   000067   E5..         MOV     A,?V0 + 1
   \   000069   46           ORL     A,@R0
   \   00006A   F6           MOV     @R0,A
     76             usbirqData.eventMask |= (uint16) USBOIF << 9;
   \   00006B   906204       MOV     DPTR,#0x6204
   \   00006E   E0           MOVX    A,@DPTR
   \   00006F   F5..         MOV     ?V0 + 0,A
   \   000071   75..00       MOV     ?V0 + 1,#0x0
   \   000074   7409         MOV     A,#0x9
   \   000076   78..         MOV     R0,#?V0 + 0
   \   000078   12....       LCALL   ?S_SHL
   \   00007B   78..         MOV     R0,#usbirqData + 1
   \   00007D   E5..         MOV     A,?V0 + 1
   \   00007F   46           ORL     A,@R0
   \   000080   F6           MOV     @R0,A
     77          
     78             // If we get a suspend event, we should always enter suspend mode. We must,
     79             // however be sure that we exit the suspend loop upon resume or reset
     80             // signaling.
     81             if (usbcif & USBCIF_SUSPENDIF) {
   \   000081   EA           MOV     A,R2
   \   000082   A2E0         MOV     C,0xE0 /* A   */.0
   \   000084   5003         JNC     ??usbirqHandler_2
     82                usbirqData.inSuspend = TRUE;
   \   000086   75..01       MOV     usbirqData + 2,#0x1
     83             }
     84             if (usbcif & (USBCIF_RSTIF | USBCIF_RESUMEIF)) {
   \                     ??usbirqHandler_2:
   \   000089   7406         MOV     A,#0x6
   \   00008B   5A           ANL     A,R2
   \   00008C   6003         JZ      ??usbirqHandler_3
     85                usbirqData.inSuspend = FALSE;
   \   00008E   75..00       MOV     usbirqData + 2,#0x0
     86             }
     87             if (P2IFG & P2IFG_DPIF) {
   \                     ??usbirqHandler_3:
   \   000091   E58B         MOV     A,0x8b
   \   000093   A2E5         MOV     C,0xE0 /* A   */.5
   \   000095   5006         JNC     ??usbirqHandler_4
     88                // Resume interrupt detected on D+ line while in suspend
     89                P2IFG = ~P2IFG_DPIF;
   \   000097   758BDF       MOV     0x8b,#-0x21
     90                usbirqData.inSuspend = FALSE;
   \   00009A   75..00       MOV     usbirqData + 2,#0x0
     91             }
     92          
     93             // Handle event which need immediate processing
     94             usbirqHookProcessEvents();
   \                     ??usbirqHandler_4:
   \   00009D                ; Setup parameters for call to function usbirqHookProcessEvents
   \   00009D   12....       LCALL   ??usbirqHookProcessEvents?relay
     95          
     96             // Clear the interrupt
     97             HAL_USB_INT_CLEAR();
   \   0000A0   758B00       MOV     0x8b,#0x0
   \   0000A3   C2E8         CLR     0xe8.0
     98          
     99          } // usbirqHandler
   \   0000A5   7F02         MOV     R7,#0x2
   \   0000A7   02....       LJMP    ?INTERRUPT_LEAVE_XSP
   \   0000AA                REQUIRE SLEEPSTA
   \   0000AA                REQUIRE P2IFG
   \   0000AA                REQUIRE _A_IRCON2

   \                                 In  segment INTVEC, offset 0x33, root
   \                     `??usbirqHandler??INTVEC 51`:
   \   000033   02....       LJMP       (usbirqHandler)

   \                                 In  segment BANK_RELAYS, align 1
   \                     ??usbirqInit?relay:
   \   000000   12....       LCALL   ?BDISPATCH
   \   000003   ......       DC24    usbirqInit
    100          
    101          //@}
    102          
    103          /*
    104          +------------------------------------------------------------------------------
    105          |  Copyright 2008-2009 Texas Instruments Incorporated. All rights reserved.
    106          |
    107          |  IMPORTANT: Your use of this Software is limited to those specific rights
    108          |  granted under the terms of a software license agreement between the user who
    109          |  downloaded the software, his/her employer (which must be your employer) and
    110          |  Texas Instruments Incorporated (the "License"). You may not use this Software
    111          |  unless you agree to abide by the terms of the License. The License limits
    112          |  your use, and you acknowledge, that the Software may not be modified, copied
    113          |  or distributed unless embedded on a Texas Instruments microcontroller or used
    114          |  solely and exclusively in conjunction with a Texas Instruments radio
    115          |  frequency transceiver, which is integrated into your product. Other than for
    116          |  the foregoing purpose, you may not use, reproduce, copy, prepare derivative
    117          |  works of, modify, distribute, perform, display or sell this Software and/or
    118          |  its documentation for any purpose.
    119          |
    120          |  YOU FURTHER ACKNOWLEDGE AND AGREE THAT THE SOFTWARE AND DOCUMENTATION ARE
    121          |  PROVIDED “AS IS” WITHOUT WARRANTY OF ANY KIND, EITHER EXPRESS OR IMPLIED,
    122          |  INCLUDING WITHOUT LIMITATION, ANY WARRANTY OF MERCHANTABILITY, TITLE,
    123          |  NON-INFRINGEMENT AND FITNESS FOR A PARTICULAR PURPOSE. IN NO EVENT SHALL
    124          |  TEXAS INSTRUMENTS OR ITS LICENSORS BE LIABLE OR OBLIGATED UNDER CONTRACT,
    125          |  NEGLIGENCE, STRICT LIABILITY, CONTRIBUTION, BREACH OF WARRANTY, OR OTHER
    126          |  LEGAL EQUITABLE THEORY ANY DIRECT OR INDIRECT DAMAGES OR EXPENSES INCLUDING
    127          |  BUT NOT LIMITED TO ANY INCIDENTAL, SPECIAL, INDIRECT, PUNITIVE OR
    128          |  CONSEQUENTIAL DAMAGES, LOST PROFITS OR LOST DATA, COST OF PROCUREMENT OF
    129          |  SUBSTITUTE GOODS, TECHNOLOGY, SERVICES, OR ANY CLAIMS BY THIRD PARTIES
    130          |  (INCLUDING BUT NOT LIMITED TO ANY DEFENSE THEREOF), OR OTHER SIMILAR COSTS.
    131          |
    132          |  Should you have any questions regarding your right to use this Software,
    133          |  contact Texas Instruments Incorporated at www.TI.com.
    134          |
    135          +------------------------------------------------------------------------------
    136          */

   Maximum stack usage in bytes:

     Function                     ISTACK PSTACK XSTACK
     --------                     ------ ------ ------
     usbirqHandler                    0      0     15
       -> usbirqHookProcessEvents     0      0     30
     usbirqInit                       0      0     10


   Segment part sizes:

     Function/Label             Bytes
     --------------             -----
     P2IFG                         1
     IEN2                          1
     SLEEPSTA                      1
     P2IEN                         1
     _A_IRCON2                     1
     usbirqData                    5
     usbirqInit                   75
     usbirqHandler               170
     ??usbirqHandler??INTVEC 51    3
     ??usbirqInit?relay            6

 
  75 bytes in segment BANKED_CODE
   6 bytes in segment BANK_RELAYS
   5 bytes in segment DATA_Z
   3 bytes in segment INTVEC
 170 bytes in segment NEAR_CODE
   5 bytes in segment SFR_AN
 
 251 bytes of CODE memory (+ 3 bytes shared)
   5 bytes of DATA memory (+ 5 bytes shared)

Errors: none
Warnings: none
