///////////////////////////////////////////////////////////////////////////////
//                                                                            /
// IAR C/C++ Compiler V8.10.3.40338/W32 for 8051        22/Jul/2014  14:54:27 /
// Copyright 2004-2011 IAR Systems AB.                                        /
//                                                                            /
//    Core               =  plain                                             /
//    Code model         =  banked                                            /
//    Data model         =  large                                             /
//    Calling convention =  xdata reentrant                                   /
//    Constant location  =  data_rom                                          /
//    Dptr setup         =  1,16                                              /
//    Source file        =  D:\WorkReserve\project\AES_BOOT\CC2531UsbSlave\Co /
//                          mponents\usb\class_hid\usb_hid_hooks.c            /
//    Command line       =  -f "D:\WorkReserve\project\AES_BOOT\CC2531UsbSlav /
//                          e\Projects\zstack\Samples\SampleApp               /
//                          com\CC2530DB\..\..\..\Tools\CC2530DB\f8wConfig.cf /
//                          g" (-DSECURE=0 -DZG_SECURE_DYNAMIC=0 -DREFLECTOR  /
//                          -DDEFAULT_CHANLIST=0x00000800                     /
//                          -DZDAPP_CONFIG_PAN_ID=0xFFF0                      /
//                          -DNWK_START_DELAY=100 -DEXTENDED_JOINING_RANDOM_M /
//                          ASK=0x007F -DBEACON_REQUEST_DELAY=100             /
//                          -DBEACON_REQ_DELAY_MASK=0x00FF                    /
//                          -DROUTE_EXPIRY_TIME=30 -DAPSC_ACK_WAIT_DURATION_P /
//                          OLLED=3000 -DNWK_INDIRECT_MSG_TIMEOUT=7           /
//                          -DMAX_RREQ_ENTRIES=8 -DAPSC_MAX_FRAME_RETRIES=3   /
//                          -DNWK_MAX_DATA_RETRIES=2                          /
//                          -DMAX_POLL_FAILURE_RETRIES=2 -DMAX_BCAST=9        /
//                          -DAPS_MAX_GROUPS=16 -DMAX_RTG_ENTRIES=40          /
//                          -DNWK_MAX_BINDING_ENTRIES=4                       /
//                          -DMAX_BINDING_CLUSTER_IDS=4                       /
//                          "-DDEFAULT_KEY={0x01, 0x03, 0x05, 0x07, 0x09,     /
//                          0x0B, 0x0D, 0x0F, 0x00, 0x02, 0x04, 0x06, 0x08,   /
//                          0x0A, 0x0C, 0x0D}" -DMAC_MAX_FRAME_SIZE=116       /
//                          "-DCONST=const __code" -DGENERIC=__generic        /
//                          -DRFD_RCVC_ALWAYS_ON=FALSE -DPOLL_RATE=1000       /
//                          -DQUEUED_POLL_RATE=100 -DRESPONSE_POLL_RATE=100   /
//                          -DREJOIN_POLL_RATE=440)                           /
//                          D:\WorkReserve\project\AES_BOOT\CC2531UsbSlave\Co /
//                          mponents\usb\class_hid\usb_hid_hooks.c -D         /
//                          ZIGBEEPRO -D ZTOOL_P1 -lC                         /
//                          "D:\WorkReserve\project\AES_BOOT\CC2531UsbSlave\P /
//                          rojects\zstack\Samples\SampleApp                  /
//                          com\CC2530DB\CoordinatorEB-Pro\List\" -lA         /
//                          "D:\WorkReserve\project\AES_BOOT\CC2531UsbSlave\P /
//                          rojects\zstack\Samples\SampleApp                  /
//                          com\CC2530DB\CoordinatorEB-Pro\List\"             /
//                          --diag_suppress Pe001,Pa010 -o                    /
//                          "D:\WorkReserve\project\AES_BOOT\CC2531UsbSlave\P /
//                          rojects\zstack\Samples\SampleApp                  /
//                          com\CC2530DB\CoordinatorEB-Pro\Obj\" -e --debug   /
//                          --core=plain --dptr=16,1 --data_model=large       /
//                          --code_model=banked --calling_convention=xdata_re /
//                          entrant --place_constants=data_rom                /
//                          --nr_virtual_regs 16 -I                           /
//                          "D:\WorkReserve\project\AES_BOOT\CC2531UsbSlave\P /
//                          rojects\zstack\Samples\SampleApp com\CC2530DB\"   /
//                          -I "D:\WorkReserve\project\AES_BOOT\CC2531UsbSlav /
//                          e\Projects\zstack\Samples\SampleApp               /
//                          com\CC2530DB\..\SOURCE\" -I                       /
//                          "D:\WorkReserve\project\AES_BOOT\CC2531UsbSlave\P /
//                          rojects\zstack\Samples\SampleApp                  /
//                          com\CC2530DB\..\..\..\ZMAIN\TI2530DB\" -I         /
//                          "D:\WorkReserve\project\AES_BOOT\CC2531UsbSlave\P /
//                          rojects\zstack\Samples\SampleApp                  /
//                          com\CC2530DB\..\..\..\..\..\COMPONENTS\MT\" -I    /
//                          "D:\WorkReserve\project\AES_BOOT\CC2531UsbSlave\P /
//                          rojects\zstack\Samples\SampleApp                  /
//                          com\CC2530DB\..\..\..\..\..\COMPONENTS\HAL\INCLUD /
//                          E\" -I "D:\WorkReserve\project\AES_BOOT\CC2531Usb /
//                          Slave\Projects\zstack\Samples\SampleApp           /
//                          com\CC2530DB\..\..\..\..\..\COMPONENTS\HAL\TARGET /
//                          \CC2530EB\" -I "D:\WorkReserve\project\AES_BOOT\C /
//                          C2531UsbSlave\Projects\zstack\Samples\SampleApp   /
//                          com\CC2530DB\..\..\..\..\..\COMPONENTS\OSAL\MCU\C /
//                          CSOC\" -I "D:\WorkReserve\project\AES_BOOT\CC2531 /
//                          UsbSlave\Projects\zstack\Samples\SampleApp        /
//                          com\CC2530DB\..\..\..\..\..\COMPONENTS\OSAL\INCLU /
//                          DE\" -I "D:\WorkReserve\project\AES_BOOT\CC2531Us /
//                          bSlave\Projects\zstack\Samples\SampleApp          /
//                          com\CC2530DB\..\..\..\..\..\COMPONENTS\STACK\AF\" /
//                           -I "D:\WorkReserve\project\AES_BOOT\CC2531UsbSla /
//                          ve\Projects\zstack\Samples\SampleApp              /
//                          com\CC2530DB\..\..\..\..\..\COMPONENTS\STACK\NWK\ /
//                          " -I "D:\WorkReserve\project\AES_BOOT\CC2531UsbSl /
//                          ave\Projects\zstack\Samples\SampleApp             /
//                          com\CC2530DB\..\..\..\..\..\COMPONENTS\STACK\SEC\ /
//                          " -I "D:\WorkReserve\project\AES_BOOT\CC2531UsbSl /
//                          ave\Projects\zstack\Samples\SampleApp             /
//                          com\CC2530DB\..\..\..\..\..\COMPONENTS\STACK\SAPI /
//                          \" -I "D:\WorkReserve\project\AES_BOOT\CC2531UsbS /
//                          lave\Projects\zstack\Samples\SampleApp            /
//                          com\CC2530DB\..\..\..\..\..\COMPONENTS\STACK\SYS\ /
//                          " -I "D:\WorkReserve\project\AES_BOOT\CC2531UsbSl /
//                          ave\Projects\zstack\Samples\SampleApp             /
//                          com\CC2530DB\..\..\..\..\..\COMPONENTS\STACK\ZDO\ /
//                          " -I "D:\WorkReserve\project\AES_BOOT\CC2531UsbSl /
//                          ave\Projects\zstack\Samples\SampleApp             /
//                          com\CC2530DB\..\..\..\..\..\COMPONENTS\ZMAC\F8W\" /
//                           -I "D:\WorkReserve\project\AES_BOOT\CC2531UsbSla /
//                          ve\Projects\zstack\Samples\SampleApp              /
//                          com\CC2530DB\..\..\..\..\..\COMPONENTS\ZMAC\" -I  /
//                          "D:\WorkReserve\project\AES_BOOT\CC2531UsbSlave\P /
//                          rojects\zstack\Samples\SampleApp                  /
//                          com\CC2530DB\..\..\..\..\..\COMPONENTS\SERVICES\S /
//                          ADDR\" -I "D:\WorkReserve\project\AES_BOOT\CC2531 /
//                          UsbSlave\Projects\zstack\Samples\SampleApp        /
//                          com\CC2530DB\..\..\..\..\..\COMPONENTS\SERVICES\S /
//                          DATA\" -I "D:\WorkReserve\project\AES_BOOT\CC2531 /
//                          UsbSlave\Projects\zstack\Samples\SampleApp        /
//                          com\CC2530DB\..\..\..\..\..\COMPONENTS\MAC\INCLUD /
//                          E\" -I "D:\WorkReserve\project\AES_BOOT\CC2531Usb /
//                          Slave\Projects\zstack\Samples\SampleApp           /
//                          com\CC2530DB\..\..\..\..\..\COMPONENTS\MAC\HIGH_L /
//                          EVEL\" -I "D:\WorkReserve\project\AES_BOOT\CC2531 /
//                          UsbSlave\Projects\zstack\Samples\SampleApp        /
//                          com\CC2530DB\..\..\..\..\..\COMPONENTS\MAC\LOW_LE /
//                          VEL\srf04\" -I "D:\WorkReserve\project\AES_BOOT\C /
//                          C2531UsbSlave\Projects\zstack\Samples\SampleApp   /
//                          com\CC2530DB\..\..\..\..\..\COMPONENTS\MAC\LOW_LE /
//                          VEL\srf04\SINGLE_CHIP\" -I                        /
//                          "D:\WorkReserve\project\AES_BOOT\CC2531UsbSlave\P /
//                          rojects\zstack\Samples\SampleApp                  /
//                          com\CC2530DB\..\..\..\..\..\COMPONENTS\usb\librar /
//                          y\" -I "D:\WorkReserve\project\AES_BOOT\CC2531Usb /
//                          Slave\Projects\zstack\Samples\SampleApp           /
//                          com\CC2530DB\..\..\..\..\..\COMPONENTS\usb\class_ /
//                          hid\" -I "D:\WorkReserve\project\AES_BOOT\CC2531U /
//                          sbSlave\Projects\zstack\Samples\SampleApp         /
//                          com\CC2530DB\..\..\..\..\..\COMPONENTS\hal\common /
//                          \" -Ohz --require_prototypes                      /
//    List file          =  D:\WorkReserve\project\AES_BOOT\CC2531UsbSlave\Pr /
//                          ojects\zstack\Samples\SampleApp                   /
//                          com\CC2530DB\CoordinatorEB-Pro\List\usb_hid_hooks /
//                          .s51                                              /
//                                                                            /
//                                                                            /
///////////////////////////////////////////////////////////////////////////////

        NAME usb_hid_hooks

        RTMODEL "__SystemLibrary", "CLib"
        RTMODEL "__calling_convention", "xdata_reentrant"
        RTMODEL "__code_model", "banked"
        RTMODEL "__core", "plain"
        RTMODEL "__data_model", "large"
        RTMODEL "__dptr_size", "16"
        RTMODEL "__extended_stack", "disabled"
        RTMODEL "__location_for_constants", "data"
        RTMODEL "__number_of_dptrs", "1"
        RTMODEL "__rt_version", "1"

        RSEG DOVERLAY:DATA:NOROOT(0)
        RSEG IOVERLAY:IDATA:NOROOT(0)
        RSEG ISTACK:IDATA:NOROOT(0)
        RSEG PSTACK:XDATA:NOROOT(0)
        RSEG XSTACK:XDATA:NOROOT(0)

        EXTERN ?BDISPATCH
        EXTERN ?BRET

        PUBLIC ??usbcrHookProcessIn?relay
        FUNCTION ??usbcrHookProcessIn?relay,0203H
        PUBLIC ??usbcrHookProcessOut?relay
        FUNCTION ??usbcrHookProcessOut?relay,0203H
        PUBLIC ??usbirqHookProcessEvents?relay
        FUNCTION ??usbirqHookProcessEvents?relay,0203H
        PUBLIC ??usbsrHookClearFeature?relay
        FUNCTION ??usbsrHookClearFeature?relay,0203H
        PUBLIC ??usbsrHookModifyGetStatus?relay
        FUNCTION ??usbsrHookModifyGetStatus?relay,0203H
        PUBLIC ??usbsrHookProcessEvent?relay
        FUNCTION ??usbsrHookProcessEvent?relay,0203H
        PUBLIC ??usbsrHookSetDescriptor?relay
        FUNCTION ??usbsrHookSetDescriptor?relay,0203H
        PUBLIC ??usbsrHookSetFeature?relay
        FUNCTION ??usbsrHookSetFeature?relay,0203H
        PUBLIC ??usbsrHookSynchFrame?relay
        FUNCTION ??usbsrHookSynchFrame?relay,0203H
        PUBLIC ??usbvrHookProcessIn?relay
        FUNCTION ??usbvrHookProcessIn?relay,0203H
        PUBLIC ??usbvrHookProcessOut?relay
        FUNCTION ??usbvrHookProcessOut?relay,0203H
        PUBLIC usbcrHookProcessIn
        FUNCTION usbcrHookProcessIn,021203H
        ARGFRAME XSTACK, 0, STACK
        LOCFRAME ISTACK, 2, STACK
        PUBLIC usbcrHookProcessOut
        FUNCTION usbcrHookProcessOut,021203H
        ARGFRAME XSTACK, 0, STACK
        LOCFRAME ISTACK, 2, STACK
        PUBLIC usbirqHookProcessEvents
        FUNCTION usbirqHookProcessEvents,0203H
        ARGFRAME XSTACK, 0, STACK
        PUBLIC usbsrHookClearFeature
        FUNCTION usbsrHookClearFeature,0203H
        ARGFRAME XSTACK, 0, STACK
        LOCFRAME ISTACK, 2, STACK
        PUBLIC usbsrHookModifyGetStatus
        FUNCTION usbsrHookModifyGetStatus,0203H
        ARGFRAME XSTACK, 0, STACK
        PUBLIC usbsrHookProcessEvent
        FUNCTION usbsrHookProcessEvent,0203H
        ARGFRAME XSTACK, 0, STACK
        PUBLIC usbsrHookSetDescriptor
        FUNCTION usbsrHookSetDescriptor,0203H
        ARGFRAME XSTACK, 0, STACK
        LOCFRAME ISTACK, 2, STACK
        PUBLIC usbsrHookSetFeature
        FUNCTION usbsrHookSetFeature,0203H
        ARGFRAME XSTACK, 0, STACK
        LOCFRAME ISTACK, 2, STACK
        PUBLIC usbsrHookSynchFrame
        FUNCTION usbsrHookSynchFrame,0203H
        ARGFRAME XSTACK, 0, STACK
        LOCFRAME ISTACK, 2, STACK
        PUBLIC usbvrHookProcessIn
        FUNCTION usbvrHookProcessIn,0203H
        ARGFRAME XSTACK, 0, STACK
        LOCFRAME ISTACK, 2, STACK
        PUBLIC usbvrHookProcessOut
        FUNCTION usbvrHookProcessOut,0203H
        ARGFRAME XSTACK, 0, STACK
        LOCFRAME ISTACK, 2, STACK
        
        CFI Names cfiNames0
        CFI StackFrame CFA_SP SP IDATA
        CFI StackFrame CFA_PSP16 PSP16 XDATA
        CFI StackFrame CFA_XSP16 XSP16 XDATA
        CFI StaticOverlayFrame CFA_IOVERLAY IOVERLAY
        CFI StaticOverlayFrame CFA_DOVERLAY DOVERLAY
        CFI Resource `PSW.CY`:1, `B.BR0`:1, `B.BR1`:1, `B.BR2`:1, `B.BR3`:1
        CFI Resource `B.BR4`:1, `B.BR5`:1, `B.BR6`:1, `B.BR7`:1, `VB.BR8`:1
        CFI Resource `VB.BR9`:1, `VB.BR10`:1, `VB.BR11`:1, `VB.BR12`:1
        CFI Resource `VB.BR13`:1, `VB.BR14`:1, `VB.BR15`:1, VB:8, B:8, A:8
        CFI Resource PSW:8, DPL0:8, DPH0:8, R0:8, R1:8, R2:8, R3:8, R4:8, R5:8
        CFI Resource R6:8, R7:8, V0:8, V1:8, V2:8, V3:8, V4:8, V5:8, V6:8, V7:8
        CFI Resource V8:8, V9:8, V10:8, V11:8, V12:8, V13:8, V14:8, V15:8, SP:8
        CFI Resource PSPH:8, PSPL:8, PSP16:16, XSPH:8, XSPL:8, XSP16:16
        CFI VirtualResource ?RET:24
        CFI Resource ?BRET_EXT:8
        CFI VirtualResource ?RET_HIGH:8, ?RET_LOW:8
        CFI ResourceParts PSP16 PSPH, PSPL
        CFI ResourceParts XSP16 XSPH, XSPL
        CFI ResourceParts ?RET ?BRET_EXT, ?RET_HIGH, ?RET_LOW
        CFI EndNames cfiNames0
        
        CFI Common cfiCommon0 Using cfiNames0
        CFI CodeAlign 1
        CFI DataAlign -1
        CFI ReturnAddress ?RET CODE
        CFI CFA_DOVERLAY Used
        CFI CFA_IOVERLAY Used
        CFI CFA_SP SP+-3
        CFI CFA_PSP16 PSP16+0
        CFI CFA_XSP16 XSP16+0
        CFI `PSW.CY` SameValue
        CFI `B.BR0` SameValue
        CFI `B.BR1` SameValue
        CFI `B.BR2` SameValue
        CFI `B.BR3` SameValue
        CFI `B.BR4` SameValue
        CFI `B.BR5` SameValue
        CFI `B.BR6` SameValue
        CFI `B.BR7` SameValue
        CFI `VB.BR8` SameValue
        CFI `VB.BR9` SameValue
        CFI `VB.BR10` SameValue
        CFI `VB.BR11` SameValue
        CFI `VB.BR12` SameValue
        CFI `VB.BR13` SameValue
        CFI `VB.BR14` SameValue
        CFI `VB.BR15` SameValue
        CFI VB SameValue
        CFI B Undefined
        CFI A Undefined
        CFI PSW SameValue
        CFI DPL0 SameValue
        CFI DPH0 SameValue
        CFI R0 Undefined
        CFI R1 Undefined
        CFI R2 Undefined
        CFI R3 Undefined
        CFI R4 Undefined
        CFI R5 Undefined
        CFI R6 SameValue
        CFI R7 SameValue
        CFI V0 SameValue
        CFI V1 SameValue
        CFI V2 SameValue
        CFI V3 SameValue
        CFI V4 SameValue
        CFI V5 SameValue
        CFI V6 SameValue
        CFI V7 SameValue
        CFI V8 SameValue
        CFI V9 SameValue
        CFI V10 SameValue
        CFI V11 SameValue
        CFI V12 SameValue
        CFI V13 SameValue
        CFI V14 SameValue
        CFI V15 SameValue
        CFI PSPH Undefined
        CFI PSPL Undefined
        CFI XSPH Undefined
        CFI XSPL Undefined
        CFI ?RET Concat
        CFI ?BRET_EXT Frame(CFA_SP, 3)
        CFI ?RET_HIGH Frame(CFA_SP, 2)
        CFI ?RET_LOW Frame(CFA_SP, 1)
        CFI EndCommon cfiCommon0
        
usbcrSetReport      SYMBOL "usbcrSetReport"
usbcrSetProtocol    SYMBOL "usbcrSetProtocol"
usbcrSetIdle        SYMBOL "usbcrSetIdle"
usbcrGetReport      SYMBOL "usbcrGetReport"
usbcrGetProtocol    SYMBOL "usbcrGetProtocol"
usbcrGetIdle        SYMBOL "usbcrGetIdle"
??usbcrGetIdle?relay SYMBOL "?relay", usbcrGetIdle
??usbcrGetProtocol?relay SYMBOL "?relay", usbcrGetProtocol
??usbcrGetReport?relay SYMBOL "?relay", usbcrGetReport
??usbcrSetIdle?relay SYMBOL "?relay", usbcrSetIdle
??usbcrSetProtocol?relay SYMBOL "?relay", usbcrSetProtocol
??usbcrSetReport?relay SYMBOL "?relay", usbcrSetReport
usbcrHookProcessIn  SYMBOL "usbcrHookProcessIn"
??usbcrHookProcessIn?relay SYMBOL "?relay", usbcrHookProcessIn
usbcrHookProcessOut SYMBOL "usbcrHookProcessOut"
??usbcrHookProcessOut?relay SYMBOL "?relay", usbcrHookProcessOut
usbirqHookProcessEvents SYMBOL "usbirqHookProcessEvents"
??usbirqHookProcessEvents?relay SYMBOL "?relay", usbirqHookProcessEvents
usbsrHookClearFeature SYMBOL "usbsrHookClearFeature"
??usbsrHookClearFeature?relay SYMBOL "?relay", usbsrHookClearFeature
usbsrHookModifyGetStatus SYMBOL "usbsrHookModifyGetStatus"
??usbsrHookModifyGetStatus?relay SYMBOL "?relay", usbsrHookModifyGetStatus
usbsrHookProcessEvent SYMBOL "usbsrHookProcessEvent"
??usbsrHookProcessEvent?relay SYMBOL "?relay", usbsrHookProcessEvent
usbsrHookSetDescriptor SYMBOL "usbsrHookSetDescriptor"
??usbsrHookSetDescriptor?relay SYMBOL "?relay", usbsrHookSetDescriptor
usbsrHookSetFeature SYMBOL "usbsrHookSetFeature"
??usbsrHookSetFeature?relay SYMBOL "?relay", usbsrHookSetFeature
usbsrHookSynchFrame SYMBOL "usbsrHookSynchFrame"
??usbsrHookSynchFrame?relay SYMBOL "?relay", usbsrHookSynchFrame
usbvrHookProcessIn  SYMBOL "usbvrHookProcessIn"
??usbvrHookProcessIn?relay SYMBOL "?relay", usbvrHookProcessIn
usbvrHookProcessOut SYMBOL "usbvrHookProcessOut"
??usbvrHookProcessOut?relay SYMBOL "?relay", usbvrHookProcessOut

        EXTERN usbcrSetReport
        FUNCTION usbcrSetReport,0202H
        ARGFRAME ISTACK, 2, STACK
        ARGFRAME PSTACK, 0, STACK
        ARGFRAME XSTACK, 0, STACK
        ARGFRAME IOVERLAY, 0, STATIC
        ARGFRAME DOVERLAY, 0, STATIC
        EXTERN usbcrSetProtocol
        FUNCTION usbcrSetProtocol,0202H
        ARGFRAME ISTACK, 2, STACK
        ARGFRAME PSTACK, 0, STACK
        ARGFRAME XSTACK, 0, STACK
        ARGFRAME IOVERLAY, 0, STATIC
        ARGFRAME DOVERLAY, 0, STATIC
        EXTERN usbcrSetIdle
        FUNCTION usbcrSetIdle,0202H
        ARGFRAME ISTACK, 2, STACK
        ARGFRAME PSTACK, 0, STACK
        ARGFRAME XSTACK, 0, STACK
        ARGFRAME IOVERLAY, 0, STATIC
        ARGFRAME DOVERLAY, 0, STATIC
        EXTERN usbcrGetReport
        FUNCTION usbcrGetReport,0202H
        ARGFRAME ISTACK, 2, STACK
        ARGFRAME PSTACK, 0, STACK
        ARGFRAME XSTACK, 0, STACK
        ARGFRAME IOVERLAY, 0, STATIC
        ARGFRAME DOVERLAY, 0, STATIC
        EXTERN usbcrGetProtocol
        FUNCTION usbcrGetProtocol,0202H
        ARGFRAME ISTACK, 2, STACK
        ARGFRAME PSTACK, 0, STACK
        ARGFRAME XSTACK, 0, STACK
        ARGFRAME IOVERLAY, 0, STATIC
        ARGFRAME DOVERLAY, 0, STATIC
        EXTERN usbcrGetIdle
        FUNCTION usbcrGetIdle,0202H
        ARGFRAME ISTACK, 2, STACK
        ARGFRAME PSTACK, 0, STACK
        ARGFRAME XSTACK, 0, STACK
        ARGFRAME IOVERLAY, 0, STATIC
        ARGFRAME DOVERLAY, 0, STATIC
        EXTERN ??usbcrGetIdle?relay
        FUNCTION ??usbcrGetIdle?relay,00H
        EXTERN ??usbcrGetProtocol?relay
        FUNCTION ??usbcrGetProtocol?relay,00H
        EXTERN ??usbcrGetReport?relay
        FUNCTION ??usbcrGetReport?relay,00H
        EXTERN ??usbcrSetIdle?relay
        FUNCTION ??usbcrSetIdle?relay,00H
        EXTERN ??usbcrSetProtocol?relay
        FUNCTION ??usbcrSetProtocol?relay,00H
        EXTERN ??usbcrSetReport?relay
        FUNCTION ??usbcrSetReport?relay,00H
        EXTERN usbSetupHeader
        EXTERN usbfwData

// D:\WorkReserve\project\AES_BOOT\CC2531UsbSlave\Components\usb\class_hid\usb_hid_hooks.c
//    1 /***********************************************************************************
//    2 
//    3     Filename:	usb_hid_hooks.c
//    4 
//    5     Contains the necessary hook functions for various USB request processing
//    6     that is featured from the USB firmware library. Some
//    7     functions are empty.
//    8 
//    9 ***********************************************************************************/
//   10 
//   11 /***********************************************************************************
//   12 * INCLUDES
//   13 */
//   14 #include "simple_hid.h"
//   15 #include "hal_int.h"
//   16 
//   17 #include "usb_firmware_library_headers.h"
//   18 #include "usb_class_requests.h"
//   19 
//   20 
//   21 /***********************************************************************************
//   22 * GLOBAL DATA
//   23 */
//   24 
//   25 
//   26 
//   27 // ****************************************************************************************
//   28 // All Hooks and functions required by the USB library.
//   29 // ****************************************************************************************
//   30 
//   31 // **************** Process USB class requests with OUT data phase ************************

        RSEG BANKED_CODE:CODE:NOROOT(0)
//   32 void usbcrHookProcessOut(void)
usbcrHookProcessOut:
        CFI Block cfiBlock0 Using cfiCommon0
        CFI Function usbcrHookProcessOut
        CODE
//   33 {
        FUNCALL usbcrHookProcessOut, usbcrSetReport
        LOCFRAME ISTACK, 2, STACK
        LOCFRAME PSTACK, 0, STACK
        LOCFRAME XSTACK, 0, STACK
        LOCFRAME IOVERLAY, 0, STATIC
        LOCFRAME DOVERLAY, 0, STATIC
        ARGFRAME ISTACK, 2, STACK
        ARGFRAME PSTACK, 0, STACK
        ARGFRAME XSTACK, 0, STACK
        ARGFRAME IOVERLAY, 0, STATIC
        ARGFRAME DOVERLAY, 0, STATIC
        FUNCALL usbcrHookProcessOut, usbcrSetProtocol
        LOCFRAME ISTACK, 2, STACK
        LOCFRAME PSTACK, 0, STACK
        LOCFRAME XSTACK, 0, STACK
        LOCFRAME IOVERLAY, 0, STATIC
        LOCFRAME DOVERLAY, 0, STATIC
        ARGFRAME ISTACK, 2, STACK
        ARGFRAME PSTACK, 0, STACK
        ARGFRAME XSTACK, 0, STACK
        ARGFRAME IOVERLAY, 0, STATIC
        ARGFRAME DOVERLAY, 0, STATIC
        FUNCALL usbcrHookProcessOut, usbcrSetIdle
        LOCFRAME ISTACK, 2, STACK
        LOCFRAME PSTACK, 0, STACK
        LOCFRAME XSTACK, 0, STACK
        LOCFRAME IOVERLAY, 0, STATIC
        LOCFRAME DOVERLAY, 0, STATIC
        ARGFRAME ISTACK, 2, STACK
        ARGFRAME PSTACK, 0, STACK
        ARGFRAME XSTACK, 0, STACK
        ARGFRAME IOVERLAY, 0, STATIC
        ARGFRAME DOVERLAY, 0, STATIC
        PUSH    DPL
        CFI DPL0 Frame(CFA_SP, 4)
        CFI CFA_SP SP+-4
        PUSH    DPH
        CFI DPH0 Frame(CFA_SP, 5)
        CFI CFA_SP SP+-5
        ; Saved register size: 2
        ; Auto size: 0
//   34     // Process USB class requests with OUT data phase, or stall endpoint 0 when unsupported
//   35     switch (usbSetupHeader.request) {
        MOV     DPTR,#usbSetupHeader + 1
        MOVX    A,@DPTR
        ADD     A,#-0x9
        JZ      ??usbcrHookProcessOut_0
        DEC     A
        JZ      ??usbcrHookProcessOut_1
        DEC     A
        JZ      ??usbcrHookProcessOut_2
        SJMP    ??usbcrHookProcessOut_3
//   36     case SET_REPORT:    usbcrSetReport(); break;
??usbcrHookProcessOut_0:
        ; Setup parameters for call to function usbcrSetReport
        LCALL   ??usbcrSetReport?relay
        SJMP    ??usbcrHookProcessOut_4
//   37     case SET_PROTOCOL:  usbcrSetProtocol(); break;
??usbcrHookProcessOut_2:
        ; Setup parameters for call to function usbcrSetProtocol
        LCALL   ??usbcrSetProtocol?relay
        SJMP    ??usbcrHookProcessOut_4
//   38     case SET_IDLE:      usbcrSetIdle(); break;
??usbcrHookProcessOut_1:
        ; Setup parameters for call to function usbcrSetIdle
        LCALL   ??usbcrSetIdle?relay
        SJMP    ??usbcrHookProcessOut_4
//   39     default:            usbfwData.ep0Status = EP_STALL; break;
??usbcrHookProcessOut_3:
        MOV     DPTR,#usbfwData + 4
        MOV     A,#0x4
        MOVX    @DPTR,A
//   40     }
//   41 }
??usbcrHookProcessOut_4:
        SJMP    ??Subroutine1_0
        CFI EndBlock cfiBlock0
//   42 
//   43 
//   44 // **************** Process USB class requests with IN data phase *************************

        RSEG BANKED_CODE:CODE:NOROOT(0)
//   45 void usbcrHookProcessIn(void)
usbcrHookProcessIn:
        CFI Block cfiBlock1 Using cfiCommon0
        CFI Function usbcrHookProcessIn
        CODE
//   46 {
        FUNCALL usbcrHookProcessIn, usbcrGetReport
        LOCFRAME ISTACK, 2, STACK
        LOCFRAME PSTACK, 0, STACK
        LOCFRAME XSTACK, 0, STACK
        LOCFRAME IOVERLAY, 0, STATIC
        LOCFRAME DOVERLAY, 0, STATIC
        ARGFRAME ISTACK, 2, STACK
        ARGFRAME PSTACK, 0, STACK
        ARGFRAME XSTACK, 0, STACK
        ARGFRAME IOVERLAY, 0, STATIC
        ARGFRAME DOVERLAY, 0, STATIC
        FUNCALL usbcrHookProcessIn, usbcrGetProtocol
        LOCFRAME ISTACK, 2, STACK
        LOCFRAME PSTACK, 0, STACK
        LOCFRAME XSTACK, 0, STACK
        LOCFRAME IOVERLAY, 0, STATIC
        LOCFRAME DOVERLAY, 0, STATIC
        ARGFRAME ISTACK, 2, STACK
        ARGFRAME PSTACK, 0, STACK
        ARGFRAME XSTACK, 0, STACK
        ARGFRAME IOVERLAY, 0, STATIC
        ARGFRAME DOVERLAY, 0, STATIC
        FUNCALL usbcrHookProcessIn, usbcrGetIdle
        LOCFRAME ISTACK, 2, STACK
        LOCFRAME PSTACK, 0, STACK
        LOCFRAME XSTACK, 0, STACK
        LOCFRAME IOVERLAY, 0, STATIC
        LOCFRAME DOVERLAY, 0, STATIC
        ARGFRAME ISTACK, 2, STACK
        ARGFRAME PSTACK, 0, STACK
        ARGFRAME XSTACK, 0, STACK
        ARGFRAME IOVERLAY, 0, STATIC
        ARGFRAME DOVERLAY, 0, STATIC
        PUSH    DPL
        CFI DPL0 Frame(CFA_SP, 4)
        CFI CFA_SP SP+-4
        PUSH    DPH
        CFI DPH0 Frame(CFA_SP, 5)
        CFI CFA_SP SP+-5
        ; Saved register size: 2
        ; Auto size: 0
//   47     // Process USB class requests with IN data phase, or stall endpoint 0 when unsupported
//   48     switch (usbSetupHeader.request) {
        MOV     DPTR,#usbSetupHeader + 1
        MOVX    A,@DPTR
        DEC     A
        JZ      ??usbcrHookProcessIn_0
        DEC     A
        JZ      ??usbcrHookProcessIn_1
        DEC     A
        JZ      ??usbcrHookProcessIn_2
        SJMP    ??usbcrHookProcessIn_3
//   49     case GET_REPORT:    usbcrGetReport(); break;
??usbcrHookProcessIn_0:
        ; Setup parameters for call to function usbcrGetReport
        LCALL   ??usbcrGetReport?relay
        SJMP    ??usbcrHookProcessIn_4
//   50     case GET_PROTOCOL:  usbcrGetProtocol(); break;
??usbcrHookProcessIn_2:
        ; Setup parameters for call to function usbcrGetProtocol
        LCALL   ??usbcrGetProtocol?relay
        SJMP    ??usbcrHookProcessIn_4
//   51     case GET_IDLE:      usbcrGetIdle(); break;
??usbcrHookProcessIn_1:
        ; Setup parameters for call to function usbcrGetIdle
        LCALL   ??usbcrGetIdle?relay
        SJMP    ??usbcrHookProcessIn_4
//   52     default:            usbfwData.ep0Status = EP_STALL; break;
??usbcrHookProcessIn_3:
        MOV     DPTR,#usbfwData + 4
        MOV     A,#0x4
        MOVX    @DPTR,A
//   53     }
//   54 }
??usbcrHookProcessIn_4:
        SJMP    ??Subroutine1_0
        CFI EndBlock cfiBlock1
//   55 
//   56 
//   57 // ********************************  Unsupported USB hooks ********************************

        RSEG BANKED_CODE:CODE:NOROOT(0)
//   58 void usbvrHookProcessOut(void) { usbfwData.ep0Status = EP_STALL; }
usbvrHookProcessOut:
        CFI Block cfiBlock2 Using cfiCommon0
        CFI Function usbvrHookProcessOut
        CODE
        SJMP    ?Subroutine0
        CFI EndBlock cfiBlock2

        RSEG BANKED_CODE:CODE:NOROOT(0)
//   59 void usbvrHookProcessIn(void) { usbfwData.ep0Status = EP_STALL; }
usbvrHookProcessIn:
        CFI Block cfiBlock3 Using cfiCommon0
        CFI Function usbvrHookProcessIn
        CODE
        SJMP    ?Subroutine0
        CFI EndBlock cfiBlock3
//   60 
//   61 // ************************  unsupported/unhandled standard requests **********************

        RSEG BANKED_CODE:CODE:NOROOT(0)
//   62 void usbsrHookSetDescriptor(void) { usbfwData.ep0Status = EP_STALL; }
usbsrHookSetDescriptor:
        CFI Block cfiBlock4 Using cfiCommon0
        CFI Function usbsrHookSetDescriptor
        CODE
        SJMP    ?Subroutine0
        CFI EndBlock cfiBlock4

        RSEG BANKED_CODE:CODE:NOROOT(0)
//   63 void usbsrHookSynchFrame(void) { usbfwData.ep0Status = EP_STALL; }
usbsrHookSynchFrame:
        CFI Block cfiBlock5 Using cfiCommon0
        CFI Function usbsrHookSynchFrame
        CODE
        SJMP    ?Subroutine0
        CFI EndBlock cfiBlock5

        RSEG BANKED_CODE:CODE:NOROOT(0)
//   64 void usbsrHookClearFeature(void) { usbfwData.ep0Status = EP_STALL; }
usbsrHookClearFeature:
        CODE
        REQUIRE ?Subroutine0
        ; // Fall through to label ?Subroutine0

        RSEG BANKED_CODE:CODE:NOROOT(0)
?Subroutine0:
        CFI Block cfiBlock6 Using cfiCommon0
        CFI NoFunction
        PUSH    DPL
        CFI CFA_SP SP+-4
        CFI DPL0 Frame(CFA_SP, 4)
        PUSH    DPH
        CFI CFA_SP SP+-5
        CFI DPH0 Frame(CFA_SP, 5)
        ; Saved register size: 2
        ; Auto size: 0
        ; Saved register size: 2
        ; Auto size: 0
        ; Saved register size: 2
        ; Auto size: 0
        ; Saved register size: 2
        ; Auto size: 0
        ; Saved register size: 2
        ; Auto size: 0
        ; Saved register size: 2
        ; Auto size: 0
        MOV     DPTR,#usbfwData + 4
        MOV     A,#0x4
        MOVX    @DPTR,A
        CFI EndBlock cfiBlock6
        REQUIRE ??Subroutine1_0
        ; // Fall through to label ??Subroutine1_0

        RSEG BANKED_CODE:CODE:NOROOT(0)
??Subroutine1_0:
        CFI Block cfiBlock7 Using cfiCommon0
        CFI NoFunction
        CFI CFA_SP SP+-5
        CFI DPL0 Frame(CFA_SP, 4)
        CFI DPH0 Frame(CFA_SP, 5)
        POP     DPH
        CFI CFA_SP SP+-4
        CFI DPH0 SameValue
        POP     DPL
        CFI CFA_SP SP+-3
        CFI DPL0 SameValue
        LJMP    ?BRET
        CFI EndBlock cfiBlock7

        RSEG BANKED_CODE:CODE:NOROOT(0)
//   65 void usbsrHookSetFeature(void) { usbfwData.ep0Status = EP_STALL; }
usbsrHookSetFeature:
        CFI Block cfiBlock8 Using cfiCommon0
        CFI Function usbsrHookSetFeature
        CODE
        SJMP    ?Subroutine0
        CFI EndBlock cfiBlock8

        RSEG BANKED_CODE:CODE:NOROOT(0)
//   66 void usbsrHookModifyGetStatus(uint8 recipient, uint8 index, uint16 __xdata *pStatus) { }
usbsrHookModifyGetStatus:
        CFI Block cfiBlock9 Using cfiCommon0
        CFI Function usbsrHookModifyGetStatus
        CODE
        ; Saved register size: 0
        ; Auto size: 0
        LJMP    ?BRET
        CFI EndBlock cfiBlock9
//   67 
//   68 
//   69 // ************************ USB standard request event processing *************************

        RSEG BANKED_CODE:CODE:NOROOT(0)
//   70 void usbsrHookProcessEvent(uint8 event, uint8 index)
usbsrHookProcessEvent:
        CFI Block cfiBlock10 Using cfiCommon0
        CFI Function usbsrHookProcessEvent
        CODE
//   71 {
        ; Saved register size: 0
        ; Auto size: 0
//   72     // Process relevant events, one at a time.
//   73     switch (event) {
//   74     case USBSR_EVENT_CONFIGURATION_CHANGING : //(the device configuration is about to change)
//   75         break;
//   76     case USBSR_EVENT_CONFIGURATION_CHANGED :// (the device configuration has changed)
//   77         break;
//   78     case USBSR_EVENT_INTERFACE_CHANGING ://(the alternate setting of the given interface is about to change)
//   79         break;
//   80     case USBSR_EVENT_INTERFACE_CHANGED : //(the alternate setting of the given interface has changed)
//   81         break;
//   82     case USBSR_EVENT_REMOTE_WAKEUP_ENABLED ://(remote wakeup has been enabled by the host)
//   83         break;
//   84     case USBSR_EVENT_REMOTE_WAKEUP_DISABLED ://(remote wakeup has been disabled by the host)
//   85         break;
//   86     case USBSR_EVENT_EPIN_STALL_CLEARED ://(the given IN endpoint's stall condition has been cleared the host)
//   87         break;
//   88     case USBSR_EVENT_EPIN_STALL_SET ://(the given IN endpoint has been stalled by the host)
//   89         break;
//   90     case USBSR_EVENT_EPOUT_STALL_CLEARED ://(the given OUT endpoint's stall condition has been cleared the host)
//   91         break;
//   92     case USBSR_EVENT_EPOUT_STALL_SET ://(the given OUT endpoint has been stalled by the PC)
//   93         break;
//   94     }
//   95 }
        LJMP    ?BRET
        CFI EndBlock cfiBlock10
//   96 
//   97 
//   98 // ************************ USB interrupt event processing ********************************

        RSEG BANKED_CODE:CODE:NOROOT(0)
//   99 void usbirqHookProcessEvents(void)
usbirqHookProcessEvents:
        CFI Block cfiBlock11 Using cfiCommon0
        CFI Function usbirqHookProcessEvents
        CODE
//  100 {
        ; Saved register size: 0
        ; Auto size: 0
//  101     // Handle events that require immediate processing here
//  102 }
        LJMP    ?BRET
        CFI EndBlock cfiBlock11

        RSEG BANK_RELAYS:CODE:REORDER:NOROOT(0)
??usbcrHookProcessOut?relay:
        LCALL   ?BDISPATCH
        DATA
        DC24    usbcrHookProcessOut

        RSEG BANK_RELAYS:CODE:REORDER:NOROOT(0)
??usbcrHookProcessIn?relay:
        LCALL   ?BDISPATCH
        DATA
        DC24    usbcrHookProcessIn

        RSEG BANK_RELAYS:CODE:REORDER:NOROOT(0)
??usbvrHookProcessOut?relay:
        LCALL   ?BDISPATCH
        DATA
        DC24    usbvrHookProcessOut

        RSEG BANK_RELAYS:CODE:REORDER:NOROOT(0)
??usbvrHookProcessIn?relay:
        LCALL   ?BDISPATCH
        DATA
        DC24    usbvrHookProcessIn

        RSEG BANK_RELAYS:CODE:REORDER:NOROOT(0)
??usbsrHookSetDescriptor?relay:
        LCALL   ?BDISPATCH
        DATA
        DC24    usbsrHookSetDescriptor

        RSEG BANK_RELAYS:CODE:REORDER:NOROOT(0)
??usbsrHookSynchFrame?relay:
        LCALL   ?BDISPATCH
        DATA
        DC24    usbsrHookSynchFrame

        RSEG BANK_RELAYS:CODE:REORDER:NOROOT(0)
??usbsrHookClearFeature?relay:
        LCALL   ?BDISPATCH
        DATA
        DC24    usbsrHookClearFeature

        RSEG BANK_RELAYS:CODE:REORDER:NOROOT(0)
??usbsrHookSetFeature?relay:
        LCALL   ?BDISPATCH
        DATA
        DC24    usbsrHookSetFeature

        RSEG BANK_RELAYS:CODE:REORDER:NOROOT(0)
??usbsrHookModifyGetStatus?relay:
        LCALL   ?BDISPATCH
        DATA
        DC24    usbsrHookModifyGetStatus

        RSEG BANK_RELAYS:CODE:REORDER:NOROOT(0)
??usbsrHookProcessEvent?relay:
        LCALL   ?BDISPATCH
        DATA
        DC24    usbsrHookProcessEvent

        RSEG BANK_RELAYS:CODE:REORDER:NOROOT(0)
??usbirqHookProcessEvents?relay:
        LCALL   ?BDISPATCH
        DATA
        DC24    usbirqHookProcessEvents

        END
//  103 
//  104 
//  105 /*
//  106 +------------------------------------------------------------------------------
//  107 |  Copyright 2004-2007 Texas Instruments Incorporated. All rights reserved.
//  108 |
//  109 |  IMPORTANT: Your use of this Software is limited to those specific rights
//  110 |  granted under the terms of a software license agreement between the user who
//  111 |  downloaded the software, his/her employer (which must be your employer) and
//  112 |  Texas Instruments Incorporated (the "License"). You may not use this Software
//  113 |  unless you agree to abide by the terms of the License. The License limits
//  114 |  your use, and you acknowledge, that the Software may not be modified, copied
//  115 |  or distributed unless embedded on a Texas Instruments microcontroller or used
//  116 |  solely and exclusively in conjunction with a Texas Instruments radio
//  117 |  frequency transceiver, which is integrated into your product. Other than for
//  118 |  the foregoing purpose, you may not use, reproduce, copy, prepare derivative
//  119 |  works of, modify, distribute, perform, display or sell this Software and/or
//  120 |  its documentation for any purpose.
//  121 |
//  122 |  YOU FURTHER ACKNOWLEDGE AND AGREE THAT THE SOFTWARE AND DOCUMENTATION ARE
//  123 |  PROVIDED “AS IS” WITHOUT WARRANTY OF ANY KIND, EITHER EXPRESS OR IMPLIED,
//  124 |  INCLUDING WITHOUT LIMITATION, ANY WARRANTY OF MERCHANTABILITY, TITLE,
//  125 |  NON-INFRINGEMENT AND FITNESS FOR A PARTICULAR PURPOSE. IN NO EVENT SHALL
//  126 |  TEXAS INSTRUMENTS OR ITS LICENSORS BE LIABLE OR OBLIGATED UNDER CONTRACT,
//  127 |  NEGLIGENCE, STRICT LIABILITY, CONTRIBUTION, BREACH OF WARRANTY, OR OTHER
//  128 |  LEGAL EQUITABLE THEORY ANY DIRECT OR INDIRECT DAMAGES OR EXPENSES INCLUDING
//  129 |  BUT NOT LIMITED TO ANY INCIDENTAL, SPECIAL, INDIRECT, PUNITIVE OR
//  130 |  CONSEQUENTIAL DAMAGES, LOST PROFITS OR LOST DATA, COST OF PROCUREMENT OF
//  131 |  SUBSTITUTE GOODS, TECHNOLOGY, SERVICES, OR ANY CLAIMS BY THIRD PARTIES
//  132 |  (INCLUDING BUT NOT LIMITED TO ANY DEFENSE THEREOF), OR OTHER SIMILAR COSTS.
//  133 |
//  134 |  Should you have any questions regarding your right to use this Software,
//  135 |  contact Texas Instruments Incorporated at www.TI.com.
//  136 |
//  137 +------------------------------------------------------------------------------
//  138 */
//  139 
//  140 
//  141 
//  142 
//  143 
// 
// 121 bytes in segment BANKED_CODE
//  66 bytes in segment BANK_RELAYS
// 
// 187 bytes of CODE memory
//
//Errors: none
//Warnings: none
