///////////////////////////////////////////////////////////////////////////////
//                                                                            /
// IAR C/C++ Compiler V8.10.3.40338/W32 for 8051        21/Jul/2014  12:20:03 /
// Copyright 2004-2011 IAR Systems AB.                                        /
//                                                                            /
//    Core               =  plain                                             /
//    Code model         =  banked                                            /
//    Data model         =  large                                             /
//    Calling convention =  xdata reentrant                                   /
//    Constant location  =  data_rom                                          /
//    Dptr setup         =  1,16                                              /
//    Source file        =  D:\WorkReserve\project\AES_BOOT\CC2530EncBoot\Com /
//                          ponents\mt\MT_NWK.c                               /
//    Command line       =  -f D:\WorkReserve\project\AES_BOOT\CC2530EncBoot\ /
//                          Projects\zstack\Utilities\OAD\CC2530DB\..\..\..\T /
//                          ools\CC2530DB\f8wEndev.cfg (-DCPU32MHZ            /
//                          -DROOT=__near_func -DBLINK_LEDS) -f               /
//                          D:\WorkReserve\project\AES_BOOT\CC2530EncBoot\Pro /
//                          jects\zstack\Utilities\OAD\CC2530DB\..\..\..\Tool /
//                          s\CC2530DB\f8wConfig.cfg (-DSECURE=0              /
//                          -DZG_SECURE_DYNAMIC=0 -DREFLECTOR                 /
//                          -DDEFAULT_CHANLIST=0x00000800                     /
//                          -DZDAPP_CONFIG_PAN_ID=0xFFF0                      /
//                          -DNWK_START_DELAY=100 -DEXTENDED_JOINING_RANDOM_M /
//                          ASK=0x007F -DBEACON_REQUEST_DELAY=100             /
//                          -DBEACON_REQ_DELAY_MASK=0x00FF                    /
//                          -DROUTE_EXPIRY_TIME=30 -DAPSC_ACK_WAIT_DURATION_P /
//                          OLLED=3000 -DNWK_INDIRECT_MSG_TIMEOUT=7           /
//                          -DMAX_RREQ_ENTRIES=8 -DAPSC_MAX_FRAME_RETRIES=3   /
//                          -DNWK_MAX_DATA_RETRIES=2                          /
//                          -DMAX_POLL_FAILURE_RETRIES=2 -DMAX_BCAST=9        /
//                          -DAPS_MAX_GROUPS=16 -DMAX_RTG_ENTRIES=40          /
//                          -DNWK_MAX_BINDING_ENTRIES=4                       /
//                          -DMAX_BINDING_CLUSTER_IDS=4                       /
//                          "-DDEFAULT_KEY={0x01, 0x03, 0x05, 0x07, 0x09,     /
//                          0x0B, 0x0D, 0x0F, 0x00, 0x02, 0x04, 0x06, 0x08,   /
//                          0x0A, 0x0C, 0x0D}" -DMAC_MAX_FRAME_SIZE=116       /
//                          "-DCONST=const __code" -DGENERIC=__generic        /
//                          -DRFD_RCVC_ALWAYS_ON=FALSE -DPOLL_RATE=1000       /
//                          -DQUEUED_POLL_RATE=100 -DRESPONSE_POLL_RATE=100)  /
//                          -DREJOIN_POLL_RATE=440 D:\WorkReserve\project\AES /
//                          _BOOT\CC2530EncBoot\Components\mt\MT_NWK.c -D     /
//                          NWK_AUTO_POLL -D ZTOOL_P1 -D MT_TASK -D           /
//                          MT_APP_FUNC -D MT_NWK_FUNC -D MT_NWK_CB_FUNC -D   /
//                          MT_SYS_FUNC -D MT_ZDO_FUNC -D MT_ZDO_CB_FUNC -D   /
//                          MT_UTIL_FUNC -D LCD_SUPPORTED -D                  /
//                          RFD_RCVC_ALWAYS_ON -D ZPORT -D HOLD_AUTO_START    /
//                          -lC D:\WorkReserve\project\AES_BOOT\CC2530EncBoot /
//                          \Projects\zstack\Utilities\OAD\CC2530DB\DongleEB\ /
//                          List\ -lA D:\WorkReserve\project\AES_BOOT\CC2530E /
//                          ncBoot\Projects\zstack\Utilities\OAD\CC2530DB\Don /
//                          gleEB\List\ -o D:\WorkReserve\project\AES_BOOT\CC /
//                          2530EncBoot\Projects\zstack\Utilities\OAD\CC2530D /
//                          B\DongleEB\Obj\ -e --debug --core=plain           /
//                          --dptr=16,1 --data_model=large                    /
//                          --code_model=banked --calling_convention=xdata_re /
//                          entrant --place_constants=data_rom                /
//                          --nr_virtual_regs 16 -I                           /
//                          D:\WorkReserve\project\AES_BOOT\CC2530EncBoot\Pro /
//                          jects\zstack\Utilities\OAD\CC2530DB\ -I           /
//                          D:\WorkReserve\project\AES_BOOT\CC2530EncBoot\Pro /
//                          jects\zstack\Utilities\OAD\CC2530DB\..\SOURCE\    /
//                          -I D:\WorkReserve\project\AES_BOOT\CC2530EncBoot\ /
//                          Projects\zstack\Utilities\OAD\CC2530DB\..\..\..\Z /
//                          MAIN\TI2530DB\ -I D:\WorkReserve\project\AES_BOOT /
//                          \CC2530EncBoot\Projects\zstack\Utilities\OAD\CC25 /
//                          30DB\..\..\..\..\..\COMPONENTS\MT\ -I             /
//                          D:\WorkReserve\project\AES_BOOT\CC2530EncBoot\Pro /
//                          jects\zstack\Utilities\OAD\CC2530DB\..\..\..\..\. /
//                          .\COMPONENTS\HAL\INCLUDE\ -I                      /
//                          D:\WorkReserve\project\AES_BOOT\CC2530EncBoot\Pro /
//                          jects\zstack\Utilities\OAD\CC2530DB\..\..\..\..\. /
//                          .\COMPONENTS\HAL\TARGET\CC2530EB\ -I              /
//                          D:\WorkReserve\project\AES_BOOT\CC2530EncBoot\Pro /
//                          jects\zstack\Utilities\OAD\CC2530DB\..\..\..\..\. /
//                          .\COMPONENTS\OSAL\INCLUDE\ -I                     /
//                          D:\WorkReserve\project\AES_BOOT\CC2530EncBoot\Pro /
//                          jects\zstack\Utilities\OAD\CC2530DB\..\..\..\..\. /
//                          .\COMPONENTS\STACK\AF\ -I                         /
//                          D:\WorkReserve\project\AES_BOOT\CC2530EncBoot\Pro /
//                          jects\zstack\Utilities\OAD\CC2530DB\..\..\..\..\. /
//                          .\COMPONENTS\STACK\NWK\ -I                        /
//                          D:\WorkReserve\project\AES_BOOT\CC2530EncBoot\Pro /
//                          jects\zstack\Utilities\OAD\CC2530DB\..\..\..\..\. /
//                          .\COMPONENTS\STACK\SEC\ -I                        /
//                          D:\WorkReserve\project\AES_BOOT\CC2530EncBoot\Pro /
//                          jects\zstack\Utilities\OAD\CC2530DB\..\..\..\..\. /
//                          .\COMPONENTS\STACK\SAPI\ -I                       /
//                          D:\WorkReserve\project\AES_BOOT\CC2530EncBoot\Pro /
//                          jects\zstack\Utilities\OAD\CC2530DB\..\..\..\..\. /
//                          .\COMPONENTS\STACK\SYS\ -I                        /
//                          D:\WorkReserve\project\AES_BOOT\CC2530EncBoot\Pro /
//                          jects\zstack\Utilities\OAD\CC2530DB\..\..\..\..\. /
//                          .\COMPONENTS\STACK\ZDO\ -I                        /
//                          D:\WorkReserve\project\AES_BOOT\CC2530EncBoot\Pro /
//                          jects\zstack\Utilities\OAD\CC2530DB\..\..\..\..\. /
//                          .\COMPONENTS\ZMAC\F8W\ -I                         /
//                          D:\WorkReserve\project\AES_BOOT\CC2530EncBoot\Pro /
//                          jects\zstack\Utilities\OAD\CC2530DB\..\..\..\..\. /
//                          .\COMPONENTS\ZMAC\ -I D:\WorkReserve\project\AES_ /
//                          BOOT\CC2530EncBoot\Projects\zstack\Utilities\OAD\ /
//                          CC2530DB\..\..\..\..\..\COMPONENTS\SERVICES\SADDR /
//                          \ -I D:\WorkReserve\project\AES_BOOT\CC2530EncBoo /
//                          t\Projects\zstack\Utilities\OAD\CC2530DB\..\..\.. /
//                          \..\..\COMPONENTS\SERVICES\SDATA\ -I              /
//                          D:\WorkReserve\project\AES_BOOT\CC2530EncBoot\Pro /
//                          jects\zstack\Utilities\OAD\CC2530DB\..\..\..\..\. /
//                          .\COMPONENTS\MAC\INCLUDE\ -I                      /
//                          D:\WorkReserve\project\AES_BOOT\CC2530EncBoot\Pro /
//                          jects\zstack\Utilities\OAD\CC2530DB\..\..\..\..\. /
//                          .\COMPONENTS\MAC\HIGH_LEVEL\ -I                   /
//                          D:\WorkReserve\project\AES_BOOT\CC2530EncBoot\Pro /
//                          jects\zstack\Utilities\OAD\CC2530DB\..\..\..\..\. /
//                          .\COMPONENTS\MAC\LOW_LEVEL\srf04\ -I              /
//                          D:\WorkReserve\project\AES_BOOT\CC2530EncBoot\Pro /
//                          jects\zstack\Utilities\OAD\CC2530DB\..\..\..\..\. /
//                          .\COMPONENTS\MAC\LOW_LEVEL\srf04\SINGLE_CHIP\     /
//                          -Ohz --require_prototypes                         /
//    List file          =  D:\WorkReserve\project\AES_BOOT\CC2530EncBoot\Pro /
//                          jects\zstack\Utilities\OAD\CC2530DB\DongleEB\List /
//                          \MT_NWK.s51                                       /
//                                                                            /
//                                                                            /
///////////////////////////////////////////////////////////////////////////////

        NAME MT_NWK

        RTMODEL "__SystemLibrary", "CLib"
        RTMODEL "__calling_convention", "xdata_reentrant"
        RTMODEL "__code_model", "banked"
        RTMODEL "__core", "plain"
        RTMODEL "__data_model", "large"
        RTMODEL "__dptr_size", "16"
        RTMODEL "__extended_stack", "disabled"
        RTMODEL "__location_for_constants", "data"
        RTMODEL "__number_of_dptrs", "1"
        RTMODEL "__rt_version", "1"

        RSEG DOVERLAY:DATA:NOROOT(0)
        RSEG IOVERLAY:IDATA:NOROOT(0)
        RSEG ISTACK:IDATA:NOROOT(0)
        RSEG PSTACK:XDATA:NOROOT(0)
        RSEG XSTACK:XDATA:NOROOT(0)

        EXTERN ?ALLOC_XSTACK8
        EXTERN ?BANKED_ENTER_XDATA
        EXTERN ?BANKED_LEAVE_XDATA
        EXTERN ?BDISPATCH
        EXTERN ?BRET
        EXTERN ?DEALLOC_XSTACK8
        EXTERN ?L_AND
        EXTERN ?L_MOV_TO_X
        EXTERN ?MOVE_LONG8_XDATA_XDATA
        EXTERN ?PUSH_XSTACK_I_ONE
        EXTERN ?PUSH_XSTACK_I_THREE
        EXTERN ?PUSH_XSTACK_I_TWO
        EXTERN ?S_SHL
        EXTERN ?V0
        EXTERN ?XSP
        EXTERN ?XSTACK_DISP0_8
        EXTERN __INIT_XDATA_Z

        PUBLIC ??MT_NldeDataRequest?relay
        FUNCTION ??MT_NldeDataRequest?relay,0203H
        PUBLIC ??MT_NlmeDirectJoinRequest?relay
        FUNCTION ??MT_NlmeDirectJoinRequest?relay,0203H
        PUBLIC ??MT_NlmeGetRequest?relay
        FUNCTION ??MT_NlmeGetRequest?relay,0203H
        PUBLIC ??MT_NlmeJoinRequest?relay
        FUNCTION ??MT_NlmeJoinRequest?relay,0203H
        PUBLIC ??MT_NlmeLeaveRequest?relay
        FUNCTION ??MT_NlmeLeaveRequest?relay,0203H
        PUBLIC ??MT_NlmeNetworkDiscoveryRequest?relay
        FUNCTION ??MT_NlmeNetworkDiscoveryRequest?relay,0203H
        PUBLIC ??MT_NlmeNetworkFormationRequest?relay
        FUNCTION ??MT_NlmeNetworkFormationRequest?relay,0203H
        PUBLIC ??MT_NlmeOrphanJoinRequest?relay
        FUNCTION ??MT_NlmeOrphanJoinRequest?relay,0203H
        PUBLIC ??MT_NlmePermitJoiningRequest?relay
        FUNCTION ??MT_NlmePermitJoiningRequest?relay,0203H
        PUBLIC ??MT_NlmeResetRequest?relay
        FUNCTION ??MT_NlmeResetRequest?relay,0203H
        PUBLIC ??MT_NlmeRouteDiscoveryRequest?relay
        FUNCTION ??MT_NlmeRouteDiscoveryRequest?relay,0203H
        PUBLIC ??MT_NlmeSetRequest?relay
        FUNCTION ??MT_NlmeSetRequest?relay,0203H
        PUBLIC ??MT_NlmeStartRouterRequest?relay
        FUNCTION ??MT_NlmeStartRouterRequest?relay,0203H
        PUBLIC ??MT_NwkCommandProcessing?relay
        FUNCTION ??MT_NwkCommandProcessing?relay,0203H
        PUBLIC ??MT_Nwk_DataRequest?relay
        FUNCTION ??MT_Nwk_DataRequest?relay,0203H
        PUBLIC ??nwk_MTCallbackSubDataConfirm?relay
        FUNCTION ??nwk_MTCallbackSubDataConfirm?relay,0203H
        PUBLIC ??nwk_MTCallbackSubDataIndication?relay
        FUNCTION ??nwk_MTCallbackSubDataIndication?relay,0203H
        PUBLIC ??nwk_MTCallbackSubInitCoordConfirm?relay
        FUNCTION ??nwk_MTCallbackSubInitCoordConfirm?relay,0203H
        PUBLIC ??nwk_MTCallbackSubJoinConfirm?relay
        FUNCTION ??nwk_MTCallbackSubJoinConfirm?relay,0203H
        PUBLIC ??nwk_MTCallbackSubJoinIndication?relay
        FUNCTION ??nwk_MTCallbackSubJoinIndication?relay,0203H
        PUBLIC ??nwk_MTCallbackSubLeaveConfirm?relay
        FUNCTION ??nwk_MTCallbackSubLeaveConfirm?relay,0203H
        PUBLIC ??nwk_MTCallbackSubLeaveIndication?relay
        FUNCTION ??nwk_MTCallbackSubLeaveIndication?relay,0203H
        PUBLIC ??nwk_MTCallbackSubNetworkDiscoveryConfirm?rela
        FUNCTION ??nwk_MTCallbackSubNetworkDiscoveryConfirm?rela,0203H
        PUBLIC ??nwk_MTCallbackSubPollConfirm?relay
        FUNCTION ??nwk_MTCallbackSubPollConfirm?relay,0203H
        PUBLIC ??nwk_MTCallbackSubStartRouterConfirm?relay
        FUNCTION ??nwk_MTCallbackSubStartRouterConfirm?relay,0203H
        PUBLIC ??nwk_MTCallbackSubSyncIndication?relay
        FUNCTION ??nwk_MTCallbackSubSyncIndication?relay,0203H
        PUBLIC MT_NldeDataRequest
        FUNCTION MT_NldeDataRequest,021203H
        ARGFRAME XSTACK, 9, STACK
        ARGFRAME IOVERLAY, 0, STATIC
        ARGFRAME DOVERLAY, 0, STATIC
        LOCFRAME ISTACK, 1, STACK
        LOCFRAME XSTACK, 19, STACK
        PUBLIC MT_NlmeDirectJoinRequest
        FUNCTION MT_NlmeDirectJoinRequest,021203H
        ARGFRAME XSTACK, 9, STACK
        ARGFRAME IOVERLAY, 0, STATIC
        ARGFRAME DOVERLAY, 0, STATIC
        LOCFRAME ISTACK, 2, STACK
        LOCFRAME XSTACK, 1, STACK
        PUBLIC MT_NlmeGetRequest
        FUNCTION MT_NlmeGetRequest,021203H
        ARGFRAME XSTACK, 9, STACK
        ARGFRAME IOVERLAY, 0, STATIC
        ARGFRAME DOVERLAY, 0, STATIC
        LOCFRAME ISTACK, 1, STACK
        LOCFRAME XSTACK, 20, STACK
        PUBLIC MT_NlmeJoinRequest
        FUNCTION MT_NlmeJoinRequest,021203H
        ARGFRAME XSTACK, 9, STACK
        ARGFRAME IOVERLAY, 0, STATIC
        ARGFRAME DOVERLAY, 0, STATIC
        LOCFRAME ISTACK, 2, STACK
        LOCFRAME XSTACK, 20, STACK
        PUBLIC MT_NlmeLeaveRequest
        FUNCTION MT_NlmeLeaveRequest,021203H
        ARGFRAME XSTACK, 9, STACK
        ARGFRAME IOVERLAY, 0, STATIC
        ARGFRAME DOVERLAY, 0, STATIC
        LOCFRAME ISTACK, 1, STACK
        LOCFRAME XSTACK, 16, STACK
        PUBLIC MT_NlmeNetworkDiscoveryRequest
        FUNCTION MT_NlmeNetworkDiscoveryRequest,021203H
        ARGFRAME XSTACK, 9, STACK
        ARGFRAME IOVERLAY, 0, STATIC
        ARGFRAME DOVERLAY, 0, STATIC
        LOCFRAME ISTACK, 1, STACK
        LOCFRAME XSTACK, 10, STACK
        PUBLIC MT_NlmeNetworkFormationRequest
        FUNCTION MT_NlmeNetworkFormationRequest,021203H
        ARGFRAME XSTACK, 9, STACK
        ARGFRAME IOVERLAY, 0, STATIC
        ARGFRAME DOVERLAY, 0, STATIC
        LOCFRAME XSTACK, 10, STACK
        PUBLIC MT_NlmeOrphanJoinRequest
        FUNCTION MT_NlmeOrphanJoinRequest,021203H
        ARGFRAME XSTACK, 9, STACK
        ARGFRAME IOVERLAY, 0, STATIC
        ARGFRAME DOVERLAY, 0, STATIC
        LOCFRAME ISTACK, 1, STACK
        LOCFRAME XSTACK, 23, STACK
        PUBLIC MT_NlmePermitJoiningRequest
        FUNCTION MT_NlmePermitJoiningRequest,021203H
        ARGFRAME XSTACK, 9, STACK
        ARGFRAME IOVERLAY, 0, STATIC
        ARGFRAME DOVERLAY, 0, STATIC
        LOCFRAME ISTACK, 2, STACK
        LOCFRAME XSTACK, 1, STACK
        PUBLIC MT_NlmeResetRequest
        FUNCTION MT_NlmeResetRequest,021203H
        ARGFRAME XSTACK, 9, STACK
        ARGFRAME IOVERLAY, 0, STATIC
        ARGFRAME DOVERLAY, 0, STATIC
        LOCFRAME ISTACK, 3, STACK
        LOCFRAME XSTACK, 1, STACK
        PUBLIC MT_NlmeRouteDiscoveryRequest
        FUNCTION MT_NlmeRouteDiscoveryRequest,021203H
        ARGFRAME XSTACK, 9, STACK
        ARGFRAME IOVERLAY, 0, STATIC
        ARGFRAME DOVERLAY, 0, STATIC
        LOCFRAME ISTACK, 2, STACK
        LOCFRAME XSTACK, 1, STACK
        PUBLIC MT_NlmeSetRequest
        FUNCTION MT_NlmeSetRequest,021203H
        ARGFRAME XSTACK, 9, STACK
        ARGFRAME IOVERLAY, 0, STATIC
        ARGFRAME DOVERLAY, 0, STATIC
        LOCFRAME ISTACK, 1, STACK
        LOCFRAME XSTACK, 10, STACK
        PUBLIC MT_NlmeStartRouterRequest
        FUNCTION MT_NlmeStartRouterRequest,021203H
        ARGFRAME XSTACK, 9, STACK
        ARGFRAME IOVERLAY, 0, STATIC
        ARGFRAME DOVERLAY, 0, STATIC
        LOCFRAME ISTACK, 2, STACK
        LOCFRAME XSTACK, 1, STACK
        PUBLIC MT_NwkCommandProcessing
        FUNCTION MT_NwkCommandProcessing,021203H
        ARGFRAME XSTACK, 0, STACK
        LOCFRAME XSTACK, 9, STACK
        PUBLIC MT_Nwk_DataRequest
        FUNCTION MT_Nwk_DataRequest,021203H
        ARGFRAME XSTACK, 19, STACK
        ARGFRAME IOVERLAY, 0, STATIC
        ARGFRAME DOVERLAY, 0, STATIC
        LOCFRAME ISTACK, 1, STACK
        LOCFRAME XSTACK, 26, STACK
        PUBLIC _nwkCallbackSub
        PUBLIC nwk_MTCallbackSubDataConfirm
        FUNCTION nwk_MTCallbackSubDataConfirm,021203H
        ARGFRAME XSTACK, 0, STACK
        LOCFRAME ISTACK, 1, STACK
        LOCFRAME XSTACK, 11, STACK
        PUBLIC nwk_MTCallbackSubDataIndication
        FUNCTION nwk_MTCallbackSubDataIndication,021203H
        ARGFRAME XSTACK, 2, STACK
        LOCFRAME ISTACK, 1, STACK
        LOCFRAME XSTACK, 23, STACK
        PUBLIC nwk_MTCallbackSubInitCoordConfirm
        FUNCTION nwk_MTCallbackSubInitCoordConfirm,021203H
        ARGFRAME XSTACK, 0, STACK
        LOCFRAME ISTACK, 3, STACK
        LOCFRAME XSTACK, 1, STACK
        PUBLIC nwk_MTCallbackSubJoinConfirm
        FUNCTION nwk_MTCallbackSubJoinConfirm,021203H
        ARGFRAME XSTACK, 0, STACK
        LOCFRAME ISTACK, 1, STACK
        LOCFRAME XSTACK, 20, STACK
        PUBLIC nwk_MTCallbackSubJoinIndication
        FUNCTION nwk_MTCallbackSubJoinIndication,021203H
        ARGFRAME XSTACK, 0, STACK
        LOCFRAME ISTACK, 1, STACK
        LOCFRAME XSTACK, 18, STACK
        PUBLIC nwk_MTCallbackSubLeaveConfirm
        FUNCTION nwk_MTCallbackSubLeaveConfirm,021203H
        ARGFRAME XSTACK, 0, STACK
        LOCFRAME ISTACK, 1, STACK
        LOCFRAME XSTACK, 14, STACK
        PUBLIC nwk_MTCallbackSubLeaveIndication
        FUNCTION nwk_MTCallbackSubLeaveIndication,021203H
        ARGFRAME XSTACK, 0, STACK
        LOCFRAME ISTACK, 2, STACK
        LOCFRAME XSTACK, 9, STACK
        PUBLIC nwk_MTCallbackSubNetworkDiscoveryConfirm
        FUNCTION nwk_MTCallbackSubNetworkDiscoveryConfirm,021203H
        ARGFRAME XSTACK, 0, STACK
        LOCFRAME ISTACK, 1, STACK
        LOCFRAME XSTACK, 14, STACK
        PUBLIC nwk_MTCallbackSubPollConfirm
        FUNCTION nwk_MTCallbackSubPollConfirm,021203H
        ARGFRAME XSTACK, 0, STACK
        LOCFRAME ISTACK, 1, STACK
        LOCFRAME XSTACK, 10, STACK
        PUBLIC nwk_MTCallbackSubStartRouterConfirm
        FUNCTION nwk_MTCallbackSubStartRouterConfirm,021203H
        ARGFRAME XSTACK, 0, STACK
        LOCFRAME ISTACK, 3, STACK
        LOCFRAME XSTACK, 1, STACK
        PUBLIC nwk_MTCallbackSubSyncIndication
        FUNCTION nwk_MTCallbackSubSyncIndication,021203H
        ARGFRAME XSTACK, 0, STACK
        LOCFRAME ISTACK, 2, STACK
        
        CFI Names cfiNames0
        CFI StackFrame CFA_SP SP IDATA
        CFI StackFrame CFA_PSP16 PSP16 XDATA
        CFI StackFrame CFA_XSP16 XSP16 XDATA
        CFI StaticOverlayFrame CFA_IOVERLAY IOVERLAY
        CFI StaticOverlayFrame CFA_DOVERLAY DOVERLAY
        CFI Resource `PSW.CY`:1, `B.BR0`:1, `B.BR1`:1, `B.BR2`:1, `B.BR3`:1
        CFI Resource `B.BR4`:1, `B.BR5`:1, `B.BR6`:1, `B.BR7`:1, `VB.BR8`:1
        CFI Resource `VB.BR9`:1, `VB.BR10`:1, `VB.BR11`:1, `VB.BR12`:1
        CFI Resource `VB.BR13`:1, `VB.BR14`:1, `VB.BR15`:1, VB:8, B:8, A:8
        CFI Resource PSW:8, DPL0:8, DPH0:8, R0:8, R1:8, R2:8, R3:8, R4:8, R5:8
        CFI Resource R6:8, R7:8, V0:8, V1:8, V2:8, V3:8, V4:8, V5:8, V6:8, V7:8
        CFI Resource V8:8, V9:8, V10:8, V11:8, V12:8, V13:8, V14:8, V15:8, SP:8
        CFI Resource PSPH:8, PSPL:8, PSP16:16, XSPH:8, XSPL:8, XSP16:16
        CFI VirtualResource ?RET:24
        CFI Resource ?BRET_EXT:8
        CFI VirtualResource ?RET_HIGH:8, ?RET_LOW:8
        CFI ResourceParts PSP16 PSPH, PSPL
        CFI ResourceParts XSP16 XSPH, XSPL
        CFI ResourceParts ?RET ?BRET_EXT, ?RET_HIGH, ?RET_LOW
        CFI EndNames cfiNames0
        
        CFI Common cfiCommon0 Using cfiNames0
        CFI CodeAlign 1
        CFI DataAlign -1
        CFI ReturnAddress ?RET CODE
        CFI CFA_DOVERLAY Used
        CFI CFA_IOVERLAY Used
        CFI CFA_SP SP+-3
        CFI CFA_PSP16 PSP16+0
        CFI CFA_XSP16 XSP16+0
        CFI `PSW.CY` SameValue
        CFI `B.BR0` SameValue
        CFI `B.BR1` SameValue
        CFI `B.BR2` SameValue
        CFI `B.BR3` SameValue
        CFI `B.BR4` SameValue
        CFI `B.BR5` SameValue
        CFI `B.BR6` SameValue
        CFI `B.BR7` SameValue
        CFI `VB.BR8` SameValue
        CFI `VB.BR9` SameValue
        CFI `VB.BR10` SameValue
        CFI `VB.BR11` SameValue
        CFI `VB.BR12` SameValue
        CFI `VB.BR13` SameValue
        CFI `VB.BR14` SameValue
        CFI `VB.BR15` SameValue
        CFI VB SameValue
        CFI B Undefined
        CFI A Undefined
        CFI PSW SameValue
        CFI DPL0 SameValue
        CFI DPH0 SameValue
        CFI R0 Undefined
        CFI R1 Undefined
        CFI R2 Undefined
        CFI R3 Undefined
        CFI R4 Undefined
        CFI R5 Undefined
        CFI R6 SameValue
        CFI R7 SameValue
        CFI V0 SameValue
        CFI V1 SameValue
        CFI V2 SameValue
        CFI V3 SameValue
        CFI V4 SameValue
        CFI V5 SameValue
        CFI V6 SameValue
        CFI V7 SameValue
        CFI V8 SameValue
        CFI V9 SameValue
        CFI V10 SameValue
        CFI V11 SameValue
        CFI V12 SameValue
        CFI V13 SameValue
        CFI V14 SameValue
        CFI V15 SameValue
        CFI PSPH Undefined
        CFI PSPL Undefined
        CFI XSPH Undefined
        CFI XSPL Undefined
        CFI ?RET Concat
        CFI ?BRET_EXT Frame(CFA_SP, 3)
        CFI ?RET_HIGH Frame(CFA_SP, 2)
        CFI ?RET_LOW Frame(CFA_SP, 1)
        CFI EndCommon cfiCommon0
        
        
        CFI Common cfiCommon1 Using cfiNames0
        CFI CodeAlign 1
        CFI DataAlign -1
        CFI ReturnAddress ?RET CODE
        CFI CFA_DOVERLAY Used
        CFI CFA_IOVERLAY Used
        CFI CFA_SP SP+-2
        CFI CFA_PSP16 PSP16+0
        CFI CFA_XSP16 XSP16+0
        CFI `PSW.CY` SameValue
        CFI `B.BR0` SameValue
        CFI `B.BR1` SameValue
        CFI `B.BR2` SameValue
        CFI `B.BR3` SameValue
        CFI `B.BR4` SameValue
        CFI `B.BR5` SameValue
        CFI `B.BR6` SameValue
        CFI `B.BR7` SameValue
        CFI `VB.BR8` SameValue
        CFI `VB.BR9` SameValue
        CFI `VB.BR10` SameValue
        CFI `VB.BR11` SameValue
        CFI `VB.BR12` SameValue
        CFI `VB.BR13` SameValue
        CFI `VB.BR14` SameValue
        CFI `VB.BR15` SameValue
        CFI VB SameValue
        CFI B SameValue
        CFI A SameValue
        CFI PSW SameValue
        CFI DPL0 SameValue
        CFI DPH0 SameValue
        CFI R0 SameValue
        CFI R1 SameValue
        CFI R2 SameValue
        CFI R3 SameValue
        CFI R4 SameValue
        CFI R5 SameValue
        CFI R6 SameValue
        CFI R7 SameValue
        CFI V0 SameValue
        CFI V1 SameValue
        CFI V2 SameValue
        CFI V3 SameValue
        CFI V4 SameValue
        CFI V5 SameValue
        CFI V6 SameValue
        CFI V7 SameValue
        CFI V8 SameValue
        CFI V9 SameValue
        CFI V10 SameValue
        CFI V11 SameValue
        CFI V12 SameValue
        CFI V13 SameValue
        CFI V14 SameValue
        CFI V15 SameValue
        CFI PSPH Undefined
        CFI PSPL Undefined
        CFI XSPH Undefined
        CFI XSPL Undefined
        CFI ?RET Concat
        CFI ?BRET_EXT SameValue
        CFI ?RET_HIGH Frame(CFA_SP, 2)
        CFI ?RET_LOW Frame(CFA_SP, 1)
        CFI EndCommon cfiCommon1
        
nwk_init            SYMBOL "nwk_init"
MT_BuildAndSendZToolResponse SYMBOL "MT_BuildAndSendZToolResponse"
osal_build_uint32   SYMBOL "osal_build_uint32"
NLME_JoinRequest    SYMBOL "NLME_JoinRequest"
NLME_SetPollRate    SYMBOL "NLME_SetPollRate"
NLME_SetQueuedPollRate SYMBOL "NLME_SetQueuedPollRate"
NLME_SetResponseRate SYMBOL "NLME_SetResponseRate"
NLME_LeaveReq       SYMBOL "NLME_LeaveReq"
NLME_ResetRequest   SYMBOL "NLME_ResetRequest"
NLME_GetRequest     SYMBOL "NLME_GetRequest"
NLME_SetRequest     SYMBOL "NLME_SetRequest"
ZDApp_NVUpdate      SYMBOL "ZDApp_NVUpdate"
NLME_NetworkDiscoveryRequest SYMBOL "NLME_NetworkDiscoveryRequest"
NLME_OrphanJoinRequest SYMBOL "NLME_OrphanJoinRequest"
NLDE_DataReqAlloc   SYMBOL "NLDE_DataReqAlloc"
osal_memcpy         SYMBOL "osal_memcpy"
NLDE_DataReq        SYMBOL "NLDE_DataReq"
osal_mem_alloc      SYMBOL "osal_mem_alloc"
osal_memset         SYMBOL "osal_memset"
osal_mem_free       SYMBOL "osal_mem_free"
ZMacGetReq          SYMBOL "ZMacGetReq"
sAddrExtCpy         SYMBOL "sAddrExtCpy"
??MT_BuildAndSendZToolResponse?relay SYMBOL "?relay", MT_BuildAndSendZToolResponse
??NLDE_DataReq?relay SYMBOL "?relay", NLDE_DataReq
??NLDE_DataReqAlloc?relay SYMBOL "?relay", NLDE_DataReqAlloc
??NLME_GetRequest?relay SYMBOL "?relay", NLME_GetRequest
??NLME_JoinRequest?relay SYMBOL "?relay", NLME_JoinRequest
??NLME_LeaveReq?relay SYMBOL "?relay", NLME_LeaveReq
??NLME_NetworkDiscoveryRequest?relay SYMBOL "?relay", NLME_NetworkDiscoveryRequest
??NLME_OrphanJoinRequest?relay SYMBOL "?relay", NLME_OrphanJoinRequest
??NLME_ResetRequest?relay SYMBOL "?relay", NLME_ResetRequest
??NLME_SetPollRate?relay SYMBOL "?relay", NLME_SetPollRate
??NLME_SetQueuedPollRate?relay SYMBOL "?relay", NLME_SetQueuedPollRate
??NLME_SetRequest?relay SYMBOL "?relay", NLME_SetRequest
??NLME_SetResponseRate?relay SYMBOL "?relay", NLME_SetResponseRate
??ZDApp_NVUpdate?relay SYMBOL "?relay", ZDApp_NVUpdate
??ZMacGetReq?relay  SYMBOL "?relay", ZMacGetReq
??nwk_init?relay    SYMBOL "?relay", nwk_init
??osal_build_uint32?relay SYMBOL "?relay", osal_build_uint32
??osal_mem_alloc?relay SYMBOL "?relay", osal_mem_alloc
??osal_mem_free?relay SYMBOL "?relay", osal_mem_free
??osal_memcpy?relay SYMBOL "?relay", osal_memcpy
??osal_memset?relay SYMBOL "?relay", osal_memset
??sAddrExtCpy?relay SYMBOL "?relay", sAddrExtCpy
MT_NldeDataRequest  SYMBOL "MT_NldeDataRequest"
??MT_NldeDataRequest?relay SYMBOL "?relay", MT_NldeDataRequest
MT_NlmeDirectJoinRequest SYMBOL "MT_NlmeDirectJoinRequest"
??MT_NlmeDirectJoinRequest?relay SYMBOL "?relay", MT_NlmeDirectJoinRequest
MT_NlmeGetRequest   SYMBOL "MT_NlmeGetRequest"
??MT_NlmeGetRequest?relay SYMBOL "?relay", MT_NlmeGetRequest
MT_NlmeJoinRequest  SYMBOL "MT_NlmeJoinRequest"
??MT_NlmeJoinRequest?relay SYMBOL "?relay", MT_NlmeJoinRequest
MT_NlmeLeaveRequest SYMBOL "MT_NlmeLeaveRequest"
??MT_NlmeLeaveRequest?relay SYMBOL "?relay", MT_NlmeLeaveRequest
MT_NlmeNetworkDiscoveryRequest SYMBOL "MT_NlmeNetworkDiscoveryRequest"
??MT_NlmeNetworkDiscoveryRequest?relay SYMBOL "?relay", MT_NlmeNetworkDiscoveryRequest
MT_NlmeNetworkFormationRequest SYMBOL "MT_NlmeNetworkFormationRequest"
??MT_NlmeNetworkFormationRequest?relay SYMBOL "?relay", MT_NlmeNetworkFormationRequest
MT_NlmeOrphanJoinRequest SYMBOL "MT_NlmeOrphanJoinRequest"
??MT_NlmeOrphanJoinRequest?relay SYMBOL "?relay", MT_NlmeOrphanJoinRequest
MT_NlmePermitJoiningRequest SYMBOL "MT_NlmePermitJoiningRequest"
??MT_NlmePermitJoiningRequest?relay SYMBOL "?relay", MT_NlmePermitJoiningRequest
MT_NlmeResetRequest SYMBOL "MT_NlmeResetRequest"
??MT_NlmeResetRequest?relay SYMBOL "?relay", MT_NlmeResetRequest
MT_NlmeRouteDiscoveryRequest SYMBOL "MT_NlmeRouteDiscoveryRequest"
??MT_NlmeRouteDiscoveryRequest?relay SYMBOL "?relay", MT_NlmeRouteDiscoveryRequest
MT_NlmeSetRequest   SYMBOL "MT_NlmeSetRequest"
??MT_NlmeSetRequest?relay SYMBOL "?relay", MT_NlmeSetRequest
MT_NlmeStartRouterRequest SYMBOL "MT_NlmeStartRouterRequest"
??MT_NlmeStartRouterRequest?relay SYMBOL "?relay", MT_NlmeStartRouterRequest
MT_NwkCommandProcessing SYMBOL "MT_NwkCommandProcessing"
??MT_NwkCommandProcessing?relay SYMBOL "?relay", MT_NwkCommandProcessing
MT_Nwk_DataRequest  SYMBOL "MT_Nwk_DataRequest"
??MT_Nwk_DataRequest?relay SYMBOL "?relay", MT_Nwk_DataRequest
nwk_MTCallbackSubDataConfirm SYMBOL "nwk_MTCallbackSubDataConfirm"
??nwk_MTCallbackSubDataConfirm?relay SYMBOL "?relay", nwk_MTCallbackSubDataConfirm
nwk_MTCallbackSubDataIndication SYMBOL "nwk_MTCallbackSubDataIndication"
??nwk_MTCallbackSubDataIndication?relay SYMBOL "?relay", nwk_MTCallbackSubDataIndication
nwk_MTCallbackSubInitCoordConfirm SYMBOL "nwk_MTCallbackSubInitCoordConfirm"
??nwk_MTCallbackSubInitCoordConfirm?relay SYMBOL "?relay", nwk_MTCallbackSubInitCoordConfirm
nwk_MTCallbackSubJoinConfirm SYMBOL "nwk_MTCallbackSubJoinConfirm"
??nwk_MTCallbackSubJoinConfirm?relay SYMBOL "?relay", nwk_MTCallbackSubJoinConfirm
nwk_MTCallbackSubJoinIndication SYMBOL "nwk_MTCallbackSubJoinIndication"
??nwk_MTCallbackSubJoinIndication?relay SYMBOL "?relay", nwk_MTCallbackSubJoinIndication
nwk_MTCallbackSubLeaveConfirm SYMBOL "nwk_MTCallbackSubLeaveConfirm"
??nwk_MTCallbackSubLeaveConfirm?relay SYMBOL "?relay", nwk_MTCallbackSubLeaveConfirm
nwk_MTCallbackSubLeaveIndication SYMBOL "nwk_MTCallbackSubLeaveIndication"
??nwk_MTCallbackSubLeaveIndication?relay SYMBOL "?relay", nwk_MTCallbackSubLeaveIndication
nwk_MTCallbackSubNetworkDiscoveryConfirm SYMBOL "nwk_MTCallbackSubNetworkDiscoveryConfirm"
??nwk_MTCallbackSubNetworkDiscoveryConfirm?rela SYMBOL "?relay", nwk_MTCallbackSubNetworkDiscoveryConfirm
nwk_MTCallbackSubPollConfirm SYMBOL "nwk_MTCallbackSubPollConfirm"
??nwk_MTCallbackSubPollConfirm?relay SYMBOL "?relay", nwk_MTCallbackSubPollConfirm
nwk_MTCallbackSubStartRouterConfirm SYMBOL "nwk_MTCallbackSubStartRouterConfirm"
??nwk_MTCallbackSubStartRouterConfirm?relay SYMBOL "?relay", nwk_MTCallbackSubStartRouterConfirm
nwk_MTCallbackSubSyncIndication SYMBOL "nwk_MTCallbackSubSyncIndication"
??nwk_MTCallbackSubSyncIndication?relay SYMBOL "?relay", nwk_MTCallbackSubSyncIndication

        EXTERN nwk_init
        FUNCTION nwk_init,0202H
        ARGFRAME ISTACK, 0, STACK
        ARGFRAME PSTACK, 0, STACK
        ARGFRAME XSTACK, 9, STACK
        ARGFRAME IOVERLAY, 0, STATIC
        ARGFRAME DOVERLAY, 0, STATIC
        EXTERN MT_BuildAndSendZToolResponse
        FUNCTION MT_BuildAndSendZToolResponse,0202H
        ARGFRAME ISTACK, 2, STACK
        ARGFRAME PSTACK, 0, STACK
        ARGFRAME XSTACK, 23, STACK
        ARGFRAME IOVERLAY, 0, STATIC
        ARGFRAME DOVERLAY, 0, STATIC
        EXTERN osal_build_uint32
        FUNCTION osal_build_uint32,0202H
        ARGFRAME ISTACK, 0, STACK
        ARGFRAME PSTACK, 0, STACK
        ARGFRAME XSTACK, 23, STACK
        ARGFRAME IOVERLAY, 0, STATIC
        ARGFRAME DOVERLAY, 0, STATIC
        EXTERN NLME_JoinRequest
        FUNCTION NLME_JoinRequest,0202H
        ARGFRAME ISTACK, 0, STACK
        ARGFRAME PSTACK, 0, STACK
        ARGFRAME XSTACK, 20, STACK
        ARGFRAME IOVERLAY, 0, STATIC
        ARGFRAME DOVERLAY, 0, STATIC
        EXTERN NLME_SetPollRate
        FUNCTION NLME_SetPollRate,0202H
        ARGFRAME ISTACK, 0, STACK
        ARGFRAME PSTACK, 0, STACK
        ARGFRAME XSTACK, 19, STACK
        ARGFRAME IOVERLAY, 0, STATIC
        ARGFRAME DOVERLAY, 0, STATIC
        EXTERN NLME_SetQueuedPollRate
        FUNCTION NLME_SetQueuedPollRate,0202H
        ARGFRAME ISTACK, 0, STACK
        ARGFRAME PSTACK, 0, STACK
        ARGFRAME XSTACK, 19, STACK
        ARGFRAME IOVERLAY, 0, STATIC
        ARGFRAME DOVERLAY, 0, STATIC
        EXTERN NLME_SetResponseRate
        FUNCTION NLME_SetResponseRate,0202H
        ARGFRAME ISTACK, 0, STACK
        ARGFRAME PSTACK, 0, STACK
        ARGFRAME XSTACK, 19, STACK
        ARGFRAME IOVERLAY, 0, STATIC
        ARGFRAME DOVERLAY, 0, STATIC
        EXTERN NLME_LeaveReq
        FUNCTION NLME_LeaveReq,0202H
        ARGFRAME ISTACK, 0, STACK
        ARGFRAME PSTACK, 0, STACK
        ARGFRAME XSTACK, 16, STACK
        ARGFRAME IOVERLAY, 0, STATIC
        ARGFRAME DOVERLAY, 0, STATIC
        EXTERN NLME_ResetRequest
        FUNCTION NLME_ResetRequest,0202H
        ARGFRAME ISTACK, 2, STACK
        ARGFRAME PSTACK, 0, STACK
        ARGFRAME XSTACK, 1, STACK
        ARGFRAME IOVERLAY, 0, STATIC
        ARGFRAME DOVERLAY, 0, STATIC
        EXTERN NLME_GetRequest
        FUNCTION NLME_GetRequest,0202H
        ARGFRAME ISTACK, 0, STACK
        ARGFRAME PSTACK, 0, STACK
        ARGFRAME XSTACK, 20, STACK
        ARGFRAME IOVERLAY, 0, STATIC
        ARGFRAME DOVERLAY, 0, STATIC
        EXTERN NLME_SetRequest
        FUNCTION NLME_SetRequest,0202H
        ARGFRAME ISTACK, 0, STACK
        ARGFRAME PSTACK, 0, STACK
        ARGFRAME XSTACK, 10, STACK
        ARGFRAME IOVERLAY, 0, STATIC
        ARGFRAME DOVERLAY, 0, STATIC
        EXTERN ZDApp_NVUpdate
        FUNCTION ZDApp_NVUpdate,0202H
        ARGFRAME ISTACK, 0, STACK
        ARGFRAME PSTACK, 0, STACK
        ARGFRAME XSTACK, 10, STACK
        ARGFRAME IOVERLAY, 0, STATIC
        ARGFRAME DOVERLAY, 0, STATIC
        EXTERN NLME_NetworkDiscoveryRequest
        FUNCTION NLME_NetworkDiscoveryRequest,0202H
        ARGFRAME ISTACK, 0, STACK
        ARGFRAME PSTACK, 0, STACK
        ARGFRAME XSTACK, 10, STACK
        ARGFRAME IOVERLAY, 0, STATIC
        ARGFRAME DOVERLAY, 0, STATIC
        EXTERN NLME_OrphanJoinRequest
        FUNCTION NLME_OrphanJoinRequest,0202H
        ARGFRAME ISTACK, 0, STACK
        ARGFRAME PSTACK, 0, STACK
        ARGFRAME XSTACK, 23, STACK
        ARGFRAME IOVERLAY, 0, STATIC
        ARGFRAME DOVERLAY, 0, STATIC
        EXTERN NLDE_DataReqAlloc
        FUNCTION NLDE_DataReqAlloc,0202H
        ARGFRAME ISTACK, 0, STACK
        ARGFRAME PSTACK, 0, STACK
        ARGFRAME XSTACK, 23, STACK
        ARGFRAME IOVERLAY, 0, STATIC
        ARGFRAME DOVERLAY, 0, STATIC
        EXTERN osal_memcpy
        FUNCTION osal_memcpy,0202H
        ARGFRAME ISTACK, 0, STACK
        ARGFRAME PSTACK, 0, STACK
        ARGFRAME XSTACK, 26, STACK
        ARGFRAME IOVERLAY, 0, STATIC
        ARGFRAME DOVERLAY, 0, STATIC
        EXTERN NLDE_DataReq
        FUNCTION NLDE_DataReq,0202H
        ARGFRAME ISTACK, 0, STACK
        ARGFRAME PSTACK, 0, STACK
        ARGFRAME XSTACK, 23, STACK
        ARGFRAME IOVERLAY, 0, STATIC
        ARGFRAME DOVERLAY, 0, STATIC
        EXTERN osal_mem_alloc
        FUNCTION osal_mem_alloc,0202H
        ARGFRAME ISTACK, 0, STACK
        ARGFRAME PSTACK, 0, STACK
        ARGFRAME XSTACK, 20, STACK
        ARGFRAME IOVERLAY, 0, STATIC
        ARGFRAME DOVERLAY, 0, STATIC
        EXTERN osal_memset
        FUNCTION osal_memset,0202H
        ARGFRAME ISTACK, 2, STACK
        ARGFRAME PSTACK, 0, STACK
        ARGFRAME XSTACK, 20, STACK
        ARGFRAME IOVERLAY, 0, STATIC
        ARGFRAME DOVERLAY, 0, STATIC
        EXTERN osal_mem_free
        FUNCTION osal_mem_free,0202H
        ARGFRAME ISTACK, 0, STACK
        ARGFRAME PSTACK, 0, STACK
        ARGFRAME XSTACK, 20, STACK
        ARGFRAME IOVERLAY, 0, STATIC
        ARGFRAME DOVERLAY, 0, STATIC
        EXTERN ZMacGetReq
        FUNCTION ZMacGetReq,0202H
        ARGFRAME ISTACK, 0, STACK
        ARGFRAME PSTACK, 0, STACK
        ARGFRAME XSTACK, 20, STACK
        ARGFRAME IOVERLAY, 0, STATIC
        ARGFRAME DOVERLAY, 0, STATIC
        EXTERN sAddrExtCpy
        FUNCTION sAddrExtCpy,0202H
        ARGFRAME ISTACK, 2, STACK
        ARGFRAME PSTACK, 0, STACK
        ARGFRAME XSTACK, 18, STACK
        ARGFRAME IOVERLAY, 0, STATIC
        ARGFRAME DOVERLAY, 0, STATIC
        EXTERN ??MT_BuildAndSendZToolResponse?relay
        FUNCTION ??MT_BuildAndSendZToolResponse?relay,00H
        EXTERN ??NLDE_DataReq?relay
        FUNCTION ??NLDE_DataReq?relay,00H
        EXTERN ??NLDE_DataReqAlloc?relay
        FUNCTION ??NLDE_DataReqAlloc?relay,00H
        EXTERN ??NLME_GetRequest?relay
        FUNCTION ??NLME_GetRequest?relay,00H
        EXTERN ??NLME_JoinRequest?relay
        FUNCTION ??NLME_JoinRequest?relay,00H
        EXTERN ??NLME_LeaveReq?relay
        FUNCTION ??NLME_LeaveReq?relay,00H
        EXTERN ??NLME_NetworkDiscoveryRequest?relay
        FUNCTION ??NLME_NetworkDiscoveryRequest?relay,00H
        EXTERN ??NLME_OrphanJoinRequest?relay
        FUNCTION ??NLME_OrphanJoinRequest?relay,00H
        EXTERN ??NLME_ResetRequest?relay
        FUNCTION ??NLME_ResetRequest?relay,00H
        EXTERN ??NLME_SetPollRate?relay
        FUNCTION ??NLME_SetPollRate?relay,00H
        EXTERN ??NLME_SetQueuedPollRate?relay
        FUNCTION ??NLME_SetQueuedPollRate?relay,00H
        EXTERN ??NLME_SetRequest?relay
        FUNCTION ??NLME_SetRequest?relay,00H
        EXTERN ??NLME_SetResponseRate?relay
        FUNCTION ??NLME_SetResponseRate?relay,00H
        EXTERN ??ZDApp_NVUpdate?relay
        FUNCTION ??ZDApp_NVUpdate?relay,00H
        EXTERN ??ZMacGetReq?relay
        FUNCTION ??ZMacGetReq?relay,00H
        EXTERN ??nwk_init?relay
        FUNCTION ??nwk_init?relay,00H
        EXTERN ??osal_build_uint32?relay
        FUNCTION ??osal_build_uint32?relay,00H
        EXTERN ??osal_mem_alloc?relay
        FUNCTION ??osal_mem_alloc?relay,00H
        EXTERN ??osal_mem_free?relay
        FUNCTION ??osal_mem_free?relay,00H
        EXTERN ??osal_memcpy?relay
        FUNCTION ??osal_memcpy?relay,00H
        EXTERN ??osal_memset?relay
        FUNCTION ??osal_memset?relay,00H
        EXTERN ??sAddrExtCpy?relay
        FUNCTION ??sAddrExtCpy?relay,00H
        EXTERN NWK_TaskID
        EXTERN ZDO_Config_Node_Descriptor
        EXTERN _NIB
        EXTERN devState

// D:\WorkReserve\project\AES_BOOT\CC2530EncBoot\Components\mt\MT_NWK.c
//    1 /**************************************************************************************************
//    2   Filename:       MT_NWK.c
//    3   Revised:        $Date: 2009-08-26 14:17:16 -0700 (Wed, 26 Aug 2009) $
//    4   Revision:       $Revision: 20661 $
//    5 
//    6 
//    7     Description:    MonitorTest functions for the NWK layer.
//    8 
//    9     Copyright 2007-2009 Texas Instruments Incorporated. All rights reserved.
//   10 
//   11     IMPORTANT: Your use of this Software is limited to those specific rights
//   12     granted under the terms of a software license agreement between the user
//   13     who downloaded the software, his/her employer (which must be your employer)
//   14     and Texas Instruments Incorporated (the "License").  You may not use this
//   15     Software unless you agree to abide by the terms of the License. The License
//   16     limits your use, and you acknowledge, that the Software may not be modified,
//   17     copied or distributed unless embedded on a Texas Instruments microcontroller
//   18     or used solely and exclusively in conjunction with a Texas Instruments radio
//   19     frequency transceiver, which is integrated into your product.  Other than for
//   20     the foregoing purpose, you may not use, reproduce, copy, prepare derivative
//   21     works of, modify, distribute, perform, display or sell this Software and/or
//   22     its documentation for any purpose.
//   23 
//   24     YOU FURTHER ACKNOWLEDGE AND AGREE THAT THE SOFTWARE AND DOCUMENTATION ARE
//   25     PROVIDED “AS IS” WITHOUT WARRANTY OF ANY KIND, EITHER EXPRESS OR IMPLIED,
//   26     INCLUDING WITHOUT LIMITATION, ANY WARRANTY OF MERCHANTABILITY, TITLE,
//   27     NON-INFRINGEMENT AND FITNESS FOR A PARTICULAR PURPOSE. IN NO EVENT SHALL
//   28     TEXAS INSTRUMENTS OR ITS LICENSORS BE LIABLE OR OBLIGATED UNDER CONTRACT,
//   29     NEGLIGENCE, STRICT LIABILITY, CONTRIBUTION, BREACH OF WARRANTY, OR OTHER
//   30     LEGAL EQUITABLE THEORY ANY DIRECT OR INDIRECT DAMAGES OR EXPENSES
//   31     INCLUDING BUT NOT LIMITED TO ANY INCIDENTAL, SPECIAL, INDIRECT, PUNITIVE
//   32     OR CONSEQUENTIAL DAMAGES, LOST PROFITS OR LOST DATA, COST OF PROCUREMENT
//   33     OF SUBSTITUTE GOODS, TECHNOLOGY, SERVICES, OR ANY CLAIMS BY THIRD PARTIES
//   34     (INCLUDING BUT NOT LIMITED TO ANY DEFENSE THEREOF), OR OTHER SIMILAR COSTS.
//   35 
//   36     Should you have any questions regarding your right to use this Software,
//   37     contact Texas Instruments Incorporated at www.TI.com.
//   38 
//   39 **************************************************************************************************/
//   40 
//   41 /***************************************************************************************************
//   42  * INCLUDES
//   43  ***************************************************************************************************/
//   44 #include "ZComDef.h"
//   45 #include "MT.h"
//   46 #include "MT_NWK.h"
//   47 #include "NLMEDE.h"
//   48 #include "nwk.h"
//   49 #include "nwk_globals.h"
//   50 #include "nwk_util.h"
//   51 #include "OSAL.h"
//   52 #include "ZDApp.h"
//   53 
//   54 #if !defined( WIN32 )
//   55   #include "OnBoard.h"
//   56 #endif
//   57 
//   58 /***************************************************************************************************
//   59  * GLOBAL VARIABLES
//   60  ***************************************************************************************************/

        RSEG XDATA_Z:XDATA:NOROOT(0)
        DATA16
//   61 uint16 _nwkCallbackSub;
_nwkCallbackSub:
        DS 2
        REQUIRE __INIT_XDATA_Z
//   62 
//   63 /*********************************************************************
//   64  * TYPEDEFS
//   65  */
//   66 
//   67 /***************************************************************************************************
//   68  * LOCAL FUNCTIONS
//   69  ***************************************************************************************************/
//   70 #if defined (MT_NWK_FUNC)
//   71 void MT_NldeDataRequest(uint8 *pBuf);
//   72 void MT_NlmeNetworkFormationRequest(uint8 *pBuf);
//   73 void MT_NlmePermitJoiningRequest(uint8 *pBuf);
//   74 void MT_NlmeStartRouterRequest(uint8 *pBuf);
//   75 void MT_NlmeJoinRequest(uint8 *pBuf);
//   76 void MT_NlmeLeaveRequest(uint8 *pBuf);
//   77 void MT_NlmeResetRequest(uint8 *pBuf);
//   78 void MT_NlmeGetRequest(uint8 *pBuf);
//   79 void MT_NlmeSetRequest(uint8 *pBuf);
//   80 void MT_NlmeNetworkDiscoveryRequest(uint8 *pBuf);
//   81 void MT_NlmeRouteDiscoveryRequest(uint8 *pBuf);
//   82 void MT_NlmeDirectJoinRequest(uint8 *pBuf);
//   83 void MT_NlmeOrphanJoinRequest(uint8 *pBuf);
//   84 
//   85 uint8 MT_Nwk_DataRequest( uint16 dstAddr, uint8 nsduLen, uint8* nsdu,
//   86                          uint8 nsduHandle, uint16 nsduHandleOptions,
//   87                          uint8 secure, uint8 discoverRoute,
//   88                          uint8 radius);
//   89 #endif /* MT_NWK_FUNC */
//   90 
//   91 #if defined (MT_NWK_FUNC)
//   92 /***************************************************************************************************
//   93  * @fn      MT_NwkCommandProcessing
//   94  *
//   95  * @brief
//   96  *
//   97  *   Process all the NWK commands that are issued by test tool
//   98  *
//   99  * @param   cmd_id - Command ID
//  100  * @param   len    - Length of received SPI data message
//  101  * @param   pData  - pointer to received SPI data message
//  102  *
//  103  * @return  status
//  104  ***************************************************************************************************/

        RSEG BANKED_CODE:CODE:NOROOT(0)
//  105 uint8 MT_NwkCommandProcessing(uint8 *pBuf)
MT_NwkCommandProcessing:
        CFI Block cfiBlock0 Using cfiCommon0
        CFI Function MT_NwkCommandProcessing
        CODE
//  106 {
        FUNCALL MT_NwkCommandProcessing, nwk_init
        LOCFRAME ISTACK, 0, STACK
        LOCFRAME PSTACK, 0, STACK
        LOCFRAME XSTACK, 9, STACK
        LOCFRAME IOVERLAY, 0, STATIC
        LOCFRAME DOVERLAY, 0, STATIC
        ARGFRAME ISTACK, 0, STACK
        ARGFRAME PSTACK, 0, STACK
        ARGFRAME XSTACK, 9, STACK
        ARGFRAME IOVERLAY, 0, STATIC
        ARGFRAME DOVERLAY, 0, STATIC
        FUNCALL MT_NwkCommandProcessing, MT_NldeDataRequest
        LOCFRAME ISTACK, 0, STACK
        LOCFRAME PSTACK, 0, STACK
        LOCFRAME XSTACK, 9, STACK
        LOCFRAME IOVERLAY, 0, STATIC
        LOCFRAME DOVERLAY, 0, STATIC
        ARGFRAME ISTACK, 0, STACK
        ARGFRAME PSTACK, 0, STACK
        ARGFRAME XSTACK, 9, STACK
        ARGFRAME IOVERLAY, 0, STATIC
        ARGFRAME DOVERLAY, 0, STATIC
        FUNCALL MT_NwkCommandProcessing, MT_NlmeNetworkFormationRequest
        LOCFRAME ISTACK, 0, STACK
        LOCFRAME PSTACK, 0, STACK
        LOCFRAME XSTACK, 9, STACK
        LOCFRAME IOVERLAY, 0, STATIC
        LOCFRAME DOVERLAY, 0, STATIC
        ARGFRAME ISTACK, 0, STACK
        ARGFRAME PSTACK, 0, STACK
        ARGFRAME XSTACK, 9, STACK
        ARGFRAME IOVERLAY, 0, STATIC
        ARGFRAME DOVERLAY, 0, STATIC
        FUNCALL MT_NwkCommandProcessing, MT_NlmePermitJoiningRequest
        LOCFRAME ISTACK, 0, STACK
        LOCFRAME PSTACK, 0, STACK
        LOCFRAME XSTACK, 9, STACK
        LOCFRAME IOVERLAY, 0, STATIC
        LOCFRAME DOVERLAY, 0, STATIC
        ARGFRAME ISTACK, 0, STACK
        ARGFRAME PSTACK, 0, STACK
        ARGFRAME XSTACK, 9, STACK
        ARGFRAME IOVERLAY, 0, STATIC
        ARGFRAME DOVERLAY, 0, STATIC
        FUNCALL MT_NwkCommandProcessing, MT_NlmeJoinRequest
        LOCFRAME ISTACK, 0, STACK
        LOCFRAME PSTACK, 0, STACK
        LOCFRAME XSTACK, 9, STACK
        LOCFRAME IOVERLAY, 0, STATIC
        LOCFRAME DOVERLAY, 0, STATIC
        ARGFRAME ISTACK, 0, STACK
        ARGFRAME PSTACK, 0, STACK
        ARGFRAME XSTACK, 9, STACK
        ARGFRAME IOVERLAY, 0, STATIC
        ARGFRAME DOVERLAY, 0, STATIC
        FUNCALL MT_NwkCommandProcessing, MT_NlmeLeaveRequest
        LOCFRAME ISTACK, 0, STACK
        LOCFRAME PSTACK, 0, STACK
        LOCFRAME XSTACK, 9, STACK
        LOCFRAME IOVERLAY, 0, STATIC
        LOCFRAME DOVERLAY, 0, STATIC
        ARGFRAME ISTACK, 0, STACK
        ARGFRAME PSTACK, 0, STACK
        ARGFRAME XSTACK, 9, STACK
        ARGFRAME IOVERLAY, 0, STATIC
        ARGFRAME DOVERLAY, 0, STATIC
        FUNCALL MT_NwkCommandProcessing, MT_NlmeResetRequest
        LOCFRAME ISTACK, 0, STACK
        LOCFRAME PSTACK, 0, STACK
        LOCFRAME XSTACK, 9, STACK
        LOCFRAME IOVERLAY, 0, STATIC
        LOCFRAME DOVERLAY, 0, STATIC
        ARGFRAME ISTACK, 0, STACK
        ARGFRAME PSTACK, 0, STACK
        ARGFRAME XSTACK, 9, STACK
        ARGFRAME IOVERLAY, 0, STATIC
        ARGFRAME DOVERLAY, 0, STATIC
        FUNCALL MT_NwkCommandProcessing, MT_NlmeGetRequest
        LOCFRAME ISTACK, 0, STACK
        LOCFRAME PSTACK, 0, STACK
        LOCFRAME XSTACK, 9, STACK
        LOCFRAME IOVERLAY, 0, STATIC
        LOCFRAME DOVERLAY, 0, STATIC
        ARGFRAME ISTACK, 0, STACK
        ARGFRAME PSTACK, 0, STACK
        ARGFRAME XSTACK, 9, STACK
        ARGFRAME IOVERLAY, 0, STATIC
        ARGFRAME DOVERLAY, 0, STATIC
        FUNCALL MT_NwkCommandProcessing, MT_NlmeSetRequest
        LOCFRAME ISTACK, 0, STACK
        LOCFRAME PSTACK, 0, STACK
        LOCFRAME XSTACK, 9, STACK
        LOCFRAME IOVERLAY, 0, STATIC
        LOCFRAME DOVERLAY, 0, STATIC
        ARGFRAME ISTACK, 0, STACK
        ARGFRAME PSTACK, 0, STACK
        ARGFRAME XSTACK, 9, STACK
        ARGFRAME IOVERLAY, 0, STATIC
        ARGFRAME DOVERLAY, 0, STATIC
        FUNCALL MT_NwkCommandProcessing, MT_NlmeNetworkDiscoveryRequest
        LOCFRAME ISTACK, 0, STACK
        LOCFRAME PSTACK, 0, STACK
        LOCFRAME XSTACK, 9, STACK
        LOCFRAME IOVERLAY, 0, STATIC
        LOCFRAME DOVERLAY, 0, STATIC
        ARGFRAME ISTACK, 0, STACK
        ARGFRAME PSTACK, 0, STACK
        ARGFRAME XSTACK, 9, STACK
        ARGFRAME IOVERLAY, 0, STATIC
        ARGFRAME DOVERLAY, 0, STATIC
        FUNCALL MT_NwkCommandProcessing, MT_NlmeRouteDiscoveryRequest
        LOCFRAME ISTACK, 0, STACK
        LOCFRAME PSTACK, 0, STACK
        LOCFRAME XSTACK, 9, STACK
        LOCFRAME IOVERLAY, 0, STATIC
        LOCFRAME DOVERLAY, 0, STATIC
        ARGFRAME ISTACK, 0, STACK
        ARGFRAME PSTACK, 0, STACK
        ARGFRAME XSTACK, 9, STACK
        ARGFRAME IOVERLAY, 0, STATIC
        ARGFRAME DOVERLAY, 0, STATIC
        FUNCALL MT_NwkCommandProcessing, MT_NlmeDirectJoinRequest
        LOCFRAME ISTACK, 0, STACK
        LOCFRAME PSTACK, 0, STACK
        LOCFRAME XSTACK, 9, STACK
        LOCFRAME IOVERLAY, 0, STATIC
        LOCFRAME DOVERLAY, 0, STATIC
        ARGFRAME ISTACK, 0, STACK
        ARGFRAME PSTACK, 0, STACK
        ARGFRAME XSTACK, 9, STACK
        ARGFRAME IOVERLAY, 0, STATIC
        ARGFRAME DOVERLAY, 0, STATIC
        FUNCALL MT_NwkCommandProcessing, MT_NlmeOrphanJoinRequest
        LOCFRAME ISTACK, 0, STACK
        LOCFRAME PSTACK, 0, STACK
        LOCFRAME XSTACK, 9, STACK
        LOCFRAME IOVERLAY, 0, STATIC
        LOCFRAME DOVERLAY, 0, STATIC
        ARGFRAME ISTACK, 0, STACK
        ARGFRAME PSTACK, 0, STACK
        ARGFRAME XSTACK, 9, STACK
        ARGFRAME IOVERLAY, 0, STATIC
        ARGFRAME DOVERLAY, 0, STATIC
        FUNCALL MT_NwkCommandProcessing, MT_NlmeStartRouterRequest
        LOCFRAME ISTACK, 0, STACK
        LOCFRAME PSTACK, 0, STACK
        LOCFRAME XSTACK, 9, STACK
        LOCFRAME IOVERLAY, 0, STATIC
        LOCFRAME DOVERLAY, 0, STATIC
        ARGFRAME ISTACK, 0, STACK
        ARGFRAME PSTACK, 0, STACK
        ARGFRAME XSTACK, 9, STACK
        ARGFRAME IOVERLAY, 0, STATIC
        ARGFRAME DOVERLAY, 0, STATIC
        MOV     A,#-0x9
        LCALL   ?BANKED_ENTER_XDATA
        CFI DPH0 load(1, XDATA, add(CFA_XSP16, literal(-1)))
        CFI DPL0 load(1, XDATA, add(CFA_XSP16, literal(-2)))
        CFI ?BRET_EXT load(1, XDATA, add(CFA_XSP16, literal(-3)))
        CFI ?RET_HIGH load(1, XDATA, add(CFA_XSP16, literal(-4)))
        CFI ?RET_LOW load(1, XDATA, add(CFA_XSP16, literal(-5)))
        CFI R7 load(1, XDATA, add(CFA_XSP16, literal(-6)))
        CFI V0 load(1, XDATA, add(CFA_XSP16, literal(-7)))
        CFI VB load(1, XDATA, add(CFA_XSP16, literal(-8)))
        CFI R6 load(1, XDATA, add(CFA_XSP16, literal(-9)))
        CFI CFA_SP SP+0
        CFI CFA_XSP16 add(XSP16, 9)
        ; Saved register size: 9
        ; Auto size: 0
//  107   uint8 status = MT_RPC_SUCCESS;
        MOV     R6,#0x0
//  108 
//  109   switch (pBuf[MT_RPC_POS_CMD1])
        MOV     DPL,R2
        MOV     DPH,R3
        INC     DPTR
        INC     DPTR
        MOVX    A,@DPTR
        JZ      ??MT_NwkCommandProcessing_0
        DEC     A
        JZ      ??MT_NwkCommandProcessing_1
        DEC     A
        JZ      ??MT_NwkCommandProcessing_2
        DEC     A
        JZ      ??MT_NwkCommandProcessing_3
        DEC     A
        JZ      ??MT_NwkCommandProcessing_4
        DEC     A
        JZ      ??MT_NwkCommandProcessing_5
        DEC     A
        JZ      ??MT_NwkCommandProcessing_6
        DEC     A
        JZ      ??MT_NwkCommandProcessing_7
        DEC     A
        JZ      ??MT_NwkCommandProcessing_8
        DEC     A
        JZ      ??MT_NwkCommandProcessing_9
        DEC     A
        JZ      ??MT_NwkCommandProcessing_10
        DEC     A
        JZ      ??MT_NwkCommandProcessing_11
        DEC     A
        JZ      ??MT_NwkCommandProcessing_12
        DEC     A
        JZ      ??MT_NwkCommandProcessing_13
        SJMP    ??MT_NwkCommandProcessing_14
//  110   {
//  111     case MT_NWK_INIT:
//  112       nwk_init(NWK_TaskID);
??MT_NwkCommandProcessing_0:
        ; Setup parameters for call to function nwk_init
        MOV     DPTR,#NWK_TaskID
        MOVX    A,@DPTR
        MOV     R1,A
        LCALL   ??nwk_init?relay
//  113       break;
        SJMP    ??MT_NwkCommandProcessing_15
//  114 
//  115     case MT_NLDE_DATA_REQ:
//  116       MT_NldeDataRequest(pBuf);
??MT_NwkCommandProcessing_1:
        ; Setup parameters for call to function MT_NldeDataRequest
        LCALL   ??MT_NldeDataRequest?relay
//  117       break;
        SJMP    ??MT_NwkCommandProcessing_15
//  118 
//  119     case MT_NLME_NETWORK_FORMATION_REQ:
//  120       MT_NlmeNetworkFormationRequest(pBuf);
??MT_NwkCommandProcessing_2:
        ; Setup parameters for call to function MT_NlmeNetworkFormationRequest
        LCALL   ??MT_NlmeNetworkFormationRequest?relay
//  121       break;
        SJMP    ??MT_NwkCommandProcessing_15
//  122 
//  123     case MT_NLME_PERMIT_JOINING_REQ:
//  124        MT_NlmePermitJoiningRequest(pBuf);
??MT_NwkCommandProcessing_3:
        ; Setup parameters for call to function MT_NlmePermitJoiningRequest
        LCALL   ??MT_NlmePermitJoiningRequest?relay
//  125       break;
        SJMP    ??MT_NwkCommandProcessing_15
//  126 
//  127      case MT_NLME_JOIN_REQ:
//  128        MT_NlmeJoinRequest(pBuf);
??MT_NwkCommandProcessing_4:
        ; Setup parameters for call to function MT_NlmeJoinRequest
        LCALL   ??MT_NlmeJoinRequest?relay
//  129        break;
        SJMP    ??MT_NwkCommandProcessing_15
//  130 
//  131      case MT_NLME_LEAVE_REQ:
//  132        MT_NlmeLeaveRequest(pBuf);
??MT_NwkCommandProcessing_5:
        ; Setup parameters for call to function MT_NlmeLeaveRequest
        LCALL   ??MT_NlmeLeaveRequest?relay
//  133        break;
        SJMP    ??MT_NwkCommandProcessing_15
//  134 
//  135      case MT_NLME_RESET_REQ:
//  136        MT_NlmeResetRequest(pBuf);
??MT_NwkCommandProcessing_6:
        ; Setup parameters for call to function MT_NlmeResetRequest
        LCALL   ??MT_NlmeResetRequest?relay
//  137        break;
        SJMP    ??MT_NwkCommandProcessing_15
//  138 
//  139      case MT_NLME_GET_REQ:
//  140        MT_NlmeGetRequest(pBuf);
??MT_NwkCommandProcessing_7:
        ; Setup parameters for call to function MT_NlmeGetRequest
        LCALL   ??MT_NlmeGetRequest?relay
//  141        break;
        SJMP    ??MT_NwkCommandProcessing_15
//  142 
//  143      case MT_NLME_SET_REQ:
//  144        MT_NlmeSetRequest(pBuf);
??MT_NwkCommandProcessing_8:
        ; Setup parameters for call to function MT_NlmeSetRequest
        LCALL   ??MT_NlmeSetRequest?relay
//  145        break;
        SJMP    ??MT_NwkCommandProcessing_15
//  146 
//  147      case MT_NLME_NETWORK_DISCOVERY_REQ:
//  148        MT_NlmeNetworkDiscoveryRequest(pBuf);
??MT_NwkCommandProcessing_9:
        ; Setup parameters for call to function MT_NlmeNetworkDiscoveryRequest
        LCALL   ??MT_NlmeNetworkDiscoveryRequest?relay
//  149        break;
        SJMP    ??MT_NwkCommandProcessing_15
//  150 
//  151      case MT_NLME_ROUTE_DISCOVERY_REQ:
//  152        MT_NlmeRouteDiscoveryRequest(pBuf);
??MT_NwkCommandProcessing_10:
        ; Setup parameters for call to function MT_NlmeRouteDiscoveryRequest
        LCALL   ??MT_NlmeRouteDiscoveryRequest?relay
//  153        break;
        SJMP    ??MT_NwkCommandProcessing_15
//  154 
//  155      case MT_NLME_DIRECT_JOIN_REQ:
//  156        MT_NlmeDirectJoinRequest(pBuf);
??MT_NwkCommandProcessing_11:
        ; Setup parameters for call to function MT_NlmeDirectJoinRequest
        LCALL   ??MT_NlmeDirectJoinRequest?relay
//  157        break;
        SJMP    ??MT_NwkCommandProcessing_15
//  158 
//  159      case MT_NLME_ORPHAN_JOIN_REQ:
//  160        MT_NlmeOrphanJoinRequest(pBuf);
??MT_NwkCommandProcessing_12:
        ; Setup parameters for call to function MT_NlmeOrphanJoinRequest
        LCALL   ??MT_NlmeOrphanJoinRequest?relay
//  161        break;
        SJMP    ??MT_NwkCommandProcessing_15
//  162 
//  163     case MT_NLME_START_ROUTER_REQ:
//  164       MT_NlmeStartRouterRequest(pBuf);
??MT_NwkCommandProcessing_13:
        ; Setup parameters for call to function MT_NlmeStartRouterRequest
        LCALL   ??MT_NlmeStartRouterRequest?relay
//  165       break;
        SJMP    ??MT_NwkCommandProcessing_15
//  166 
//  167     default:
//  168       status = MT_RPC_ERR_COMMAND_ID;
??MT_NwkCommandProcessing_14:
        INC     R6
        INC     R6
//  169       break;
//  170   }
//  171 
//  172   return status;
??MT_NwkCommandProcessing_15:
        MOV     A,R6
        MOV     R1,A
        LJMP    ??Subroutine41_0 & 0xFFFF
        CFI EndBlock cfiBlock0
//  173 }
//  174 
//  175 /***************************************************************************************************
//  176  * @fn      MT_NldeDataReq
//  177  *
//  178  * @brief   Process NLDE Data Request commands
//  179  *
//  180  * @param   pBuf - pointer to received buffer
//  181  *
//  182  * @return  void
//  183  ***************************************************************************************************/

        RSEG BANKED_CODE:CODE:NOROOT(0)
//  184 void MT_NldeDataRequest(uint8 *pBuf)
MT_NldeDataRequest:
        CFI Block cfiBlock1 Using cfiCommon0
        CFI Function MT_NldeDataRequest
        CODE
//  185 {
        FUNCALL MT_NldeDataRequest, MT_Nwk_DataRequest
        LOCFRAME ISTACK, 0, STACK
        LOCFRAME PSTACK, 0, STACK
        LOCFRAME XSTACK, 19, STACK
        LOCFRAME IOVERLAY, 0, STATIC
        LOCFRAME DOVERLAY, 0, STATIC
        ARGFRAME ISTACK, 0, STACK
        ARGFRAME PSTACK, 0, STACK
        ARGFRAME XSTACK, 19, STACK
        ARGFRAME IOVERLAY, 0, STATIC
        ARGFRAME DOVERLAY, 0, STATIC
        FUNCALL MT_NldeDataRequest, MT_BuildAndSendZToolResponse
        LOCFRAME ISTACK, 0, STACK
        LOCFRAME PSTACK, 0, STACK
        LOCFRAME XSTACK, 13, STACK
        LOCFRAME IOVERLAY, 0, STATIC
        LOCFRAME DOVERLAY, 0, STATIC
        ARGFRAME ISTACK, 0, STACK
        ARGFRAME PSTACK, 0, STACK
        ARGFRAME XSTACK, 13, STACK
        ARGFRAME IOVERLAY, 0, STATIC
        ARGFRAME DOVERLAY, 0, STATIC
        MOV     A,#-0xc
        LCALL   ?BANKED_ENTER_XDATA
        CFI DPH0 load(1, XDATA, add(CFA_XSP16, literal(-1)))
        CFI DPL0 load(1, XDATA, add(CFA_XSP16, literal(-2)))
        CFI ?BRET_EXT load(1, XDATA, add(CFA_XSP16, literal(-3)))
        CFI ?RET_HIGH load(1, XDATA, add(CFA_XSP16, literal(-4)))
        CFI ?RET_LOW load(1, XDATA, add(CFA_XSP16, literal(-5)))
        CFI R7 load(1, XDATA, add(CFA_XSP16, literal(-6)))
        CFI V3 load(1, XDATA, add(CFA_XSP16, literal(-7)))
        CFI V2 load(1, XDATA, add(CFA_XSP16, literal(-8)))
        CFI V1 load(1, XDATA, add(CFA_XSP16, literal(-9)))
        CFI V0 load(1, XDATA, add(CFA_XSP16, literal(-10)))
        CFI VB load(1, XDATA, add(CFA_XSP16, literal(-11)))
        CFI R6 load(1, XDATA, add(CFA_XSP16, literal(-12)))
        CFI CFA_SP SP+0
        CFI CFA_XSP16 add(XSP16, 12)
        ; Saved register size: 12
        ; Auto size: 1
        MOV     A,#-0x1
        LCALL   ?ALLOC_XSTACK8
        CFI CFA_XSP16 add(XSP16, 13)
        MOV     A,R2
        MOV     R6,A
        MOV     A,R3
        MOV     R7,A
//  186   uint8 retValue = ZFailure;
        MOV     DPL,?XSP + 0
        MOV     DPH,?XSP + 1
        MOV     A,#0x1
        MOVX    @DPTR,A
//  187   uint16 dstAddr;
//  188   uint8 dataLen = 0;
//  189   uint8 *dataPtr;
//  190   uint8 cmdId;
//  191 
//  192   /* parse header */
//  193   cmdId = pBuf[MT_RPC_POS_CMD1];
        LCALL   ?Subroutine10 & 0xFFFF
//  194   pBuf += MT_RPC_FRAME_HDR_SZ;
//  195 
//  196   /* First read the DstAddr */
//  197   dstAddr = BUILD_UINT16( pBuf[0], pBuf[1] );
??CrossCallReturnLabel_6:
        MOVX    A,@DPTR
        MOV     R2,A
        INC     DPTR
        MOVX    A,@DPTR
        MOV     R1,A
        MOV     A,R2
        ADD     A,#0x0
        CLR     A
        ADDC    A,R1
        MOV     R3,A
//  198   pBuf += sizeof( dstAddr );
        MOV     A,R6
        ADD     A,#0x2
        LCALL   ?Subroutine26 & 0xFFFF
//  199 
//  200   /* Get the NSDU details */
//  201   dataLen = *pBuf++;
??CrossCallReturnLabel_40:
        MOVX    A,@DPTR
        MOV     ?V0 + 1,A
//  202   dataPtr = pBuf;
        INC     DPTR
        MOV     R4,DPL
        MOV     R5,DPH
//  203 
//  204   /* Skip a length of ZTEST_DEFAULT_DATA_LEN */
//  205   pBuf += ZTEST_DEFAULT_DATA_LEN;
        MOV     A,R4
        ADD     A,#0x66
        MOV     R6,A
        MOV     A,R5
        LCALL   ??Subroutine32_0 & 0xFFFF
//  206 
//  207   /* Send out Data Request */
//  208   retValue = MT_Nwk_DataRequest(dstAddr, dataLen, dataPtr, pBuf[0], BUILD_UINT16(pBuf[1], pBuf[2]),
//  209                                 pBuf[3], pBuf[4], pBuf[5]);
??CrossCallReturnLabel_42:
        INC     DPTR
        LCALL   ?Subroutine13 & 0xFFFF
??CrossCallReturnLabel_38:
        LCALL   ?PUSH_XSTACK_I_ONE
        CFI CFA_XSP16 add(XSP16, 14)
        MOV     DPL,R6
        MOV     DPH,R7
        LCALL   ?Subroutine13 & 0xFFFF
??CrossCallReturnLabel_39:
        LCALL   ?PUSH_XSTACK_I_ONE
        CFI CFA_XSP16 add(XSP16, 15)
        MOV     DPL,R6
        MOV     DPH,R7
        LCALL   ??Subroutine30_0 & 0xFFFF
??CrossCallReturnLabel_37:
        LCALL   ?PUSH_XSTACK_I_ONE
        CFI CFA_XSP16 add(XSP16, 16)
        MOV     DPL,R6
        MOV     DPH,R7
        INC     DPTR
        MOVX    A,@DPTR
        MOV     ?V0 + 2,A
        MOV     DPL,R6
        MOV     DPH,R7
        INC     DPTR
        INC     DPTR
        MOVX    A,@DPTR
        MOV     R1,A
        MOV     A,?V0 + 2
        ADD     A,#0x0
        CLR     A
        ADDC    A,R1
        MOV     ?V0 + 3,A
        MOV     R0,#?V0 + 2
        LCALL   ?PUSH_XSTACK_I_TWO
        CFI CFA_XSP16 add(XSP16, 18)
        MOV     DPL,R6
        MOV     DPH,R7
        LCALL   ??Subroutine31_0 & 0xFFFF
??CrossCallReturnLabel_36:
        LCALL   ?PUSH_XSTACK_I_ONE
        CFI CFA_XSP16 add(XSP16, 19)
        MOV     R1,?V0 + 1
        LCALL   ??MT_Nwk_DataRequest?relay
        MOV     A,#0x6
        LCALL   ?DEALLOC_XSTACK8
        CFI CFA_XSP16 add(XSP16, 13)
        LCALL   ?Subroutine14 & 0xFFFF
//  210 
//  211   /* Build and send back the response */
//  212   MT_BuildAndSendZToolResponse(((uint8)MT_RPC_CMD_SRSP | (uint8)MT_RPC_SYS_NWK), cmdId, 1, &retValue);
??CrossCallReturnLabel_43:
        MOV     R2,?V0 + 0
        LCALL   ?Subroutine23 & 0xFFFF
//  213 }
??CrossCallReturnLabel_52:
        LCALL   ?DEALLOC_XSTACK8
        CFI CFA_XSP16 add(XSP16, 12)
        MOV     R7,#0x4
        LJMP    ?BANKED_LEAVE_XDATA
        CFI EndBlock cfiBlock1

        RSEG BANKED_CODE:CODE:NOROOT(0)
?Subroutine23:
        CFI Block cfiCond2 Using cfiCommon0
        CFI NoFunction
        CFI Conditional ??CrossCallReturnLabel_52
        CFI R6 load(1, XDATA, add(CFA_XSP16, literal(-12)))
        CFI VB load(1, XDATA, add(CFA_XSP16, literal(-11)))
        CFI V0 load(1, XDATA, add(CFA_XSP16, literal(-10)))
        CFI V1 load(1, XDATA, add(CFA_XSP16, literal(-9)))
        CFI V2 load(1, XDATA, add(CFA_XSP16, literal(-8)))
        CFI V3 load(1, XDATA, add(CFA_XSP16, literal(-7)))
        CFI R7 load(1, XDATA, add(CFA_XSP16, literal(-6)))
        CFI ?RET_LOW load(1, XDATA, add(CFA_XSP16, literal(-5)))
        CFI ?RET_HIGH load(1, XDATA, add(CFA_XSP16, literal(-4)))
        CFI ?BRET_EXT load(1, XDATA, add(CFA_XSP16, literal(-3)))
        CFI DPL0 load(1, XDATA, add(CFA_XSP16, literal(-2)))
        CFI DPH0 load(1, XDATA, add(CFA_XSP16, literal(-1)))
        CFI CFA_SP SP+0
        CFI CFA_XSP16 add(XSP16, 13)
        CFI Block cfiCond3 Using cfiCommon0
        CFI (cfiCond3) NoFunction
        CFI (cfiCond3) Conditional ??CrossCallReturnLabel_53
        CFI (cfiCond3) R6 load(1, XDATA, add(CFA_XSP16, literal(-22)))
        CFI (cfiCond3) VB load(1, XDATA, add(CFA_XSP16, literal(-21)))
        CFI (cfiCond3) V0 load(1, XDATA, add(CFA_XSP16, literal(-20)))
        CFI (cfiCond3) V1 load(1, XDATA, add(CFA_XSP16, literal(-19)))
        CFI (cfiCond3) V2 load(1, XDATA, add(CFA_XSP16, literal(-18)))
        CFI (cfiCond3) V3 load(1, XDATA, add(CFA_XSP16, literal(-17)))
        CFI (cfiCond3) V4 load(1, XDATA, add(CFA_XSP16, literal(-16)))
        CFI (cfiCond3) V5 load(1, XDATA, add(CFA_XSP16, literal(-15)))
        CFI (cfiCond3) V6 load(1, XDATA, add(CFA_XSP16, literal(-14)))
        CFI (cfiCond3) V7 load(1, XDATA, add(CFA_XSP16, literal(-13)))
        CFI (cfiCond3) V8 load(1, XDATA, add(CFA_XSP16, literal(-12)))
        CFI (cfiCond3) V9 load(1, XDATA, add(CFA_XSP16, literal(-11)))
        CFI (cfiCond3) V10 load(1, XDATA, add(CFA_XSP16, literal(-10)))
        CFI (cfiCond3) V11 load(1, XDATA, add(CFA_XSP16, literal(-9)))
        CFI (cfiCond3) V12 load(1, XDATA, add(CFA_XSP16, literal(-8)))
        CFI (cfiCond3) V13 load(1, XDATA, add(CFA_XSP16, literal(-7)))
        CFI (cfiCond3) R7 load(1, XDATA, add(CFA_XSP16, literal(-6)))
        CFI (cfiCond3) ?RET_LOW load(1, XDATA, add(CFA_XSP16, literal(-5)))
        CFI (cfiCond3) ?RET_HIGH load(1, XDATA, add(CFA_XSP16, literal(-4)))
        CFI (cfiCond3) ?BRET_EXT load(1, XDATA, add(CFA_XSP16, literal(-3)))
        CFI (cfiCond3) DPL0 load(1, XDATA, add(CFA_XSP16, literal(-2)))
        CFI (cfiCond3) DPH0 load(1, XDATA, add(CFA_XSP16, literal(-1)))
        CFI (cfiCond3) CFA_SP SP+0
        CFI (cfiCond3) CFA_XSP16 add(XSP16, 23)
        CFI Block cfiPicker4 Using cfiCommon1
        CFI (cfiPicker4) NoFunction
        CFI (cfiPicker4) Picker
        MOV     R1,#0x63
        CFI EndBlock cfiCond2
        CFI EndBlock cfiCond3
        CFI EndBlock cfiPicker4
        REQUIRE ??Subroutine29_0
        ; // Fall through to label ??Subroutine29_0

        RSEG BANKED_CODE:CODE:NOROOT(0)
??Subroutine29_0:
        CFI Block cfiCond5 Using cfiCommon0
        CFI NoFunction
        CFI Conditional ??CrossCallReturnLabel_54
        CFI DPL0 Frame(CFA_SP, 4)
        CFI DPH0 Frame(CFA_SP, 5)
        CFI CFA_SP SP+-5
        CFI CFA_XSP16 add(XSP16, 1)
        CFI Block cfiCond6 Using cfiCommon0
        CFI (cfiCond6) NoFunction
        CFI (cfiCond6) Conditional ??CrossCallReturnLabel_54
        CFI (cfiCond6) DPL0 Frame(CFA_SP, 4)
        CFI (cfiCond6) DPH0 Frame(CFA_SP, 5)
        CFI (cfiCond6) CFA_SP SP+-5
        CFI (cfiCond6) CFA_XSP16 add(XSP16, 1)
        CFI Block cfiCond7 Using cfiCommon0
        CFI (cfiCond7) NoFunction
        CFI (cfiCond7) Conditional ??CrossCallReturnLabel_54
        CFI (cfiCond7) DPL0 Frame(CFA_SP, 4)
        CFI (cfiCond7) DPH0 Frame(CFA_SP, 5)
        CFI (cfiCond7) CFA_SP SP+-5
        CFI (cfiCond7) CFA_XSP16 add(XSP16, 1)
        CFI Block cfiCond8 Using cfiCommon0
        CFI (cfiCond8) NoFunction
        CFI (cfiCond8) Conditional ??CrossCallReturnLabel_54
        CFI (cfiCond8) DPL0 Frame(CFA_SP, 4)
        CFI (cfiCond8) DPH0 Frame(CFA_SP, 5)
        CFI (cfiCond8) CFA_SP SP+-5
        CFI (cfiCond8) CFA_XSP16 add(XSP16, 1)
        CFI Block cfiCond9 Using cfiCommon0
        CFI (cfiCond9) NoFunction
        CFI (cfiCond9) Conditional ??CrossCallReturnLabel_54
        CFI (cfiCond9) DPL0 Frame(CFA_SP, 4)
        CFI (cfiCond9) DPH0 Frame(CFA_SP, 5)
        CFI (cfiCond9) CFA_SP SP+-5
        CFI (cfiCond9) CFA_XSP16 add(XSP16, 1)
        CFI Block cfiCond10 Using cfiCommon0
        CFI (cfiCond10) NoFunction
        CFI (cfiCond10) Conditional ??CrossCallReturnLabel_54
        CFI (cfiCond10) DPL0 Frame(CFA_SP, 4)
        CFI (cfiCond10) DPH0 Frame(CFA_SP, 5)
        CFI (cfiCond10) CFA_SP SP+-5
        CFI (cfiCond10) CFA_XSP16 add(XSP16, 1)
        CFI Block cfiCond11 Using cfiCommon0
        CFI (cfiCond11) NoFunction
        CFI (cfiCond11) Conditional ??CrossCallReturnLabel_54
        CFI (cfiCond11) DPL0 Frame(CFA_SP, 4)
        CFI (cfiCond11) DPH0 Frame(CFA_SP, 5)
        CFI (cfiCond11) CFA_SP SP+-5
        CFI (cfiCond11) CFA_XSP16 add(XSP16, 1)
        CFI Block cfiCond12 Using cfiCommon0
        CFI (cfiCond12) NoFunction
        CFI (cfiCond12) Conditional ??CrossCallReturnLabel_55
        CFI (cfiCond12) R6 load(1, XDATA, add(CFA_XSP16, literal(-9)))
        CFI (cfiCond12) VB load(1, XDATA, add(CFA_XSP16, literal(-8)))
        CFI (cfiCond12) V0 load(1, XDATA, add(CFA_XSP16, literal(-7)))
        CFI (cfiCond12) R7 load(1, XDATA, add(CFA_XSP16, literal(-6)))
        CFI (cfiCond12) ?RET_LOW load(1, XDATA, add(CFA_XSP16, literal(-5)))
        CFI (cfiCond12) ?RET_HIGH load(1, XDATA, add(CFA_XSP16, literal(-4)))
        CFI (cfiCond12) ?BRET_EXT load(1, XDATA, add(CFA_XSP16, literal(-3)))
        CFI (cfiCond12) DPL0 load(1, XDATA, add(CFA_XSP16, literal(-2)))
        CFI (cfiCond12) DPH0 load(1, XDATA, add(CFA_XSP16, literal(-1)))
        CFI (cfiCond12) CFA_SP SP+0
        CFI (cfiCond12) CFA_XSP16 add(XSP16, 10)
        CFI Block cfiCond13 Using cfiCommon0
        CFI (cfiCond13) NoFunction
        CFI (cfiCond13) Conditional ??CrossCallReturnLabel_55
        CFI (cfiCond13) R6 load(1, XDATA, add(CFA_XSP16, literal(-9)))
        CFI (cfiCond13) VB load(1, XDATA, add(CFA_XSP16, literal(-8)))
        CFI (cfiCond13) V0 load(1, XDATA, add(CFA_XSP16, literal(-7)))
        CFI (cfiCond13) R7 load(1, XDATA, add(CFA_XSP16, literal(-6)))
        CFI (cfiCond13) ?RET_LOW load(1, XDATA, add(CFA_XSP16, literal(-5)))
        CFI (cfiCond13) ?RET_HIGH load(1, XDATA, add(CFA_XSP16, literal(-4)))
        CFI (cfiCond13) ?BRET_EXT load(1, XDATA, add(CFA_XSP16, literal(-3)))
        CFI (cfiCond13) DPL0 load(1, XDATA, add(CFA_XSP16, literal(-2)))
        CFI (cfiCond13) DPH0 load(1, XDATA, add(CFA_XSP16, literal(-1)))
        CFI (cfiCond13) CFA_SP SP+0
        CFI (cfiCond13) CFA_XSP16 add(XSP16, 10)
        CFI Block cfiCond14 Using cfiCommon0
        CFI (cfiCond14) NoFunction
        CFI (cfiCond14) Conditional ??CrossCallReturnLabel_55
        CFI (cfiCond14) R6 load(1, XDATA, add(CFA_XSP16, literal(-9)))
        CFI (cfiCond14) VB load(1, XDATA, add(CFA_XSP16, literal(-8)))
        CFI (cfiCond14) V0 load(1, XDATA, add(CFA_XSP16, literal(-7)))
        CFI (cfiCond14) R7 load(1, XDATA, add(CFA_XSP16, literal(-6)))
        CFI (cfiCond14) ?RET_LOW load(1, XDATA, add(CFA_XSP16, literal(-5)))
        CFI (cfiCond14) ?RET_HIGH load(1, XDATA, add(CFA_XSP16, literal(-4)))
        CFI (cfiCond14) ?BRET_EXT load(1, XDATA, add(CFA_XSP16, literal(-3)))
        CFI (cfiCond14) DPL0 load(1, XDATA, add(CFA_XSP16, literal(-2)))
        CFI (cfiCond14) DPH0 load(1, XDATA, add(CFA_XSP16, literal(-1)))
        CFI (cfiCond14) CFA_SP SP+0
        CFI (cfiCond14) CFA_XSP16 add(XSP16, 10)
        CFI Block cfiCond15 Using cfiCommon0
        CFI (cfiCond15) NoFunction
        CFI (cfiCond15) Conditional ??CrossCallReturnLabel_55
        CFI (cfiCond15) R6 load(1, XDATA, add(CFA_XSP16, literal(-9)))
        CFI (cfiCond15) VB load(1, XDATA, add(CFA_XSP16, literal(-8)))
        CFI (cfiCond15) V0 load(1, XDATA, add(CFA_XSP16, literal(-7)))
        CFI (cfiCond15) R7 load(1, XDATA, add(CFA_XSP16, literal(-6)))
        CFI (cfiCond15) ?RET_LOW load(1, XDATA, add(CFA_XSP16, literal(-5)))
        CFI (cfiCond15) ?RET_HIGH load(1, XDATA, add(CFA_XSP16, literal(-4)))
        CFI (cfiCond15) ?BRET_EXT load(1, XDATA, add(CFA_XSP16, literal(-3)))
        CFI (cfiCond15) DPL0 load(1, XDATA, add(CFA_XSP16, literal(-2)))
        CFI (cfiCond15) DPH0 load(1, XDATA, add(CFA_XSP16, literal(-1)))
        CFI (cfiCond15) CFA_SP SP+0
        CFI (cfiCond15) CFA_XSP16 add(XSP16, 10)
        CFI Block cfiCond16 Using cfiCommon0
        CFI (cfiCond16) NoFunction
        CFI (cfiCond16) Conditional ??CrossCallReturnLabel_52
        CFI (cfiCond16) R6 load(1, XDATA, add(CFA_XSP16, literal(-12)))
        CFI (cfiCond16) VB load(1, XDATA, add(CFA_XSP16, literal(-11)))
        CFI (cfiCond16) V0 load(1, XDATA, add(CFA_XSP16, literal(-10)))
        CFI (cfiCond16) V1 load(1, XDATA, add(CFA_XSP16, literal(-9)))
        CFI (cfiCond16) V2 load(1, XDATA, add(CFA_XSP16, literal(-8)))
        CFI (cfiCond16) V3 load(1, XDATA, add(CFA_XSP16, literal(-7)))
        CFI (cfiCond16) R7 load(1, XDATA, add(CFA_XSP16, literal(-6)))
        CFI (cfiCond16) ?RET_LOW load(1, XDATA, add(CFA_XSP16, literal(-5)))
        CFI (cfiCond16) ?RET_HIGH load(1, XDATA, add(CFA_XSP16, literal(-4)))
        CFI (cfiCond16) ?BRET_EXT load(1, XDATA, add(CFA_XSP16, literal(-3)))
        CFI (cfiCond16) DPL0 load(1, XDATA, add(CFA_XSP16, literal(-2)))
        CFI (cfiCond16) DPH0 load(1, XDATA, add(CFA_XSP16, literal(-1)))
        CFI (cfiCond16) CFA_SP SP+0
        CFI (cfiCond16) CFA_XSP16 add(XSP16, 13)
        CFI Block cfiCond17 Using cfiCommon0
        CFI (cfiCond17) NoFunction
        CFI (cfiCond17) Conditional ??CrossCallReturnLabel_53
        CFI (cfiCond17) R6 load(1, XDATA, add(CFA_XSP16, literal(-22)))
        CFI (cfiCond17) VB load(1, XDATA, add(CFA_XSP16, literal(-21)))
        CFI (cfiCond17) V0 load(1, XDATA, add(CFA_XSP16, literal(-20)))
        CFI (cfiCond17) V1 load(1, XDATA, add(CFA_XSP16, literal(-19)))
        CFI (cfiCond17) V2 load(1, XDATA, add(CFA_XSP16, literal(-18)))
        CFI (cfiCond17) V3 load(1, XDATA, add(CFA_XSP16, literal(-17)))
        CFI (cfiCond17) V4 load(1, XDATA, add(CFA_XSP16, literal(-16)))
        CFI (cfiCond17) V5 load(1, XDATA, add(CFA_XSP16, literal(-15)))
        CFI (cfiCond17) V6 load(1, XDATA, add(CFA_XSP16, literal(-14)))
        CFI (cfiCond17) V7 load(1, XDATA, add(CFA_XSP16, literal(-13)))
        CFI (cfiCond17) V8 load(1, XDATA, add(CFA_XSP16, literal(-12)))
        CFI (cfiCond17) V9 load(1, XDATA, add(CFA_XSP16, literal(-11)))
        CFI (cfiCond17) V10 load(1, XDATA, add(CFA_XSP16, literal(-10)))
        CFI (cfiCond17) V11 load(1, XDATA, add(CFA_XSP16, literal(-9)))
        CFI (cfiCond17) V12 load(1, XDATA, add(CFA_XSP16, literal(-8)))
        CFI (cfiCond17) V13 load(1, XDATA, add(CFA_XSP16, literal(-7)))
        CFI (cfiCond17) R7 load(1, XDATA, add(CFA_XSP16, literal(-6)))
        CFI (cfiCond17) ?RET_LOW load(1, XDATA, add(CFA_XSP16, literal(-5)))
        CFI (cfiCond17) ?RET_HIGH load(1, XDATA, add(CFA_XSP16, literal(-4)))
        CFI (cfiCond17) ?BRET_EXT load(1, XDATA, add(CFA_XSP16, literal(-3)))
        CFI (cfiCond17) DPL0 load(1, XDATA, add(CFA_XSP16, literal(-2)))
        CFI (cfiCond17) DPH0 load(1, XDATA, add(CFA_XSP16, literal(-1)))
        CFI (cfiCond17) CFA_SP SP+0
        CFI (cfiCond17) CFA_XSP16 add(XSP16, 23)
        CFI Block cfiPicker18 Using cfiCommon1
        CFI (cfiPicker18) NoFunction
        CFI (cfiPicker18) Picker
        LCALL   ??MT_BuildAndSendZToolResponse?relay
        MOV     A,#0x1
        RET
        CFI EndBlock cfiCond5
        CFI EndBlock cfiCond6
        CFI EndBlock cfiCond7
        CFI EndBlock cfiCond8
        CFI EndBlock cfiCond9
        CFI EndBlock cfiCond10
        CFI EndBlock cfiCond11
        CFI EndBlock cfiCond12
        CFI EndBlock cfiCond13
        CFI EndBlock cfiCond14
        CFI EndBlock cfiCond15
        CFI EndBlock cfiCond16
        CFI EndBlock cfiCond17
        CFI EndBlock cfiPicker18

        RSEG BANKED_CODE:CODE:NOROOT(0)
?Subroutine13:
        CFI Block cfiCond19 Using cfiCommon0
        CFI NoFunction
        CFI Conditional ??CrossCallReturnLabel_38
        CFI R6 load(1, XDATA, add(CFA_XSP16, literal(-12)))
        CFI VB load(1, XDATA, add(CFA_XSP16, literal(-11)))
        CFI V0 load(1, XDATA, add(CFA_XSP16, literal(-10)))
        CFI V1 load(1, XDATA, add(CFA_XSP16, literal(-9)))
        CFI V2 load(1, XDATA, add(CFA_XSP16, literal(-8)))
        CFI V3 load(1, XDATA, add(CFA_XSP16, literal(-7)))
        CFI R7 load(1, XDATA, add(CFA_XSP16, literal(-6)))
        CFI ?RET_LOW load(1, XDATA, add(CFA_XSP16, literal(-5)))
        CFI ?RET_HIGH load(1, XDATA, add(CFA_XSP16, literal(-4)))
        CFI ?BRET_EXT load(1, XDATA, add(CFA_XSP16, literal(-3)))
        CFI DPL0 load(1, XDATA, add(CFA_XSP16, literal(-2)))
        CFI DPH0 load(1, XDATA, add(CFA_XSP16, literal(-1)))
        CFI CFA_SP SP+0
        CFI CFA_XSP16 add(XSP16, 13)
        CFI Block cfiCond20 Using cfiCommon0
        CFI (cfiCond20) NoFunction
        CFI (cfiCond20) Conditional ??CrossCallReturnLabel_39
        CFI (cfiCond20) R6 load(1, XDATA, add(CFA_XSP16, literal(-12)))
        CFI (cfiCond20) VB load(1, XDATA, add(CFA_XSP16, literal(-11)))
        CFI (cfiCond20) V0 load(1, XDATA, add(CFA_XSP16, literal(-10)))
        CFI (cfiCond20) V1 load(1, XDATA, add(CFA_XSP16, literal(-9)))
        CFI (cfiCond20) V2 load(1, XDATA, add(CFA_XSP16, literal(-8)))
        CFI (cfiCond20) V3 load(1, XDATA, add(CFA_XSP16, literal(-7)))
        CFI (cfiCond20) R7 load(1, XDATA, add(CFA_XSP16, literal(-6)))
        CFI (cfiCond20) ?RET_LOW load(1, XDATA, add(CFA_XSP16, literal(-5)))
        CFI (cfiCond20) ?RET_HIGH load(1, XDATA, add(CFA_XSP16, literal(-4)))
        CFI (cfiCond20) ?BRET_EXT load(1, XDATA, add(CFA_XSP16, literal(-3)))
        CFI (cfiCond20) DPL0 load(1, XDATA, add(CFA_XSP16, literal(-2)))
        CFI (cfiCond20) DPH0 load(1, XDATA, add(CFA_XSP16, literal(-1)))
        CFI (cfiCond20) CFA_SP SP+0
        CFI (cfiCond20) CFA_XSP16 add(XSP16, 14)
        CFI Block cfiPicker21 Using cfiCommon1
        CFI (cfiPicker21) NoFunction
        CFI (cfiPicker21) Picker
        INC     DPTR
        CFI EndBlock cfiCond19
        CFI EndBlock cfiCond20
        CFI EndBlock cfiPicker21
        REQUIRE ??Subroutine30_0
        ; // Fall through to label ??Subroutine30_0

        RSEG BANKED_CODE:CODE:NOROOT(0)
??Subroutine30_0:
        CFI Block cfiCond22 Using cfiCommon0
        CFI NoFunction
        CFI Conditional ??CrossCallReturnLabel_37
        CFI R6 load(1, XDATA, add(CFA_XSP16, literal(-12)))
        CFI VB load(1, XDATA, add(CFA_XSP16, literal(-11)))
        CFI V0 load(1, XDATA, add(CFA_XSP16, literal(-10)))
        CFI V1 load(1, XDATA, add(CFA_XSP16, literal(-9)))
        CFI V2 load(1, XDATA, add(CFA_XSP16, literal(-8)))
        CFI V3 load(1, XDATA, add(CFA_XSP16, literal(-7)))
        CFI R7 load(1, XDATA, add(CFA_XSP16, literal(-6)))
        CFI ?RET_LOW load(1, XDATA, add(CFA_XSP16, literal(-5)))
        CFI ?RET_HIGH load(1, XDATA, add(CFA_XSP16, literal(-4)))
        CFI ?BRET_EXT load(1, XDATA, add(CFA_XSP16, literal(-3)))
        CFI DPL0 load(1, XDATA, add(CFA_XSP16, literal(-2)))
        CFI DPH0 load(1, XDATA, add(CFA_XSP16, literal(-1)))
        CFI CFA_SP SP+0
        CFI CFA_XSP16 add(XSP16, 15)
        CFI Block cfiCond23 Using cfiCommon0
        CFI (cfiCond23) NoFunction
        CFI (cfiCond23) Conditional ??CrossCallReturnLabel_38
        CFI (cfiCond23) R6 load(1, XDATA, add(CFA_XSP16, literal(-12)))
        CFI (cfiCond23) VB load(1, XDATA, add(CFA_XSP16, literal(-11)))
        CFI (cfiCond23) V0 load(1, XDATA, add(CFA_XSP16, literal(-10)))
        CFI (cfiCond23) V1 load(1, XDATA, add(CFA_XSP16, literal(-9)))
        CFI (cfiCond23) V2 load(1, XDATA, add(CFA_XSP16, literal(-8)))
        CFI (cfiCond23) V3 load(1, XDATA, add(CFA_XSP16, literal(-7)))
        CFI (cfiCond23) R7 load(1, XDATA, add(CFA_XSP16, literal(-6)))
        CFI (cfiCond23) ?RET_LOW load(1, XDATA, add(CFA_XSP16, literal(-5)))
        CFI (cfiCond23) ?RET_HIGH load(1, XDATA, add(CFA_XSP16, literal(-4)))
        CFI (cfiCond23) ?BRET_EXT load(1, XDATA, add(CFA_XSP16, literal(-3)))
        CFI (cfiCond23) DPL0 load(1, XDATA, add(CFA_XSP16, literal(-2)))
        CFI (cfiCond23) DPH0 load(1, XDATA, add(CFA_XSP16, literal(-1)))
        CFI (cfiCond23) CFA_SP SP+0
        CFI (cfiCond23) CFA_XSP16 add(XSP16, 13)
        CFI Block cfiCond24 Using cfiCommon0
        CFI (cfiCond24) NoFunction
        CFI (cfiCond24) Conditional ??CrossCallReturnLabel_39
        CFI (cfiCond24) R6 load(1, XDATA, add(CFA_XSP16, literal(-12)))
        CFI (cfiCond24) VB load(1, XDATA, add(CFA_XSP16, literal(-11)))
        CFI (cfiCond24) V0 load(1, XDATA, add(CFA_XSP16, literal(-10)))
        CFI (cfiCond24) V1 load(1, XDATA, add(CFA_XSP16, literal(-9)))
        CFI (cfiCond24) V2 load(1, XDATA, add(CFA_XSP16, literal(-8)))
        CFI (cfiCond24) V3 load(1, XDATA, add(CFA_XSP16, literal(-7)))
        CFI (cfiCond24) R7 load(1, XDATA, add(CFA_XSP16, literal(-6)))
        CFI (cfiCond24) ?RET_LOW load(1, XDATA, add(CFA_XSP16, literal(-5)))
        CFI (cfiCond24) ?RET_HIGH load(1, XDATA, add(CFA_XSP16, literal(-4)))
        CFI (cfiCond24) ?BRET_EXT load(1, XDATA, add(CFA_XSP16, literal(-3)))
        CFI (cfiCond24) DPL0 load(1, XDATA, add(CFA_XSP16, literal(-2)))
        CFI (cfiCond24) DPH0 load(1, XDATA, add(CFA_XSP16, literal(-1)))
        CFI (cfiCond24) CFA_SP SP+0
        CFI (cfiCond24) CFA_XSP16 add(XSP16, 14)
        CFI Block cfiPicker25 Using cfiCommon1
        CFI (cfiPicker25) NoFunction
        CFI (cfiPicker25) Picker
        INC     DPTR
        INC     DPTR
        INC     DPTR
        CFI EndBlock cfiCond22
        CFI EndBlock cfiCond23
        CFI EndBlock cfiCond24
        CFI EndBlock cfiPicker25
        REQUIRE ??Subroutine31_0
        ; // Fall through to label ??Subroutine31_0

        RSEG BANKED_CODE:CODE:NOROOT(0)
??Subroutine31_0:
        CFI Block cfiCond26 Using cfiCommon0
        CFI NoFunction
        CFI Conditional ??CrossCallReturnLabel_36
        CFI R6 load(1, XDATA, add(CFA_XSP16, literal(-12)))
        CFI VB load(1, XDATA, add(CFA_XSP16, literal(-11)))
        CFI V0 load(1, XDATA, add(CFA_XSP16, literal(-10)))
        CFI V1 load(1, XDATA, add(CFA_XSP16, literal(-9)))
        CFI V2 load(1, XDATA, add(CFA_XSP16, literal(-8)))
        CFI V3 load(1, XDATA, add(CFA_XSP16, literal(-7)))
        CFI R7 load(1, XDATA, add(CFA_XSP16, literal(-6)))
        CFI ?RET_LOW load(1, XDATA, add(CFA_XSP16, literal(-5)))
        CFI ?RET_HIGH load(1, XDATA, add(CFA_XSP16, literal(-4)))
        CFI ?BRET_EXT load(1, XDATA, add(CFA_XSP16, literal(-3)))
        CFI DPL0 load(1, XDATA, add(CFA_XSP16, literal(-2)))
        CFI DPH0 load(1, XDATA, add(CFA_XSP16, literal(-1)))
        CFI CFA_SP SP+0
        CFI CFA_XSP16 add(XSP16, 18)
        CFI Block cfiCond27 Using cfiCommon0
        CFI (cfiCond27) NoFunction
        CFI (cfiCond27) Conditional ??CrossCallReturnLabel_37
        CFI (cfiCond27) R6 load(1, XDATA, add(CFA_XSP16, literal(-12)))
        CFI (cfiCond27) VB load(1, XDATA, add(CFA_XSP16, literal(-11)))
        CFI (cfiCond27) V0 load(1, XDATA, add(CFA_XSP16, literal(-10)))
        CFI (cfiCond27) V1 load(1, XDATA, add(CFA_XSP16, literal(-9)))
        CFI (cfiCond27) V2 load(1, XDATA, add(CFA_XSP16, literal(-8)))
        CFI (cfiCond27) V3 load(1, XDATA, add(CFA_XSP16, literal(-7)))
        CFI (cfiCond27) R7 load(1, XDATA, add(CFA_XSP16, literal(-6)))
        CFI (cfiCond27) ?RET_LOW load(1, XDATA, add(CFA_XSP16, literal(-5)))
        CFI (cfiCond27) ?RET_HIGH load(1, XDATA, add(CFA_XSP16, literal(-4)))
        CFI (cfiCond27) ?BRET_EXT load(1, XDATA, add(CFA_XSP16, literal(-3)))
        CFI (cfiCond27) DPL0 load(1, XDATA, add(CFA_XSP16, literal(-2)))
        CFI (cfiCond27) DPH0 load(1, XDATA, add(CFA_XSP16, literal(-1)))
        CFI (cfiCond27) CFA_SP SP+0
        CFI (cfiCond27) CFA_XSP16 add(XSP16, 15)
        CFI Block cfiCond28 Using cfiCommon0
        CFI (cfiCond28) NoFunction
        CFI (cfiCond28) Conditional ??CrossCallReturnLabel_38
        CFI (cfiCond28) R6 load(1, XDATA, add(CFA_XSP16, literal(-12)))
        CFI (cfiCond28) VB load(1, XDATA, add(CFA_XSP16, literal(-11)))
        CFI (cfiCond28) V0 load(1, XDATA, add(CFA_XSP16, literal(-10)))
        CFI (cfiCond28) V1 load(1, XDATA, add(CFA_XSP16, literal(-9)))
        CFI (cfiCond28) V2 load(1, XDATA, add(CFA_XSP16, literal(-8)))
        CFI (cfiCond28) V3 load(1, XDATA, add(CFA_XSP16, literal(-7)))
        CFI (cfiCond28) R7 load(1, XDATA, add(CFA_XSP16, literal(-6)))
        CFI (cfiCond28) ?RET_LOW load(1, XDATA, add(CFA_XSP16, literal(-5)))
        CFI (cfiCond28) ?RET_HIGH load(1, XDATA, add(CFA_XSP16, literal(-4)))
        CFI (cfiCond28) ?BRET_EXT load(1, XDATA, add(CFA_XSP16, literal(-3)))
        CFI (cfiCond28) DPL0 load(1, XDATA, add(CFA_XSP16, literal(-2)))
        CFI (cfiCond28) DPH0 load(1, XDATA, add(CFA_XSP16, literal(-1)))
        CFI (cfiCond28) CFA_SP SP+0
        CFI (cfiCond28) CFA_XSP16 add(XSP16, 13)
        CFI Block cfiCond29 Using cfiCommon0
        CFI (cfiCond29) NoFunction
        CFI (cfiCond29) Conditional ??CrossCallReturnLabel_39
        CFI (cfiCond29) R6 load(1, XDATA, add(CFA_XSP16, literal(-12)))
        CFI (cfiCond29) VB load(1, XDATA, add(CFA_XSP16, literal(-11)))
        CFI (cfiCond29) V0 load(1, XDATA, add(CFA_XSP16, literal(-10)))
        CFI (cfiCond29) V1 load(1, XDATA, add(CFA_XSP16, literal(-9)))
        CFI (cfiCond29) V2 load(1, XDATA, add(CFA_XSP16, literal(-8)))
        CFI (cfiCond29) V3 load(1, XDATA, add(CFA_XSP16, literal(-7)))
        CFI (cfiCond29) R7 load(1, XDATA, add(CFA_XSP16, literal(-6)))
        CFI (cfiCond29) ?RET_LOW load(1, XDATA, add(CFA_XSP16, literal(-5)))
        CFI (cfiCond29) ?RET_HIGH load(1, XDATA, add(CFA_XSP16, literal(-4)))
        CFI (cfiCond29) ?BRET_EXT load(1, XDATA, add(CFA_XSP16, literal(-3)))
        CFI (cfiCond29) DPL0 load(1, XDATA, add(CFA_XSP16, literal(-2)))
        CFI (cfiCond29) DPH0 load(1, XDATA, add(CFA_XSP16, literal(-1)))
        CFI (cfiCond29) CFA_SP SP+0
        CFI (cfiCond29) CFA_XSP16 add(XSP16, 14)
        CFI Block cfiPicker30 Using cfiCommon1
        CFI (cfiPicker30) NoFunction
        CFI (cfiPicker30) Picker
        MOVX    A,@DPTR
        MOV     ?V0 + 2,A
        MOV     R0,#?V0 + 2
        RET
        CFI EndBlock cfiCond26
        CFI EndBlock cfiCond27
        CFI EndBlock cfiCond28
        CFI EndBlock cfiCond29
        CFI EndBlock cfiPicker30
//  214 
//  215 
//  216 /***************************************************************************************************
//  217  * @fn      MT_NlmeNetworkFormationRequest
//  218  *
//  219  * @brief   Network Formation Request
//  220  *
//  221  * @param   pBuf - pointer to the received buffer
//  222  *
//  223  * @return  void
//  224  ***************************************************************************************************/

        RSEG BANKED_CODE:CODE:NOROOT(0)
//  225 void MT_NlmeNetworkFormationRequest(uint8 *pBuf)
MT_NlmeNetworkFormationRequest:
        CFI Block cfiBlock31 Using cfiCommon0
        CFI Function MT_NlmeNetworkFormationRequest
        CODE
//  226 {
        FUNCALL MT_NlmeNetworkFormationRequest, osal_build_uint32
        LOCFRAME ISTACK, 0, STACK
        LOCFRAME PSTACK, 0, STACK
        LOCFRAME XSTACK, 10, STACK
        LOCFRAME IOVERLAY, 0, STATIC
        LOCFRAME DOVERLAY, 0, STATIC
        ARGFRAME ISTACK, 0, STACK
        ARGFRAME PSTACK, 0, STACK
        ARGFRAME XSTACK, 10, STACK
        ARGFRAME IOVERLAY, 0, STATIC
        ARGFRAME DOVERLAY, 0, STATIC
        FUNCALL MT_NlmeNetworkFormationRequest, MT_BuildAndSendZToolResponse
        LOCFRAME ISTACK, 0, STACK
        LOCFRAME PSTACK, 0, STACK
        LOCFRAME XSTACK, 10, STACK
        LOCFRAME IOVERLAY, 0, STATIC
        LOCFRAME DOVERLAY, 0, STATIC
        ARGFRAME ISTACK, 0, STACK
        ARGFRAME PSTACK, 0, STACK
        ARGFRAME XSTACK, 10, STACK
        ARGFRAME IOVERLAY, 0, STATIC
        ARGFRAME DOVERLAY, 0, STATIC
        MOV     A,#-0x9
        LCALL   ?BANKED_ENTER_XDATA
        CFI DPH0 load(1, XDATA, add(CFA_XSP16, literal(-1)))
        CFI DPL0 load(1, XDATA, add(CFA_XSP16, literal(-2)))
        CFI ?BRET_EXT load(1, XDATA, add(CFA_XSP16, literal(-3)))
        CFI ?RET_HIGH load(1, XDATA, add(CFA_XSP16, literal(-4)))
        CFI ?RET_LOW load(1, XDATA, add(CFA_XSP16, literal(-5)))
        CFI R7 load(1, XDATA, add(CFA_XSP16, literal(-6)))
        CFI V0 load(1, XDATA, add(CFA_XSP16, literal(-7)))
        CFI VB load(1, XDATA, add(CFA_XSP16, literal(-8)))
        CFI R6 load(1, XDATA, add(CFA_XSP16, literal(-9)))
        CFI CFA_SP SP+0
        CFI CFA_XSP16 add(XSP16, 9)
        ; Saved register size: 9
        ; Auto size: 1
        MOV     A,#-0x1
        LCALL   ?ALLOC_XSTACK8
        CFI CFA_XSP16 add(XSP16, 10)
//  227   uint8 retValue = ZFailure;
        LCALL   ?Subroutine16 & 0xFFFF
//  228 	uint16 panId;
//  229   uint32 channelList;
//  230   uint8 cmdId;
//  231 
//  232   /* parse header */
//  233   cmdId = pBuf[MT_RPC_POS_CMD1];
??CrossCallReturnLabel_15:
        MOV     R6,A
//  234   pBuf += MT_RPC_FRAME_HDR_SZ;
//  235 
//  236   /* Build panId */
//  237   panId = BUILD_UINT16( pBuf[0], pBuf[1]);
//  238   pBuf += sizeof(uint16);
//  239 			
//  240   /* Build the channel list */
//  241   channelList = osal_build_uint32(pBuf, 4);
        ; Setup parameters for call to function osal_build_uint32
        MOV     R1,#0x4
        MOV     A,R2
        ADD     A,#0x5
        MOV     R2,A
        MOV     A,R3
        ADDC    A,#0x0
        MOV     R3,A
        LCALL   ??osal_build_uint32?relay
//  242   pBuf += sizeof(uint32);
//  243 
//  244   if ( ZG_BUILD_COORDINATOR_TYPE && ZG_DEVICE_COORDINATOR_TYPE )
//  245   {
//  246     retValue = NLME_NetworkFormationRequest( panId, NULL, channelList, pBuf[0], pBuf[1], pBuf[2], pBuf[3] );
//  247   }
//  248   else
//  249   {
//  250     retValue = ZUnsupportedMode;
        MOV     DPL,?XSP + 0
        MOV     DPH,?XSP + 1
        MOV     A,#0x12
        MOVX    @DPTR,A
//  251   }
//  252 
//  253   /* Build and send back the response */
//  254   MT_BuildAndSendZToolResponse(((uint8)MT_RPC_CMD_SRSP | (uint8)MT_RPC_SYS_NWK), cmdId, 1, &retValue);
        ; Setup parameters for call to function MT_BuildAndSendZToolResponse
        LJMP    ?Subroutine0 & 0xFFFF
        CFI EndBlock cfiBlock31
//  255 }
//  256 
//  257 /***************************************************************************************************
//  258  * @fn      MT_NlmePermitJoiningRequest
//  259  *
//  260  * @brief   Permit Joining Request
//  261  *
//  262  * @param   pBuf - pointer to the received buffer
//  263  *
//  264  * @return  void
//  265  ***************************************************************************************************/

        RSEG BANKED_CODE:CODE:NOROOT(0)
//  266 void MT_NlmePermitJoiningRequest(uint8 *pBuf)
MT_NlmePermitJoiningRequest:
        CFI Block cfiBlock32 Using cfiCommon0
        CFI Function MT_NlmePermitJoiningRequest
        CODE
        FUNCALL MT_NlmePermitJoiningRequest, MT_BuildAndSendZToolResponse
        LOCFRAME ISTACK, 2, STACK
        LOCFRAME PSTACK, 0, STACK
        LOCFRAME XSTACK, 1, STACK
        LOCFRAME IOVERLAY, 0, STATIC
        LOCFRAME DOVERLAY, 0, STATIC
        ARGFRAME ISTACK, 2, STACK
        ARGFRAME PSTACK, 0, STACK
        ARGFRAME XSTACK, 1, STACK
        ARGFRAME IOVERLAY, 0, STATIC
        ARGFRAME DOVERLAY, 0, STATIC
        LJMP    ?Subroutine1 & 0xFFFF
        CFI EndBlock cfiBlock32
//  267 {
//  268   uint8 retValue = ZFailure;
//  269   uint8 cmdId;
//  270 
//  271   /* parse header */
//  272   cmdId = pBuf[MT_RPC_POS_CMD1];
//  273   pBuf += MT_RPC_FRAME_HDR_SZ;
//  274 
//  275   if (ZSTACK_ROUTER_BUILD)
//  276   {
//  277     retValue = NLME_PermitJoiningRequest(*pBuf);
//  278   }
//  279   else
//  280   {
//  281     retValue = ZUnsupportedMode;
//  282   }
//  283 
//  284   /* Build and send back the response */
//  285   MT_BuildAndSendZToolResponse(((uint8)MT_RPC_CMD_SRSP | (uint8)MT_RPC_SYS_NWK), cmdId, 1, &retValue);
//  286 }
//  287 
//  288 /***************************************************************************************************
//  289  * @fn      MT_NlmeStartRouterRequest
//  290  *
//  291  * @brief   Start Router Request
//  292  *
//  293  * @param   pBuf - pointer to the received buffer
//  294  *
//  295  * @return  void
//  296  ***************************************************************************************************/

        RSEG BANKED_CODE:CODE:NOROOT(0)
//  297 void MT_NlmeStartRouterRequest(uint8 *pBuf)
MT_NlmeStartRouterRequest:
        CFI Block cfiBlock33 Using cfiCommon0
        CFI Function MT_NlmeStartRouterRequest
        CODE
        FUNCALL MT_NlmeStartRouterRequest, MT_BuildAndSendZToolResponse
        LOCFRAME ISTACK, 2, STACK
        LOCFRAME PSTACK, 0, STACK
        LOCFRAME XSTACK, 1, STACK
        LOCFRAME IOVERLAY, 0, STATIC
        LOCFRAME DOVERLAY, 0, STATIC
        ARGFRAME ISTACK, 2, STACK
        ARGFRAME PSTACK, 0, STACK
        ARGFRAME XSTACK, 1, STACK
        ARGFRAME IOVERLAY, 0, STATIC
        ARGFRAME DOVERLAY, 0, STATIC
        LJMP    ?Subroutine1 & 0xFFFF
        CFI EndBlock cfiBlock33
//  298 {
//  299   uint8 retValue = ZFailure;
//  300   uint8 cmdId;
//  301 
//  302   /* parse header */
//  303   cmdId = pBuf[MT_RPC_POS_CMD1];
//  304   pBuf += MT_RPC_FRAME_HDR_SZ;
//  305 
//  306   if ( ZSTACK_ROUTER_BUILD )
//  307   {
//  308     retValue = (uint8)NLME_StartRouterRequest(pBuf[0], pBuf[1], pBuf[2]);
//  309   }
//  310   else
//  311   {
//  312     retValue = ZUnsupportedMode;
//  313   }
//  314 
//  315   /* Build and send back the response */
//  316   MT_BuildAndSendZToolResponse(((uint8)MT_RPC_CMD_SRSP | (uint8)MT_RPC_SYS_NWK), cmdId, 1, &retValue);
//  317 }
//  318 
//  319 /***************************************************************************************************
//  320  * @fn      MT_NlmeJoinRequest
//  321  *
//  322  * @brief   Join Request
//  323  *
//  324  * @param   pBuf - pointer to the received buffer
//  325  *
//  326  * @return  void
//  327  ***************************************************************************************************/

        RSEG BANKED_CODE:CODE:NOROOT(0)
//  328 void MT_NlmeJoinRequest(uint8 *pBuf)
MT_NlmeJoinRequest:
        CFI Block cfiBlock34 Using cfiCommon0
        CFI Function MT_NlmeJoinRequest
        CODE
//  329 {
        FUNCALL MT_NlmeJoinRequest, NLME_JoinRequest
        LOCFRAME ISTACK, 0, STACK
        LOCFRAME PSTACK, 0, STACK
        LOCFRAME XSTACK, 20, STACK
        LOCFRAME IOVERLAY, 0, STATIC
        LOCFRAME DOVERLAY, 0, STATIC
        ARGFRAME ISTACK, 0, STACK
        ARGFRAME PSTACK, 0, STACK
        ARGFRAME XSTACK, 20, STACK
        ARGFRAME IOVERLAY, 0, STATIC
        ARGFRAME DOVERLAY, 0, STATIC
        FUNCALL MT_NlmeJoinRequest, NLME_SetPollRate
        LOCFRAME ISTACK, 0, STACK
        LOCFRAME PSTACK, 0, STACK
        LOCFRAME XSTACK, 19, STACK
        LOCFRAME IOVERLAY, 0, STATIC
        LOCFRAME DOVERLAY, 0, STATIC
        ARGFRAME ISTACK, 0, STACK
        ARGFRAME PSTACK, 0, STACK
        ARGFRAME XSTACK, 19, STACK
        ARGFRAME IOVERLAY, 0, STATIC
        ARGFRAME DOVERLAY, 0, STATIC
        FUNCALL MT_NlmeJoinRequest, NLME_SetQueuedPollRate
        LOCFRAME ISTACK, 0, STACK
        LOCFRAME PSTACK, 0, STACK
        LOCFRAME XSTACK, 19, STACK
        LOCFRAME IOVERLAY, 0, STATIC
        LOCFRAME DOVERLAY, 0, STATIC
        ARGFRAME ISTACK, 0, STACK
        ARGFRAME PSTACK, 0, STACK
        ARGFRAME XSTACK, 19, STACK
        ARGFRAME IOVERLAY, 0, STATIC
        ARGFRAME DOVERLAY, 0, STATIC
        FUNCALL MT_NlmeJoinRequest, NLME_SetResponseRate
        LOCFRAME ISTACK, 0, STACK
        LOCFRAME PSTACK, 0, STACK
        LOCFRAME XSTACK, 19, STACK
        LOCFRAME IOVERLAY, 0, STATIC
        LOCFRAME DOVERLAY, 0, STATIC
        ARGFRAME ISTACK, 0, STACK
        ARGFRAME PSTACK, 0, STACK
        ARGFRAME XSTACK, 19, STACK
        ARGFRAME IOVERLAY, 0, STATIC
        ARGFRAME DOVERLAY, 0, STATIC
        FUNCALL MT_NlmeJoinRequest, MT_BuildAndSendZToolResponse
        LOCFRAME ISTACK, 0, STACK
        LOCFRAME PSTACK, 0, STACK
        LOCFRAME XSTACK, 19, STACK
        LOCFRAME IOVERLAY, 0, STATIC
        LOCFRAME DOVERLAY, 0, STATIC
        ARGFRAME ISTACK, 0, STACK
        ARGFRAME PSTACK, 0, STACK
        ARGFRAME XSTACK, 19, STACK
        ARGFRAME IOVERLAY, 0, STATIC
        ARGFRAME DOVERLAY, 0, STATIC
        MOV     A,#-0xa
        LCALL   ?BANKED_ENTER_XDATA
        CFI DPH0 load(1, XDATA, add(CFA_XSP16, literal(-1)))
        CFI DPL0 load(1, XDATA, add(CFA_XSP16, literal(-2)))
        CFI ?BRET_EXT load(1, XDATA, add(CFA_XSP16, literal(-3)))
        CFI ?RET_HIGH load(1, XDATA, add(CFA_XSP16, literal(-4)))
        CFI ?RET_LOW load(1, XDATA, add(CFA_XSP16, literal(-5)))
        CFI R7 load(1, XDATA, add(CFA_XSP16, literal(-6)))
        CFI V1 load(1, XDATA, add(CFA_XSP16, literal(-7)))
        CFI V0 load(1, XDATA, add(CFA_XSP16, literal(-8)))
        CFI VB load(1, XDATA, add(CFA_XSP16, literal(-9)))
        CFI R6 load(1, XDATA, add(CFA_XSP16, literal(-10)))
        CFI CFA_SP SP+0
        CFI CFA_XSP16 add(XSP16, 10)
        ; Saved register size: 10
        ; Auto size: 9
        MOV     A,#-0x9
        LCALL   ?ALLOC_XSTACK8
        CFI CFA_XSP16 add(XSP16, 19)
        MOV     A,R2
        MOV     R6,A
        MOV     A,R3
        MOV     R7,A
//  330   uint8 retValue = ZFailure;
        MOV     DPL,?XSP + 0
        MOV     DPH,?XSP + 1
        MOV     A,#0x1
        MOVX    @DPTR,A
//  331   uint8 dummyExPANID[Z_EXTADDR_LEN] = {0xFF, 0xFF, 0xFF, 0xFF, 0xFF, 0xFF, 0xFF, 0xFF};
        LCALL   ?XSTACK_DISP0_8
        MOV     R4,DPL
        MOV     R5,DPH
        MOV     DPH,#(`?<Constant {255, 255, 255, 255, 255, 255, 255,` >> 8) & 0xff
        MOV     DPL,#`?<Constant {255, 255, 255, 255, 255, 255, 255,` & 0xff
        MOV     A,#0x8
        LCALL   ?MOVE_LONG8_XDATA_XDATA
//  332   uint8 cmdId;
//  333 
//  334   /* parse header */
//  335   cmdId = pBuf[MT_RPC_POS_CMD1];
        LCALL   ?Subroutine10 & 0xFFFF
//  336   pBuf += MT_RPC_FRAME_HDR_SZ;
//  337 
//  338 	retValue = NLME_JoinRequest(dummyExPANID, BUILD_UINT16(pBuf[0], pBuf[1]), pBuf[2], pBuf[3]);
??CrossCallReturnLabel_7:
        INC     DPTR
        INC     DPTR
        INC     DPTR
        MOVX    A,@DPTR
        MOV     ?V0 + 1,A
        MOV     R0,#?V0 + 1
        LCALL   ?PUSH_XSTACK_I_ONE
        CFI CFA_XSP16 add(XSP16, 20)
        MOV     DPL,R6
        MOV     DPH,R7
        INC     DPTR
        INC     DPTR
        MOVX    A,@DPTR
        MOV     R1,A
        MOV     DPL,R6
        MOV     DPH,R7
        MOVX    A,@DPTR
        MOV     R4,A
        INC     DPTR
        MOVX    A,@DPTR
        MOV     R3,A
        MOV     A,R4
        ADD     A,#0x0
        CLR     A
        ADDC    A,R3
        MOV     R5,A
        MOV     A,#0x2
        LCALL   ?XSTACK_DISP0_8
        MOV     R2,DPL
        MOV     R3,DPH
        LCALL   ??NLME_JoinRequest?relay
        MOV     A,#0x1
        LCALL   ?DEALLOC_XSTACK8
        CFI CFA_XSP16 add(XSP16, 19)
        MOV     A,R1
        MOV     DPL,?XSP + 0
        MOV     DPH,?XSP + 1
        MOVX    @DPTR,A
//  339 
//  340   if ( pBuf[6] & CAPINFO_RCVR_ON_IDLE )
        MOV     DPL,R6
        MOV     DPH,R7
        INC     DPTR
        INC     DPTR
        INC     DPTR
        INC     DPTR
        INC     DPTR
        INC     DPTR
        MOVX    A,@DPTR
        MOV     C,0xE0 /* A   */.3
        JNC     ??MT_NlmeJoinRequest_0
//  341   {
//  342     /* The receiver is on, turn network layer polling off. */
//  343     NLME_SetPollRate( 0 );
        ; Setup parameters for call to function NLME_SetPollRate
        MOV     R2,#0x0
        MOV     R3,#0x0
        LCALL   ??NLME_SetPollRate?relay
//  344     NLME_SetQueuedPollRate( 0 );
        ; Setup parameters for call to function NLME_SetQueuedPollRate
        MOV     R2,#0x0
        MOV     R3,#0x0
        LCALL   ??NLME_SetQueuedPollRate?relay
//  345     NLME_SetResponseRate( 0 );
        ; Setup parameters for call to function NLME_SetResponseRate
        MOV     R2,#0x0
        MOV     R3,#0x0
        LCALL   ??NLME_SetResponseRate?relay
//  346   }
//  347 
//  348   /* Build and send back the response */
//  349   MT_BuildAndSendZToolResponse(((uint8)MT_RPC_CMD_SRSP | (uint8)MT_RPC_SYS_NWK), cmdId, 1, &retValue);
??MT_NlmeJoinRequest_0:
        ; Setup parameters for call to function MT_BuildAndSendZToolResponse
        MOV     DPL,?XSP + 0
        MOV     DPH,?XSP + 1
        MOV     R4,DPL
        MOV     R5,DPH
        MOV     R3,#0x1
        MOV     R2,?V0 + 0
        MOV     R1,#0x63
        LCALL   ??MT_BuildAndSendZToolResponse?relay
//  350 }
        MOV     A,#0x9
        CFI EndBlock cfiBlock34
        REQUIRE ?Subroutine2
        ; // Fall through to label ?Subroutine2

        RSEG BANKED_CODE:CODE:NOROOT(0)
?Subroutine2:
        CFI Block cfiBlock35 Using cfiCommon0
        CFI NoFunction
        CFI CFA_SP SP+0
        CFI CFA_XSP16 add(XSP16, 19)
        CFI VB load(1, XDATA, add(CFA_XSP16, literal(-9)))
        CFI DPL0 load(1, XDATA, add(CFA_XSP16, literal(-2)))
        CFI DPH0 load(1, XDATA, add(CFA_XSP16, literal(-1)))
        CFI R6 load(1, XDATA, add(CFA_XSP16, literal(-10)))
        CFI R7 load(1, XDATA, add(CFA_XSP16, literal(-6)))
        CFI V0 load(1, XDATA, add(CFA_XSP16, literal(-8)))
        CFI V1 load(1, XDATA, add(CFA_XSP16, literal(-7)))
        CFI ?BRET_EXT load(1, XDATA, add(CFA_XSP16, literal(-3)))
        CFI ?RET_HIGH load(1, XDATA, add(CFA_XSP16, literal(-4)))
        CFI ?RET_LOW load(1, XDATA, add(CFA_XSP16, literal(-5)))
        CFI Invalid
        LCALL   ?DEALLOC_XSTACK8
        CFI CFA_XSP16 add(XSP16, 10)
        CFI Valid
        MOV     R7,#0x2
        LJMP    ?BANKED_LEAVE_XDATA
        CFI EndBlock cfiBlock35

        RSEG BANKED_CODE:CODE:NOROOT(0)
?Subroutine10:
        CFI Block cfiCond36 Using cfiCommon0
        CFI NoFunction
        CFI Conditional ??CrossCallReturnLabel_6
        CFI R6 load(1, XDATA, add(CFA_XSP16, literal(-12)))
        CFI VB load(1, XDATA, add(CFA_XSP16, literal(-11)))
        CFI V0 load(1, XDATA, add(CFA_XSP16, literal(-10)))
        CFI V1 load(1, XDATA, add(CFA_XSP16, literal(-9)))
        CFI V2 load(1, XDATA, add(CFA_XSP16, literal(-8)))
        CFI V3 load(1, XDATA, add(CFA_XSP16, literal(-7)))
        CFI R7 load(1, XDATA, add(CFA_XSP16, literal(-6)))
        CFI ?RET_LOW load(1, XDATA, add(CFA_XSP16, literal(-5)))
        CFI ?RET_HIGH load(1, XDATA, add(CFA_XSP16, literal(-4)))
        CFI ?BRET_EXT load(1, XDATA, add(CFA_XSP16, literal(-3)))
        CFI DPL0 load(1, XDATA, add(CFA_XSP16, literal(-2)))
        CFI DPH0 load(1, XDATA, add(CFA_XSP16, literal(-1)))
        CFI CFA_SP SP+0
        CFI CFA_XSP16 add(XSP16, 13)
        CFI Block cfiCond37 Using cfiCommon0
        CFI (cfiCond37) NoFunction
        CFI (cfiCond37) Conditional ??CrossCallReturnLabel_7
        CFI (cfiCond37) R6 load(1, XDATA, add(CFA_XSP16, literal(-10)))
        CFI (cfiCond37) VB load(1, XDATA, add(CFA_XSP16, literal(-9)))
        CFI (cfiCond37) V0 load(1, XDATA, add(CFA_XSP16, literal(-8)))
        CFI (cfiCond37) V1 load(1, XDATA, add(CFA_XSP16, literal(-7)))
        CFI (cfiCond37) R7 load(1, XDATA, add(CFA_XSP16, literal(-6)))
        CFI (cfiCond37) ?RET_LOW load(1, XDATA, add(CFA_XSP16, literal(-5)))
        CFI (cfiCond37) ?RET_HIGH load(1, XDATA, add(CFA_XSP16, literal(-4)))
        CFI (cfiCond37) ?BRET_EXT load(1, XDATA, add(CFA_XSP16, literal(-3)))
        CFI (cfiCond37) DPL0 load(1, XDATA, add(CFA_XSP16, literal(-2)))
        CFI (cfiCond37) DPH0 load(1, XDATA, add(CFA_XSP16, literal(-1)))
        CFI (cfiCond37) CFA_SP SP+0
        CFI (cfiCond37) CFA_XSP16 add(XSP16, 19)
        CFI Block cfiPicker38 Using cfiCommon1
        CFI (cfiPicker38) NoFunction
        CFI (cfiPicker38) Picker
        MOV     DPL,R6
        MOV     DPH,R7
        INC     DPTR
        INC     DPTR
        MOVX    A,@DPTR
        MOV     ?V0 + 0,A
        MOV     A,R6
        ADD     A,#0x3
        INC     R6
        LCALL   ?Subroutine26 & 0xFFFF
??CrossCallReturnLabel_41:
        RET
        CFI EndBlock cfiCond36
        CFI EndBlock cfiCond37
        CFI EndBlock cfiPicker38

        RSEG BANKED_CODE:CODE:NOROOT(0)
?Subroutine26:
        CFI Block cfiCond39 Using cfiCommon0
        CFI NoFunction
        CFI Conditional ??CrossCallReturnLabel_40
        CFI R6 load(1, XDATA, add(CFA_XSP16, literal(-12)))
        CFI VB load(1, XDATA, add(CFA_XSP16, literal(-11)))
        CFI V0 load(1, XDATA, add(CFA_XSP16, literal(-10)))
        CFI V1 load(1, XDATA, add(CFA_XSP16, literal(-9)))
        CFI V2 load(1, XDATA, add(CFA_XSP16, literal(-8)))
        CFI V3 load(1, XDATA, add(CFA_XSP16, literal(-7)))
        CFI R7 load(1, XDATA, add(CFA_XSP16, literal(-6)))
        CFI ?RET_LOW load(1, XDATA, add(CFA_XSP16, literal(-5)))
        CFI ?RET_HIGH load(1, XDATA, add(CFA_XSP16, literal(-4)))
        CFI ?BRET_EXT load(1, XDATA, add(CFA_XSP16, literal(-3)))
        CFI DPL0 load(1, XDATA, add(CFA_XSP16, literal(-2)))
        CFI DPH0 load(1, XDATA, add(CFA_XSP16, literal(-1)))
        CFI CFA_SP SP+0
        CFI CFA_XSP16 add(XSP16, 13)
        CFI Block cfiCond40 Using cfiCommon0
        CFI (cfiCond40) NoFunction
        CFI (cfiCond40) Conditional ??CrossCallReturnLabel_41, ??CrossCallReturnLabel_6
        CFI (cfiCond40) R6 load(1, XDATA, add(CFA_XSP16, literal(-12)))
        CFI (cfiCond40) VB load(1, XDATA, add(CFA_XSP16, literal(-11)))
        CFI (cfiCond40) V0 load(1, XDATA, add(CFA_XSP16, literal(-10)))
        CFI (cfiCond40) V1 load(1, XDATA, add(CFA_XSP16, literal(-9)))
        CFI (cfiCond40) V2 load(1, XDATA, add(CFA_XSP16, literal(-8)))
        CFI (cfiCond40) V3 load(1, XDATA, add(CFA_XSP16, literal(-7)))
        CFI (cfiCond40) R7 load(1, XDATA, add(CFA_XSP16, literal(-6)))
        CFI (cfiCond40) ?RET_LOW load(1, XDATA, add(CFA_XSP16, literal(-5)))
        CFI (cfiCond40) ?RET_HIGH load(1, XDATA, add(CFA_XSP16, literal(-4)))
        CFI (cfiCond40) ?BRET_EXT load(1, XDATA, add(CFA_XSP16, literal(-3)))
        CFI (cfiCond40) DPL0 load(1, XDATA, add(CFA_XSP16, literal(-2)))
        CFI (cfiCond40) DPH0 load(1, XDATA, add(CFA_XSP16, literal(-1)))
        CFI (cfiCond40) CFA_SP SP+0
        CFI (cfiCond40) CFA_XSP16 add(XSP16, 13)
        CFI Block cfiCond41 Using cfiCommon0
        CFI (cfiCond41) NoFunction
        CFI (cfiCond41) Conditional ??CrossCallReturnLabel_41, ??CrossCallReturnLabel_7
        CFI (cfiCond41) R6 load(1, XDATA, add(CFA_XSP16, literal(-10)))
        CFI (cfiCond41) VB load(1, XDATA, add(CFA_XSP16, literal(-9)))
        CFI (cfiCond41) V0 load(1, XDATA, add(CFA_XSP16, literal(-8)))
        CFI (cfiCond41) V1 load(1, XDATA, add(CFA_XSP16, literal(-7)))
        CFI (cfiCond41) R7 load(1, XDATA, add(CFA_XSP16, literal(-6)))
        CFI (cfiCond41) ?RET_LOW load(1, XDATA, add(CFA_XSP16, literal(-5)))
        CFI (cfiCond41) ?RET_HIGH load(1, XDATA, add(CFA_XSP16, literal(-4)))
        CFI (cfiCond41) ?BRET_EXT load(1, XDATA, add(CFA_XSP16, literal(-3)))
        CFI (cfiCond41) DPL0 load(1, XDATA, add(CFA_XSP16, literal(-2)))
        CFI (cfiCond41) DPH0 load(1, XDATA, add(CFA_XSP16, literal(-1)))
        CFI (cfiCond41) CFA_SP SP+0
        CFI (cfiCond41) CFA_XSP16 add(XSP16, 19)
        CFI Block cfiPicker42 Using cfiCommon1
        CFI (cfiPicker42) NoFunction
        CFI (cfiPicker42) Picker
        INC     R6
        INC     R6
        MOV     A,R7
        CFI EndBlock cfiCond39
        CFI EndBlock cfiCond40
        CFI EndBlock cfiCond41
        CFI EndBlock cfiPicker42
        REQUIRE ??Subroutine32_0
        ; // Fall through to label ??Subroutine32_0

        RSEG BANKED_CODE:CODE:NOROOT(0)
??Subroutine32_0:
        CFI Block cfiCond43 Using cfiCommon0
        CFI NoFunction
        CFI Conditional ??CrossCallReturnLabel_42
        CFI R6 load(1, XDATA, add(CFA_XSP16, literal(-12)))
        CFI VB load(1, XDATA, add(CFA_XSP16, literal(-11)))
        CFI V0 load(1, XDATA, add(CFA_XSP16, literal(-10)))
        CFI V1 load(1, XDATA, add(CFA_XSP16, literal(-9)))
        CFI V2 load(1, XDATA, add(CFA_XSP16, literal(-8)))
        CFI V3 load(1, XDATA, add(CFA_XSP16, literal(-7)))
        CFI R7 load(1, XDATA, add(CFA_XSP16, literal(-6)))
        CFI ?RET_LOW load(1, XDATA, add(CFA_XSP16, literal(-5)))
        CFI ?RET_HIGH load(1, XDATA, add(CFA_XSP16, literal(-4)))
        CFI ?BRET_EXT load(1, XDATA, add(CFA_XSP16, literal(-3)))
        CFI DPL0 load(1, XDATA, add(CFA_XSP16, literal(-2)))
        CFI DPH0 load(1, XDATA, add(CFA_XSP16, literal(-1)))
        CFI CFA_SP SP+0
        CFI CFA_XSP16 add(XSP16, 13)
        CFI Block cfiCond44 Using cfiCommon0
        CFI (cfiCond44) NoFunction
        CFI (cfiCond44) Conditional ??CrossCallReturnLabel_40
        CFI (cfiCond44) R6 load(1, XDATA, add(CFA_XSP16, literal(-12)))
        CFI (cfiCond44) VB load(1, XDATA, add(CFA_XSP16, literal(-11)))
        CFI (cfiCond44) V0 load(1, XDATA, add(CFA_XSP16, literal(-10)))
        CFI (cfiCond44) V1 load(1, XDATA, add(CFA_XSP16, literal(-9)))
        CFI (cfiCond44) V2 load(1, XDATA, add(CFA_XSP16, literal(-8)))
        CFI (cfiCond44) V3 load(1, XDATA, add(CFA_XSP16, literal(-7)))
        CFI (cfiCond44) R7 load(1, XDATA, add(CFA_XSP16, literal(-6)))
        CFI (cfiCond44) ?RET_LOW load(1, XDATA, add(CFA_XSP16, literal(-5)))
        CFI (cfiCond44) ?RET_HIGH load(1, XDATA, add(CFA_XSP16, literal(-4)))
        CFI (cfiCond44) ?BRET_EXT load(1, XDATA, add(CFA_XSP16, literal(-3)))
        CFI (cfiCond44) DPL0 load(1, XDATA, add(CFA_XSP16, literal(-2)))
        CFI (cfiCond44) DPH0 load(1, XDATA, add(CFA_XSP16, literal(-1)))
        CFI (cfiCond44) CFA_SP SP+0
        CFI (cfiCond44) CFA_XSP16 add(XSP16, 13)
        CFI Block cfiCond45 Using cfiCommon0
        CFI (cfiCond45) NoFunction
        CFI (cfiCond45) Conditional ??CrossCallReturnLabel_41, ??CrossCallReturnLabel_6
        CFI (cfiCond45) R6 load(1, XDATA, add(CFA_XSP16, literal(-12)))
        CFI (cfiCond45) VB load(1, XDATA, add(CFA_XSP16, literal(-11)))
        CFI (cfiCond45) V0 load(1, XDATA, add(CFA_XSP16, literal(-10)))
        CFI (cfiCond45) V1 load(1, XDATA, add(CFA_XSP16, literal(-9)))
        CFI (cfiCond45) V2 load(1, XDATA, add(CFA_XSP16, literal(-8)))
        CFI (cfiCond45) V3 load(1, XDATA, add(CFA_XSP16, literal(-7)))
        CFI (cfiCond45) R7 load(1, XDATA, add(CFA_XSP16, literal(-6)))
        CFI (cfiCond45) ?RET_LOW load(1, XDATA, add(CFA_XSP16, literal(-5)))
        CFI (cfiCond45) ?RET_HIGH load(1, XDATA, add(CFA_XSP16, literal(-4)))
        CFI (cfiCond45) ?BRET_EXT load(1, XDATA, add(CFA_XSP16, literal(-3)))
        CFI (cfiCond45) DPL0 load(1, XDATA, add(CFA_XSP16, literal(-2)))
        CFI (cfiCond45) DPH0 load(1, XDATA, add(CFA_XSP16, literal(-1)))
        CFI (cfiCond45) CFA_SP SP+0
        CFI (cfiCond45) CFA_XSP16 add(XSP16, 13)
        CFI Block cfiCond46 Using cfiCommon0
        CFI (cfiCond46) NoFunction
        CFI (cfiCond46) Conditional ??CrossCallReturnLabel_41, ??CrossCallReturnLabel_7
        CFI (cfiCond46) R6 load(1, XDATA, add(CFA_XSP16, literal(-10)))
        CFI (cfiCond46) VB load(1, XDATA, add(CFA_XSP16, literal(-9)))
        CFI (cfiCond46) V0 load(1, XDATA, add(CFA_XSP16, literal(-8)))
        CFI (cfiCond46) V1 load(1, XDATA, add(CFA_XSP16, literal(-7)))
        CFI (cfiCond46) R7 load(1, XDATA, add(CFA_XSP16, literal(-6)))
        CFI (cfiCond46) ?RET_LOW load(1, XDATA, add(CFA_XSP16, literal(-5)))
        CFI (cfiCond46) ?RET_HIGH load(1, XDATA, add(CFA_XSP16, literal(-4)))
        CFI (cfiCond46) ?BRET_EXT load(1, XDATA, add(CFA_XSP16, literal(-3)))
        CFI (cfiCond46) DPL0 load(1, XDATA, add(CFA_XSP16, literal(-2)))
        CFI (cfiCond46) DPH0 load(1, XDATA, add(CFA_XSP16, literal(-1)))
        CFI (cfiCond46) CFA_SP SP+0
        CFI (cfiCond46) CFA_XSP16 add(XSP16, 19)
        CFI Block cfiPicker47 Using cfiCommon1
        CFI (cfiPicker47) NoFunction
        CFI (cfiPicker47) Picker
        ADDC    A,#0x0
        MOV     R7,A
        ; Setup parameters for call to function NLME_JoinRequest
        ; Setup parameters for call to function MT_Nwk_DataRequest
        MOV     DPL,R6
        MOV     DPH,R7
        RET
        CFI EndBlock cfiCond43
        CFI EndBlock cfiCond44
        CFI EndBlock cfiCond45
        CFI EndBlock cfiCond46
        CFI EndBlock cfiPicker47
//  351 
//  352 /***************************************************************************************************
//  353  * @fn      MT_NlmeLeaveRequest
//  354  *
//  355  * @brief   Leave Request
//  356  *
//  357  * @param   pBuf - pointer to the received buffer
//  358  *
//  359  * @return  void
//  360  ***************************************************************************************************/

        RSEG BANKED_CODE:CODE:NOROOT(0)
//  361 void MT_NlmeLeaveRequest(uint8 *pBuf)
MT_NlmeLeaveRequest:
        CFI Block cfiBlock48 Using cfiCommon0
        CFI Function MT_NlmeLeaveRequest
        CODE
//  362 {
        FUNCALL MT_NlmeLeaveRequest, NLME_LeaveReq
        LOCFRAME ISTACK, 0, STACK
        LOCFRAME PSTACK, 0, STACK
        LOCFRAME XSTACK, 16, STACK
        LOCFRAME IOVERLAY, 0, STATIC
        LOCFRAME DOVERLAY, 0, STATIC
        ARGFRAME ISTACK, 0, STACK
        ARGFRAME PSTACK, 0, STACK
        ARGFRAME XSTACK, 16, STACK
        ARGFRAME IOVERLAY, 0, STATIC
        ARGFRAME DOVERLAY, 0, STATIC
        FUNCALL MT_NlmeLeaveRequest, MT_BuildAndSendZToolResponse
        LOCFRAME ISTACK, 0, STACK
        LOCFRAME PSTACK, 0, STACK
        LOCFRAME XSTACK, 16, STACK
        LOCFRAME IOVERLAY, 0, STATIC
        LOCFRAME DOVERLAY, 0, STATIC
        ARGFRAME ISTACK, 0, STACK
        ARGFRAME PSTACK, 0, STACK
        ARGFRAME XSTACK, 16, STACK
        ARGFRAME IOVERLAY, 0, STATIC
        ARGFRAME DOVERLAY, 0, STATIC
        MOV     A,#-0xa
        LCALL   ?BANKED_ENTER_XDATA
        CFI DPH0 load(1, XDATA, add(CFA_XSP16, literal(-1)))
        CFI DPL0 load(1, XDATA, add(CFA_XSP16, literal(-2)))
        CFI ?BRET_EXT load(1, XDATA, add(CFA_XSP16, literal(-3)))
        CFI ?RET_HIGH load(1, XDATA, add(CFA_XSP16, literal(-4)))
        CFI ?RET_LOW load(1, XDATA, add(CFA_XSP16, literal(-5)))
        CFI R7 load(1, XDATA, add(CFA_XSP16, literal(-6)))
        CFI V1 load(1, XDATA, add(CFA_XSP16, literal(-7)))
        CFI V0 load(1, XDATA, add(CFA_XSP16, literal(-8)))
        CFI VB load(1, XDATA, add(CFA_XSP16, literal(-9)))
        CFI R6 load(1, XDATA, add(CFA_XSP16, literal(-10)))
        CFI CFA_SP SP+0
        CFI CFA_XSP16 add(XSP16, 10)
        ; Saved register size: 10
        ; Auto size: 6
        MOV     A,#-0x6
        LCALL   ?ALLOC_XSTACK8
        CFI CFA_XSP16 add(XSP16, 16)
//  363   NLME_LeaveReq_t req;
//  364   uint8 retValue = ZFailure;
        MOV     DPL,?XSP + 0
        MOV     DPH,?XSP + 1
        MOV     A,#0x1
        MOVX    @DPTR,A
//  365   uint8 index, cmdId;
//  366 
//  367   /* parse header */
//  368   cmdId = pBuf[MT_RPC_POS_CMD1];
        LCALL   ?Subroutine11 & 0xFFFF
//  369   pBuf += MT_RPC_FRAME_HDR_SZ;
//  370 
//  371   /* If extAddr is all zeros, it means null pointer */
//  372   for(index=0;((index < Z_EXTADDR_LEN) && (pBuf[index] == 0));index++);
??CrossCallReturnLabel_8:
        MOV     R0,#0x0
??MT_NlmeLeaveRequest_0:
        MOV     ?V0 + 0,R0
        MOV     A,R2
        ADD     A,?V0 + 0
        MOV     DPL,A
        MOV     A,R3
        LCALL   ??Subroutine42_0 & 0xFFFF
??CrossCallReturnLabel_56:
        MOVX    A,@DPTR
        JNZ     ??MT_NlmeLeaveRequest_1
        INC     R0
        MOV     A,R0
        CLR     C
        SUBB    A,#0x8
        JC      ??MT_NlmeLeaveRequest_0
//  373 
//  374   if (index == Z_EXTADDR_LEN)
??MT_NlmeLeaveRequest_1:
        MOV     A,#0x8
        XRL     A,R0
        JNZ     ??MT_NlmeLeaveRequest_2
//  375   {
//  376     req.extAddr = NULL;
        MOV     A,#0x1
        LCALL   ?XSTACK_DISP0_8
        CLR     A
        MOVX    @DPTR,A
        INC     DPTR
        SJMP    ??MT_NlmeLeaveRequest_3
//  377   }
//  378   else
//  379   {
//  380     req.extAddr = pBuf;
??MT_NlmeLeaveRequest_2:
        MOV     A,#0x1
        LCALL   ?XSTACK_DISP0_8
        MOV     A,R2
        MOVX    @DPTR,A
        INC     DPTR
        MOV     A,R3
??MT_NlmeLeaveRequest_3:
        MOVX    @DPTR,A
//  381   }
//  382 
//  383   /* Increment the pointer */
//  384   pBuf += Z_EXTADDR_LEN;
//  385 
//  386   req.removeChildren = FALSE;
        MOV     A,#0x3
        LCALL   ?XSTACK_DISP0_8
        CLR     A
        MOVX    @DPTR,A
//  387   req.rejoin         = FALSE;
        MOV     A,#0x4
        LCALL   ?XSTACK_DISP0_8
        CLR     A
        MOVX    @DPTR,A
//  388   req.silent         = FALSE;
        MOV     A,#0x5
        LCALL   ?XSTACK_DISP0_8
        CLR     A
        MOVX    @DPTR,A
//  389 
//  390   retValue = NLME_LeaveReq(&req);
        ; Setup parameters for call to function NLME_LeaveReq
        INC     A
        LCALL   ?XSTACK_DISP0_8
        MOV     R2,DPL
        MOV     R3,DPH
        LCALL   ??NLME_LeaveReq?relay
        LCALL   ?Subroutine14 & 0xFFFF
//  391 
//  392   /* Build and send back the response */
//  393   MT_BuildAndSendZToolResponse(((uint8)MT_RPC_CMD_SRSP | (uint8)MT_RPC_SYS_NWK), cmdId, 1, &retValue);
??CrossCallReturnLabel_44:
        MOV     A,R6
        MOV     R2,A
        MOV     R1,#0x63
        LCALL   ??MT_BuildAndSendZToolResponse?relay
//  394 }
        MOV     A,#0x6
        LJMP    ?Subroutine2 & 0xFFFF
        CFI EndBlock cfiBlock48
//  395 
//  396 
//  397 /***************************************************************************************************
//  398  * @fn      MT_NlmeResetRequest
//  399  *
//  400  * @brief   Leave Request
//  401  *
//  402  * @param   pBuf - pointer to the received buffer
//  403  *
//  404  * @return  void
//  405  ***************************************************************************************************/

        RSEG BANKED_CODE:CODE:NOROOT(0)
//  406 void MT_NlmeResetRequest(uint8 *pBuf)
MT_NlmeResetRequest:
        CFI Block cfiBlock49 Using cfiCommon0
        CFI Function MT_NlmeResetRequest
        CODE
//  407 {
        FUNCALL MT_NlmeResetRequest, NLME_ResetRequest
        LOCFRAME ISTACK, 2, STACK
        LOCFRAME PSTACK, 0, STACK
        LOCFRAME XSTACK, 1, STACK
        LOCFRAME IOVERLAY, 0, STATIC
        LOCFRAME DOVERLAY, 0, STATIC
        ARGFRAME ISTACK, 2, STACK
        ARGFRAME PSTACK, 0, STACK
        ARGFRAME XSTACK, 1, STACK
        ARGFRAME IOVERLAY, 0, STATIC
        ARGFRAME DOVERLAY, 0, STATIC
        FUNCALL MT_NlmeResetRequest, MT_BuildAndSendZToolResponse
        LOCFRAME ISTACK, 2, STACK
        LOCFRAME PSTACK, 0, STACK
        LOCFRAME XSTACK, 1, STACK
        LOCFRAME IOVERLAY, 0, STATIC
        LOCFRAME DOVERLAY, 0, STATIC
        ARGFRAME ISTACK, 2, STACK
        ARGFRAME PSTACK, 0, STACK
        ARGFRAME XSTACK, 1, STACK
        ARGFRAME IOVERLAY, 0, STATIC
        ARGFRAME DOVERLAY, 0, STATIC
        PUSH    DPL
        CFI DPL0 Frame(CFA_SP, 4)
        CFI CFA_SP SP+-4
        PUSH    DPH
        CFI DPH0 Frame(CFA_SP, 5)
        CFI CFA_SP SP+-5
        ; Saved register size: 2
        ; Auto size: 1
        MOV     A,#-0x1
        LCALL   ?ALLOC_XSTACK8
        CFI CFA_XSP16 add(XSP16, 1)
//  408   uint8 retValue = NLME_ResetRequest();
        ; Setup parameters for call to function NLME_ResetRequest
        LCALL   ??NLME_ResetRequest?relay
        LCALL   ?Subroutine14 & 0xFFFF
//  409 
//  410   /* Build and send back the response */
//  411   MT_BuildAndSendZToolResponse(((uint8)MT_RPC_CMD_SRSP | (uint8)MT_RPC_SYS_NWK), MT_NLME_RESET_REQ, 1, &retValue);
??CrossCallReturnLabel_45:
        MOV     R2,#0x6
        SJMP    ??Subroutine34_0
        CFI EndBlock cfiBlock49
//  412 }

        RSEG BANKED_CODE:CODE:NOROOT(0)
?Subroutine14:
        CFI Block cfiCond50 Using cfiCommon0
        CFI NoFunction
        CFI Conditional ??CrossCallReturnLabel_43
        CFI R6 load(1, XDATA, add(CFA_XSP16, literal(-12)))
        CFI VB load(1, XDATA, add(CFA_XSP16, literal(-11)))
        CFI V0 load(1, XDATA, add(CFA_XSP16, literal(-10)))
        CFI V1 load(1, XDATA, add(CFA_XSP16, literal(-9)))
        CFI V2 load(1, XDATA, add(CFA_XSP16, literal(-8)))
        CFI V3 load(1, XDATA, add(CFA_XSP16, literal(-7)))
        CFI R7 load(1, XDATA, add(CFA_XSP16, literal(-6)))
        CFI ?RET_LOW load(1, XDATA, add(CFA_XSP16, literal(-5)))
        CFI ?RET_HIGH load(1, XDATA, add(CFA_XSP16, literal(-4)))
        CFI ?BRET_EXT load(1, XDATA, add(CFA_XSP16, literal(-3)))
        CFI DPL0 load(1, XDATA, add(CFA_XSP16, literal(-2)))
        CFI DPH0 load(1, XDATA, add(CFA_XSP16, literal(-1)))
        CFI CFA_SP SP+0
        CFI CFA_XSP16 add(XSP16, 13)
        CFI Block cfiCond51 Using cfiCommon0
        CFI (cfiCond51) NoFunction
        CFI (cfiCond51) Conditional ??CrossCallReturnLabel_44
        CFI (cfiCond51) R6 load(1, XDATA, add(CFA_XSP16, literal(-10)))
        CFI (cfiCond51) VB load(1, XDATA, add(CFA_XSP16, literal(-9)))
        CFI (cfiCond51) V0 load(1, XDATA, add(CFA_XSP16, literal(-8)))
        CFI (cfiCond51) V1 load(1, XDATA, add(CFA_XSP16, literal(-7)))
        CFI (cfiCond51) R7 load(1, XDATA, add(CFA_XSP16, literal(-6)))
        CFI (cfiCond51) ?RET_LOW load(1, XDATA, add(CFA_XSP16, literal(-5)))
        CFI (cfiCond51) ?RET_HIGH load(1, XDATA, add(CFA_XSP16, literal(-4)))
        CFI (cfiCond51) ?BRET_EXT load(1, XDATA, add(CFA_XSP16, literal(-3)))
        CFI (cfiCond51) DPL0 load(1, XDATA, add(CFA_XSP16, literal(-2)))
        CFI (cfiCond51) DPH0 load(1, XDATA, add(CFA_XSP16, literal(-1)))
        CFI (cfiCond51) CFA_SP SP+0
        CFI (cfiCond51) CFA_XSP16 add(XSP16, 16)
        CFI Block cfiCond52 Using cfiCommon0
        CFI (cfiCond52) NoFunction
        CFI (cfiCond52) Conditional ??CrossCallReturnLabel_45
        CFI (cfiCond52) DPL0 Frame(CFA_SP, 4)
        CFI (cfiCond52) DPH0 Frame(CFA_SP, 5)
        CFI (cfiCond52) CFA_SP SP+-5
        CFI (cfiCond52) CFA_XSP16 add(XSP16, 1)
        CFI Block cfiCond53 Using cfiCommon0
        CFI (cfiCond53) NoFunction
        CFI (cfiCond53) Conditional ??CrossCallReturnLabel_46
        CFI (cfiCond53) R6 load(1, XDATA, add(CFA_XSP16, literal(-9)))
        CFI (cfiCond53) VB load(1, XDATA, add(CFA_XSP16, literal(-8)))
        CFI (cfiCond53) V0 load(1, XDATA, add(CFA_XSP16, literal(-7)))
        CFI (cfiCond53) R7 load(1, XDATA, add(CFA_XSP16, literal(-6)))
        CFI (cfiCond53) ?RET_LOW load(1, XDATA, add(CFA_XSP16, literal(-5)))
        CFI (cfiCond53) ?RET_HIGH load(1, XDATA, add(CFA_XSP16, literal(-4)))
        CFI (cfiCond53) ?BRET_EXT load(1, XDATA, add(CFA_XSP16, literal(-3)))
        CFI (cfiCond53) DPL0 load(1, XDATA, add(CFA_XSP16, literal(-2)))
        CFI (cfiCond53) DPH0 load(1, XDATA, add(CFA_XSP16, literal(-1)))
        CFI (cfiCond53) CFA_SP SP+0
        CFI (cfiCond53) CFA_XSP16 add(XSP16, 10)
        CFI Block cfiCond54 Using cfiCommon0
        CFI (cfiCond54) NoFunction
        CFI (cfiCond54) Conditional ??CrossCallReturnLabel_47
        CFI (cfiCond54) DPL0 Frame(CFA_SP, 4)
        CFI (cfiCond54) DPH0 Frame(CFA_SP, 5)
        CFI (cfiCond54) CFA_SP SP+-5
        CFI (cfiCond54) CFA_XSP16 add(XSP16, 1)
        CFI Block cfiCond55 Using cfiCommon0
        CFI (cfiCond55) NoFunction
        CFI (cfiCond55) Conditional ??CrossCallReturnLabel_48
        CFI (cfiCond55) DPL0 Frame(CFA_SP, 4)
        CFI (cfiCond55) DPH0 Frame(CFA_SP, 5)
        CFI (cfiCond55) CFA_SP SP+-5
        CFI (cfiCond55) CFA_XSP16 add(XSP16, 1)
        CFI Block cfiCond56 Using cfiCommon0
        CFI (cfiCond56) NoFunction
        CFI (cfiCond56) Conditional ??CrossCallReturnLabel_49
        CFI (cfiCond56) R6 load(1, XDATA, add(CFA_XSP16, literal(-9)))
        CFI (cfiCond56) VB load(1, XDATA, add(CFA_XSP16, literal(-8)))
        CFI (cfiCond56) V0 load(1, XDATA, add(CFA_XSP16, literal(-7)))
        CFI (cfiCond56) R7 load(1, XDATA, add(CFA_XSP16, literal(-6)))
        CFI (cfiCond56) ?RET_LOW load(1, XDATA, add(CFA_XSP16, literal(-5)))
        CFI (cfiCond56) ?RET_HIGH load(1, XDATA, add(CFA_XSP16, literal(-4)))
        CFI (cfiCond56) ?BRET_EXT load(1, XDATA, add(CFA_XSP16, literal(-3)))
        CFI (cfiCond56) DPL0 load(1, XDATA, add(CFA_XSP16, literal(-2)))
        CFI (cfiCond56) DPH0 load(1, XDATA, add(CFA_XSP16, literal(-1)))
        CFI (cfiCond56) CFA_SP SP+0
        CFI (cfiCond56) CFA_XSP16 add(XSP16, 10)
        CFI Block cfiPicker57 Using cfiCommon1
        CFI (cfiPicker57) NoFunction
        CFI (cfiPicker57) Picker
        MOV     A,R1
        MOV     DPL,?XSP + 0
        MOV     DPH,?XSP + 1
        CFI EndBlock cfiCond50
        CFI EndBlock cfiCond51
        CFI EndBlock cfiCond52
        CFI EndBlock cfiCond53
        CFI EndBlock cfiCond54
        CFI EndBlock cfiCond55
        CFI EndBlock cfiCond56
        CFI EndBlock cfiPicker57
        REQUIRE ??Subroutine33_0
        ; // Fall through to label ??Subroutine33_0

        RSEG BANKED_CODE:CODE:NOROOT(0)
??Subroutine33_0:
        CFI Block cfiCond58 Using cfiCommon0
        CFI NoFunction
        CFI Conditional ??CrossCallReturnLabel_50
        CFI DPL0 Frame(CFA_SP, 4)
        CFI DPH0 Frame(CFA_SP, 5)
        CFI CFA_SP SP+-5
        CFI CFA_XSP16 add(XSP16, 1)
        CFI Block cfiCond59 Using cfiCommon0
        CFI (cfiCond59) NoFunction
        CFI (cfiCond59) Conditional ??CrossCallReturnLabel_50
        CFI (cfiCond59) DPL0 Frame(CFA_SP, 4)
        CFI (cfiCond59) DPH0 Frame(CFA_SP, 5)
        CFI (cfiCond59) CFA_SP SP+-5
        CFI (cfiCond59) CFA_XSP16 add(XSP16, 1)
        CFI Block cfiCond60 Using cfiCommon0
        CFI (cfiCond60) NoFunction
        CFI (cfiCond60) Conditional ??CrossCallReturnLabel_50
        CFI (cfiCond60) DPL0 Frame(CFA_SP, 4)
        CFI (cfiCond60) DPH0 Frame(CFA_SP, 5)
        CFI (cfiCond60) CFA_SP SP+-5
        CFI (cfiCond60) CFA_XSP16 add(XSP16, 1)
        CFI Block cfiCond61 Using cfiCommon0
        CFI (cfiCond61) NoFunction
        CFI (cfiCond61) Conditional ??CrossCallReturnLabel_50
        CFI (cfiCond61) DPL0 Frame(CFA_SP, 4)
        CFI (cfiCond61) DPH0 Frame(CFA_SP, 5)
        CFI (cfiCond61) CFA_SP SP+-5
        CFI (cfiCond61) CFA_XSP16 add(XSP16, 1)
        CFI Block cfiCond62 Using cfiCommon0
        CFI (cfiCond62) NoFunction
        CFI (cfiCond62) Conditional ??CrossCallReturnLabel_51
        CFI (cfiCond62) R6 load(1, XDATA, add(CFA_XSP16, literal(-22)))
        CFI (cfiCond62) VB load(1, XDATA, add(CFA_XSP16, literal(-21)))
        CFI (cfiCond62) V0 load(1, XDATA, add(CFA_XSP16, literal(-20)))
        CFI (cfiCond62) V1 load(1, XDATA, add(CFA_XSP16, literal(-19)))
        CFI (cfiCond62) V2 load(1, XDATA, add(CFA_XSP16, literal(-18)))
        CFI (cfiCond62) V3 load(1, XDATA, add(CFA_XSP16, literal(-17)))
        CFI (cfiCond62) V4 load(1, XDATA, add(CFA_XSP16, literal(-16)))
        CFI (cfiCond62) V5 load(1, XDATA, add(CFA_XSP16, literal(-15)))
        CFI (cfiCond62) V6 load(1, XDATA, add(CFA_XSP16, literal(-14)))
        CFI (cfiCond62) V7 load(1, XDATA, add(CFA_XSP16, literal(-13)))
        CFI (cfiCond62) V8 load(1, XDATA, add(CFA_XSP16, literal(-12)))
        CFI (cfiCond62) V9 load(1, XDATA, add(CFA_XSP16, literal(-11)))
        CFI (cfiCond62) V10 load(1, XDATA, add(CFA_XSP16, literal(-10)))
        CFI (cfiCond62) V11 load(1, XDATA, add(CFA_XSP16, literal(-9)))
        CFI (cfiCond62) V12 load(1, XDATA, add(CFA_XSP16, literal(-8)))
        CFI (cfiCond62) V13 load(1, XDATA, add(CFA_XSP16, literal(-7)))
        CFI (cfiCond62) R7 load(1, XDATA, add(CFA_XSP16, literal(-6)))
        CFI (cfiCond62) ?RET_LOW load(1, XDATA, add(CFA_XSP16, literal(-5)))
        CFI (cfiCond62) ?RET_HIGH load(1, XDATA, add(CFA_XSP16, literal(-4)))
        CFI (cfiCond62) ?BRET_EXT load(1, XDATA, add(CFA_XSP16, literal(-3)))
        CFI (cfiCond62) DPL0 load(1, XDATA, add(CFA_XSP16, literal(-2)))
        CFI (cfiCond62) DPH0 load(1, XDATA, add(CFA_XSP16, literal(-1)))
        CFI (cfiCond62) CFA_SP SP+0
        CFI (cfiCond62) CFA_XSP16 add(XSP16, 23)
        CFI Block cfiCond63 Using cfiCommon0
        CFI (cfiCond63) NoFunction
        CFI (cfiCond63) Conditional ??CrossCallReturnLabel_43
        CFI (cfiCond63) R6 load(1, XDATA, add(CFA_XSP16, literal(-12)))
        CFI (cfiCond63) VB load(1, XDATA, add(CFA_XSP16, literal(-11)))
        CFI (cfiCond63) V0 load(1, XDATA, add(CFA_XSP16, literal(-10)))
        CFI (cfiCond63) V1 load(1, XDATA, add(CFA_XSP16, literal(-9)))
        CFI (cfiCond63) V2 load(1, XDATA, add(CFA_XSP16, literal(-8)))
        CFI (cfiCond63) V3 load(1, XDATA, add(CFA_XSP16, literal(-7)))
        CFI (cfiCond63) R7 load(1, XDATA, add(CFA_XSP16, literal(-6)))
        CFI (cfiCond63) ?RET_LOW load(1, XDATA, add(CFA_XSP16, literal(-5)))
        CFI (cfiCond63) ?RET_HIGH load(1, XDATA, add(CFA_XSP16, literal(-4)))
        CFI (cfiCond63) ?BRET_EXT load(1, XDATA, add(CFA_XSP16, literal(-3)))
        CFI (cfiCond63) DPL0 load(1, XDATA, add(CFA_XSP16, literal(-2)))
        CFI (cfiCond63) DPH0 load(1, XDATA, add(CFA_XSP16, literal(-1)))
        CFI (cfiCond63) CFA_SP SP+0
        CFI (cfiCond63) CFA_XSP16 add(XSP16, 13)
        CFI Block cfiCond64 Using cfiCommon0
        CFI (cfiCond64) NoFunction
        CFI (cfiCond64) Conditional ??CrossCallReturnLabel_44
        CFI (cfiCond64) R6 load(1, XDATA, add(CFA_XSP16, literal(-10)))
        CFI (cfiCond64) VB load(1, XDATA, add(CFA_XSP16, literal(-9)))
        CFI (cfiCond64) V0 load(1, XDATA, add(CFA_XSP16, literal(-8)))
        CFI (cfiCond64) V1 load(1, XDATA, add(CFA_XSP16, literal(-7)))
        CFI (cfiCond64) R7 load(1, XDATA, add(CFA_XSP16, literal(-6)))
        CFI (cfiCond64) ?RET_LOW load(1, XDATA, add(CFA_XSP16, literal(-5)))
        CFI (cfiCond64) ?RET_HIGH load(1, XDATA, add(CFA_XSP16, literal(-4)))
        CFI (cfiCond64) ?BRET_EXT load(1, XDATA, add(CFA_XSP16, literal(-3)))
        CFI (cfiCond64) DPL0 load(1, XDATA, add(CFA_XSP16, literal(-2)))
        CFI (cfiCond64) DPH0 load(1, XDATA, add(CFA_XSP16, literal(-1)))
        CFI (cfiCond64) CFA_SP SP+0
        CFI (cfiCond64) CFA_XSP16 add(XSP16, 16)
        CFI Block cfiCond65 Using cfiCommon0
        CFI (cfiCond65) NoFunction
        CFI (cfiCond65) Conditional ??CrossCallReturnLabel_45
        CFI (cfiCond65) DPL0 Frame(CFA_SP, 4)
        CFI (cfiCond65) DPH0 Frame(CFA_SP, 5)
        CFI (cfiCond65) CFA_SP SP+-5
        CFI (cfiCond65) CFA_XSP16 add(XSP16, 1)
        CFI Block cfiCond66 Using cfiCommon0
        CFI (cfiCond66) NoFunction
        CFI (cfiCond66) Conditional ??CrossCallReturnLabel_46
        CFI (cfiCond66) R6 load(1, XDATA, add(CFA_XSP16, literal(-9)))
        CFI (cfiCond66) VB load(1, XDATA, add(CFA_XSP16, literal(-8)))
        CFI (cfiCond66) V0 load(1, XDATA, add(CFA_XSP16, literal(-7)))
        CFI (cfiCond66) R7 load(1, XDATA, add(CFA_XSP16, literal(-6)))
        CFI (cfiCond66) ?RET_LOW load(1, XDATA, add(CFA_XSP16, literal(-5)))
        CFI (cfiCond66) ?RET_HIGH load(1, XDATA, add(CFA_XSP16, literal(-4)))
        CFI (cfiCond66) ?BRET_EXT load(1, XDATA, add(CFA_XSP16, literal(-3)))
        CFI (cfiCond66) DPL0 load(1, XDATA, add(CFA_XSP16, literal(-2)))
        CFI (cfiCond66) DPH0 load(1, XDATA, add(CFA_XSP16, literal(-1)))
        CFI (cfiCond66) CFA_SP SP+0
        CFI (cfiCond66) CFA_XSP16 add(XSP16, 10)
        CFI Block cfiCond67 Using cfiCommon0
        CFI (cfiCond67) NoFunction
        CFI (cfiCond67) Conditional ??CrossCallReturnLabel_47
        CFI (cfiCond67) DPL0 Frame(CFA_SP, 4)
        CFI (cfiCond67) DPH0 Frame(CFA_SP, 5)
        CFI (cfiCond67) CFA_SP SP+-5
        CFI (cfiCond67) CFA_XSP16 add(XSP16, 1)
        CFI Block cfiCond68 Using cfiCommon0
        CFI (cfiCond68) NoFunction
        CFI (cfiCond68) Conditional ??CrossCallReturnLabel_48
        CFI (cfiCond68) DPL0 Frame(CFA_SP, 4)
        CFI (cfiCond68) DPH0 Frame(CFA_SP, 5)
        CFI (cfiCond68) CFA_SP SP+-5
        CFI (cfiCond68) CFA_XSP16 add(XSP16, 1)
        CFI Block cfiCond69 Using cfiCommon0
        CFI (cfiCond69) NoFunction
        CFI (cfiCond69) Conditional ??CrossCallReturnLabel_49
        CFI (cfiCond69) R6 load(1, XDATA, add(CFA_XSP16, literal(-9)))
        CFI (cfiCond69) VB load(1, XDATA, add(CFA_XSP16, literal(-8)))
        CFI (cfiCond69) V0 load(1, XDATA, add(CFA_XSP16, literal(-7)))
        CFI (cfiCond69) R7 load(1, XDATA, add(CFA_XSP16, literal(-6)))
        CFI (cfiCond69) ?RET_LOW load(1, XDATA, add(CFA_XSP16, literal(-5)))
        CFI (cfiCond69) ?RET_HIGH load(1, XDATA, add(CFA_XSP16, literal(-4)))
        CFI (cfiCond69) ?BRET_EXT load(1, XDATA, add(CFA_XSP16, literal(-3)))
        CFI (cfiCond69) DPL0 load(1, XDATA, add(CFA_XSP16, literal(-2)))
        CFI (cfiCond69) DPH0 load(1, XDATA, add(CFA_XSP16, literal(-1)))
        CFI (cfiCond69) CFA_SP SP+0
        CFI (cfiCond69) CFA_XSP16 add(XSP16, 10)
        CFI Block cfiPicker70 Using cfiCommon1
        CFI (cfiPicker70) NoFunction
        CFI (cfiPicker70) Picker
        MOVX    @DPTR,A
        ; Setup parameters for call to function MT_BuildAndSendZToolResponse
        ; Setup parameters for call to function MT_BuildAndSendZToolResponse
        ; Setup parameters for call to function MT_BuildAndSendZToolResponse
        ; Setup parameters for call to function MT_BuildAndSendZToolResponse
        ; Setup parameters for call to function MT_BuildAndSendZToolResponse
        ; Setup parameters for call to function MT_BuildAndSendZToolResponse
        ; Setup parameters for call to function MT_BuildAndSendZToolResponse
        ; Setup parameters for call to function MT_BuildAndSendZToolResponse
        ; Setup parameters for call to function MT_BuildAndSendZToolResponse
        ; Setup parameters for call to function MT_BuildAndSendZToolResponse
        ; Setup parameters for call to function MT_BuildAndSendZToolResponse
        ; Setup parameters for call to function MT_BuildAndSendZToolResponse
        MOV     R4,DPL
        MOV     R5,DPH
        MOV     R3,#0x1
        RET
        CFI EndBlock cfiCond58
        CFI EndBlock cfiCond59
        CFI EndBlock cfiCond60
        CFI EndBlock cfiCond61
        CFI EndBlock cfiCond62
        CFI EndBlock cfiCond63
        CFI EndBlock cfiCond64
        CFI EndBlock cfiCond65
        CFI EndBlock cfiCond66
        CFI EndBlock cfiCond67
        CFI EndBlock cfiCond68
        CFI EndBlock cfiCond69
        CFI EndBlock cfiPicker70

        RSEG BANKED_CODE:CODE:NOROOT(0)
?Subroutine1:
        CFI Block cfiBlock71 Using cfiCommon0
        CFI NoFunction
        PUSH    DPL
        CFI CFA_SP SP+-4
        CFI DPL0 Frame(CFA_SP, 4)
        PUSH    DPH
        CFI CFA_SP SP+-5
        CFI DPH0 Frame(CFA_SP, 5)
        ; Saved register size: 2
        ; Auto size: 1
        ; Saved register size: 2
        ; Auto size: 1
        ; Saved register size: 2
        ; Auto size: 1
        ; Saved register size: 2
        ; Auto size: 1
        MOV     A,#-0x1
        LCALL   ?ALLOC_XSTACK8
        CFI CFA_XSP16 add(XSP16, 1)
        LCALL   ?Subroutine16 & 0xFFFF
??CrossCallReturnLabel_16:
        MOV     R2,A
        MOV     DPL,?XSP + 0
        MOV     DPH,?XSP + 1
        MOV     A,#0x12
        LCALL   ??Subroutine33_0 & 0xFFFF
        CFI EndBlock cfiBlock71
??CrossCallReturnLabel_50:
        REQUIRE ??Subroutine34_0
        ; // Fall through to label ??Subroutine34_0

        RSEG BANKED_CODE:CODE:NOROOT(0)
??Subroutine34_0:
        CFI Block cfiBlock72 Using cfiCommon0
        CFI NoFunction
        CFI CFA_SP SP+-5
        CFI CFA_XSP16 add(XSP16, 1)
        CFI DPL0 Frame(CFA_SP, 4)
        CFI DPH0 Frame(CFA_SP, 5)
        MOV     R1,#0x63
        CFI EndBlock cfiBlock72
        REQUIRE ??Subroutine35_0
        ; // Fall through to label ??Subroutine35_0

        RSEG BANKED_CODE:CODE:NOROOT(0)
??Subroutine35_0:
        CFI Block cfiBlock73 Using cfiCommon0
        CFI NoFunction
        CFI CFA_SP SP+-5
        CFI CFA_XSP16 add(XSP16, 1)
        CFI DPL0 Frame(CFA_SP, 4)
        CFI DPH0 Frame(CFA_SP, 5)
        LCALL   ??Subroutine29_0 & 0xFFFF
        CFI EndBlock cfiBlock73
??CrossCallReturnLabel_54:
        REQUIRE ??Subroutine36_0
        ; // Fall through to label ??Subroutine36_0

        RSEG BANKED_CODE:CODE:NOROOT(0)
??Subroutine36_0:
        CFI Block cfiBlock74 Using cfiCommon0
        CFI NoFunction
        CFI CFA_SP SP+-5
        CFI CFA_XSP16 add(XSP16, 9)
        CFI DPL0 Frame(CFA_SP, 4)
        CFI DPH0 Frame(CFA_SP, 5)
        CFI Invalid
        LCALL   ?DEALLOC_XSTACK8
        CFI EndBlock cfiBlock74
        REQUIRE ??Subroutine37_0
        ; // Fall through to label ??Subroutine37_0

        RSEG BANKED_CODE:CODE:NOROOT(0)
??Subroutine37_0:
        CFI Block cfiBlock75 Using cfiCommon0
        CFI NoFunction
        CFI CFA_SP SP+-5
        CFI DPL0 Frame(CFA_SP, 4)
        CFI DPH0 Frame(CFA_SP, 5)
        POP     DPH
        CFI CFA_SP SP+-4
        CFI DPH0 SameValue
        POP     DPL
        CFI CFA_SP SP+-3
        CFI DPL0 SameValue
        LJMP    ?BRET
        CFI EndBlock cfiBlock75

        RSEG BANKED_CODE:CODE:NOROOT(0)
?Subroutine16:
        CFI Block cfiCond76 Using cfiCommon0
        CFI NoFunction
        CFI Conditional ??CrossCallReturnLabel_15
        CFI R6 load(1, XDATA, add(CFA_XSP16, literal(-9)))
        CFI VB load(1, XDATA, add(CFA_XSP16, literal(-8)))
        CFI V0 load(1, XDATA, add(CFA_XSP16, literal(-7)))
        CFI R7 load(1, XDATA, add(CFA_XSP16, literal(-6)))
        CFI ?RET_LOW load(1, XDATA, add(CFA_XSP16, literal(-5)))
        CFI ?RET_HIGH load(1, XDATA, add(CFA_XSP16, literal(-4)))
        CFI ?BRET_EXT load(1, XDATA, add(CFA_XSP16, literal(-3)))
        CFI DPL0 load(1, XDATA, add(CFA_XSP16, literal(-2)))
        CFI DPH0 load(1, XDATA, add(CFA_XSP16, literal(-1)))
        CFI CFA_SP SP+0
        CFI CFA_XSP16 add(XSP16, 10)
        CFI Block cfiCond77 Using cfiCommon0
        CFI (cfiCond77) NoFunction
        CFI (cfiCond77) Conditional ??CrossCallReturnLabel_16
        CFI (cfiCond77) DPL0 Frame(CFA_SP, 4)
        CFI (cfiCond77) DPH0 Frame(CFA_SP, 5)
        CFI (cfiCond77) CFA_SP SP+-5
        CFI (cfiCond77) CFA_XSP16 add(XSP16, 1)
        CFI Block cfiCond78 Using cfiCommon0
        CFI (cfiCond78) NoFunction
        CFI (cfiCond78) Conditional ??CrossCallReturnLabel_16
        CFI (cfiCond78) DPL0 Frame(CFA_SP, 4)
        CFI (cfiCond78) DPH0 Frame(CFA_SP, 5)
        CFI (cfiCond78) CFA_SP SP+-5
        CFI (cfiCond78) CFA_XSP16 add(XSP16, 1)
        CFI Block cfiCond79 Using cfiCommon0
        CFI (cfiCond79) NoFunction
        CFI (cfiCond79) Conditional ??CrossCallReturnLabel_16
        CFI (cfiCond79) DPL0 Frame(CFA_SP, 4)
        CFI (cfiCond79) DPH0 Frame(CFA_SP, 5)
        CFI (cfiCond79) CFA_SP SP+-5
        CFI (cfiCond79) CFA_XSP16 add(XSP16, 1)
        CFI Block cfiCond80 Using cfiCommon0
        CFI (cfiCond80) NoFunction
        CFI (cfiCond80) Conditional ??CrossCallReturnLabel_16
        CFI (cfiCond80) DPL0 Frame(CFA_SP, 4)
        CFI (cfiCond80) DPH0 Frame(CFA_SP, 5)
        CFI (cfiCond80) CFA_SP SP+-5
        CFI (cfiCond80) CFA_XSP16 add(XSP16, 1)
        CFI Block cfiCond81 Using cfiCommon0
        CFI (cfiCond81) NoFunction
        CFI (cfiCond81) Conditional ??CrossCallReturnLabel_17
        CFI (cfiCond81) R6 load(1, XDATA, add(CFA_XSP16, literal(-9)))
        CFI (cfiCond81) VB load(1, XDATA, add(CFA_XSP16, literal(-8)))
        CFI (cfiCond81) V0 load(1, XDATA, add(CFA_XSP16, literal(-7)))
        CFI (cfiCond81) R7 load(1, XDATA, add(CFA_XSP16, literal(-6)))
        CFI (cfiCond81) ?RET_LOW load(1, XDATA, add(CFA_XSP16, literal(-5)))
        CFI (cfiCond81) ?RET_HIGH load(1, XDATA, add(CFA_XSP16, literal(-4)))
        CFI (cfiCond81) ?BRET_EXT load(1, XDATA, add(CFA_XSP16, literal(-3)))
        CFI (cfiCond81) DPL0 load(1, XDATA, add(CFA_XSP16, literal(-2)))
        CFI (cfiCond81) DPH0 load(1, XDATA, add(CFA_XSP16, literal(-1)))
        CFI (cfiCond81) CFA_SP SP+0
        CFI (cfiCond81) CFA_XSP16 add(XSP16, 10)
        CFI Block cfiPicker82 Using cfiCommon1
        CFI (cfiPicker82) NoFunction
        CFI (cfiPicker82) Picker
        MOV     DPL,?XSP + 0
        MOV     DPH,?XSP + 1
        MOV     A,#0x1
        MOVX    @DPTR,A
        MOV     DPL,R2
        MOV     DPH,R3
        INC     DPTR
        INC     DPTR
        MOVX    A,@DPTR
        RET
        CFI EndBlock cfiCond76
        CFI EndBlock cfiCond77
        CFI EndBlock cfiCond78
        CFI EndBlock cfiCond79
        CFI EndBlock cfiCond80
        CFI EndBlock cfiCond81
        CFI EndBlock cfiPicker82
//  413 
//  414 /***************************************************************************************************
//  415  * @fn      MT_NlmeGetRequest
//  416  *
//  417  * @brief   Get Request
//  418  *
//  419  * @param   pBuf - pointer to the received buffer
//  420  *
//  421  * @return  void
//  422  ***************************************************************************************************/

        RSEG BANKED_CODE:CODE:NOROOT(0)
//  423 void MT_NlmeGetRequest(uint8 *pBuf)
MT_NlmeGetRequest:
        CFI Block cfiBlock83 Using cfiCommon0
        CFI Function MT_NlmeGetRequest
        CODE
//  424 {
        FUNCALL MT_NlmeGetRequest, NLME_GetRequest
        LOCFRAME ISTACK, 0, STACK
        LOCFRAME PSTACK, 0, STACK
        LOCFRAME XSTACK, 20, STACK
        LOCFRAME IOVERLAY, 0, STATIC
        LOCFRAME DOVERLAY, 0, STATIC
        ARGFRAME ISTACK, 0, STACK
        ARGFRAME PSTACK, 0, STACK
        ARGFRAME XSTACK, 20, STACK
        ARGFRAME IOVERLAY, 0, STATIC
        ARGFRAME DOVERLAY, 0, STATIC
        FUNCALL MT_NlmeGetRequest, MT_BuildAndSendZToolResponse
        LOCFRAME ISTACK, 0, STACK
        LOCFRAME PSTACK, 0, STACK
        LOCFRAME XSTACK, 20, STACK
        LOCFRAME IOVERLAY, 0, STATIC
        LOCFRAME DOVERLAY, 0, STATIC
        ARGFRAME ISTACK, 0, STACK
        ARGFRAME PSTACK, 0, STACK
        ARGFRAME XSTACK, 20, STACK
        ARGFRAME IOVERLAY, 0, STATIC
        ARGFRAME DOVERLAY, 0, STATIC
        MOV     A,#-0x9
        LCALL   ?BANKED_ENTER_XDATA
        CFI DPH0 load(1, XDATA, add(CFA_XSP16, literal(-1)))
        CFI DPL0 load(1, XDATA, add(CFA_XSP16, literal(-2)))
        CFI ?BRET_EXT load(1, XDATA, add(CFA_XSP16, literal(-3)))
        CFI ?RET_HIGH load(1, XDATA, add(CFA_XSP16, literal(-4)))
        CFI ?RET_LOW load(1, XDATA, add(CFA_XSP16, literal(-5)))
        CFI R7 load(1, XDATA, add(CFA_XSP16, literal(-6)))
        CFI V0 load(1, XDATA, add(CFA_XSP16, literal(-7)))
        CFI VB load(1, XDATA, add(CFA_XSP16, literal(-8)))
        CFI R6 load(1, XDATA, add(CFA_XSP16, literal(-9)))
        CFI CFA_SP SP+0
        CFI CFA_XSP16 add(XSP16, 9)
        ; Saved register size: 9
        ; Auto size: 11
        MOV     A,#-0xb
        LCALL   ?ALLOC_XSTACK8
        CFI CFA_XSP16 add(XSP16, 20)
//  425   uint8 dataBuf[11];
//  426   uint8 attr, index, cmdId;
//  427 
//  428   /* parse header */
//  429   cmdId = pBuf[MT_RPC_POS_CMD1];
        LCALL   ?Subroutine11 & 0xFFFF
//  430   pBuf += MT_RPC_FRAME_HDR_SZ;
//  431 
//  432   attr = *pBuf++;
??CrossCallReturnLabel_9:
        MOV     DPL,R2
        MOV     DPH,R3
        MOVX    A,@DPTR
        MOV     R1,A
        INC     DPTR
        MOV     R2,DPL
        MOV     R3,DPH
//  433   index = *pBuf;
//  434 
//  435   dataBuf[0] = NLME_GetRequest((ZNwkAttributes_t )attr, index, &dataBuf[1]);
        ; Setup parameters for call to function NLME_GetRequest
        MOV     A,#0x1
        LCALL   ?XSTACK_DISP0_8
        MOV     R4,DPL
        MOV     R5,DPH
        MOV     DPL,R2
        MOV     DPH,R3
        MOVX    A,@DPTR
        MOV     R2,A
        MOV     R3,#0x0
        LCALL   ??NLME_GetRequest?relay
        MOV     A,R1
        MOV     DPL,?XSP + 0
        MOV     DPH,?XSP + 1
        MOVX    @DPTR,A
//  436 
//  437   /* Build and send back the response */
//  438   MT_BuildAndSendZToolResponse(((uint8)MT_RPC_CMD_SRSP | (uint8)MT_RPC_SYS_NWK), cmdId,
//  439                                11, dataBuf );
        ; Setup parameters for call to function MT_BuildAndSendZToolResponse
        MOV     R4,DPL
        MOV     R5,DPH
        MOV     R3,#0xb
        MOV     A,R6
        MOV     R2,A
        MOV     R1,#0x63
        CFI EndBlock cfiBlock83
        REQUIRE ?Subroutine5
        ; // Fall through to label ?Subroutine5
//  440 }

        RSEG BANKED_CODE:CODE:NOROOT(0)
?Subroutine5:
        CFI Block cfiBlock84 Using cfiCommon0
        CFI NoFunction
        CFI CFA_SP SP+0
        CFI CFA_XSP16 add(XSP16, 20)
        CFI VB load(1, XDATA, add(CFA_XSP16, literal(-8)))
        CFI DPL0 load(1, XDATA, add(CFA_XSP16, literal(-2)))
        CFI DPH0 load(1, XDATA, add(CFA_XSP16, literal(-1)))
        CFI R6 load(1, XDATA, add(CFA_XSP16, literal(-9)))
        CFI R7 load(1, XDATA, add(CFA_XSP16, literal(-6)))
        CFI V0 load(1, XDATA, add(CFA_XSP16, literal(-7)))
        CFI ?BRET_EXT load(1, XDATA, add(CFA_XSP16, literal(-3)))
        CFI ?RET_HIGH load(1, XDATA, add(CFA_XSP16, literal(-4)))
        CFI ?RET_LOW load(1, XDATA, add(CFA_XSP16, literal(-5)))
        LCALL   ??MT_BuildAndSendZToolResponse?relay
        MOV     A,#0xb
        SJMP    ??Subroutine40_0
        CFI EndBlock cfiBlock84

        RSEG BANKED_CODE:CODE:NOROOT(0)
?Subroutine11:
        CFI Block cfiCond85 Using cfiCommon0
        CFI NoFunction
        CFI Conditional ??CrossCallReturnLabel_8
        CFI R6 load(1, XDATA, add(CFA_XSP16, literal(-10)))
        CFI VB load(1, XDATA, add(CFA_XSP16, literal(-9)))
        CFI V0 load(1, XDATA, add(CFA_XSP16, literal(-8)))
        CFI V1 load(1, XDATA, add(CFA_XSP16, literal(-7)))
        CFI R7 load(1, XDATA, add(CFA_XSP16, literal(-6)))
        CFI ?RET_LOW load(1, XDATA, add(CFA_XSP16, literal(-5)))
        CFI ?RET_HIGH load(1, XDATA, add(CFA_XSP16, literal(-4)))
        CFI ?BRET_EXT load(1, XDATA, add(CFA_XSP16, literal(-3)))
        CFI DPL0 load(1, XDATA, add(CFA_XSP16, literal(-2)))
        CFI DPH0 load(1, XDATA, add(CFA_XSP16, literal(-1)))
        CFI CFA_SP SP+0
        CFI CFA_XSP16 add(XSP16, 16)
        CFI Block cfiCond86 Using cfiCommon0
        CFI (cfiCond86) NoFunction
        CFI (cfiCond86) Conditional ??CrossCallReturnLabel_9
        CFI (cfiCond86) R6 load(1, XDATA, add(CFA_XSP16, literal(-9)))
        CFI (cfiCond86) VB load(1, XDATA, add(CFA_XSP16, literal(-8)))
        CFI (cfiCond86) V0 load(1, XDATA, add(CFA_XSP16, literal(-7)))
        CFI (cfiCond86) R7 load(1, XDATA, add(CFA_XSP16, literal(-6)))
        CFI (cfiCond86) ?RET_LOW load(1, XDATA, add(CFA_XSP16, literal(-5)))
        CFI (cfiCond86) ?RET_HIGH load(1, XDATA, add(CFA_XSP16, literal(-4)))
        CFI (cfiCond86) ?BRET_EXT load(1, XDATA, add(CFA_XSP16, literal(-3)))
        CFI (cfiCond86) DPL0 load(1, XDATA, add(CFA_XSP16, literal(-2)))
        CFI (cfiCond86) DPH0 load(1, XDATA, add(CFA_XSP16, literal(-1)))
        CFI (cfiCond86) CFA_SP SP+0
        CFI (cfiCond86) CFA_XSP16 add(XSP16, 20)
        CFI Block cfiPicker87 Using cfiCommon1
        CFI (cfiPicker87) NoFunction
        CFI (cfiPicker87) Picker
        MOV     DPL,R2
        MOV     DPH,R3
        INC     DPTR
        INC     DPTR
        MOVX    A,@DPTR
        MOV     R6,A
        LCALL   ?Subroutine27 & 0xFFFF
??CrossCallReturnLabel_33:
        RET
        CFI EndBlock cfiCond85
        CFI EndBlock cfiCond86
        CFI EndBlock cfiPicker87

        RSEG BANKED_CODE:CODE:NOROOT(0)
?Subroutine27:
        CFI Block cfiCond88 Using cfiCommon0
        CFI NoFunction
        CFI Conditional ??CrossCallReturnLabel_33, ??CrossCallReturnLabel_8
        CFI R6 load(1, XDATA, add(CFA_XSP16, literal(-10)))
        CFI VB load(1, XDATA, add(CFA_XSP16, literal(-9)))
        CFI V0 load(1, XDATA, add(CFA_XSP16, literal(-8)))
        CFI V1 load(1, XDATA, add(CFA_XSP16, literal(-7)))
        CFI R7 load(1, XDATA, add(CFA_XSP16, literal(-6)))
        CFI ?RET_LOW load(1, XDATA, add(CFA_XSP16, literal(-5)))
        CFI ?RET_HIGH load(1, XDATA, add(CFA_XSP16, literal(-4)))
        CFI ?BRET_EXT load(1, XDATA, add(CFA_XSP16, literal(-3)))
        CFI DPL0 load(1, XDATA, add(CFA_XSP16, literal(-2)))
        CFI DPH0 load(1, XDATA, add(CFA_XSP16, literal(-1)))
        CFI CFA_SP SP+0
        CFI CFA_XSP16 add(XSP16, 16)
        CFI Block cfiCond89 Using cfiCommon0
        CFI (cfiCond89) NoFunction
        CFI (cfiCond89) Conditional ??CrossCallReturnLabel_33, ??CrossCallReturnLabel_9
        CFI (cfiCond89) R6 load(1, XDATA, add(CFA_XSP16, literal(-9)))
        CFI (cfiCond89) VB load(1, XDATA, add(CFA_XSP16, literal(-8)))
        CFI (cfiCond89) V0 load(1, XDATA, add(CFA_XSP16, literal(-7)))
        CFI (cfiCond89) R7 load(1, XDATA, add(CFA_XSP16, literal(-6)))
        CFI (cfiCond89) ?RET_LOW load(1, XDATA, add(CFA_XSP16, literal(-5)))
        CFI (cfiCond89) ?RET_HIGH load(1, XDATA, add(CFA_XSP16, literal(-4)))
        CFI (cfiCond89) ?BRET_EXT load(1, XDATA, add(CFA_XSP16, literal(-3)))
        CFI (cfiCond89) DPL0 load(1, XDATA, add(CFA_XSP16, literal(-2)))
        CFI (cfiCond89) DPH0 load(1, XDATA, add(CFA_XSP16, literal(-1)))
        CFI (cfiCond89) CFA_SP SP+0
        CFI (cfiCond89) CFA_XSP16 add(XSP16, 20)
        CFI Block cfiCond90 Using cfiCommon0
        CFI (cfiCond90) NoFunction
        CFI (cfiCond90) Conditional ??CrossCallReturnLabel_32
        CFI (cfiCond90) R6 load(1, XDATA, add(CFA_XSP16, literal(-9)))
        CFI (cfiCond90) VB load(1, XDATA, add(CFA_XSP16, literal(-8)))
        CFI (cfiCond90) V0 load(1, XDATA, add(CFA_XSP16, literal(-7)))
        CFI (cfiCond90) R7 load(1, XDATA, add(CFA_XSP16, literal(-6)))
        CFI (cfiCond90) ?RET_LOW load(1, XDATA, add(CFA_XSP16, literal(-5)))
        CFI (cfiCond90) ?RET_HIGH load(1, XDATA, add(CFA_XSP16, literal(-4)))
        CFI (cfiCond90) ?BRET_EXT load(1, XDATA, add(CFA_XSP16, literal(-3)))
        CFI (cfiCond90) DPL0 load(1, XDATA, add(CFA_XSP16, literal(-2)))
        CFI (cfiCond90) DPH0 load(1, XDATA, add(CFA_XSP16, literal(-1)))
        CFI (cfiCond90) CFA_SP SP+0
        CFI (cfiCond90) CFA_XSP16 add(XSP16, 10)
        CFI Block cfiPicker91 Using cfiCommon1
        CFI (cfiPicker91) NoFunction
        CFI (cfiPicker91) Picker
        MOV     A,R2
        ADD     A,#0x3
        INC     R2
        INC     R2
        INC     R2
        MOV     A,R3
        ADDC    A,#0x0
        MOV     R3,A
        RET
        CFI EndBlock cfiCond88
        CFI EndBlock cfiCond89
        CFI EndBlock cfiCond90
        CFI EndBlock cfiPicker91

        RSEG BANKED_CODE:CODE:NOROOT(0)
?Subroutine0:
        CFI Block cfiBlock92 Using cfiCommon0
        CFI NoFunction
        CFI CFA_SP SP+0
        CFI CFA_XSP16 add(XSP16, 10)
        CFI VB load(1, XDATA, add(CFA_XSP16, literal(-8)))
        CFI DPL0 load(1, XDATA, add(CFA_XSP16, literal(-2)))
        CFI DPH0 load(1, XDATA, add(CFA_XSP16, literal(-1)))
        CFI R6 load(1, XDATA, add(CFA_XSP16, literal(-9)))
        CFI R7 load(1, XDATA, add(CFA_XSP16, literal(-6)))
        CFI V0 load(1, XDATA, add(CFA_XSP16, literal(-7)))
        CFI ?BRET_EXT load(1, XDATA, add(CFA_XSP16, literal(-3)))
        CFI ?RET_HIGH load(1, XDATA, add(CFA_XSP16, literal(-4)))
        CFI ?RET_LOW load(1, XDATA, add(CFA_XSP16, literal(-5)))
        MOV     R4,DPL
        MOV     R5,DPH
        MOV     R3,#0x1
        MOV     A,R6
        CFI EndBlock cfiBlock92
        REQUIRE ??Subroutine38_0
        ; // Fall through to label ??Subroutine38_0

        RSEG BANKED_CODE:CODE:NOROOT(0)
??Subroutine38_0:
        CFI Block cfiBlock93 Using cfiCommon0
        CFI NoFunction
        CFI CFA_SP SP+0
        CFI CFA_XSP16 add(XSP16, 10)
        CFI VB load(1, XDATA, add(CFA_XSP16, literal(-8)))
        CFI DPL0 load(1, XDATA, add(CFA_XSP16, literal(-2)))
        CFI DPH0 load(1, XDATA, add(CFA_XSP16, literal(-1)))
        CFI R6 load(1, XDATA, add(CFA_XSP16, literal(-9)))
        CFI R7 load(1, XDATA, add(CFA_XSP16, literal(-6)))
        CFI V0 load(1, XDATA, add(CFA_XSP16, literal(-7)))
        CFI ?BRET_EXT load(1, XDATA, add(CFA_XSP16, literal(-3)))
        CFI ?RET_HIGH load(1, XDATA, add(CFA_XSP16, literal(-4)))
        CFI ?RET_LOW load(1, XDATA, add(CFA_XSP16, literal(-5)))
        MOV     R2,A
        MOV     R1,#0x63
        CFI EndBlock cfiBlock93
        REQUIRE ??Subroutine39_0
        ; // Fall through to label ??Subroutine39_0

        RSEG BANKED_CODE:CODE:NOROOT(0)
??Subroutine39_0:
        CFI Block cfiBlock94 Using cfiCommon0
        CFI NoFunction
        CFI CFA_SP SP+0
        CFI CFA_XSP16 add(XSP16, 10)
        CFI VB load(1, XDATA, add(CFA_XSP16, literal(-8)))
        CFI DPL0 load(1, XDATA, add(CFA_XSP16, literal(-2)))
        CFI DPH0 load(1, XDATA, add(CFA_XSP16, literal(-1)))
        CFI R6 load(1, XDATA, add(CFA_XSP16, literal(-9)))
        CFI R7 load(1, XDATA, add(CFA_XSP16, literal(-6)))
        CFI V0 load(1, XDATA, add(CFA_XSP16, literal(-7)))
        CFI ?BRET_EXT load(1, XDATA, add(CFA_XSP16, literal(-3)))
        CFI ?RET_HIGH load(1, XDATA, add(CFA_XSP16, literal(-4)))
        CFI ?RET_LOW load(1, XDATA, add(CFA_XSP16, literal(-5)))
        LCALL   ??Subroutine29_0 & 0xFFFF
        CFI EndBlock cfiBlock94
??CrossCallReturnLabel_55:
        REQUIRE ??Subroutine40_0
        ; // Fall through to label ??Subroutine40_0

        RSEG BANKED_CODE:CODE:NOROOT(0)
??Subroutine40_0:
        CFI Block cfiBlock95 Using cfiCommon0
        CFI NoFunction
        CFI CFA_SP SP+0
        CFI CFA_XSP16 add(XSP16, 20)
        CFI VB load(1, XDATA, add(CFA_XSP16, literal(-8)))
        CFI DPL0 load(1, XDATA, add(CFA_XSP16, literal(-2)))
        CFI DPH0 load(1, XDATA, add(CFA_XSP16, literal(-1)))
        CFI R6 load(1, XDATA, add(CFA_XSP16, literal(-9)))
        CFI R7 load(1, XDATA, add(CFA_XSP16, literal(-6)))
        CFI V0 load(1, XDATA, add(CFA_XSP16, literal(-7)))
        CFI ?BRET_EXT load(1, XDATA, add(CFA_XSP16, literal(-3)))
        CFI ?RET_HIGH load(1, XDATA, add(CFA_XSP16, literal(-4)))
        CFI ?RET_LOW load(1, XDATA, add(CFA_XSP16, literal(-5)))
        CFI Invalid
        LCALL   ?DEALLOC_XSTACK8
        CFI EndBlock cfiBlock95
        REQUIRE ??Subroutine41_0
        ; // Fall through to label ??Subroutine41_0

        RSEG BANKED_CODE:CODE:NOROOT(0)
??Subroutine41_0:
        CFI Block cfiBlock96 Using cfiCommon0
        CFI NoFunction
        CFI CFA_SP SP+0
        CFI CFA_XSP16 add(XSP16, 9)
        CFI VB load(1, XDATA, add(CFA_XSP16, literal(-8)))
        CFI DPL0 load(1, XDATA, add(CFA_XSP16, literal(-2)))
        CFI DPH0 load(1, XDATA, add(CFA_XSP16, literal(-1)))
        CFI R6 load(1, XDATA, add(CFA_XSP16, literal(-9)))
        CFI R7 load(1, XDATA, add(CFA_XSP16, literal(-6)))
        CFI V0 load(1, XDATA, add(CFA_XSP16, literal(-7)))
        CFI ?BRET_EXT load(1, XDATA, add(CFA_XSP16, literal(-3)))
        CFI ?RET_HIGH load(1, XDATA, add(CFA_XSP16, literal(-4)))
        CFI ?RET_LOW load(1, XDATA, add(CFA_XSP16, literal(-5)))
        MOV     R7,#0x1
        LJMP    ?BANKED_LEAVE_XDATA
        CFI EndBlock cfiBlock96
//  441 
//  442 /***************************************************************************************************
//  443  * @fn      MT_NlmeSetRequest
//  444  *
//  445  * @brief   Set Request
//  446  *
//  447  * @param   pBuf - pointer to the received buffer
//  448  *
//  449  * @return  void
//  450  ***************************************************************************************************/

        RSEG BANKED_CODE:CODE:NOROOT(0)
//  451 void MT_NlmeSetRequest(uint8 *pBuf)
MT_NlmeSetRequest:
        CFI Block cfiBlock97 Using cfiCommon0
        CFI Function MT_NlmeSetRequest
        CODE
//  452 {
        FUNCALL MT_NlmeSetRequest, NLME_SetRequest
        LOCFRAME ISTACK, 0, STACK
        LOCFRAME PSTACK, 0, STACK
        LOCFRAME XSTACK, 10, STACK
        LOCFRAME IOVERLAY, 0, STATIC
        LOCFRAME DOVERLAY, 0, STATIC
        ARGFRAME ISTACK, 0, STACK
        ARGFRAME PSTACK, 0, STACK
        ARGFRAME XSTACK, 10, STACK
        ARGFRAME IOVERLAY, 0, STATIC
        ARGFRAME DOVERLAY, 0, STATIC
        FUNCALL MT_NlmeSetRequest, ZDApp_NVUpdate
        LOCFRAME ISTACK, 0, STACK
        LOCFRAME PSTACK, 0, STACK
        LOCFRAME XSTACK, 10, STACK
        LOCFRAME IOVERLAY, 0, STATIC
        LOCFRAME DOVERLAY, 0, STATIC
        ARGFRAME ISTACK, 0, STACK
        ARGFRAME PSTACK, 0, STACK
        ARGFRAME XSTACK, 10, STACK
        ARGFRAME IOVERLAY, 0, STATIC
        ARGFRAME DOVERLAY, 0, STATIC
        FUNCALL MT_NlmeSetRequest, MT_BuildAndSendZToolResponse
        LOCFRAME ISTACK, 0, STACK
        LOCFRAME PSTACK, 0, STACK
        LOCFRAME XSTACK, 10, STACK
        LOCFRAME IOVERLAY, 0, STATIC
        LOCFRAME DOVERLAY, 0, STATIC
        ARGFRAME ISTACK, 0, STACK
        ARGFRAME PSTACK, 0, STACK
        ARGFRAME XSTACK, 10, STACK
        ARGFRAME IOVERLAY, 0, STATIC
        ARGFRAME DOVERLAY, 0, STATIC
        MOV     A,#-0x9
        LCALL   ?BANKED_ENTER_XDATA
        CFI DPH0 load(1, XDATA, add(CFA_XSP16, literal(-1)))
        CFI DPL0 load(1, XDATA, add(CFA_XSP16, literal(-2)))
        CFI ?BRET_EXT load(1, XDATA, add(CFA_XSP16, literal(-3)))
        CFI ?RET_HIGH load(1, XDATA, add(CFA_XSP16, literal(-4)))
        CFI ?RET_LOW load(1, XDATA, add(CFA_XSP16, literal(-5)))
        CFI R7 load(1, XDATA, add(CFA_XSP16, literal(-6)))
        CFI V0 load(1, XDATA, add(CFA_XSP16, literal(-7)))
        CFI VB load(1, XDATA, add(CFA_XSP16, literal(-8)))
        CFI R6 load(1, XDATA, add(CFA_XSP16, literal(-9)))
        CFI CFA_SP SP+0
        CFI CFA_XSP16 add(XSP16, 9)
        ; Saved register size: 9
        ; Auto size: 1
        MOV     A,#-0x1
        LCALL   ?ALLOC_XSTACK8
        CFI CFA_XSP16 add(XSP16, 10)
        MOV     A,R2
        MOV     R0,A
        MOV     A,R3
        MOV     R1,A
//  453   uint8 retValue = ZFailure;
        MOV     DPL,?XSP + 0
        MOV     DPH,?XSP + 1
        MOV     A,#0x1
        MOVX    @DPTR,A
//  454   uint8 cmdId;
//  455 
//  456   /* parse header */
//  457   cmdId = pBuf[MT_RPC_POS_CMD1];
        MOV     DPL,R0
        MOV     DPH,R1
        INC     DPTR
        INC     DPTR
        MOVX    A,@DPTR
        MOV     R6,A
//  458   pBuf += MT_RPC_FRAME_HDR_SZ;
        MOV     A,R0
        ADD     A,#0x3
        INC     R0
        INC     R0
        INC     R0
        MOV     A,R1
        ADDC    A,#0x0
        MOV     R1,A
//  459 
//  460   retValue = NLME_SetRequest((ZNwkAttributes_t)pBuf[0], pBuf[1], &pBuf[2]);
        ; Setup parameters for call to function NLME_SetRequest
        MOV     A,R0
        ADD     A,#0x2
        MOV     R4,A
        MOV     A,R1
        ADDC    A,#0x0
        MOV     R5,A
        MOV     DPL,R0
        MOV     DPH,R1
        INC     DPTR
        MOVX    A,@DPTR
        MOV     R2,A
        MOV     R3,#0x0
        MOV     DPL,R0
        MOV     DPH,R1
        MOVX    A,@DPTR
        MOV     R1,A
        LCALL   ??NLME_SetRequest?relay
        MOV     A,R1
        MOV     DPL,?XSP + 0
        MOV     DPH,?XSP + 1
        MOVX    @DPTR,A
//  461 
//  462   /* Update NV */
//  463   ZDApp_NVUpdate();
        ; Setup parameters for call to function ZDApp_NVUpdate
        LCALL   ??ZDApp_NVUpdate?relay
//  464 
//  465   /* Build and send back the response */
//  466   MT_BuildAndSendZToolResponse(((uint8)MT_RPC_CMD_SRSP | (uint8)MT_RPC_SYS_NWK), cmdId, 1, &retValue );
        ; Setup parameters for call to function MT_BuildAndSendZToolResponse
        MOV     DPL,?XSP + 0
        MOV     DPH,?XSP + 1
        SJMP    ?Subroutine0
        CFI EndBlock cfiBlock97
//  467 }
//  468 
//  469 /***************************************************************************************************
//  470  * @fn      MT_NlmeNetworkDiscoveryRequest
//  471  *
//  472  * @brief   Network Discovery Request
//  473  *
//  474  * @param   pBuf - pointer to the received buffer
//  475  *
//  476  * @return  void
//  477  ***************************************************************************************************/

        RSEG BANKED_CODE:CODE:NOROOT(0)
//  478 void MT_NlmeNetworkDiscoveryRequest(uint8 *pBuf)
MT_NlmeNetworkDiscoveryRequest:
        CFI Block cfiBlock98 Using cfiCommon0
        CFI Function MT_NlmeNetworkDiscoveryRequest
        CODE
//  479 {
        FUNCALL MT_NlmeNetworkDiscoveryRequest, osal_build_uint32
        LOCFRAME ISTACK, 0, STACK
        LOCFRAME PSTACK, 0, STACK
        LOCFRAME XSTACK, 10, STACK
        LOCFRAME IOVERLAY, 0, STATIC
        LOCFRAME DOVERLAY, 0, STATIC
        ARGFRAME ISTACK, 0, STACK
        ARGFRAME PSTACK, 0, STACK
        ARGFRAME XSTACK, 10, STACK
        ARGFRAME IOVERLAY, 0, STATIC
        ARGFRAME DOVERLAY, 0, STATIC
        FUNCALL MT_NlmeNetworkDiscoveryRequest, NLME_NetworkDiscoveryRequest
        LOCFRAME ISTACK, 0, STACK
        LOCFRAME PSTACK, 0, STACK
        LOCFRAME XSTACK, 10, STACK
        LOCFRAME IOVERLAY, 0, STATIC
        LOCFRAME DOVERLAY, 0, STATIC
        ARGFRAME ISTACK, 0, STACK
        ARGFRAME PSTACK, 0, STACK
        ARGFRAME XSTACK, 10, STACK
        ARGFRAME IOVERLAY, 0, STATIC
        ARGFRAME DOVERLAY, 0, STATIC
        FUNCALL MT_NlmeNetworkDiscoveryRequest, MT_BuildAndSendZToolResponse
        LOCFRAME ISTACK, 0, STACK
        LOCFRAME PSTACK, 0, STACK
        LOCFRAME XSTACK, 10, STACK
        LOCFRAME IOVERLAY, 0, STATIC
        LOCFRAME DOVERLAY, 0, STATIC
        ARGFRAME ISTACK, 0, STACK
        ARGFRAME PSTACK, 0, STACK
        ARGFRAME XSTACK, 10, STACK
        ARGFRAME IOVERLAY, 0, STATIC
        ARGFRAME DOVERLAY, 0, STATIC
        MOV     A,#-0x9
        LCALL   ?BANKED_ENTER_XDATA
        CFI DPH0 load(1, XDATA, add(CFA_XSP16, literal(-1)))
        CFI DPL0 load(1, XDATA, add(CFA_XSP16, literal(-2)))
        CFI ?BRET_EXT load(1, XDATA, add(CFA_XSP16, literal(-3)))
        CFI ?RET_HIGH load(1, XDATA, add(CFA_XSP16, literal(-4)))
        CFI ?RET_LOW load(1, XDATA, add(CFA_XSP16, literal(-5)))
        CFI R7 load(1, XDATA, add(CFA_XSP16, literal(-6)))
        CFI V0 load(1, XDATA, add(CFA_XSP16, literal(-7)))
        CFI VB load(1, XDATA, add(CFA_XSP16, literal(-8)))
        CFI R6 load(1, XDATA, add(CFA_XSP16, literal(-9)))
        CFI CFA_SP SP+0
        CFI CFA_XSP16 add(XSP16, 9)
        ; Saved register size: 9
        ; Auto size: 1
        MOV     A,#-0x1
        LCALL   ?ALLOC_XSTACK8
        CFI CFA_XSP16 add(XSP16, 10)
//  480   uint8 retValue = ZFailure;
        LCALL   ?Subroutine16 & 0xFFFF
//  481   uint8 cmdId;
//  482   uint32 scanChannels;
//  483 
//  484   /* parse header */
//  485   cmdId = pBuf[MT_RPC_POS_CMD1];
??CrossCallReturnLabel_17:
        MOV     R7,A
//  486   pBuf += MT_RPC_FRAME_HDR_SZ;
        LCALL   ?Subroutine27 & 0xFFFF
//  487 
//  488   /* Scan channels */
//  489   scanChannels = osal_build_uint32(pBuf, 4);
//  490   pBuf += sizeof(uint32);
//  491 
//  492   retValue = NLME_NetworkDiscoveryRequest(scanChannels, *pBuf);
??CrossCallReturnLabel_32:
        ; Setup parameters for call to function NLME_NetworkDiscoveryRequest
        MOV     DPL,R2
        MOV     DPH,R3
        INC     DPTR
        INC     DPTR
        INC     DPTR
        INC     DPTR
        MOVX    A,@DPTR
        MOV     R6,A
        ; Setup parameters for call to function osal_build_uint32
        MOV     R1,#0x4
        LCALL   ??osal_build_uint32?relay
        MOV     A,R6
        MOV     R1,A
        LCALL   ??NLME_NetworkDiscoveryRequest?relay
        LCALL   ?Subroutine14 & 0xFFFF
//  493 
//  494   /* Build and send back the response */
//  495   MT_BuildAndSendZToolResponse(((uint8)MT_RPC_CMD_SRSP | (uint8)MT_RPC_SYS_NWK), cmdId, 1, &retValue );
??CrossCallReturnLabel_46:
        MOV     A,R7
        LJMP    ??Subroutine38_0 & 0xFFFF
        CFI EndBlock cfiBlock98
//  496 }
//  497 
//  498 /***************************************************************************************************
//  499  * @fn      MT_NlmeRouteDiscoveryRequest
//  500  *
//  501  * @brief   Route Discovery Request
//  502  *
//  503  * @param   pBuf - pointer to the received buffer
//  504  *
//  505  * @return  void
//  506  ***************************************************************************************************/

        RSEG BANKED_CODE:CODE:NOROOT(0)
//  507 void MT_NlmeRouteDiscoveryRequest(uint8 *pBuf)
MT_NlmeRouteDiscoveryRequest:
        CFI Block cfiBlock99 Using cfiCommon0
        CFI Function MT_NlmeRouteDiscoveryRequest
        CODE
        FUNCALL MT_NlmeRouteDiscoveryRequest, MT_BuildAndSendZToolResponse
        LOCFRAME ISTACK, 2, STACK
        LOCFRAME PSTACK, 0, STACK
        LOCFRAME XSTACK, 1, STACK
        LOCFRAME IOVERLAY, 0, STATIC
        LOCFRAME DOVERLAY, 0, STATIC
        ARGFRAME ISTACK, 2, STACK
        ARGFRAME PSTACK, 0, STACK
        ARGFRAME XSTACK, 1, STACK
        ARGFRAME IOVERLAY, 0, STATIC
        ARGFRAME DOVERLAY, 0, STATIC
        LJMP    ?Subroutine1 & 0xFFFF
        CFI EndBlock cfiBlock99
//  508 {
//  509   uint8 retValue = ZFailure;
//  510   uint8 cmdId;
//  511 
//  512   /* parse header */
//  513   cmdId = pBuf[MT_RPC_POS_CMD1];
//  514   pBuf += MT_RPC_FRAME_HDR_SZ;
//  515 
//  516   if ( ZSTACK_ROUTER_BUILD )
//  517   {
//  518     retValue = NLME_RouteDiscoveryRequest(BUILD_UINT16(pBuf[0], pBuf[1]), pBuf[2], pBuf[3]);
//  519   }
//  520   else
//  521   {
//  522     retValue = ZUnsupportedMode;
//  523   }
//  524 
//  525   /* Build and send back the response */
//  526   MT_BuildAndSendZToolResponse(((uint8)MT_RPC_CMD_SRSP | (uint8)MT_RPC_SYS_NWK), cmdId, 1, &retValue);
//  527 }
//  528 
//  529 /***************************************************************************************************
//  530  * @fn      MT_NlmeDirectJoinRequest
//  531  *
//  532  * @brief   Direct Join Request
//  533  *
//  534  * @param   pBuf - pointer to the received buffer
//  535  *
//  536  * @return  void
//  537  ***************************************************************************************************/

        RSEG BANKED_CODE:CODE:NOROOT(0)
//  538 void MT_NlmeDirectJoinRequest(uint8 *pBuf)
MT_NlmeDirectJoinRequest:
        CFI Block cfiBlock100 Using cfiCommon0
        CFI Function MT_NlmeDirectJoinRequest
        CODE
        FUNCALL MT_NlmeDirectJoinRequest, MT_BuildAndSendZToolResponse
        LOCFRAME ISTACK, 2, STACK
        LOCFRAME PSTACK, 0, STACK
        LOCFRAME XSTACK, 1, STACK
        LOCFRAME IOVERLAY, 0, STATIC
        LOCFRAME DOVERLAY, 0, STATIC
        ARGFRAME ISTACK, 2, STACK
        ARGFRAME PSTACK, 0, STACK
        ARGFRAME XSTACK, 1, STACK
        ARGFRAME IOVERLAY, 0, STATIC
        ARGFRAME DOVERLAY, 0, STATIC
        LJMP    ?Subroutine1 & 0xFFFF
        CFI EndBlock cfiBlock100
//  539 {
//  540   uint8 retValue = ZFailure;
//  541   uint8 cmdId;
//  542 
//  543   /* parse header */
//  544   cmdId = pBuf[MT_RPC_POS_CMD1];
//  545   pBuf += MT_RPC_FRAME_HDR_SZ;
//  546 
//  547   if ( ZSTACK_ROUTER_BUILD )
//  548   {
//  549     retValue = NLME_DirectJoinRequest( pBuf, pBuf[8] );
//  550   }
//  551   else
//  552   {
//  553     retValue = ZUnsupportedMode;
//  554   }
//  555 
//  556   /* Build and send back the response */
//  557   MT_BuildAndSendZToolResponse(((uint8)MT_RPC_CMD_SRSP | (uint8)MT_RPC_SYS_NWK), cmdId, 1, &retValue);
//  558 }
//  559 
//  560 /***************************************************************************************************
//  561  * @fn      MT_NlmeOrphanJoinRequest
//  562  *
//  563  * @brief   Orphan Join Request
//  564  *
//  565  * @param   pBuf - pointer to the received buffer
//  566  *
//  567  * @return  void
//  568  ***************************************************************************************************/

        RSEG BANKED_CODE:CODE:NOROOT(0)
//  569 void MT_NlmeOrphanJoinRequest(uint8 *pBuf)
MT_NlmeOrphanJoinRequest:
        CFI Block cfiBlock101 Using cfiCommon0
        CFI Function MT_NlmeOrphanJoinRequest
        CODE
//  570 {
        FUNCALL MT_NlmeOrphanJoinRequest, osal_build_uint32
        LOCFRAME ISTACK, 0, STACK
        LOCFRAME PSTACK, 0, STACK
        LOCFRAME XSTACK, 23, STACK
        LOCFRAME IOVERLAY, 0, STATIC
        LOCFRAME DOVERLAY, 0, STATIC
        ARGFRAME ISTACK, 0, STACK
        ARGFRAME PSTACK, 0, STACK
        ARGFRAME XSTACK, 23, STACK
        ARGFRAME IOVERLAY, 0, STATIC
        ARGFRAME DOVERLAY, 0, STATIC
        FUNCALL MT_NlmeOrphanJoinRequest, NLME_OrphanJoinRequest
        LOCFRAME ISTACK, 0, STACK
        LOCFRAME PSTACK, 0, STACK
        LOCFRAME XSTACK, 23, STACK
        LOCFRAME IOVERLAY, 0, STATIC
        LOCFRAME DOVERLAY, 0, STATIC
        ARGFRAME ISTACK, 0, STACK
        ARGFRAME PSTACK, 0, STACK
        ARGFRAME XSTACK, 23, STACK
        ARGFRAME IOVERLAY, 0, STATIC
        ARGFRAME DOVERLAY, 0, STATIC
        FUNCALL MT_NlmeOrphanJoinRequest, MT_BuildAndSendZToolResponse
        LOCFRAME ISTACK, 0, STACK
        LOCFRAME PSTACK, 0, STACK
        LOCFRAME XSTACK, 23, STACK
        LOCFRAME IOVERLAY, 0, STATIC
        LOCFRAME DOVERLAY, 0, STATIC
        ARGFRAME ISTACK, 0, STACK
        ARGFRAME PSTACK, 0, STACK
        ARGFRAME XSTACK, 23, STACK
        ARGFRAME IOVERLAY, 0, STATIC
        ARGFRAME DOVERLAY, 0, STATIC
        MOV     A,#-0x16
        LCALL   ?BANKED_ENTER_XDATA
        CFI DPH0 load(1, XDATA, add(CFA_XSP16, literal(-1)))
        CFI DPL0 load(1, XDATA, add(CFA_XSP16, literal(-2)))
        CFI ?BRET_EXT load(1, XDATA, add(CFA_XSP16, literal(-3)))
        CFI ?RET_HIGH load(1, XDATA, add(CFA_XSP16, literal(-4)))
        CFI ?RET_LOW load(1, XDATA, add(CFA_XSP16, literal(-5)))
        CFI R7 load(1, XDATA, add(CFA_XSP16, literal(-6)))
        CFI V13 load(1, XDATA, add(CFA_XSP16, literal(-7)))
        CFI V12 load(1, XDATA, add(CFA_XSP16, literal(-8)))
        CFI V11 load(1, XDATA, add(CFA_XSP16, literal(-9)))
        CFI V10 load(1, XDATA, add(CFA_XSP16, literal(-10)))
        CFI V9 load(1, XDATA, add(CFA_XSP16, literal(-11)))
        CFI V8 load(1, XDATA, add(CFA_XSP16, literal(-12)))
        CFI V7 load(1, XDATA, add(CFA_XSP16, literal(-13)))
        CFI V6 load(1, XDATA, add(CFA_XSP16, literal(-14)))
        CFI V5 load(1, XDATA, add(CFA_XSP16, literal(-15)))
        CFI V4 load(1, XDATA, add(CFA_XSP16, literal(-16)))
        CFI V3 load(1, XDATA, add(CFA_XSP16, literal(-17)))
        CFI V2 load(1, XDATA, add(CFA_XSP16, literal(-18)))
        CFI V1 load(1, XDATA, add(CFA_XSP16, literal(-19)))
        CFI V0 load(1, XDATA, add(CFA_XSP16, literal(-20)))
        CFI VB load(1, XDATA, add(CFA_XSP16, literal(-21)))
        CFI R6 load(1, XDATA, add(CFA_XSP16, literal(-22)))
        CFI CFA_SP SP+0
        CFI CFA_XSP16 add(XSP16, 22)
        ; Saved register size: 22
        ; Auto size: 1
        MOV     A,#-0x1
        LCALL   ?ALLOC_XSTACK8
        CFI CFA_XSP16 add(XSP16, 23)
        MOV     A,R2
        MOV     R6,A
        MOV     A,R3
        MOV     R7,A
//  571   uint8 i, j, attr;
//  572   uint8 retValue = ZFailure;
        MOV     DPL,?XSP + 0
        MOV     DPH,?XSP + 1
        MOV     A,#0x1
        MOVX    @DPTR,A
//  573   uint32 channelList;
//  574   uint8 cmdId;
//  575 
//  576   if ( ZSTACK_END_DEVICE_BUILD )
//  577   {
//  578     /* parse header */
//  579     cmdId = pBuf[MT_RPC_POS_CMD1];
        MOV     DPL,R6
        MOV     DPH,R7
        INC     DPTR
        INC     DPTR
        MOVX    A,@DPTR
        MOV     ?V0 + 13,A
//  580     pBuf += MT_RPC_FRAME_HDR_SZ;
        MOV     A,R6
        ADD     A,#0x3
        INC     R6
        INC     R6
        INC     R6
        MOV     A,R7
        ADDC    A,#0x0
        MOV     R7,A
//  581 
//  582     /* Channel list bit mask */
//  583     channelList = osal_build_uint32(pBuf, 4);
        ; Setup parameters for call to function osal_build_uint32
        MOV     R1,#0x4
        INC     R2
        INC     R2
        INC     R2
        MOV     R3,A
        LCALL   ??osal_build_uint32?relay
        MOV     ?V0 + 4,R2
        MOV     ?V0 + 5,R3
        MOV     ?V0 + 6,R4
        MOV     ?V0 + 7,R5
//  584     pBuf += sizeof(uint32);
        MOV     A,R6
        ADD     A,#0x4
        MOV     R6,A
        MOV     A,R7
        ADDC    A,#0x0
        MOV     R7,A
//  585 
//  586     /* Count number of channels */
//  587     j = attr = 0;
        MOV     ?V0 + 12,#0x0
        MOV     R3,#0x0
//  588 
//  589     for (i = 0; i < ED_SCAN_MAXCHANNELS; i++)
        MOV     R2,#0x0
//  590     {
//  591       if (channelList & (1 << i))
??MT_NlmeOrphanJoinRequest_0:
        MOV     ?V0 + 8,#0x1
        MOV     ?V0 + 9,#0x0
        MOV     A,R2
        MOV     R0,#?V0 + 8
        LCALL   ?S_SHL
        MOV     A,?V0 + 9
        RLC     A
        SUBB    A,0xE0 /* A   */
        MOV     ?V0 + 10,A
        MOV     ?V0 + 11,A
        MOV     ?V0 + 0,?V0 + 4
        MOV     ?V0 + 1,?V0 + 5
        MOV     ?V0 + 2,R4
        MOV     ?V0 + 3,R5
        MOV     R0,#?V0 + 0
        MOV     R1,#?V0 + 8
        LCALL   ?L_AND
        MOV     A,?V0 + 0
        ORL     A,?V0 + 1
        ORL     A,?V0 + 2
        ORL     A,?V0 + 3
        JZ      ??MT_NlmeOrphanJoinRequest_1
//  592       {
//  593         j++;
        INC     R3
//  594         attr = i;
        MOV     ?V0 + 12,R2
//  595       }
//  596     }
??MT_NlmeOrphanJoinRequest_1:
        INC     R2
        MOV     A,R2
        CLR     C
        SUBB    A,#0x1b
        JC      ??MT_NlmeOrphanJoinRequest_0
//  597 
//  598     /* If only one channel specified */
//  599     if (j == 1)
        MOV     A,#0x1
        XRL     A,R3
        JNZ     ??MT_NlmeOrphanJoinRequest_2
//  600     {
//  601       _NIB.scanDuration = *pBuf;
        MOV     DPL,R6
        MOV     DPH,R7
        MOVX    A,@DPTR
        MOV     DPTR,#_NIB + 42
        MOVX    @DPTR,A
//  602       _NIB.nwkLogicalChannel = attr;
        MOV     A,?V0 + 12
        MOV     DPTR,#_NIB + 22
        MOVX    @DPTR,A
//  603       _NIB.channelList = channelList;
        MOV     DPTR,#_NIB + 36
        MOV     R0,#?V0 + 4
        LCALL   ?L_MOV_TO_X
//  604       if ( !_NIB.CapabilityInfo )
        MOV     DPTR,#_NIB + 14
        MOVX    A,@DPTR
        JNZ     ??MT_NlmeOrphanJoinRequest_3
//  605       {
//  606         _NIB.CapabilityInfo = ZDO_Config_Node_Descriptor.CapabilityFlags;
        MOV     DPTR,#ZDO_Config_Node_Descriptor + 2
        MOVX    A,@DPTR
        MOV     DPTR,#_NIB + 14
        MOVX    @DPTR,A
//  607       }
//  608 
//  609       devState = DEV_NWK_ORPHAN;
??MT_NlmeOrphanJoinRequest_3:
        MOV     DPTR,#devState
        MOV     A,#0xa
        MOVX    @DPTR,A
//  610       retValue = (uint8)NLME_OrphanJoinRequest(channelList, *pBuf);
        ; Setup parameters for call to function NLME_OrphanJoinRequest
        MOV     DPL,R6
        MOV     DPH,R7
        MOVX    A,@DPTR
        MOV     R1,A
        MOV     R2,?V0 + 4
        MOV     R3,?V0 + 5
        LCALL   ??NLME_OrphanJoinRequest?relay
        MOV     A,R1
        MOV     DPL,?XSP + 0
        MOV     DPH,?XSP + 1
        SJMP    ??MT_NlmeOrphanJoinRequest_4
//  611     }
//  612     else
//  613     {
//  614       retValue = ZNwkInvalidParam;
??MT_NlmeOrphanJoinRequest_2:
        MOV     DPL,?XSP + 0
        MOV     DPH,?XSP + 1
        MOV     A,#-0x3f
//  615     }
//  616    }
??MT_NlmeOrphanJoinRequest_4:
        LCALL   ??Subroutine33_0 & 0xFFFF
//  617    else
//  618    {
//  619      retValue = ZUnsupportedMode;
//  620    }
//  621 
//  622   /* Build and send back the response */
//  623   MT_BuildAndSendZToolResponse(((uint8)MT_RPC_CMD_SRSP | (uint8)MT_RPC_SYS_NWK), cmdId, 1, &retValue);
??CrossCallReturnLabel_51:
        MOV     R2,?V0 + 13
        LCALL   ?Subroutine23 & 0xFFFF
//  624 }
??CrossCallReturnLabel_53:
        LCALL   ?DEALLOC_XSTACK8
        CFI CFA_XSP16 add(XSP16, 22)
        MOV     R7,#0xe
        LJMP    ?BANKED_LEAVE_XDATA
        CFI EndBlock cfiBlock101
//  625 
//  626 /***************************************************************************************************
//  627  * @fn      MT_Nwk_DataRequest
//  628  *
//  629  * @brief   Nwk Data Request
//  630  *
//  631  * @param   dstAddr, nsduLen, nsdu, nsduHandle, nsduHandleOptions, secure, discoverRoute, radius
//  632  *
//  633  * @return  void
//  634  ***************************************************************************************************/

        RSEG BANKED_CODE:CODE:NOROOT(0)
//  635 uint8 MT_Nwk_DataRequest(uint16 dstAddr, uint8 nsduLen, uint8* nsdu,
MT_Nwk_DataRequest:
        CFI Block cfiBlock102 Using cfiCommon0
        CFI Function MT_Nwk_DataRequest
        CODE
//  636                          uint8 nsduHandle, uint16 nsduHandleOptions,
//  637                          uint8 secure, uint8 discoverRoute,
//  638                          uint8 radius)
//  639 {
        FUNCALL MT_Nwk_DataRequest, NLDE_DataReqAlloc
        LOCFRAME ISTACK, 0, STACK
        LOCFRAME PSTACK, 0, STACK
        LOCFRAME XSTACK, 23, STACK
        LOCFRAME IOVERLAY, 0, STATIC
        LOCFRAME DOVERLAY, 0, STATIC
        ARGFRAME ISTACK, 0, STACK
        ARGFRAME PSTACK, 0, STACK
        ARGFRAME XSTACK, 23, STACK
        ARGFRAME IOVERLAY, 0, STATIC
        ARGFRAME DOVERLAY, 0, STATIC
        FUNCALL MT_Nwk_DataRequest, osal_memcpy
        LOCFRAME ISTACK, 0, STACK
        LOCFRAME PSTACK, 0, STACK
        LOCFRAME XSTACK, 26, STACK
        LOCFRAME IOVERLAY, 0, STATIC
        LOCFRAME DOVERLAY, 0, STATIC
        ARGFRAME ISTACK, 0, STACK
        ARGFRAME PSTACK, 0, STACK
        ARGFRAME XSTACK, 26, STACK
        ARGFRAME IOVERLAY, 0, STATIC
        ARGFRAME DOVERLAY, 0, STATIC
        FUNCALL MT_Nwk_DataRequest, NLDE_DataReq
        LOCFRAME ISTACK, 0, STACK
        LOCFRAME PSTACK, 0, STACK
        LOCFRAME XSTACK, 23, STACK
        LOCFRAME IOVERLAY, 0, STATIC
        LOCFRAME DOVERLAY, 0, STATIC
        ARGFRAME ISTACK, 0, STACK
        ARGFRAME PSTACK, 0, STACK
        ARGFRAME XSTACK, 23, STACK
        ARGFRAME IOVERLAY, 0, STATIC
        ARGFRAME DOVERLAY, 0, STATIC
        MOV     A,#-0x14
        LCALL   ?BANKED_ENTER_XDATA
        CFI DPH0 load(1, XDATA, add(CFA_XSP16, literal(-1)))
        CFI DPL0 load(1, XDATA, add(CFA_XSP16, literal(-2)))
        CFI ?BRET_EXT load(1, XDATA, add(CFA_XSP16, literal(-3)))
        CFI ?RET_HIGH load(1, XDATA, add(CFA_XSP16, literal(-4)))
        CFI ?RET_LOW load(1, XDATA, add(CFA_XSP16, literal(-5)))
        CFI R7 load(1, XDATA, add(CFA_XSP16, literal(-6)))
        CFI V11 load(1, XDATA, add(CFA_XSP16, literal(-7)))
        CFI V10 load(1, XDATA, add(CFA_XSP16, literal(-8)))
        CFI V9 load(1, XDATA, add(CFA_XSP16, literal(-9)))
        CFI V8 load(1, XDATA, add(CFA_XSP16, literal(-10)))
        CFI V7 load(1, XDATA, add(CFA_XSP16, literal(-11)))
        CFI V6 load(1, XDATA, add(CFA_XSP16, literal(-12)))
        CFI V5 load(1, XDATA, add(CFA_XSP16, literal(-13)))
        CFI V4 load(1, XDATA, add(CFA_XSP16, literal(-14)))
        CFI V3 load(1, XDATA, add(CFA_XSP16, literal(-15)))
        CFI V2 load(1, XDATA, add(CFA_XSP16, literal(-16)))
        CFI V1 load(1, XDATA, add(CFA_XSP16, literal(-17)))
        CFI V0 load(1, XDATA, add(CFA_XSP16, literal(-18)))
        CFI VB load(1, XDATA, add(CFA_XSP16, literal(-19)))
        CFI R6 load(1, XDATA, add(CFA_XSP16, literal(-20)))
        CFI CFA_SP SP+0
        CFI CFA_XSP16 add(XSP16, 20)
        ; Saved register size: 20
        ; Auto size: 3
        MOV     A,#-0x3
        LCALL   ?ALLOC_XSTACK8
        CFI CFA_XSP16 add(XSP16, 23)
        MOV     ?V0 + 10,R2
        MOV     ?V0 + 11,R3
        MOV     ?V0 + 2,R1
        MOV     ?V0 + 0,R4
        MOV     ?V0 + 1,R5
        MOV     A,#0x18
        LCALL   ?XSTACK_DISP0_8
        MOVX    A,@DPTR
        MOV     ?V0 + 8,A
        INC     DPTR
        MOVX    A,@DPTR
        MOV     ?V0 + 9,A
        MOV     A,#0x1a
        LCALL   ?XSTACK_DISP0_8
        MOVX    A,@DPTR
        MOV     R0,A
        MOV     A,#0x1b
        LCALL   ?XSTACK_DISP0_8
        MOVX    A,@DPTR
        MOV     ?V0 + 7,A
        MOV     A,#0x1c
        LCALL   ?XSTACK_DISP0_8
        MOVX    A,@DPTR
        MOV     ?V0 + 3,A
//  640     uint8               status;
//  641     NLDE_DataReqAlloc_t dra;
//  642     NLDE_DataReq_t*     req;
//  643 
//  644 
//  645     dra.overhead = sizeof(NLDE_DataReq_t);
        MOV     DPL,?XSP + 0
        MOV     DPH,?XSP + 1
        MOV     A,#0x20
        MOVX    @DPTR,A
//  646     dra.nsduLen  = nsduLen;
        MOV     A,#0x1
        LCALL   ?XSTACK_DISP0_8
        MOV     A,R1
        MOVX    @DPTR,A
//  647     dra.secure   = secure;
        MOV     A,#0x2
        LCALL   ?XSTACK_DISP0_8
        MOV     A,R0
        MOVX    @DPTR,A
//  648 
//  649     req = NLDE_DataReqAlloc(&dra);
        ; Setup parameters for call to function NLDE_DataReqAlloc
        MOV     DPL,?XSP + 0
        MOV     DPH,?XSP + 1
        MOV     R2,DPL
        MOV     R3,DPH
        LCALL   ??NLDE_DataReqAlloc?relay
        MOV     ?V0 + 4,R2
        MOV     ?V0 + 5,R3
        MOV     R6,?V0 + 4
        MOV     R7,?V0 + 5
//  650 
//  651     if ( req != NULL )
        MOV     A,R6
        ORL     A,R7
        JZ      ??MT_Nwk_DataRequest_0
//  652     {
//  653       osal_memcpy(req->nfd.nsdu, nsdu, nsduLen);
        ; Setup parameters for call to function osal_memcpy
        MOV     ?V0 + 4,?V0 + 0
        MOV     ?V0 + 5,?V0 + 1
        MOV     ?V0 + 6,#0x0
        MOV     R0,#?V0 + 4
        LCALL   ?PUSH_XSTACK_I_THREE
        CFI CFA_XSP16 add(XSP16, 26)
        MOV     ?V0 + 0,?V0 + 2
        MOV     R4,?V0 + 0
        MOV     R5,#0x0
        MOV     A,R6
        ADD     A,#0xb
        LCALL   ?Subroutine17 & 0xFFFF
??CrossCallReturnLabel_58:
        MOVX    A,@DPTR
        MOV     R2,A
        INC     DPTR
        MOVX    A,@DPTR
        MOV     R3,A
        LCALL   ??osal_memcpy?relay
        MOV     A,#0x3
        LCALL   ?DEALLOC_XSTACK8
        CFI CFA_XSP16 add(XSP16, 23)
//  654 
//  655       req->nfd.dstAddr           = dstAddr;
        MOV     DPL,R6
        MOV     DPH,R7
        INC     DPTR
        INC     DPTR
        MOV     A,?V0 + 10
        MOVX    @DPTR,A
        INC     DPTR
        MOV     A,?V0 + 11
        MOVX    @DPTR,A
//  656       req->nfd.nsduHandleOptions = nsduHandleOptions;
        MOV     A,R6
        ADD     A,#0xf
        LCALL   ?Subroutine17 & 0xFFFF
??CrossCallReturnLabel_59:
        MOV     A,?V0 + 8
        MOVX    @DPTR,A
        INC     DPTR
        MOV     A,?V0 + 9
        MOVX    @DPTR,A
//  657       req->nfd.discoverRoute     = discoverRoute;
        MOV     A,R6
        ADD     A,#0x12
        LCALL   ?Subroutine17 & 0xFFFF
??CrossCallReturnLabel_60:
        MOV     A,?V0 + 7
        MOVX    @DPTR,A
//  658       req->nfd.radius            = radius;
        MOV     A,R6
        ADD     A,#0x13
        LCALL   ?Subroutine17 & 0xFFFF
??CrossCallReturnLabel_61:
        MOV     A,?V0 + 3
        MOVX    @DPTR,A
//  659 
//  660       status = NLDE_DataReq( req );
        ; Setup parameters for call to function NLDE_DataReq
        MOV     A,R6
        MOV     R2,A
        MOV     A,R7
        MOV     R3,A
        LCALL   ??NLDE_DataReq?relay
        SJMP    ??MT_Nwk_DataRequest_1
//  661     }
//  662     else
//  663     {
//  664       status = ZMemError;
??MT_Nwk_DataRequest_0:
        MOV     R1,#0x10
//  665     }
//  666 
//  667     return status;
??MT_Nwk_DataRequest_1:
        MOV     A,#0x3
        LCALL   ?DEALLOC_XSTACK8
        CFI EndBlock cfiBlock102
        REQUIRE ?Subroutine3
        ; // Fall through to label ?Subroutine3
//  668 }

        RSEG BANKED_CODE:CODE:NOROOT(0)
?Subroutine3:
        CFI Block cfiBlock103 Using cfiCommon0
        CFI NoFunction
        CFI CFA_SP SP+0
        CFI CFA_XSP16 add(XSP16, 20)
        CFI VB load(1, XDATA, add(CFA_XSP16, literal(-19)))
        CFI DPL0 load(1, XDATA, add(CFA_XSP16, literal(-2)))
        CFI DPH0 load(1, XDATA, add(CFA_XSP16, literal(-1)))
        CFI R6 load(1, XDATA, add(CFA_XSP16, literal(-20)))
        CFI R7 load(1, XDATA, add(CFA_XSP16, literal(-6)))
        CFI V0 load(1, XDATA, add(CFA_XSP16, literal(-18)))
        CFI V1 load(1, XDATA, add(CFA_XSP16, literal(-17)))
        CFI V2 load(1, XDATA, add(CFA_XSP16, literal(-16)))
        CFI V3 load(1, XDATA, add(CFA_XSP16, literal(-15)))
        CFI V4 load(1, XDATA, add(CFA_XSP16, literal(-14)))
        CFI V5 load(1, XDATA, add(CFA_XSP16, literal(-13)))
        CFI V6 load(1, XDATA, add(CFA_XSP16, literal(-12)))
        CFI V7 load(1, XDATA, add(CFA_XSP16, literal(-11)))
        CFI V8 load(1, XDATA, add(CFA_XSP16, literal(-10)))
        CFI V9 load(1, XDATA, add(CFA_XSP16, literal(-9)))
        CFI V10 load(1, XDATA, add(CFA_XSP16, literal(-8)))
        CFI V11 load(1, XDATA, add(CFA_XSP16, literal(-7)))
        CFI ?BRET_EXT load(1, XDATA, add(CFA_XSP16, literal(-3)))
        CFI ?RET_HIGH load(1, XDATA, add(CFA_XSP16, literal(-4)))
        CFI ?RET_LOW load(1, XDATA, add(CFA_XSP16, literal(-5)))
        MOV     R7,#0xc
        LJMP    ?BANKED_LEAVE_XDATA
        CFI EndBlock cfiBlock103

        RSEG BANKED_CODE:CODE:NOROOT(0)
?Subroutine17:
        CFI Block cfiCond104 Using cfiCommon0
        CFI NoFunction
        CFI Conditional ??CrossCallReturnLabel_58
        CFI R6 load(1, XDATA, add(CFA_XSP16, literal(-20)))
        CFI VB load(1, XDATA, add(CFA_XSP16, literal(-19)))
        CFI V0 load(1, XDATA, add(CFA_XSP16, literal(-18)))
        CFI V1 load(1, XDATA, add(CFA_XSP16, literal(-17)))
        CFI V2 load(1, XDATA, add(CFA_XSP16, literal(-16)))
        CFI V3 load(1, XDATA, add(CFA_XSP16, literal(-15)))
        CFI V4 load(1, XDATA, add(CFA_XSP16, literal(-14)))
        CFI V5 load(1, XDATA, add(CFA_XSP16, literal(-13)))
        CFI V6 load(1, XDATA, add(CFA_XSP16, literal(-12)))
        CFI V7 load(1, XDATA, add(CFA_XSP16, literal(-11)))
        CFI V8 load(1, XDATA, add(CFA_XSP16, literal(-10)))
        CFI V9 load(1, XDATA, add(CFA_XSP16, literal(-9)))
        CFI V10 load(1, XDATA, add(CFA_XSP16, literal(-8)))
        CFI V11 load(1, XDATA, add(CFA_XSP16, literal(-7)))
        CFI R7 load(1, XDATA, add(CFA_XSP16, literal(-6)))
        CFI ?RET_LOW load(1, XDATA, add(CFA_XSP16, literal(-5)))
        CFI ?RET_HIGH load(1, XDATA, add(CFA_XSP16, literal(-4)))
        CFI ?BRET_EXT load(1, XDATA, add(CFA_XSP16, literal(-3)))
        CFI DPL0 load(1, XDATA, add(CFA_XSP16, literal(-2)))
        CFI DPH0 load(1, XDATA, add(CFA_XSP16, literal(-1)))
        CFI CFA_SP SP+0
        CFI CFA_XSP16 add(XSP16, 26)
        CFI Block cfiCond105 Using cfiCommon0
        CFI (cfiCond105) NoFunction
        CFI (cfiCond105) Conditional ??CrossCallReturnLabel_59
        CFI (cfiCond105) R6 load(1, XDATA, add(CFA_XSP16, literal(-20)))
        CFI (cfiCond105) VB load(1, XDATA, add(CFA_XSP16, literal(-19)))
        CFI (cfiCond105) V0 load(1, XDATA, add(CFA_XSP16, literal(-18)))
        CFI (cfiCond105) V1 load(1, XDATA, add(CFA_XSP16, literal(-17)))
        CFI (cfiCond105) V2 load(1, XDATA, add(CFA_XSP16, literal(-16)))
        CFI (cfiCond105) V3 load(1, XDATA, add(CFA_XSP16, literal(-15)))
        CFI (cfiCond105) V4 load(1, XDATA, add(CFA_XSP16, literal(-14)))
        CFI (cfiCond105) V5 load(1, XDATA, add(CFA_XSP16, literal(-13)))
        CFI (cfiCond105) V6 load(1, XDATA, add(CFA_XSP16, literal(-12)))
        CFI (cfiCond105) V7 load(1, XDATA, add(CFA_XSP16, literal(-11)))
        CFI (cfiCond105) V8 load(1, XDATA, add(CFA_XSP16, literal(-10)))
        CFI (cfiCond105) V9 load(1, XDATA, add(CFA_XSP16, literal(-9)))
        CFI (cfiCond105) V10 load(1, XDATA, add(CFA_XSP16, literal(-8)))
        CFI (cfiCond105) V11 load(1, XDATA, add(CFA_XSP16, literal(-7)))
        CFI (cfiCond105) R7 load(1, XDATA, add(CFA_XSP16, literal(-6)))
        CFI (cfiCond105) ?RET_LOW load(1, XDATA, add(CFA_XSP16, literal(-5)))
        CFI (cfiCond105) ?RET_HIGH load(1, XDATA, add(CFA_XSP16, literal(-4)))
        CFI (cfiCond105) ?BRET_EXT load(1, XDATA, add(CFA_XSP16, literal(-3)))
        CFI (cfiCond105) DPL0 load(1, XDATA, add(CFA_XSP16, literal(-2)))
        CFI (cfiCond105) DPH0 load(1, XDATA, add(CFA_XSP16, literal(-1)))
        CFI (cfiCond105) CFA_SP SP+0
        CFI (cfiCond105) CFA_XSP16 add(XSP16, 23)
        CFI Block cfiCond106 Using cfiCommon0
        CFI (cfiCond106) NoFunction
        CFI (cfiCond106) Conditional ??CrossCallReturnLabel_60
        CFI (cfiCond106) R6 load(1, XDATA, add(CFA_XSP16, literal(-20)))
        CFI (cfiCond106) VB load(1, XDATA, add(CFA_XSP16, literal(-19)))
        CFI (cfiCond106) V0 load(1, XDATA, add(CFA_XSP16, literal(-18)))
        CFI (cfiCond106) V1 load(1, XDATA, add(CFA_XSP16, literal(-17)))
        CFI (cfiCond106) V2 load(1, XDATA, add(CFA_XSP16, literal(-16)))
        CFI (cfiCond106) V3 load(1, XDATA, add(CFA_XSP16, literal(-15)))
        CFI (cfiCond106) V4 load(1, XDATA, add(CFA_XSP16, literal(-14)))
        CFI (cfiCond106) V5 load(1, XDATA, add(CFA_XSP16, literal(-13)))
        CFI (cfiCond106) V6 load(1, XDATA, add(CFA_XSP16, literal(-12)))
        CFI (cfiCond106) V7 load(1, XDATA, add(CFA_XSP16, literal(-11)))
        CFI (cfiCond106) V8 load(1, XDATA, add(CFA_XSP16, literal(-10)))
        CFI (cfiCond106) V9 load(1, XDATA, add(CFA_XSP16, literal(-9)))
        CFI (cfiCond106) V10 load(1, XDATA, add(CFA_XSP16, literal(-8)))
        CFI (cfiCond106) V11 load(1, XDATA, add(CFA_XSP16, literal(-7)))
        CFI (cfiCond106) R7 load(1, XDATA, add(CFA_XSP16, literal(-6)))
        CFI (cfiCond106) ?RET_LOW load(1, XDATA, add(CFA_XSP16, literal(-5)))
        CFI (cfiCond106) ?RET_HIGH load(1, XDATA, add(CFA_XSP16, literal(-4)))
        CFI (cfiCond106) ?BRET_EXT load(1, XDATA, add(CFA_XSP16, literal(-3)))
        CFI (cfiCond106) DPL0 load(1, XDATA, add(CFA_XSP16, literal(-2)))
        CFI (cfiCond106) DPH0 load(1, XDATA, add(CFA_XSP16, literal(-1)))
        CFI (cfiCond106) CFA_SP SP+0
        CFI (cfiCond106) CFA_XSP16 add(XSP16, 23)
        CFI Block cfiCond107 Using cfiCommon0
        CFI (cfiCond107) NoFunction
        CFI (cfiCond107) Conditional ??CrossCallReturnLabel_61
        CFI (cfiCond107) R6 load(1, XDATA, add(CFA_XSP16, literal(-20)))
        CFI (cfiCond107) VB load(1, XDATA, add(CFA_XSP16, literal(-19)))
        CFI (cfiCond107) V0 load(1, XDATA, add(CFA_XSP16, literal(-18)))
        CFI (cfiCond107) V1 load(1, XDATA, add(CFA_XSP16, literal(-17)))
        CFI (cfiCond107) V2 load(1, XDATA, add(CFA_XSP16, literal(-16)))
        CFI (cfiCond107) V3 load(1, XDATA, add(CFA_XSP16, literal(-15)))
        CFI (cfiCond107) V4 load(1, XDATA, add(CFA_XSP16, literal(-14)))
        CFI (cfiCond107) V5 load(1, XDATA, add(CFA_XSP16, literal(-13)))
        CFI (cfiCond107) V6 load(1, XDATA, add(CFA_XSP16, literal(-12)))
        CFI (cfiCond107) V7 load(1, XDATA, add(CFA_XSP16, literal(-11)))
        CFI (cfiCond107) V8 load(1, XDATA, add(CFA_XSP16, literal(-10)))
        CFI (cfiCond107) V9 load(1, XDATA, add(CFA_XSP16, literal(-9)))
        CFI (cfiCond107) V10 load(1, XDATA, add(CFA_XSP16, literal(-8)))
        CFI (cfiCond107) V11 load(1, XDATA, add(CFA_XSP16, literal(-7)))
        CFI (cfiCond107) R7 load(1, XDATA, add(CFA_XSP16, literal(-6)))
        CFI (cfiCond107) ?RET_LOW load(1, XDATA, add(CFA_XSP16, literal(-5)))
        CFI (cfiCond107) ?RET_HIGH load(1, XDATA, add(CFA_XSP16, literal(-4)))
        CFI (cfiCond107) ?BRET_EXT load(1, XDATA, add(CFA_XSP16, literal(-3)))
        CFI (cfiCond107) DPL0 load(1, XDATA, add(CFA_XSP16, literal(-2)))
        CFI (cfiCond107) DPH0 load(1, XDATA, add(CFA_XSP16, literal(-1)))
        CFI (cfiCond107) CFA_SP SP+0
        CFI (cfiCond107) CFA_XSP16 add(XSP16, 23)
        CFI Block cfiCond108 Using cfiCommon0
        CFI (cfiCond108) NoFunction
        CFI (cfiCond108) Conditional ??CrossCallReturnLabel_62
        CFI (cfiCond108) R6 load(1, XDATA, add(CFA_XSP16, literal(-20)))
        CFI (cfiCond108) VB load(1, XDATA, add(CFA_XSP16, literal(-19)))
        CFI (cfiCond108) V0 load(1, XDATA, add(CFA_XSP16, literal(-18)))
        CFI (cfiCond108) V1 load(1, XDATA, add(CFA_XSP16, literal(-17)))
        CFI (cfiCond108) V2 load(1, XDATA, add(CFA_XSP16, literal(-16)))
        CFI (cfiCond108) V3 load(1, XDATA, add(CFA_XSP16, literal(-15)))
        CFI (cfiCond108) V4 load(1, XDATA, add(CFA_XSP16, literal(-14)))
        CFI (cfiCond108) V5 load(1, XDATA, add(CFA_XSP16, literal(-13)))
        CFI (cfiCond108) V6 load(1, XDATA, add(CFA_XSP16, literal(-12)))
        CFI (cfiCond108) V7 load(1, XDATA, add(CFA_XSP16, literal(-11)))
        CFI (cfiCond108) V8 load(1, XDATA, add(CFA_XSP16, literal(-10)))
        CFI (cfiCond108) V9 load(1, XDATA, add(CFA_XSP16, literal(-9)))
        CFI (cfiCond108) V10 load(1, XDATA, add(CFA_XSP16, literal(-8)))
        CFI (cfiCond108) V11 load(1, XDATA, add(CFA_XSP16, literal(-7)))
        CFI (cfiCond108) R7 load(1, XDATA, add(CFA_XSP16, literal(-6)))
        CFI (cfiCond108) ?RET_LOW load(1, XDATA, add(CFA_XSP16, literal(-5)))
        CFI (cfiCond108) ?RET_HIGH load(1, XDATA, add(CFA_XSP16, literal(-4)))
        CFI (cfiCond108) ?BRET_EXT load(1, XDATA, add(CFA_XSP16, literal(-3)))
        CFI (cfiCond108) DPL0 load(1, XDATA, add(CFA_XSP16, literal(-2)))
        CFI (cfiCond108) DPH0 load(1, XDATA, add(CFA_XSP16, literal(-1)))
        CFI (cfiCond108) CFA_SP SP+0
        CFI (cfiCond108) CFA_XSP16 add(XSP16, 20)
        CFI Block cfiPicker109 Using cfiCommon1
        CFI (cfiPicker109) NoFunction
        CFI (cfiPicker109) Picker
        MOV     DPL,A
        MOV     A,R7
        CFI EndBlock cfiCond104
        CFI EndBlock cfiCond105
        CFI EndBlock cfiCond106
        CFI EndBlock cfiCond107
        CFI EndBlock cfiCond108
        CFI EndBlock cfiPicker109
        REQUIRE ??Subroutine42_0
        ; // Fall through to label ??Subroutine42_0

        RSEG BANKED_CODE:CODE:NOROOT(0)
??Subroutine42_0:
        CFI Block cfiCond110 Using cfiCommon0
        CFI NoFunction
        CFI Conditional ??CrossCallReturnLabel_56
        CFI R6 load(1, XDATA, add(CFA_XSP16, literal(-10)))
        CFI VB load(1, XDATA, add(CFA_XSP16, literal(-9)))
        CFI V0 load(1, XDATA, add(CFA_XSP16, literal(-8)))
        CFI V1 load(1, XDATA, add(CFA_XSP16, literal(-7)))
        CFI R7 load(1, XDATA, add(CFA_XSP16, literal(-6)))
        CFI ?RET_LOW load(1, XDATA, add(CFA_XSP16, literal(-5)))
        CFI ?RET_HIGH load(1, XDATA, add(CFA_XSP16, literal(-4)))
        CFI ?BRET_EXT load(1, XDATA, add(CFA_XSP16, literal(-3)))
        CFI DPL0 load(1, XDATA, add(CFA_XSP16, literal(-2)))
        CFI DPH0 load(1, XDATA, add(CFA_XSP16, literal(-1)))
        CFI CFA_SP SP+0
        CFI CFA_XSP16 add(XSP16, 16)
        CFI Block cfiCond111 Using cfiCommon0
        CFI (cfiCond111) NoFunction
        CFI (cfiCond111) Conditional ??CrossCallReturnLabel_57
        CFI (cfiCond111) R6 load(1, XDATA, add(CFA_XSP16, literal(-14)))
        CFI (cfiCond111) VB load(1, XDATA, add(CFA_XSP16, literal(-13)))
        CFI (cfiCond111) V0 load(1, XDATA, add(CFA_XSP16, literal(-12)))
        CFI (cfiCond111) V1 load(1, XDATA, add(CFA_XSP16, literal(-11)))
        CFI (cfiCond111) V2 load(1, XDATA, add(CFA_XSP16, literal(-10)))
        CFI (cfiCond111) V3 load(1, XDATA, add(CFA_XSP16, literal(-9)))
        CFI (cfiCond111) V4 load(1, XDATA, add(CFA_XSP16, literal(-8)))
        CFI (cfiCond111) V5 load(1, XDATA, add(CFA_XSP16, literal(-7)))
        CFI (cfiCond111) R7 load(1, XDATA, add(CFA_XSP16, literal(-6)))
        CFI (cfiCond111) ?RET_LOW load(1, XDATA, add(CFA_XSP16, literal(-5)))
        CFI (cfiCond111) ?RET_HIGH load(1, XDATA, add(CFA_XSP16, literal(-4)))
        CFI (cfiCond111) ?BRET_EXT load(1, XDATA, add(CFA_XSP16, literal(-3)))
        CFI (cfiCond111) DPL0 load(1, XDATA, add(CFA_XSP16, literal(-2)))
        CFI (cfiCond111) DPH0 load(1, XDATA, add(CFA_XSP16, literal(-1)))
        CFI (cfiCond111) CFA_SP SP+0
        CFI (cfiCond111) CFA_XSP16 add(XSP16, 14)
        CFI Block cfiCond112 Using cfiCommon0
        CFI (cfiCond112) NoFunction
        CFI (cfiCond112) Conditional ??CrossCallReturnLabel_58
        CFI (cfiCond112) R6 load(1, XDATA, add(CFA_XSP16, literal(-20)))
        CFI (cfiCond112) VB load(1, XDATA, add(CFA_XSP16, literal(-19)))
        CFI (cfiCond112) V0 load(1, XDATA, add(CFA_XSP16, literal(-18)))
        CFI (cfiCond112) V1 load(1, XDATA, add(CFA_XSP16, literal(-17)))
        CFI (cfiCond112) V2 load(1, XDATA, add(CFA_XSP16, literal(-16)))
        CFI (cfiCond112) V3 load(1, XDATA, add(CFA_XSP16, literal(-15)))
        CFI (cfiCond112) V4 load(1, XDATA, add(CFA_XSP16, literal(-14)))
        CFI (cfiCond112) V5 load(1, XDATA, add(CFA_XSP16, literal(-13)))
        CFI (cfiCond112) V6 load(1, XDATA, add(CFA_XSP16, literal(-12)))
        CFI (cfiCond112) V7 load(1, XDATA, add(CFA_XSP16, literal(-11)))
        CFI (cfiCond112) V8 load(1, XDATA, add(CFA_XSP16, literal(-10)))
        CFI (cfiCond112) V9 load(1, XDATA, add(CFA_XSP16, literal(-9)))
        CFI (cfiCond112) V10 load(1, XDATA, add(CFA_XSP16, literal(-8)))
        CFI (cfiCond112) V11 load(1, XDATA, add(CFA_XSP16, literal(-7)))
        CFI (cfiCond112) R7 load(1, XDATA, add(CFA_XSP16, literal(-6)))
        CFI (cfiCond112) ?RET_LOW load(1, XDATA, add(CFA_XSP16, literal(-5)))
        CFI (cfiCond112) ?RET_HIGH load(1, XDATA, add(CFA_XSP16, literal(-4)))
        CFI (cfiCond112) ?BRET_EXT load(1, XDATA, add(CFA_XSP16, literal(-3)))
        CFI (cfiCond112) DPL0 load(1, XDATA, add(CFA_XSP16, literal(-2)))
        CFI (cfiCond112) DPH0 load(1, XDATA, add(CFA_XSP16, literal(-1)))
        CFI (cfiCond112) CFA_SP SP+0
        CFI (cfiCond112) CFA_XSP16 add(XSP16, 26)
        CFI Block cfiCond113 Using cfiCommon0
        CFI (cfiCond113) NoFunction
        CFI (cfiCond113) Conditional ??CrossCallReturnLabel_59
        CFI (cfiCond113) R6 load(1, XDATA, add(CFA_XSP16, literal(-20)))
        CFI (cfiCond113) VB load(1, XDATA, add(CFA_XSP16, literal(-19)))
        CFI (cfiCond113) V0 load(1, XDATA, add(CFA_XSP16, literal(-18)))
        CFI (cfiCond113) V1 load(1, XDATA, add(CFA_XSP16, literal(-17)))
        CFI (cfiCond113) V2 load(1, XDATA, add(CFA_XSP16, literal(-16)))
        CFI (cfiCond113) V3 load(1, XDATA, add(CFA_XSP16, literal(-15)))
        CFI (cfiCond113) V4 load(1, XDATA, add(CFA_XSP16, literal(-14)))
        CFI (cfiCond113) V5 load(1, XDATA, add(CFA_XSP16, literal(-13)))
        CFI (cfiCond113) V6 load(1, XDATA, add(CFA_XSP16, literal(-12)))
        CFI (cfiCond113) V7 load(1, XDATA, add(CFA_XSP16, literal(-11)))
        CFI (cfiCond113) V8 load(1, XDATA, add(CFA_XSP16, literal(-10)))
        CFI (cfiCond113) V9 load(1, XDATA, add(CFA_XSP16, literal(-9)))
        CFI (cfiCond113) V10 load(1, XDATA, add(CFA_XSP16, literal(-8)))
        CFI (cfiCond113) V11 load(1, XDATA, add(CFA_XSP16, literal(-7)))
        CFI (cfiCond113) R7 load(1, XDATA, add(CFA_XSP16, literal(-6)))
        CFI (cfiCond113) ?RET_LOW load(1, XDATA, add(CFA_XSP16, literal(-5)))
        CFI (cfiCond113) ?RET_HIGH load(1, XDATA, add(CFA_XSP16, literal(-4)))
        CFI (cfiCond113) ?BRET_EXT load(1, XDATA, add(CFA_XSP16, literal(-3)))
        CFI (cfiCond113) DPL0 load(1, XDATA, add(CFA_XSP16, literal(-2)))
        CFI (cfiCond113) DPH0 load(1, XDATA, add(CFA_XSP16, literal(-1)))
        CFI (cfiCond113) CFA_SP SP+0
        CFI (cfiCond113) CFA_XSP16 add(XSP16, 23)
        CFI Block cfiCond114 Using cfiCommon0
        CFI (cfiCond114) NoFunction
        CFI (cfiCond114) Conditional ??CrossCallReturnLabel_60
        CFI (cfiCond114) R6 load(1, XDATA, add(CFA_XSP16, literal(-20)))
        CFI (cfiCond114) VB load(1, XDATA, add(CFA_XSP16, literal(-19)))
        CFI (cfiCond114) V0 load(1, XDATA, add(CFA_XSP16, literal(-18)))
        CFI (cfiCond114) V1 load(1, XDATA, add(CFA_XSP16, literal(-17)))
        CFI (cfiCond114) V2 load(1, XDATA, add(CFA_XSP16, literal(-16)))
        CFI (cfiCond114) V3 load(1, XDATA, add(CFA_XSP16, literal(-15)))
        CFI (cfiCond114) V4 load(1, XDATA, add(CFA_XSP16, literal(-14)))
        CFI (cfiCond114) V5 load(1, XDATA, add(CFA_XSP16, literal(-13)))
        CFI (cfiCond114) V6 load(1, XDATA, add(CFA_XSP16, literal(-12)))
        CFI (cfiCond114) V7 load(1, XDATA, add(CFA_XSP16, literal(-11)))
        CFI (cfiCond114) V8 load(1, XDATA, add(CFA_XSP16, literal(-10)))
        CFI (cfiCond114) V9 load(1, XDATA, add(CFA_XSP16, literal(-9)))
        CFI (cfiCond114) V10 load(1, XDATA, add(CFA_XSP16, literal(-8)))
        CFI (cfiCond114) V11 load(1, XDATA, add(CFA_XSP16, literal(-7)))
        CFI (cfiCond114) R7 load(1, XDATA, add(CFA_XSP16, literal(-6)))
        CFI (cfiCond114) ?RET_LOW load(1, XDATA, add(CFA_XSP16, literal(-5)))
        CFI (cfiCond114) ?RET_HIGH load(1, XDATA, add(CFA_XSP16, literal(-4)))
        CFI (cfiCond114) ?BRET_EXT load(1, XDATA, add(CFA_XSP16, literal(-3)))
        CFI (cfiCond114) DPL0 load(1, XDATA, add(CFA_XSP16, literal(-2)))
        CFI (cfiCond114) DPH0 load(1, XDATA, add(CFA_XSP16, literal(-1)))
        CFI (cfiCond114) CFA_SP SP+0
        CFI (cfiCond114) CFA_XSP16 add(XSP16, 23)
        CFI Block cfiCond115 Using cfiCommon0
        CFI (cfiCond115) NoFunction
        CFI (cfiCond115) Conditional ??CrossCallReturnLabel_61
        CFI (cfiCond115) R6 load(1, XDATA, add(CFA_XSP16, literal(-20)))
        CFI (cfiCond115) VB load(1, XDATA, add(CFA_XSP16, literal(-19)))
        CFI (cfiCond115) V0 load(1, XDATA, add(CFA_XSP16, literal(-18)))
        CFI (cfiCond115) V1 load(1, XDATA, add(CFA_XSP16, literal(-17)))
        CFI (cfiCond115) V2 load(1, XDATA, add(CFA_XSP16, literal(-16)))
        CFI (cfiCond115) V3 load(1, XDATA, add(CFA_XSP16, literal(-15)))
        CFI (cfiCond115) V4 load(1, XDATA, add(CFA_XSP16, literal(-14)))
        CFI (cfiCond115) V5 load(1, XDATA, add(CFA_XSP16, literal(-13)))
        CFI (cfiCond115) V6 load(1, XDATA, add(CFA_XSP16, literal(-12)))
        CFI (cfiCond115) V7 load(1, XDATA, add(CFA_XSP16, literal(-11)))
        CFI (cfiCond115) V8 load(1, XDATA, add(CFA_XSP16, literal(-10)))
        CFI (cfiCond115) V9 load(1, XDATA, add(CFA_XSP16, literal(-9)))
        CFI (cfiCond115) V10 load(1, XDATA, add(CFA_XSP16, literal(-8)))
        CFI (cfiCond115) V11 load(1, XDATA, add(CFA_XSP16, literal(-7)))
        CFI (cfiCond115) R7 load(1, XDATA, add(CFA_XSP16, literal(-6)))
        CFI (cfiCond115) ?RET_LOW load(1, XDATA, add(CFA_XSP16, literal(-5)))
        CFI (cfiCond115) ?RET_HIGH load(1, XDATA, add(CFA_XSP16, literal(-4)))
        CFI (cfiCond115) ?BRET_EXT load(1, XDATA, add(CFA_XSP16, literal(-3)))
        CFI (cfiCond115) DPL0 load(1, XDATA, add(CFA_XSP16, literal(-2)))
        CFI (cfiCond115) DPH0 load(1, XDATA, add(CFA_XSP16, literal(-1)))
        CFI (cfiCond115) CFA_SP SP+0
        CFI (cfiCond115) CFA_XSP16 add(XSP16, 23)
        CFI Block cfiCond116 Using cfiCommon0
        CFI (cfiCond116) NoFunction
        CFI (cfiCond116) Conditional ??CrossCallReturnLabel_62
        CFI (cfiCond116) R6 load(1, XDATA, add(CFA_XSP16, literal(-20)))
        CFI (cfiCond116) VB load(1, XDATA, add(CFA_XSP16, literal(-19)))
        CFI (cfiCond116) V0 load(1, XDATA, add(CFA_XSP16, literal(-18)))
        CFI (cfiCond116) V1 load(1, XDATA, add(CFA_XSP16, literal(-17)))
        CFI (cfiCond116) V2 load(1, XDATA, add(CFA_XSP16, literal(-16)))
        CFI (cfiCond116) V3 load(1, XDATA, add(CFA_XSP16, literal(-15)))
        CFI (cfiCond116) V4 load(1, XDATA, add(CFA_XSP16, literal(-14)))
        CFI (cfiCond116) V5 load(1, XDATA, add(CFA_XSP16, literal(-13)))
        CFI (cfiCond116) V6 load(1, XDATA, add(CFA_XSP16, literal(-12)))
        CFI (cfiCond116) V7 load(1, XDATA, add(CFA_XSP16, literal(-11)))
        CFI (cfiCond116) V8 load(1, XDATA, add(CFA_XSP16, literal(-10)))
        CFI (cfiCond116) V9 load(1, XDATA, add(CFA_XSP16, literal(-9)))
        CFI (cfiCond116) V10 load(1, XDATA, add(CFA_XSP16, literal(-8)))
        CFI (cfiCond116) V11 load(1, XDATA, add(CFA_XSP16, literal(-7)))
        CFI (cfiCond116) R7 load(1, XDATA, add(CFA_XSP16, literal(-6)))
        CFI (cfiCond116) ?RET_LOW load(1, XDATA, add(CFA_XSP16, literal(-5)))
        CFI (cfiCond116) ?RET_HIGH load(1, XDATA, add(CFA_XSP16, literal(-4)))
        CFI (cfiCond116) ?BRET_EXT load(1, XDATA, add(CFA_XSP16, literal(-3)))
        CFI (cfiCond116) DPL0 load(1, XDATA, add(CFA_XSP16, literal(-2)))
        CFI (cfiCond116) DPH0 load(1, XDATA, add(CFA_XSP16, literal(-1)))
        CFI (cfiCond116) CFA_SP SP+0
        CFI (cfiCond116) CFA_XSP16 add(XSP16, 20)
        CFI Block cfiPicker117 Using cfiCommon1
        CFI (cfiPicker117) NoFunction
        CFI (cfiPicker117) Picker
        ADDC    A,#0x0
        MOV     DPH,A
        RET
        CFI EndBlock cfiCond110
        CFI EndBlock cfiCond111
        CFI EndBlock cfiCond112
        CFI EndBlock cfiCond113
        CFI EndBlock cfiCond114
        CFI EndBlock cfiCond115
        CFI EndBlock cfiCond116
        CFI EndBlock cfiPicker117
//  669 #endif /* MT_NWK_FUNC */
//  670 
//  671 #if defined ( MT_NWK_CB_FUNC )             //NWK callback commands
//  672 /***************************************************************************************************
//  673  * @fn          nwk_MTCallbackSubDataConfirm
//  674  *
//  675  * @brief       Process the callback subscription for NLDE-DATA.confirm
//  676  *
//  677  * @param       nsduHandle  - APS handle
//  678  * @param       Status      - result of data request
//  679  *
//  680  * @return      none
//  681  ***************************************************************************************************/

        RSEG BANKED_CODE:CODE:NOROOT(0)
//  682 void nwk_MTCallbackSubDataConfirm(uint8 nsduHandle, ZStatus_t status)
nwk_MTCallbackSubDataConfirm:
        CFI Block cfiBlock118 Using cfiCommon0
        CFI Function nwk_MTCallbackSubDataConfirm
        CODE
//  683 {
        FUNCALL nwk_MTCallbackSubDataConfirm, MT_BuildAndSendZToolResponse
        LOCFRAME ISTACK, 0, STACK
        LOCFRAME PSTACK, 0, STACK
        LOCFRAME XSTACK, 11, STACK
        LOCFRAME IOVERLAY, 0, STATIC
        LOCFRAME DOVERLAY, 0, STATIC
        ARGFRAME ISTACK, 0, STACK
        ARGFRAME PSTACK, 0, STACK
        ARGFRAME XSTACK, 11, STACK
        ARGFRAME IOVERLAY, 0, STATIC
        ARGFRAME DOVERLAY, 0, STATIC
        MOV     A,#-0x9
        LCALL   ?BANKED_ENTER_XDATA
        CFI DPH0 load(1, XDATA, add(CFA_XSP16, literal(-1)))
        CFI DPL0 load(1, XDATA, add(CFA_XSP16, literal(-2)))
        CFI ?BRET_EXT load(1, XDATA, add(CFA_XSP16, literal(-3)))
        CFI ?RET_HIGH load(1, XDATA, add(CFA_XSP16, literal(-4)))
        CFI ?RET_LOW load(1, XDATA, add(CFA_XSP16, literal(-5)))
        CFI R7 load(1, XDATA, add(CFA_XSP16, literal(-6)))
        CFI V0 load(1, XDATA, add(CFA_XSP16, literal(-7)))
        CFI VB load(1, XDATA, add(CFA_XSP16, literal(-8)))
        CFI R6 load(1, XDATA, add(CFA_XSP16, literal(-9)))
        CFI CFA_SP SP+0
        CFI CFA_XSP16 add(XSP16, 9)
        ; Saved register size: 9
        ; Auto size: 2
        MOV     A,#-0x2
        LCALL   ?ALLOC_XSTACK8
        CFI CFA_XSP16 add(XSP16, 11)
        MOV     A,R1
//  684   uint8 buf[2];
//  685 
//  686   buf[0] = nsduHandle;
        MOV     DPL,?XSP + 0
        MOV     DPH,?XSP + 1
        MOVX    @DPTR,A
//  687   buf[1] = (uint8)status;
        MOV     A,#0x1
        LCALL   ?XSTACK_DISP0_8
        MOV     A,R2
        LCALL   ?Subroutine15 & 0xFFFF
//  688 
//  689   MT_BuildAndSendZToolResponse(((uint8)MT_RPC_CMD_AREQ | (uint8)MT_RPC_SYS_NWK), MT_NLDE_DATA_CONF, 2, buf );
??CrossCallReturnLabel_12:
        MOV     R3,#0x2
        MOV     R2,#-0x80
        MOV     R1,#0x43
        LCALL   ??MT_BuildAndSendZToolResponse?relay
//  690 }
        MOV     A,#0x2
        LJMP    ??Subroutine40_0 & 0xFFFF
        CFI EndBlock cfiBlock118
//  691 
//  692 /***************************************************************************************************
//  693  * @fn          nwk_MTCallbackSubDataIndication
//  694  *
//  695  * @brief       Process the callback subscription for NLDE-DATA.indication
//  696  *
//  697  * @param       SrcAddress      - 16 bit address
//  698  * @param       nsduLength      - Length of incoming data
//  699  * @param       nsdu            - Pointer to incoming data
//  700  * @param       LinkQuality     - Link quality measured during
//  701  *                                reception.
//  702  *
//  703  * @return      none
//  704  ***************************************************************************************************/

        RSEG BANKED_CODE:CODE:NOROOT(0)
//  705 void nwk_MTCallbackSubDataIndication(uint16 SrcAddress, int16 nsduLength, uint8 *nsdu, uint8 LinkQuality)
nwk_MTCallbackSubDataIndication:
        CFI Block cfiBlock119 Using cfiCommon0
        CFI Function nwk_MTCallbackSubDataIndication
        CODE
//  706 {
        FUNCALL nwk_MTCallbackSubDataIndication, osal_mem_alloc
        LOCFRAME ISTACK, 0, STACK
        LOCFRAME PSTACK, 0, STACK
        LOCFRAME XSTACK, 20, STACK
        LOCFRAME IOVERLAY, 0, STATIC
        LOCFRAME DOVERLAY, 0, STATIC
        ARGFRAME ISTACK, 0, STACK
        ARGFRAME PSTACK, 0, STACK
        ARGFRAME XSTACK, 20, STACK
        ARGFRAME IOVERLAY, 0, STATIC
        ARGFRAME DOVERLAY, 0, STATIC
        FUNCALL nwk_MTCallbackSubDataIndication, osal_memset
        LOCFRAME ISTACK, 0, STACK
        LOCFRAME PSTACK, 0, STACK
        LOCFRAME XSTACK, 20, STACK
        LOCFRAME IOVERLAY, 0, STATIC
        LOCFRAME DOVERLAY, 0, STATIC
        ARGFRAME ISTACK, 0, STACK
        ARGFRAME PSTACK, 0, STACK
        ARGFRAME XSTACK, 20, STACK
        ARGFRAME IOVERLAY, 0, STATIC
        ARGFRAME DOVERLAY, 0, STATIC
        FUNCALL nwk_MTCallbackSubDataIndication, osal_memcpy
        LOCFRAME ISTACK, 0, STACK
        LOCFRAME PSTACK, 0, STACK
        LOCFRAME XSTACK, 23, STACK
        LOCFRAME IOVERLAY, 0, STATIC
        LOCFRAME DOVERLAY, 0, STATIC
        ARGFRAME ISTACK, 0, STACK
        ARGFRAME PSTACK, 0, STACK
        ARGFRAME XSTACK, 23, STACK
        ARGFRAME IOVERLAY, 0, STATIC
        ARGFRAME DOVERLAY, 0, STATIC
        FUNCALL nwk_MTCallbackSubDataIndication, MT_BuildAndSendZToolResponse
        LOCFRAME ISTACK, 0, STACK
        LOCFRAME PSTACK, 0, STACK
        LOCFRAME XSTACK, 20, STACK
        LOCFRAME IOVERLAY, 0, STATIC
        LOCFRAME DOVERLAY, 0, STATIC
        ARGFRAME ISTACK, 0, STACK
        ARGFRAME PSTACK, 0, STACK
        ARGFRAME XSTACK, 20, STACK
        ARGFRAME IOVERLAY, 0, STATIC
        ARGFRAME DOVERLAY, 0, STATIC
        FUNCALL nwk_MTCallbackSubDataIndication, osal_mem_free
        LOCFRAME ISTACK, 0, STACK
        LOCFRAME PSTACK, 0, STACK
        LOCFRAME XSTACK, 20, STACK
        LOCFRAME IOVERLAY, 0, STATIC
        LOCFRAME DOVERLAY, 0, STATIC
        ARGFRAME ISTACK, 0, STACK
        ARGFRAME PSTACK, 0, STACK
        ARGFRAME XSTACK, 20, STACK
        ARGFRAME IOVERLAY, 0, STATIC
        ARGFRAME DOVERLAY, 0, STATIC
        MOV     A,#-0x14
        LCALL   ?BANKED_ENTER_XDATA
        CFI DPH0 load(1, XDATA, add(CFA_XSP16, literal(-1)))
        CFI DPL0 load(1, XDATA, add(CFA_XSP16, literal(-2)))
        CFI ?BRET_EXT load(1, XDATA, add(CFA_XSP16, literal(-3)))
        CFI ?RET_HIGH load(1, XDATA, add(CFA_XSP16, literal(-4)))
        CFI ?RET_LOW load(1, XDATA, add(CFA_XSP16, literal(-5)))
        CFI R7 load(1, XDATA, add(CFA_XSP16, literal(-6)))
        CFI V11 load(1, XDATA, add(CFA_XSP16, literal(-7)))
        CFI V10 load(1, XDATA, add(CFA_XSP16, literal(-8)))
        CFI V9 load(1, XDATA, add(CFA_XSP16, literal(-9)))
        CFI V8 load(1, XDATA, add(CFA_XSP16, literal(-10)))
        CFI V7 load(1, XDATA, add(CFA_XSP16, literal(-11)))
        CFI V6 load(1, XDATA, add(CFA_XSP16, literal(-12)))
        CFI V5 load(1, XDATA, add(CFA_XSP16, literal(-13)))
        CFI V4 load(1, XDATA, add(CFA_XSP16, literal(-14)))
        CFI V3 load(1, XDATA, add(CFA_XSP16, literal(-15)))
        CFI V2 load(1, XDATA, add(CFA_XSP16, literal(-16)))
        CFI V1 load(1, XDATA, add(CFA_XSP16, literal(-17)))
        CFI V0 load(1, XDATA, add(CFA_XSP16, literal(-18)))
        CFI VB load(1, XDATA, add(CFA_XSP16, literal(-19)))
        CFI R6 load(1, XDATA, add(CFA_XSP16, literal(-20)))
        CFI CFA_SP SP+0
        CFI CFA_XSP16 add(XSP16, 20)
        ; Saved register size: 20
        ; Auto size: 0
        MOV     ?V0 + 4,R2
        MOV     ?V0 + 5,R3
        MOV     ?V0 + 2,R4
        MOV     ?V0 + 3,R5
        MOV     ?V0 + 7,R1
        MOV     A,#0x14
        LCALL   ?XSTACK_DISP0_8
        MOVX    A,@DPTR
        MOV     ?V0 + 8,A
        INC     DPTR
        MOVX    A,@DPTR
        MOV     ?V0 + 9,A
//  707   uint8 *msgPtr;
//  708   uint8 *msg;
//  709   uint8 msgLen;
//  710 
//  711   msgLen = sizeof( uint16 ) + sizeof( uint8 ) + ZTEST_DEFAULT_DATA_LEN
//  712             + sizeof( uint8);
//  713 
//  714   msgPtr = osal_mem_alloc( msgLen );
        ; Setup parameters for call to function osal_mem_alloc
        MOV     R2,#0x6a
        LCALL   ?Subroutine22 & 0xFFFF
//  715   if ( msgPtr )
??CrossCallReturnLabel_26:
        JZ      ??CrossCallReturnLabel_22
//  716   {
//  717     //Fill up the data bytes
//  718     msg = msgPtr;
        MOV     R6,?V0 + 0
        MOV     R7,?V0 + 1
//  719 
//  720     //First fill in details
//  721     *msg++ = LO_UINT16( SrcAddress );
        MOV     DPL,R6
        MOV     DPH,R7
        MOV     A,?V0 + 4
        MOVX    @DPTR,A
        INC     DPTR
//  722     *msg++ = HI_UINT16( SrcAddress );
        MOV     A,?V0 + 5
        MOVX    @DPTR,A
        INC     DPTR
//  723 
//  724     //Since the max packet size is less than 255 bytes, a byte is enough
//  725     //to represent nsdu length
//  726     *msg++ = ( uint8 ) nsduLength;
        MOV     A,?V0 + 2
        MOVX    @DPTR,A
        INC     DPTR
        MOV     R6,DPL
        MOV     R7,DPH
//  727 
//  728     osal_memset( msg, NULL, ZTEST_DEFAULT_DATA_LEN ); // Clear the mem
        ; Setup parameters for call to function osal_memset
        MOV     R4,#0x66
        MOV     R5,#0x0
        MOV     R1,#0x0
        MOV     A,R6
        MOV     R2,A
        MOV     A,R7
        MOV     R3,A
        LCALL   ??osal_memset?relay
//  729     osal_memcpy( msg, nsdu, nsduLength );
        ; Setup parameters for call to function osal_memcpy
        MOV     ?V0 + 4,?V0 + 8
        MOV     ?V0 + 5,?V0 + 9
        MOV     ?V0 + 6,#0x0
        MOV     R0,#?V0 + 4
        LCALL   ?PUSH_XSTACK_I_THREE
        CFI CFA_XSP16 add(XSP16, 23)
        MOV     R4,?V0 + 2
        MOV     R5,?V0 + 3
        MOV     A,R6
        MOV     R2,A
        MOV     A,R7
        MOV     R3,A
        LCALL   ??osal_memcpy?relay
        MOV     A,#0x3
        LCALL   ?DEALLOC_XSTACK8
        CFI CFA_XSP16 add(XSP16, 20)
//  730     msg += ZTEST_DEFAULT_DATA_LEN;
//  731 
//  732     *msg++ = LinkQuality;
        MOV     A,R6
        ADD     A,#0x66
        LCALL   ?Subroutine17 & 0xFFFF
??CrossCallReturnLabel_62:
        MOV     A,?V0 + 7
        MOVX    @DPTR,A
//  733 
//  734     MT_BuildAndSendZToolResponse( ((uint8)MT_RPC_CMD_AREQ | (uint8)MT_RPC_SYS_NWK), MT_NLDE_DATA_IND, msgLen, msgPtr );
        ; Setup parameters for call to function MT_BuildAndSendZToolResponse
        MOV     R4,?V0 + 0
        MOV     R5,?V0 + 1
        MOV     R3,#0x6a
        MOV     R2,#-0x7f
        LCALL   ?Subroutine20 & 0xFFFF
//  735 
//  736     osal_mem_free( msgPtr );
//  737   }
//  738 }
??CrossCallReturnLabel_22:
        LJMP    ?Subroutine3 & 0xFFFF
        CFI EndBlock cfiBlock119
//  739 
//  740 /***************************************************************************************************
//  741  * @fn          nwk_MTCallbackSubInitCoordConfirm
//  742  *
//  743  * @brief       Process the callback subscription for NLME-INIT-COORD.confirm
//  744  *
//  745  * @param       Status - Result of NLME_InitCoordinatorRequest()
//  746  *
//  747  * @return      none
//  748  ***************************************************************************************************/

        RSEG BANKED_CODE:CODE:NOROOT(0)
//  749 void nwk_MTCallbackSubInitCoordConfirm( ZStatus_t Status )
nwk_MTCallbackSubInitCoordConfirm:
        CFI Block cfiBlock120 Using cfiCommon0
        CFI Function nwk_MTCallbackSubInitCoordConfirm
        CODE
//  750 {
        FUNCALL nwk_MTCallbackSubInitCoordConfirm, MT_BuildAndSendZToolResponse
        LOCFRAME ISTACK, 2, STACK
        LOCFRAME PSTACK, 0, STACK
        LOCFRAME XSTACK, 1, STACK
        LOCFRAME IOVERLAY, 0, STATIC
        LOCFRAME DOVERLAY, 0, STATIC
        ARGFRAME ISTACK, 2, STACK
        ARGFRAME PSTACK, 0, STACK
        ARGFRAME XSTACK, 1, STACK
        ARGFRAME IOVERLAY, 0, STATIC
        ARGFRAME DOVERLAY, 0, STATIC
        PUSH    DPL
        CFI DPL0 Frame(CFA_SP, 4)
        CFI CFA_SP SP+-4
        PUSH    DPH
        CFI DPH0 Frame(CFA_SP, 5)
        CFI CFA_SP SP+-5
        ; Saved register size: 2
        ; Auto size: 1
        MOV     A,#-0x1
        LCALL   ?ALLOC_XSTACK8
        CFI CFA_XSP16 add(XSP16, 1)
        LCALL   ?Subroutine14 & 0xFFFF
//  751   MT_BuildAndSendZToolResponse(((uint8)MT_RPC_CMD_AREQ | (uint8)MT_RPC_SYS_NWK), MT_NLME_NETWORK_FORMATION_CONF,
//  752                           sizeof(uint8), (uint8*)&Status);
??CrossCallReturnLabel_47:
        MOV     R2,#-0x7e
        CFI EndBlock cfiBlock120
        REQUIRE ?Subroutine6
        ; // Fall through to label ?Subroutine6

        RSEG BANKED_CODE:CODE:NOROOT(0)
?Subroutine6:
        CFI Block cfiBlock121 Using cfiCommon0
        CFI NoFunction
        CFI CFA_SP SP+-5
        CFI CFA_XSP16 add(XSP16, 1)
        CFI DPL0 Frame(CFA_SP, 4)
        CFI DPH0 Frame(CFA_SP, 5)
        MOV     R1,#0x43
        LJMP    ??Subroutine35_0 & 0xFFFF
        CFI EndBlock cfiBlock121
//  753 }
//  754 
//  755 /***************************************************************************************************
//  756  * @fn          nwk_MTCallbackSubStartRouterConfirm
//  757  *
//  758  * @brief       Process the callback subscription for NLME-START-ROUTER.confirm
//  759  *
//  760  * @param       Status - Result of NLME_StartRouterRequest()
//  761  *
//  762  * @return      none
//  763  ***************************************************************************************************/

        RSEG BANKED_CODE:CODE:NOROOT(0)
//  764 void nwk_MTCallbackSubStartRouterConfirm( ZStatus_t Status )
nwk_MTCallbackSubStartRouterConfirm:
        CFI Block cfiBlock122 Using cfiCommon0
        CFI Function nwk_MTCallbackSubStartRouterConfirm
        CODE
//  765 {
        FUNCALL nwk_MTCallbackSubStartRouterConfirm, MT_BuildAndSendZToolResponse
        LOCFRAME ISTACK, 2, STACK
        LOCFRAME PSTACK, 0, STACK
        LOCFRAME XSTACK, 1, STACK
        LOCFRAME IOVERLAY, 0, STATIC
        LOCFRAME DOVERLAY, 0, STATIC
        ARGFRAME ISTACK, 2, STACK
        ARGFRAME PSTACK, 0, STACK
        ARGFRAME XSTACK, 1, STACK
        ARGFRAME IOVERLAY, 0, STATIC
        ARGFRAME DOVERLAY, 0, STATIC
        PUSH    DPL
        CFI DPL0 Frame(CFA_SP, 4)
        CFI CFA_SP SP+-4
        PUSH    DPH
        CFI DPH0 Frame(CFA_SP, 5)
        CFI CFA_SP SP+-5
        ; Saved register size: 2
        ; Auto size: 1
        MOV     A,#-0x1
        LCALL   ?ALLOC_XSTACK8
        CFI CFA_XSP16 add(XSP16, 1)
        LCALL   ?Subroutine14 & 0xFFFF
//  766   MT_BuildAndSendZToolResponse(((uint8)MT_RPC_CMD_AREQ | (uint8)MT_RPC_SYS_NWK), MT_NLME_START_ROUTER_CONF,
//  767                           sizeof(uint8), (uint8*)&Status);
??CrossCallReturnLabel_48:
        MOV     R2,#-0x76
        SJMP    ?Subroutine6
        CFI EndBlock cfiBlock122
//  768 }
//  769 
//  770 /***************************************************************************************************
//  771  * @fn          nwk_MTCallbackSubJoinConfirm
//  772  *
//  773  * @brief       Process the callback subscription for NLME-JOIN.confirm
//  774  *
//  775  * @param       Status - Result of NLME_JoinRequest()
//  776  *
//  777  * @return      none
//  778  ***************************************************************************************************/

        RSEG BANKED_CODE:CODE:NOROOT(0)
//  779 void nwk_MTCallbackSubJoinConfirm(uint16 PanId, ZStatus_t Status)
nwk_MTCallbackSubJoinConfirm:
        CFI Block cfiBlock123 Using cfiCommon0
        CFI Function nwk_MTCallbackSubJoinConfirm
        CODE
//  780 {
        FUNCALL nwk_MTCallbackSubJoinConfirm, ZMacGetReq
        LOCFRAME ISTACK, 0, STACK
        LOCFRAME PSTACK, 0, STACK
        LOCFRAME XSTACK, 20, STACK
        LOCFRAME IOVERLAY, 0, STATIC
        LOCFRAME DOVERLAY, 0, STATIC
        ARGFRAME ISTACK, 0, STACK
        ARGFRAME PSTACK, 0, STACK
        ARGFRAME XSTACK, 20, STACK
        ARGFRAME IOVERLAY, 0, STATIC
        ARGFRAME DOVERLAY, 0, STATIC
        FUNCALL nwk_MTCallbackSubJoinConfirm, MT_BuildAndSendZToolResponse
        LOCFRAME ISTACK, 0, STACK
        LOCFRAME PSTACK, 0, STACK
        LOCFRAME XSTACK, 20, STACK
        LOCFRAME IOVERLAY, 0, STATIC
        LOCFRAME DOVERLAY, 0, STATIC
        ARGFRAME ISTACK, 0, STACK
        ARGFRAME PSTACK, 0, STACK
        ARGFRAME XSTACK, 20, STACK
        ARGFRAME IOVERLAY, 0, STATIC
        ARGFRAME DOVERLAY, 0, STATIC
        MOV     A,#-0x9
        LCALL   ?BANKED_ENTER_XDATA
        CFI DPH0 load(1, XDATA, add(CFA_XSP16, literal(-1)))
        CFI DPL0 load(1, XDATA, add(CFA_XSP16, literal(-2)))
        CFI ?BRET_EXT load(1, XDATA, add(CFA_XSP16, literal(-3)))
        CFI ?RET_HIGH load(1, XDATA, add(CFA_XSP16, literal(-4)))
        CFI ?RET_LOW load(1, XDATA, add(CFA_XSP16, literal(-5)))
        CFI R7 load(1, XDATA, add(CFA_XSP16, literal(-6)))
        CFI V0 load(1, XDATA, add(CFA_XSP16, literal(-7)))
        CFI VB load(1, XDATA, add(CFA_XSP16, literal(-8)))
        CFI R6 load(1, XDATA, add(CFA_XSP16, literal(-9)))
        CFI CFA_SP SP+0
        CFI CFA_XSP16 add(XSP16, 9)
        ; Saved register size: 9
        ; Auto size: 11
        MOV     A,#-0xb
        LCALL   ?ALLOC_XSTACK8
        CFI CFA_XSP16 add(XSP16, 20)
        MOV     A,R2
        MOV     R6,A
        MOV     A,R3
        MOV     R7,A
        MOV     ?V0 + 0,R1
//  781   uint8 msg[Z_EXTADDR_LEN + 3];
//  782 
//  783   /* This device's 64-bit address */
//  784   ZMacGetReq( ZMacExtAddr, msg );
        ; Setup parameters for call to function ZMacGetReq
        MOV     DPL,?XSP + 0
        MOV     DPH,?XSP + 1
        MOV     R2,DPL
        MOV     R3,DPH
        MOV     R1,#-0x1e
        LCALL   ??ZMacGetReq?relay
//  785 
//  786   msg[Z_EXTADDR_LEN + 0] = LO_UINT16(PanId);
        MOV     A,#0x8
        LCALL   ?XSTACK_DISP0_8
        MOV     A,R6
        MOVX    @DPTR,A
//  787   msg[Z_EXTADDR_LEN + 1] = HI_UINT16(PanId);
        MOV     A,#0x9
        LCALL   ?XSTACK_DISP0_8
        MOV     A,R7
        MOVX    @DPTR,A
//  788   msg[Z_EXTADDR_LEN + 2] = (uint8)Status;
        MOV     A,#0xa
        LCALL   ?XSTACK_DISP0_8
        MOV     A,?V0 + 0
        LCALL   ?Subroutine15 & 0xFFFF
//  789 
//  790   MT_BuildAndSendZToolResponse(((uint8)MT_RPC_CMD_AREQ | (uint8)MT_RPC_SYS_NWK), MT_NLME_JOIN_CONF, Z_EXTADDR_LEN + 3, msg );
??CrossCallReturnLabel_13:
        MOV     R3,#0xb
        MOV     R2,#-0x7d
        MOV     R1,#0x43
        LJMP    ?Subroutine5 & 0xFFFF
        CFI EndBlock cfiBlock123
//  791 }

        RSEG BANKED_CODE:CODE:NOROOT(0)
?Subroutine15:
        CFI Block cfiCond124 Using cfiCommon0
        CFI NoFunction
        CFI Conditional ??CrossCallReturnLabel_12
        CFI R6 load(1, XDATA, add(CFA_XSP16, literal(-9)))
        CFI VB load(1, XDATA, add(CFA_XSP16, literal(-8)))
        CFI V0 load(1, XDATA, add(CFA_XSP16, literal(-7)))
        CFI R7 load(1, XDATA, add(CFA_XSP16, literal(-6)))
        CFI ?RET_LOW load(1, XDATA, add(CFA_XSP16, literal(-5)))
        CFI ?RET_HIGH load(1, XDATA, add(CFA_XSP16, literal(-4)))
        CFI ?BRET_EXT load(1, XDATA, add(CFA_XSP16, literal(-3)))
        CFI DPL0 load(1, XDATA, add(CFA_XSP16, literal(-2)))
        CFI DPH0 load(1, XDATA, add(CFA_XSP16, literal(-1)))
        CFI CFA_SP SP+0
        CFI CFA_XSP16 add(XSP16, 11)
        CFI Block cfiCond125 Using cfiCommon0
        CFI (cfiCond125) NoFunction
        CFI (cfiCond125) Conditional ??CrossCallReturnLabel_13
        CFI (cfiCond125) R6 load(1, XDATA, add(CFA_XSP16, literal(-9)))
        CFI (cfiCond125) VB load(1, XDATA, add(CFA_XSP16, literal(-8)))
        CFI (cfiCond125) V0 load(1, XDATA, add(CFA_XSP16, literal(-7)))
        CFI (cfiCond125) R7 load(1, XDATA, add(CFA_XSP16, literal(-6)))
        CFI (cfiCond125) ?RET_LOW load(1, XDATA, add(CFA_XSP16, literal(-5)))
        CFI (cfiCond125) ?RET_HIGH load(1, XDATA, add(CFA_XSP16, literal(-4)))
        CFI (cfiCond125) ?BRET_EXT load(1, XDATA, add(CFA_XSP16, literal(-3)))
        CFI (cfiCond125) DPL0 load(1, XDATA, add(CFA_XSP16, literal(-2)))
        CFI (cfiCond125) DPH0 load(1, XDATA, add(CFA_XSP16, literal(-1)))
        CFI (cfiCond125) CFA_SP SP+0
        CFI (cfiCond125) CFA_XSP16 add(XSP16, 20)
        CFI Block cfiCond126 Using cfiCommon0
        CFI (cfiCond126) NoFunction
        CFI (cfiCond126) Conditional ??CrossCallReturnLabel_14
        CFI (cfiCond126) DPL0 Frame(CFA_SP, 4)
        CFI (cfiCond126) DPH0 Frame(CFA_SP, 5)
        CFI (cfiCond126) CFA_SP SP+-5
        CFI (cfiCond126) CFA_XSP16 add(XSP16, 9)
        CFI Block cfiPicker127 Using cfiCommon1
        CFI (cfiPicker127) NoFunction
        CFI (cfiPicker127) Picker
        MOVX    @DPTR,A
        ; Setup parameters for call to function MT_BuildAndSendZToolResponse
        ; Setup parameters for call to function MT_BuildAndSendZToolResponse
        ; Setup parameters for call to function MT_BuildAndSendZToolResponse
        MOV     DPL,?XSP + 0
        MOV     DPH,?XSP + 1
        MOV     R4,DPL
        MOV     R5,DPH
        RET
        CFI EndBlock cfiCond124
        CFI EndBlock cfiCond125
        CFI EndBlock cfiCond126
        CFI EndBlock cfiPicker127
//  792 /***************************************************************************************************
//  793  * @fn          nwk_MTCallbackSubNetworkDiscoveryConfirm
//  794  *
//  795  * @brief       Process the callback subscription for NLME-NWK_DISC.confirm
//  796  *
//  797  * @param       ResultCount			- number of networks discovered
//  798  * @param				NetworkList			- pointer to list of network descriptors
//  799  *
//  800  * @return      void
//  801  ***************************************************************************************************/

        RSEG BANKED_CODE:CODE:NOROOT(0)
//  802 void nwk_MTCallbackSubNetworkDiscoveryConfirm( uint8 ResultCount, networkDesc_t *NetworkList )
nwk_MTCallbackSubNetworkDiscoveryConfirm:
        CFI Block cfiBlock128 Using cfiCommon0
        CFI Function nwk_MTCallbackSubNetworkDiscoveryConfirm
        CODE
//  803 {
        FUNCALL nwk_MTCallbackSubNetworkDiscoveryConfirm, osal_mem_alloc
        LOCFRAME ISTACK, 0, STACK
        LOCFRAME PSTACK, 0, STACK
        LOCFRAME XSTACK, 14, STACK
        LOCFRAME IOVERLAY, 0, STATIC
        LOCFRAME DOVERLAY, 0, STATIC
        ARGFRAME ISTACK, 0, STACK
        ARGFRAME PSTACK, 0, STACK
        ARGFRAME XSTACK, 14, STACK
        ARGFRAME IOVERLAY, 0, STATIC
        ARGFRAME DOVERLAY, 0, STATIC
        FUNCALL nwk_MTCallbackSubNetworkDiscoveryConfirm, MT_BuildAndSendZToolResponse
        LOCFRAME ISTACK, 0, STACK
        LOCFRAME PSTACK, 0, STACK
        LOCFRAME XSTACK, 14, STACK
        LOCFRAME IOVERLAY, 0, STATIC
        LOCFRAME DOVERLAY, 0, STATIC
        ARGFRAME ISTACK, 0, STACK
        ARGFRAME PSTACK, 0, STACK
        ARGFRAME XSTACK, 14, STACK
        ARGFRAME IOVERLAY, 0, STATIC
        ARGFRAME DOVERLAY, 0, STATIC
        FUNCALL nwk_MTCallbackSubNetworkDiscoveryConfirm, osal_mem_free
        LOCFRAME ISTACK, 0, STACK
        LOCFRAME PSTACK, 0, STACK
        LOCFRAME XSTACK, 14, STACK
        LOCFRAME IOVERLAY, 0, STATIC
        LOCFRAME DOVERLAY, 0, STATIC
        ARGFRAME ISTACK, 0, STACK
        ARGFRAME PSTACK, 0, STACK
        ARGFRAME XSTACK, 14, STACK
        ARGFRAME IOVERLAY, 0, STATIC
        ARGFRAME DOVERLAY, 0, STATIC
        MOV     A,#-0xe
        LCALL   ?BANKED_ENTER_XDATA
        CFI DPH0 load(1, XDATA, add(CFA_XSP16, literal(-1)))
        CFI DPL0 load(1, XDATA, add(CFA_XSP16, literal(-2)))
        CFI ?BRET_EXT load(1, XDATA, add(CFA_XSP16, literal(-3)))
        CFI ?RET_HIGH load(1, XDATA, add(CFA_XSP16, literal(-4)))
        CFI ?RET_LOW load(1, XDATA, add(CFA_XSP16, literal(-5)))
        CFI R7 load(1, XDATA, add(CFA_XSP16, literal(-6)))
        CFI V5 load(1, XDATA, add(CFA_XSP16, literal(-7)))
        CFI V4 load(1, XDATA, add(CFA_XSP16, literal(-8)))
        CFI V3 load(1, XDATA, add(CFA_XSP16, literal(-9)))
        CFI V2 load(1, XDATA, add(CFA_XSP16, literal(-10)))
        CFI V1 load(1, XDATA, add(CFA_XSP16, literal(-11)))
        CFI V0 load(1, XDATA, add(CFA_XSP16, literal(-12)))
        CFI VB load(1, XDATA, add(CFA_XSP16, literal(-13)))
        CFI R6 load(1, XDATA, add(CFA_XSP16, literal(-14)))
        CFI CFA_SP SP+0
        CFI CFA_XSP16 add(XSP16, 14)
        ; Saved register size: 14
        ; Auto size: 0
        MOV     ?V0 + 0,R1
        MOV     ?V0 + 2,R2
        MOV     ?V0 + 3,R3
//  804 	uint8 len;
//  805 	uint8 *msgPtr;
//  806 	uint8 *msg;
//  807 	uint8 i;
//  808 
//  809   // The message cannot be bigger then SPI_TX_BUFF_MAX.  Reduce resultCount if necessary
//  810   if (ResultCount * sizeof(networkDesc_t) > MT_UART_TX_BUFF_MAX - (1 + SPI_0DATA_MSG_LEN))
        MOV     A,R1
        MOV     B,#0x18
        MUL     AB
        MOV     R0,A
        MOV     R2,B
        CLR     A
        ADD     A,R2
        MOV     R1,A
        MOV     A,R0
        SUBB    A,#0x7b
        MOV     A,R1
        SUBB    A,#0x0
        JC      ??nwk_MTCallbackSubNetworkDiscoveryConfirm_0
//  811   {
//  812     ResultCount = (MT_UART_TX_BUFF_MAX - (1 + SPI_0DATA_MSG_LEN)) / sizeof(networkDesc_t);
        MOV     ?V0 + 0,#0x5
//  813   }
//  814 
//  815 	len = 1 + ResultCount * sizeof(networkDesc_t);
??nwk_MTCallbackSubNetworkDiscoveryConfirm_0:
        MOV     B,#0x18
        MOV     A,?V0 + 0
        MUL     AB
        INC     A
        MOV     ?V0 + 1,A
//  816   msgPtr = osal_mem_alloc( len );
        ; Setup parameters for call to function osal_mem_alloc
        MOV     R2,A
        LCALL   ?Subroutine19 & 0xFFFF
//  817 	if ( msgPtr )
??CrossCallReturnLabel_20:
        JZ      ??CrossCallReturnLabel_24
//  818 	{
//  819 	  /* Fill up the data bytes */
//  820     msg = msgPtr;
        MOV     A,R6
        MOV     R0,A
        MOV     A,R7
        MOV     R1,A
//  821 
//  822 		*msg++ = ResultCount;
        MOV     DPL,R0
        MOV     DPH,R1
        MOV     A,?V0 + 0
        MOVX    @DPTR,A
        INC     DPTR
        MOV     R0,DPL
        MOV     R1,DPH
//  823 
//  824 		for ( i = 0; i < ResultCount; i++ )
        MOV     R4,#0x0
        SJMP    ??nwk_MTCallbackSubNetworkDiscoveryConfirm_1
//  825 		{
//  826 		  *msg++ = LO_UINT16( NetworkList->panId );
??nwk_MTCallbackSubNetworkDiscoveryConfirm_2:
        MOV     DPL,?V0 + 2
        MOV     DPH,?V0 + 3
        MOVX    A,@DPTR
        MOV     DPL,R0
        MOV     DPH,R1
        MOVX    @DPTR,A
        INC     DPTR
        MOV     R0,DPL
        MOV     R1,DPH
//  827 		  *msg++ = HI_UINT16( NetworkList->panId );
        MOV     DPL,?V0 + 2
        MOV     DPH,?V0 + 3
        LCALL   ?Subroutine12 & 0xFFFF
//  828 		  *msg++ = NetworkList->logicalChannel;
??CrossCallReturnLabel_10:
        MOV     DPL,?V0 + 2
        MOV     DPH,?V0 + 3
        INC     DPTR
        INC     DPTR
        LCALL   ?Subroutine9 & 0xFFFF
//  829 		  *msg++ = NetworkList->beaconOrder;
??CrossCallReturnLabel_4:
        LCALL   ?Subroutine9 & 0xFFFF
//  830 		  *msg++ = NetworkList->superFrameOrder;
??CrossCallReturnLabel_5:
        INC     DPTR
        LCALL   ?Subroutine8 & 0xFFFF
//  831 		  *msg++ = NetworkList->routerCapacity;
??CrossCallReturnLabel_2:
        LCALL   ?Subroutine8 & 0xFFFF
//  832 		  *msg++ = NetworkList->deviceCapacity;
??CrossCallReturnLabel_3:
        INC     DPTR
        LCALL   ?Subroutine7 & 0xFFFF
//  833 		  *msg++ = NetworkList->version;
??CrossCallReturnLabel_0:
        LCALL   ?Subroutine7 & 0xFFFF
//  834 		  *msg++ = NetworkList->stackProfile;
??CrossCallReturnLabel_1:
        LCALL   ?Subroutine12 & 0xFFFF
//  835 		  //*msg++ = NetworkList->securityLevel;
//  836 		
//  837 			NetworkList = (networkDesc_t*)NetworkList->nextDesc;
??CrossCallReturnLabel_11:
        MOV     A,?V0 + 2
        ADD     A,#0x16
        MOV     DPL,A
        MOV     A,?V0 + 3
        LCALL   ??Subroutine42_0 & 0xFFFF
//  838 		}
??CrossCallReturnLabel_57:
        MOVX    A,@DPTR
        MOV     ?V0 + 2,A
        INC     DPTR
        MOVX    A,@DPTR
        MOV     ?V0 + 3,A
        INC     R4
??nwk_MTCallbackSubNetworkDiscoveryConfirm_1:
        MOV     A,R4
        CLR     C
        SUBB    A,?V0 + 0
        JC      ??nwk_MTCallbackSubNetworkDiscoveryConfirm_2
//  839 
//  840     MT_BuildAndSendZToolResponse (((uint8)MT_RPC_CMD_AREQ | (uint8)MT_RPC_SYS_NWK), MT_NLME_NETWORK_DISCOVERY_CONF, len, msgPtr);
        ; Setup parameters for call to function MT_BuildAndSendZToolResponse
        MOV     A,R6
        MOV     R4,A
        MOV     A,R7
        MOV     R5,A
        MOV     R3,?V0 + 1
        MOV     R2,#-0x77
        LCALL   ?Subroutine21 & 0xFFFF
        CFI EndBlock cfiBlock128
//  841 
//  842     osal_mem_free( msgPtr );
//  843 	}
//  844 }
??CrossCallReturnLabel_24:
        REQUIRE ?Subroutine4
        ; // Fall through to label ?Subroutine4

        RSEG BANKED_CODE:CODE:NOROOT(0)
?Subroutine4:
        CFI Block cfiBlock129 Using cfiCommon0
        CFI NoFunction
        CFI CFA_SP SP+0
        CFI CFA_XSP16 add(XSP16, 14)
        CFI VB load(1, XDATA, add(CFA_XSP16, literal(-13)))
        CFI DPL0 load(1, XDATA, add(CFA_XSP16, literal(-2)))
        CFI DPH0 load(1, XDATA, add(CFA_XSP16, literal(-1)))
        CFI R6 load(1, XDATA, add(CFA_XSP16, literal(-14)))
        CFI R7 load(1, XDATA, add(CFA_XSP16, literal(-6)))
        CFI V0 load(1, XDATA, add(CFA_XSP16, literal(-12)))
        CFI V1 load(1, XDATA, add(CFA_XSP16, literal(-11)))
        CFI V2 load(1, XDATA, add(CFA_XSP16, literal(-10)))
        CFI V3 load(1, XDATA, add(CFA_XSP16, literal(-9)))
        CFI V4 load(1, XDATA, add(CFA_XSP16, literal(-8)))
        CFI V5 load(1, XDATA, add(CFA_XSP16, literal(-7)))
        CFI ?BRET_EXT load(1, XDATA, add(CFA_XSP16, literal(-3)))
        CFI ?RET_HIGH load(1, XDATA, add(CFA_XSP16, literal(-4)))
        CFI ?RET_LOW load(1, XDATA, add(CFA_XSP16, literal(-5)))
        MOV     R7,#0x6
        LJMP    ?BANKED_LEAVE_XDATA
        CFI EndBlock cfiBlock129

        RSEG BANKED_CODE:CODE:NOROOT(0)
?Subroutine12:
        CFI Block cfiCond130 Using cfiCommon0
        CFI NoFunction
        CFI Conditional ??CrossCallReturnLabel_10
        CFI R6 load(1, XDATA, add(CFA_XSP16, literal(-14)))
        CFI VB load(1, XDATA, add(CFA_XSP16, literal(-13)))
        CFI V0 load(1, XDATA, add(CFA_XSP16, literal(-12)))
        CFI V1 load(1, XDATA, add(CFA_XSP16, literal(-11)))
        CFI V2 load(1, XDATA, add(CFA_XSP16, literal(-10)))
        CFI V3 load(1, XDATA, add(CFA_XSP16, literal(-9)))
        CFI V4 load(1, XDATA, add(CFA_XSP16, literal(-8)))
        CFI V5 load(1, XDATA, add(CFA_XSP16, literal(-7)))
        CFI R7 load(1, XDATA, add(CFA_XSP16, literal(-6)))
        CFI ?RET_LOW load(1, XDATA, add(CFA_XSP16, literal(-5)))
        CFI ?RET_HIGH load(1, XDATA, add(CFA_XSP16, literal(-4)))
        CFI ?BRET_EXT load(1, XDATA, add(CFA_XSP16, literal(-3)))
        CFI DPL0 load(1, XDATA, add(CFA_XSP16, literal(-2)))
        CFI DPH0 load(1, XDATA, add(CFA_XSP16, literal(-1)))
        CFI CFA_SP SP+0
        CFI CFA_XSP16 add(XSP16, 14)
        CFI Block cfiCond131 Using cfiCommon0
        CFI (cfiCond131) NoFunction
        CFI (cfiCond131) Conditional ??CrossCallReturnLabel_11
        CFI (cfiCond131) R6 load(1, XDATA, add(CFA_XSP16, literal(-14)))
        CFI (cfiCond131) VB load(1, XDATA, add(CFA_XSP16, literal(-13)))
        CFI (cfiCond131) V0 load(1, XDATA, add(CFA_XSP16, literal(-12)))
        CFI (cfiCond131) V1 load(1, XDATA, add(CFA_XSP16, literal(-11)))
        CFI (cfiCond131) V2 load(1, XDATA, add(CFA_XSP16, literal(-10)))
        CFI (cfiCond131) V3 load(1, XDATA, add(CFA_XSP16, literal(-9)))
        CFI (cfiCond131) V4 load(1, XDATA, add(CFA_XSP16, literal(-8)))
        CFI (cfiCond131) V5 load(1, XDATA, add(CFA_XSP16, literal(-7)))
        CFI (cfiCond131) R7 load(1, XDATA, add(CFA_XSP16, literal(-6)))
        CFI (cfiCond131) ?RET_LOW load(1, XDATA, add(CFA_XSP16, literal(-5)))
        CFI (cfiCond131) ?RET_HIGH load(1, XDATA, add(CFA_XSP16, literal(-4)))
        CFI (cfiCond131) ?BRET_EXT load(1, XDATA, add(CFA_XSP16, literal(-3)))
        CFI (cfiCond131) DPL0 load(1, XDATA, add(CFA_XSP16, literal(-2)))
        CFI (cfiCond131) DPH0 load(1, XDATA, add(CFA_XSP16, literal(-1)))
        CFI (cfiCond131) CFA_SP SP+0
        CFI (cfiCond131) CFA_XSP16 add(XSP16, 14)
        CFI Block cfiPicker132 Using cfiCommon1
        CFI (cfiPicker132) NoFunction
        CFI (cfiPicker132) Picker
        INC     DPTR
        LCALL   ?Subroutine25 & 0xFFFF
??CrossCallReturnLabel_31:
        RET
        CFI EndBlock cfiCond130
        CFI EndBlock cfiCond131
        CFI EndBlock cfiPicker132

        RSEG BANKED_CODE:CODE:NOROOT(0)
?Subroutine25:
        CFI Block cfiCond133 Using cfiCommon0
        CFI NoFunction
        CFI Conditional ??CrossCallReturnLabel_31, ??CrossCallReturnLabel_10
        CFI R6 load(1, XDATA, add(CFA_XSP16, literal(-14)))
        CFI VB load(1, XDATA, add(CFA_XSP16, literal(-13)))
        CFI V0 load(1, XDATA, add(CFA_XSP16, literal(-12)))
        CFI V1 load(1, XDATA, add(CFA_XSP16, literal(-11)))
        CFI V2 load(1, XDATA, add(CFA_XSP16, literal(-10)))
        CFI V3 load(1, XDATA, add(CFA_XSP16, literal(-9)))
        CFI V4 load(1, XDATA, add(CFA_XSP16, literal(-8)))
        CFI V5 load(1, XDATA, add(CFA_XSP16, literal(-7)))
        CFI R7 load(1, XDATA, add(CFA_XSP16, literal(-6)))
        CFI ?RET_LOW load(1, XDATA, add(CFA_XSP16, literal(-5)))
        CFI ?RET_HIGH load(1, XDATA, add(CFA_XSP16, literal(-4)))
        CFI ?BRET_EXT load(1, XDATA, add(CFA_XSP16, literal(-3)))
        CFI DPL0 load(1, XDATA, add(CFA_XSP16, literal(-2)))
        CFI DPH0 load(1, XDATA, add(CFA_XSP16, literal(-1)))
        CFI CFA_SP SP+0
        CFI CFA_XSP16 add(XSP16, 14)
        CFI Block cfiCond134 Using cfiCommon0
        CFI (cfiCond134) NoFunction
        CFI (cfiCond134) Conditional ??CrossCallReturnLabel_31, ??CrossCallReturnLabel_11
        CFI (cfiCond134) R6 load(1, XDATA, add(CFA_XSP16, literal(-14)))
        CFI (cfiCond134) VB load(1, XDATA, add(CFA_XSP16, literal(-13)))
        CFI (cfiCond134) V0 load(1, XDATA, add(CFA_XSP16, literal(-12)))
        CFI (cfiCond134) V1 load(1, XDATA, add(CFA_XSP16, literal(-11)))
        CFI (cfiCond134) V2 load(1, XDATA, add(CFA_XSP16, literal(-10)))
        CFI (cfiCond134) V3 load(1, XDATA, add(CFA_XSP16, literal(-9)))
        CFI (cfiCond134) V4 load(1, XDATA, add(CFA_XSP16, literal(-8)))
        CFI (cfiCond134) V5 load(1, XDATA, add(CFA_XSP16, literal(-7)))
        CFI (cfiCond134) R7 load(1, XDATA, add(CFA_XSP16, literal(-6)))
        CFI (cfiCond134) ?RET_LOW load(1, XDATA, add(CFA_XSP16, literal(-5)))
        CFI (cfiCond134) ?RET_HIGH load(1, XDATA, add(CFA_XSP16, literal(-4)))
        CFI (cfiCond134) ?BRET_EXT load(1, XDATA, add(CFA_XSP16, literal(-3)))
        CFI (cfiCond134) DPL0 load(1, XDATA, add(CFA_XSP16, literal(-2)))
        CFI (cfiCond134) DPH0 load(1, XDATA, add(CFA_XSP16, literal(-1)))
        CFI (cfiCond134) CFA_SP SP+0
        CFI (cfiCond134) CFA_XSP16 add(XSP16, 14)
        CFI Block cfiCond135 Using cfiCommon0
        CFI (cfiCond135) NoFunction
        CFI (cfiCond135) Conditional ??CrossCallReturnLabel_30, ??CrossCallReturnLabel_4
        CFI (cfiCond135) R6 load(1, XDATA, add(CFA_XSP16, literal(-14)))
        CFI (cfiCond135) VB load(1, XDATA, add(CFA_XSP16, literal(-13)))
        CFI (cfiCond135) V0 load(1, XDATA, add(CFA_XSP16, literal(-12)))
        CFI (cfiCond135) V1 load(1, XDATA, add(CFA_XSP16, literal(-11)))
        CFI (cfiCond135) V2 load(1, XDATA, add(CFA_XSP16, literal(-10)))
        CFI (cfiCond135) V3 load(1, XDATA, add(CFA_XSP16, literal(-9)))
        CFI (cfiCond135) V4 load(1, XDATA, add(CFA_XSP16, literal(-8)))
        CFI (cfiCond135) V5 load(1, XDATA, add(CFA_XSP16, literal(-7)))
        CFI (cfiCond135) R7 load(1, XDATA, add(CFA_XSP16, literal(-6)))
        CFI (cfiCond135) ?RET_LOW load(1, XDATA, add(CFA_XSP16, literal(-5)))
        CFI (cfiCond135) ?RET_HIGH load(1, XDATA, add(CFA_XSP16, literal(-4)))
        CFI (cfiCond135) ?BRET_EXT load(1, XDATA, add(CFA_XSP16, literal(-3)))
        CFI (cfiCond135) DPL0 load(1, XDATA, add(CFA_XSP16, literal(-2)))
        CFI (cfiCond135) DPH0 load(1, XDATA, add(CFA_XSP16, literal(-1)))
        CFI (cfiCond135) CFA_SP SP+0
        CFI (cfiCond135) CFA_XSP16 add(XSP16, 14)
        CFI Block cfiCond136 Using cfiCommon0
        CFI (cfiCond136) NoFunction
        CFI (cfiCond136) Conditional ??CrossCallReturnLabel_30, ??CrossCallReturnLabel_5
        CFI (cfiCond136) R6 load(1, XDATA, add(CFA_XSP16, literal(-14)))
        CFI (cfiCond136) VB load(1, XDATA, add(CFA_XSP16, literal(-13)))
        CFI (cfiCond136) V0 load(1, XDATA, add(CFA_XSP16, literal(-12)))
        CFI (cfiCond136) V1 load(1, XDATA, add(CFA_XSP16, literal(-11)))
        CFI (cfiCond136) V2 load(1, XDATA, add(CFA_XSP16, literal(-10)))
        CFI (cfiCond136) V3 load(1, XDATA, add(CFA_XSP16, literal(-9)))
        CFI (cfiCond136) V4 load(1, XDATA, add(CFA_XSP16, literal(-8)))
        CFI (cfiCond136) V5 load(1, XDATA, add(CFA_XSP16, literal(-7)))
        CFI (cfiCond136) R7 load(1, XDATA, add(CFA_XSP16, literal(-6)))
        CFI (cfiCond136) ?RET_LOW load(1, XDATA, add(CFA_XSP16, literal(-5)))
        CFI (cfiCond136) ?RET_HIGH load(1, XDATA, add(CFA_XSP16, literal(-4)))
        CFI (cfiCond136) ?BRET_EXT load(1, XDATA, add(CFA_XSP16, literal(-3)))
        CFI (cfiCond136) DPL0 load(1, XDATA, add(CFA_XSP16, literal(-2)))
        CFI (cfiCond136) DPH0 load(1, XDATA, add(CFA_XSP16, literal(-1)))
        CFI (cfiCond136) CFA_SP SP+0
        CFI (cfiCond136) CFA_XSP16 add(XSP16, 14)
        CFI Block cfiPicker137 Using cfiCommon1
        CFI (cfiPicker137) NoFunction
        CFI (cfiPicker137) Picker
        LCALL   ?Subroutine28 & 0xFFFF
??CrossCallReturnLabel_35:
        RET
        CFI EndBlock cfiCond133
        CFI EndBlock cfiCond134
        CFI EndBlock cfiCond135
        CFI EndBlock cfiCond136
        CFI EndBlock cfiPicker137

        RSEG BANKED_CODE:CODE:NOROOT(0)
?Subroutine28:
        CFI Block cfiCond138 Using cfiCommon0
        CFI NoFunction
        CFI Conditional ??CrossCallReturnLabel_35, ??CrossCallReturnLabel_31, ??CrossCallReturnLabel_10
        CFI R6 load(1, XDATA, add(CFA_XSP16, literal(-14)))
        CFI VB load(1, XDATA, add(CFA_XSP16, literal(-13)))
        CFI V0 load(1, XDATA, add(CFA_XSP16, literal(-12)))
        CFI V1 load(1, XDATA, add(CFA_XSP16, literal(-11)))
        CFI V2 load(1, XDATA, add(CFA_XSP16, literal(-10)))
        CFI V3 load(1, XDATA, add(CFA_XSP16, literal(-9)))
        CFI V4 load(1, XDATA, add(CFA_XSP16, literal(-8)))
        CFI V5 load(1, XDATA, add(CFA_XSP16, literal(-7)))
        CFI R7 load(1, XDATA, add(CFA_XSP16, literal(-6)))
        CFI ?RET_LOW load(1, XDATA, add(CFA_XSP16, literal(-5)))
        CFI ?RET_HIGH load(1, XDATA, add(CFA_XSP16, literal(-4)))
        CFI ?BRET_EXT load(1, XDATA, add(CFA_XSP16, literal(-3)))
        CFI DPL0 load(1, XDATA, add(CFA_XSP16, literal(-2)))
        CFI DPH0 load(1, XDATA, add(CFA_XSP16, literal(-1)))
        CFI CFA_SP SP+0
        CFI CFA_XSP16 add(XSP16, 14)
        CFI Block cfiCond139 Using cfiCommon0
        CFI (cfiCond139) NoFunction
        CFI (cfiCond139) Conditional ??CrossCallReturnLabel_35, ??CrossCallReturnLabel_31, ??CrossCallReturnLabel_11
        CFI (cfiCond139) R6 load(1, XDATA, add(CFA_XSP16, literal(-14)))
        CFI (cfiCond139) VB load(1, XDATA, add(CFA_XSP16, literal(-13)))
        CFI (cfiCond139) V0 load(1, XDATA, add(CFA_XSP16, literal(-12)))
        CFI (cfiCond139) V1 load(1, XDATA, add(CFA_XSP16, literal(-11)))
        CFI (cfiCond139) V2 load(1, XDATA, add(CFA_XSP16, literal(-10)))
        CFI (cfiCond139) V3 load(1, XDATA, add(CFA_XSP16, literal(-9)))
        CFI (cfiCond139) V4 load(1, XDATA, add(CFA_XSP16, literal(-8)))
        CFI (cfiCond139) V5 load(1, XDATA, add(CFA_XSP16, literal(-7)))
        CFI (cfiCond139) R7 load(1, XDATA, add(CFA_XSP16, literal(-6)))
        CFI (cfiCond139) ?RET_LOW load(1, XDATA, add(CFA_XSP16, literal(-5)))
        CFI (cfiCond139) ?RET_HIGH load(1, XDATA, add(CFA_XSP16, literal(-4)))
        CFI (cfiCond139) ?BRET_EXT load(1, XDATA, add(CFA_XSP16, literal(-3)))
        CFI (cfiCond139) DPL0 load(1, XDATA, add(CFA_XSP16, literal(-2)))
        CFI (cfiCond139) DPH0 load(1, XDATA, add(CFA_XSP16, literal(-1)))
        CFI (cfiCond139) CFA_SP SP+0
        CFI (cfiCond139) CFA_XSP16 add(XSP16, 14)
        CFI Block cfiCond140 Using cfiCommon0
        CFI (cfiCond140) NoFunction
        CFI (cfiCond140) Conditional ??CrossCallReturnLabel_35, ??CrossCallReturnLabel_30, ??CrossCallReturnLabel_4
        CFI (cfiCond140) R6 load(1, XDATA, add(CFA_XSP16, literal(-14)))
        CFI (cfiCond140) VB load(1, XDATA, add(CFA_XSP16, literal(-13)))
        CFI (cfiCond140) V0 load(1, XDATA, add(CFA_XSP16, literal(-12)))
        CFI (cfiCond140) V1 load(1, XDATA, add(CFA_XSP16, literal(-11)))
        CFI (cfiCond140) V2 load(1, XDATA, add(CFA_XSP16, literal(-10)))
        CFI (cfiCond140) V3 load(1, XDATA, add(CFA_XSP16, literal(-9)))
        CFI (cfiCond140) V4 load(1, XDATA, add(CFA_XSP16, literal(-8)))
        CFI (cfiCond140) V5 load(1, XDATA, add(CFA_XSP16, literal(-7)))
        CFI (cfiCond140) R7 load(1, XDATA, add(CFA_XSP16, literal(-6)))
        CFI (cfiCond140) ?RET_LOW load(1, XDATA, add(CFA_XSP16, literal(-5)))
        CFI (cfiCond140) ?RET_HIGH load(1, XDATA, add(CFA_XSP16, literal(-4)))
        CFI (cfiCond140) ?BRET_EXT load(1, XDATA, add(CFA_XSP16, literal(-3)))
        CFI (cfiCond140) DPL0 load(1, XDATA, add(CFA_XSP16, literal(-2)))
        CFI (cfiCond140) DPH0 load(1, XDATA, add(CFA_XSP16, literal(-1)))
        CFI (cfiCond140) CFA_SP SP+0
        CFI (cfiCond140) CFA_XSP16 add(XSP16, 14)
        CFI Block cfiCond141 Using cfiCommon0
        CFI (cfiCond141) NoFunction
        CFI (cfiCond141) Conditional ??CrossCallReturnLabel_35, ??CrossCallReturnLabel_30, ??CrossCallReturnLabel_5
        CFI (cfiCond141) R6 load(1, XDATA, add(CFA_XSP16, literal(-14)))
        CFI (cfiCond141) VB load(1, XDATA, add(CFA_XSP16, literal(-13)))
        CFI (cfiCond141) V0 load(1, XDATA, add(CFA_XSP16, literal(-12)))
        CFI (cfiCond141) V1 load(1, XDATA, add(CFA_XSP16, literal(-11)))
        CFI (cfiCond141) V2 load(1, XDATA, add(CFA_XSP16, literal(-10)))
        CFI (cfiCond141) V3 load(1, XDATA, add(CFA_XSP16, literal(-9)))
        CFI (cfiCond141) V4 load(1, XDATA, add(CFA_XSP16, literal(-8)))
        CFI (cfiCond141) V5 load(1, XDATA, add(CFA_XSP16, literal(-7)))
        CFI (cfiCond141) R7 load(1, XDATA, add(CFA_XSP16, literal(-6)))
        CFI (cfiCond141) ?RET_LOW load(1, XDATA, add(CFA_XSP16, literal(-5)))
        CFI (cfiCond141) ?RET_HIGH load(1, XDATA, add(CFA_XSP16, literal(-4)))
        CFI (cfiCond141) ?BRET_EXT load(1, XDATA, add(CFA_XSP16, literal(-3)))
        CFI (cfiCond141) DPL0 load(1, XDATA, add(CFA_XSP16, literal(-2)))
        CFI (cfiCond141) DPH0 load(1, XDATA, add(CFA_XSP16, literal(-1)))
        CFI (cfiCond141) CFA_SP SP+0
        CFI (cfiCond141) CFA_XSP16 add(XSP16, 14)
        CFI Block cfiCond142 Using cfiCommon0
        CFI (cfiCond142) NoFunction
        CFI (cfiCond142) Conditional ??CrossCallReturnLabel_34, ??CrossCallReturnLabel_28, ??CrossCallReturnLabel_2
        CFI (cfiCond142) R6 load(1, XDATA, add(CFA_XSP16, literal(-14)))
        CFI (cfiCond142) VB load(1, XDATA, add(CFA_XSP16, literal(-13)))
        CFI (cfiCond142) V0 load(1, XDATA, add(CFA_XSP16, literal(-12)))
        CFI (cfiCond142) V1 load(1, XDATA, add(CFA_XSP16, literal(-11)))
        CFI (cfiCond142) V2 load(1, XDATA, add(CFA_XSP16, literal(-10)))
        CFI (cfiCond142) V3 load(1, XDATA, add(CFA_XSP16, literal(-9)))
        CFI (cfiCond142) V4 load(1, XDATA, add(CFA_XSP16, literal(-8)))
        CFI (cfiCond142) V5 load(1, XDATA, add(CFA_XSP16, literal(-7)))
        CFI (cfiCond142) R7 load(1, XDATA, add(CFA_XSP16, literal(-6)))
        CFI (cfiCond142) ?RET_LOW load(1, XDATA, add(CFA_XSP16, literal(-5)))
        CFI (cfiCond142) ?RET_HIGH load(1, XDATA, add(CFA_XSP16, literal(-4)))
        CFI (cfiCond142) ?BRET_EXT load(1, XDATA, add(CFA_XSP16, literal(-3)))
        CFI (cfiCond142) DPL0 load(1, XDATA, add(CFA_XSP16, literal(-2)))
        CFI (cfiCond142) DPH0 load(1, XDATA, add(CFA_XSP16, literal(-1)))
        CFI (cfiCond142) CFA_SP SP+0
        CFI (cfiCond142) CFA_XSP16 add(XSP16, 14)
        CFI Block cfiCond143 Using cfiCommon0
        CFI (cfiCond143) NoFunction
        CFI (cfiCond143) Conditional ??CrossCallReturnLabel_34, ??CrossCallReturnLabel_28, ??CrossCallReturnLabel_3
        CFI (cfiCond143) R6 load(1, XDATA, add(CFA_XSP16, literal(-14)))
        CFI (cfiCond143) VB load(1, XDATA, add(CFA_XSP16, literal(-13)))
        CFI (cfiCond143) V0 load(1, XDATA, add(CFA_XSP16, literal(-12)))
        CFI (cfiCond143) V1 load(1, XDATA, add(CFA_XSP16, literal(-11)))
        CFI (cfiCond143) V2 load(1, XDATA, add(CFA_XSP16, literal(-10)))
        CFI (cfiCond143) V3 load(1, XDATA, add(CFA_XSP16, literal(-9)))
        CFI (cfiCond143) V4 load(1, XDATA, add(CFA_XSP16, literal(-8)))
        CFI (cfiCond143) V5 load(1, XDATA, add(CFA_XSP16, literal(-7)))
        CFI (cfiCond143) R7 load(1, XDATA, add(CFA_XSP16, literal(-6)))
        CFI (cfiCond143) ?RET_LOW load(1, XDATA, add(CFA_XSP16, literal(-5)))
        CFI (cfiCond143) ?RET_HIGH load(1, XDATA, add(CFA_XSP16, literal(-4)))
