///////////////////////////////////////////////////////////////////////////////
//                                                                            /
// IAR C/C++ Compiler V8.10.3.40338/W32 for 8051        21/Jul/2014  12:20:04 /
// Copyright 2004-2011 IAR Systems AB.                                        /
//                                                                            /
//    Core               =  plain                                             /
//    Code model         =  banked                                            /
//    Data model         =  large                                             /
//    Calling convention =  xdata reentrant                                   /
//    Constant location  =  data_rom                                          /
//    Dptr setup         =  1,16                                              /
//    Source file        =  D:\WorkReserve\project\AES_BOOT\CC2530EncBoot\Pro /
//                          jects\zstack\Utilities\OAD\Source\MT_UART.c       /
//    Command line       =  -f D:\WorkReserve\project\AES_BOOT\CC2530EncBoot\ /
//                          Projects\zstack\Utilities\OAD\CC2530DB\..\..\..\T /
//                          ools\CC2530DB\f8wEndev.cfg (-DCPU32MHZ            /
//                          -DROOT=__near_func -DBLINK_LEDS) -f               /
//                          D:\WorkReserve\project\AES_BOOT\CC2530EncBoot\Pro /
//                          jects\zstack\Utilities\OAD\CC2530DB\..\..\..\Tool /
//                          s\CC2530DB\f8wConfig.cfg (-DSECURE=0              /
//                          -DZG_SECURE_DYNAMIC=0 -DREFLECTOR                 /
//                          -DDEFAULT_CHANLIST=0x00000800                     /
//                          -DZDAPP_CONFIG_PAN_ID=0xFFF0                      /
//                          -DNWK_START_DELAY=100 -DEXTENDED_JOINING_RANDOM_M /
//                          ASK=0x007F -DBEACON_REQUEST_DELAY=100             /
//                          -DBEACON_REQ_DELAY_MASK=0x00FF                    /
//                          -DROUTE_EXPIRY_TIME=30 -DAPSC_ACK_WAIT_DURATION_P /
//                          OLLED=3000 -DNWK_INDIRECT_MSG_TIMEOUT=7           /
//                          -DMAX_RREQ_ENTRIES=8 -DAPSC_MAX_FRAME_RETRIES=3   /
//                          -DNWK_MAX_DATA_RETRIES=2                          /
//                          -DMAX_POLL_FAILURE_RETRIES=2 -DMAX_BCAST=9        /
//                          -DAPS_MAX_GROUPS=16 -DMAX_RTG_ENTRIES=40          /
//                          -DNWK_MAX_BINDING_ENTRIES=4                       /
//                          -DMAX_BINDING_CLUSTER_IDS=4                       /
//                          "-DDEFAULT_KEY={0x01, 0x03, 0x05, 0x07, 0x09,     /
//                          0x0B, 0x0D, 0x0F, 0x00, 0x02, 0x04, 0x06, 0x08,   /
//                          0x0A, 0x0C, 0x0D}" -DMAC_MAX_FRAME_SIZE=116       /
//                          "-DCONST=const __code" -DGENERIC=__generic        /
//                          -DRFD_RCVC_ALWAYS_ON=FALSE -DPOLL_RATE=1000       /
//                          -DQUEUED_POLL_RATE=100 -DRESPONSE_POLL_RATE=100)  /
//                          -DREJOIN_POLL_RATE=440 D:\WorkReserve\project\AES /
//                          _BOOT\CC2530EncBoot\Projects\zstack\Utilities\OAD /
//                          \Source\MT_UART.c -D NWK_AUTO_POLL -D ZTOOL_P1    /
//                          -D MT_TASK -D MT_APP_FUNC -D MT_NWK_FUNC -D       /
//                          MT_NWK_CB_FUNC -D MT_SYS_FUNC -D MT_ZDO_FUNC -D   /
//                          MT_ZDO_CB_FUNC -D MT_UTIL_FUNC -D LCD_SUPPORTED   /
//                          -D RFD_RCVC_ALWAYS_ON -D ZPORT -D                 /
//                          HOLD_AUTO_START -lC D:\WorkReserve\project\AES_BO /
//                          OT\CC2530EncBoot\Projects\zstack\Utilities\OAD\CC /
//                          2530DB\DongleEB\List\ -lA                         /
//                          D:\WorkReserve\project\AES_BOOT\CC2530EncBoot\Pro /
//                          jects\zstack\Utilities\OAD\CC2530DB\DongleEB\List /
//                          \ -o D:\WorkReserve\project\AES_BOOT\CC2530EncBoo /
//                          t\Projects\zstack\Utilities\OAD\CC2530DB\DongleEB /
//                          \Obj\ -e --debug --core=plain --dptr=16,1         /
//                          --data_model=large --code_model=banked            /
//                          --calling_convention=xdata_reentrant              /
//                          --place_constants=data_rom --nr_virtual_regs 16   /
//                          -I D:\WorkReserve\project\AES_BOOT\CC2530EncBoot\ /
//                          Projects\zstack\Utilities\OAD\CC2530DB\ -I        /
//                          D:\WorkReserve\project\AES_BOOT\CC2530EncBoot\Pro /
//                          jects\zstack\Utilities\OAD\CC2530DB\..\SOURCE\    /
//                          -I D:\WorkReserve\project\AES_BOOT\CC2530EncBoot\ /
//                          Projects\zstack\Utilities\OAD\CC2530DB\..\..\..\Z /
//                          MAIN\TI2530DB\ -I D:\WorkReserve\project\AES_BOOT /
//                          \CC2530EncBoot\Projects\zstack\Utilities\OAD\CC25 /
//                          30DB\..\..\..\..\..\COMPONENTS\MT\ -I             /
//                          D:\WorkReserve\project\AES_BOOT\CC2530EncBoot\Pro /
//                          jects\zstack\Utilities\OAD\CC2530DB\..\..\..\..\. /
//                          .\COMPONENTS\HAL\INCLUDE\ -I                      /
//                          D:\WorkReserve\project\AES_BOOT\CC2530EncBoot\Pro /
//                          jects\zstack\Utilities\OAD\CC2530DB\..\..\..\..\. /
//                          .\COMPONENTS\HAL\TARGET\CC2530EB\ -I              /
//                          D:\WorkReserve\project\AES_BOOT\CC2530EncBoot\Pro /
//                          jects\zstack\Utilities\OAD\CC2530DB\..\..\..\..\. /
//                          .\COMPONENTS\OSAL\INCLUDE\ -I                     /
//                          D:\WorkReserve\project\AES_BOOT\CC2530EncBoot\Pro /
//                          jects\zstack\Utilities\OAD\CC2530DB\..\..\..\..\. /
//                          .\COMPONENTS\STACK\AF\ -I                         /
//                          D:\WorkReserve\project\AES_BOOT\CC2530EncBoot\Pro /
//                          jects\zstack\Utilities\OAD\CC2530DB\..\..\..\..\. /
//                          .\COMPONENTS\STACK\NWK\ -I                        /
//                          D:\WorkReserve\project\AES_BOOT\CC2530EncBoot\Pro /
//                          jects\zstack\Utilities\OAD\CC2530DB\..\..\..\..\. /
//                          .\COMPONENTS\STACK\SEC\ -I                        /
//                          D:\WorkReserve\project\AES_BOOT\CC2530EncBoot\Pro /
//                          jects\zstack\Utilities\OAD\CC2530DB\..\..\..\..\. /
//                          .\COMPONENTS\STACK\SAPI\ -I                       /
//                          D:\WorkReserve\project\AES_BOOT\CC2530EncBoot\Pro /
//                          jects\zstack\Utilities\OAD\CC2530DB\..\..\..\..\. /
//                          .\COMPONENTS\STACK\SYS\ -I                        /
//                          D:\WorkReserve\project\AES_BOOT\CC2530EncBoot\Pro /
//                          jects\zstack\Utilities\OAD\CC2530DB\..\..\..\..\. /
//                          .\COMPONENTS\STACK\ZDO\ -I                        /
//                          D:\WorkReserve\project\AES_BOOT\CC2530EncBoot\Pro /
//                          jects\zstack\Utilities\OAD\CC2530DB\..\..\..\..\. /
//                          .\COMPONENTS\ZMAC\F8W\ -I                         /
//                          D:\WorkReserve\project\AES_BOOT\CC2530EncBoot\Pro /
//                          jects\zstack\Utilities\OAD\CC2530DB\..\..\..\..\. /
//                          .\COMPONENTS\ZMAC\ -I D:\WorkReserve\project\AES_ /
//                          BOOT\CC2530EncBoot\Projects\zstack\Utilities\OAD\ /
//                          CC2530DB\..\..\..\..\..\COMPONENTS\SERVICES\SADDR /
//                          \ -I D:\WorkReserve\project\AES_BOOT\CC2530EncBoo /
//                          t\Projects\zstack\Utilities\OAD\CC2530DB\..\..\.. /
//                          \..\..\COMPONENTS\SERVICES\SDATA\ -I              /
//                          D:\WorkReserve\project\AES_BOOT\CC2530EncBoot\Pro /
//                          jects\zstack\Utilities\OAD\CC2530DB\..\..\..\..\. /
//                          .\COMPONENTS\MAC\INCLUDE\ -I                      /
//                          D:\WorkReserve\project\AES_BOOT\CC2530EncBoot\Pro /
//                          jects\zstack\Utilities\OAD\CC2530DB\..\..\..\..\. /
//                          .\COMPONENTS\MAC\HIGH_LEVEL\ -I                   /
//                          D:\WorkReserve\project\AES_BOOT\CC2530EncBoot\Pro /
//                          jects\zstack\Utilities\OAD\CC2530DB\..\..\..\..\. /
//                          .\COMPONENTS\MAC\LOW_LEVEL\srf04\ -I              /
//                          D:\WorkReserve\project\AES_BOOT\CC2530EncBoot\Pro /
//                          jects\zstack\Utilities\OAD\CC2530DB\..\..\..\..\. /
//                          .\COMPONENTS\MAC\LOW_LEVEL\srf04\SINGLE_CHIP\     /
//                          -Ohz --require_prototypes                         /
//    List file          =  D:\WorkReserve\project\AES_BOOT\CC2530EncBoot\Pro /
//                          jects\zstack\Utilities\OAD\CC2530DB\DongleEB\List /
//                          \MT_UART.s51                                      /
//                                                                            /
//                                                                            /
///////////////////////////////////////////////////////////////////////////////

        NAME MT_UART

        RTMODEL "__SystemLibrary", "CLib"
        RTMODEL "__calling_convention", "xdata_reentrant"
        RTMODEL "__code_model", "banked"
        RTMODEL "__core", "plain"
        RTMODEL "__data_model", "large"
        RTMODEL "__dptr_size", "16"
        RTMODEL "__extended_stack", "disabled"
        RTMODEL "__location_for_constants", "data"
        RTMODEL "__number_of_dptrs", "1"
        RTMODEL "__rt_version", "1"

        RSEG DOVERLAY:DATA:NOROOT(0)
        RSEG IOVERLAY:IDATA:NOROOT(0)
        RSEG ISTACK:IDATA:NOROOT(0)
        RSEG PSTACK:XDATA:NOROOT(0)
        RSEG XSTACK:XDATA:NOROOT(0)

        EXTERN ?ALLOC_XSTACK8
        EXTERN ?BANKED_ENTER_XDATA
        EXTERN ?BANKED_LEAVE_XDATA
        EXTERN ?BDISPATCH
        EXTERN ?BRET
        EXTERN ?DEALLOC_XSTACK8
        EXTERN ?XSP
        EXTERN ?XSTACK_DISP0_8
        EXTERN __INIT_XDATA_Z

        PUBLIC ??MT_UartCalcFCS?relay
        FUNCTION ??MT_UartCalcFCS?relay,0203H
        PUBLIC ??MT_UartInit?relay
        FUNCTION ??MT_UartInit?relay,0203H
        PUBLIC ??MT_UartProcessZToolByte?relay
        FUNCTION ??MT_UartProcessZToolByte?relay,0203H
        PUBLIC ??MT_UartRegisterTaskID?relay
        FUNCTION ??MT_UartRegisterTaskID?relay,0203H
        PUBLIC App_TaskID
        PUBLIC CMD_Token
        PUBLIC FSC_Token
        PUBLIC LEN_Token
        PUBLIC MT_UartCalcFCS
        FUNCTION MT_UartCalcFCS,0203H
        ARGFRAME XSTACK, 9, STACK
        ARGFRAME IOVERLAY, 0, STATIC
        ARGFRAME DOVERLAY, 0, STATIC
        LOCFRAME ISTACK, 2, STACK
        PUBLIC MT_UartInit
        FUNCTION MT_UartInit,021203H
        ARGFRAME XSTACK, 0, STACK
        LOCFRAME ISTACK, 2, STACK
        LOCFRAME XSTACK, 29, STACK
        PUBLIC MT_UartProcessZToolByte
        FUNCTION MT_UartProcessZToolByte,021203H
        ARGFRAME XSTACK, 0, STACK
        LOCFRAME ISTACK, 1, STACK
        LOCFRAME XSTACK, 9, STACK
        PUBLIC MT_UartRegisterTaskID
        FUNCTION MT_UartRegisterTaskID,0203H
        ARGFRAME XSTACK, 0, STACK
        LOCFRAME ISTACK, 2, STACK
        PUBLIC pMsg
        PUBLIC state
        PUBLIC tempDataLen
        
        CFI Names cfiNames0
        CFI StackFrame CFA_SP SP IDATA
        CFI StackFrame CFA_PSP16 PSP16 XDATA
        CFI StackFrame CFA_XSP16 XSP16 XDATA
        CFI StaticOverlayFrame CFA_IOVERLAY IOVERLAY
        CFI StaticOverlayFrame CFA_DOVERLAY DOVERLAY
        CFI Resource `PSW.CY`:1, `B.BR0`:1, `B.BR1`:1, `B.BR2`:1, `B.BR3`:1
        CFI Resource `B.BR4`:1, `B.BR5`:1, `B.BR6`:1, `B.BR7`:1, `VB.BR8`:1
        CFI Resource `VB.BR9`:1, `VB.BR10`:1, `VB.BR11`:1, `VB.BR12`:1
        CFI Resource `VB.BR13`:1, `VB.BR14`:1, `VB.BR15`:1, VB:8, B:8, A:8
        CFI Resource PSW:8, DPL0:8, DPH0:8, R0:8, R1:8, R2:8, R3:8, R4:8, R5:8
        CFI Resource R6:8, R7:8, V0:8, V1:8, V2:8, V3:8, V4:8, V5:8, V6:8, V7:8
        CFI Resource V8:8, V9:8, V10:8, V11:8, V12:8, V13:8, V14:8, V15:8, SP:8
        CFI Resource PSPH:8, PSPL:8, PSP16:16, XSPH:8, XSPL:8, XSP16:16
        CFI VirtualResource ?RET:24
        CFI Resource ?BRET_EXT:8
        CFI VirtualResource ?RET_HIGH:8, ?RET_LOW:8
        CFI ResourceParts PSP16 PSPH, PSPL
        CFI ResourceParts XSP16 XSPH, XSPL
        CFI ResourceParts ?RET ?BRET_EXT, ?RET_HIGH, ?RET_LOW
        CFI EndNames cfiNames0
        
        CFI Common cfiCommon0 Using cfiNames0
        CFI CodeAlign 1
        CFI DataAlign -1
        CFI ReturnAddress ?RET CODE
        CFI CFA_DOVERLAY Used
        CFI CFA_IOVERLAY Used
        CFI CFA_SP SP+-3
        CFI CFA_PSP16 PSP16+0
        CFI CFA_XSP16 XSP16+0
        CFI `PSW.CY` SameValue
        CFI `B.BR0` SameValue
        CFI `B.BR1` SameValue
        CFI `B.BR2` SameValue
        CFI `B.BR3` SameValue
        CFI `B.BR4` SameValue
        CFI `B.BR5` SameValue
        CFI `B.BR6` SameValue
        CFI `B.BR7` SameValue
        CFI `VB.BR8` SameValue
        CFI `VB.BR9` SameValue
        CFI `VB.BR10` SameValue
        CFI `VB.BR11` SameValue
        CFI `VB.BR12` SameValue
        CFI `VB.BR13` SameValue
        CFI `VB.BR14` SameValue
        CFI `VB.BR15` SameValue
        CFI VB SameValue
        CFI B Undefined
        CFI A Undefined
        CFI PSW SameValue
        CFI DPL0 SameValue
        CFI DPH0 SameValue
        CFI R0 Undefined
        CFI R1 Undefined
        CFI R2 Undefined
        CFI R3 Undefined
        CFI R4 Undefined
        CFI R5 Undefined
        CFI R6 SameValue
        CFI R7 SameValue
        CFI V0 SameValue
        CFI V1 SameValue
        CFI V2 SameValue
        CFI V3 SameValue
        CFI V4 SameValue
        CFI V5 SameValue
        CFI V6 SameValue
        CFI V7 SameValue
        CFI V8 SameValue
        CFI V9 SameValue
        CFI V10 SameValue
        CFI V11 SameValue
        CFI V12 SameValue
        CFI V13 SameValue
        CFI V14 SameValue
        CFI V15 SameValue
        CFI PSPH Undefined
        CFI PSPL Undefined
        CFI XSPH Undefined
        CFI XSPL Undefined
        CFI ?RET Concat
        CFI ?BRET_EXT Frame(CFA_SP, 3)
        CFI ?RET_HIGH Frame(CFA_SP, 2)
        CFI ?RET_LOW Frame(CFA_SP, 1)
        CFI EndCommon cfiCommon0
        
        
        CFI Common cfiCommon1 Using cfiNames0
        CFI CodeAlign 1
        CFI DataAlign -1
        CFI ReturnAddress ?RET CODE
        CFI CFA_DOVERLAY Used
        CFI CFA_IOVERLAY Used
        CFI CFA_SP SP+-2
        CFI CFA_PSP16 PSP16+0
        CFI CFA_XSP16 XSP16+0
        CFI `PSW.CY` SameValue
        CFI `B.BR0` SameValue
        CFI `B.BR1` SameValue
        CFI `B.BR2` SameValue
        CFI `B.BR3` SameValue
        CFI `B.BR4` SameValue
        CFI `B.BR5` SameValue
        CFI `B.BR6` SameValue
        CFI `B.BR7` SameValue
        CFI `VB.BR8` SameValue
        CFI `VB.BR9` SameValue
        CFI `VB.BR10` SameValue
        CFI `VB.BR11` SameValue
        CFI `VB.BR12` SameValue
        CFI `VB.BR13` SameValue
        CFI `VB.BR14` SameValue
        CFI `VB.BR15` SameValue
        CFI VB SameValue
        CFI B SameValue
        CFI A SameValue
        CFI PSW SameValue
        CFI DPL0 SameValue
        CFI DPH0 SameValue
        CFI R0 SameValue
        CFI R1 SameValue
        CFI R2 SameValue
        CFI R3 SameValue
        CFI R4 SameValue
        CFI R5 SameValue
        CFI R6 SameValue
        CFI R7 SameValue
        CFI V0 SameValue
        CFI V1 SameValue
        CFI V2 SameValue
        CFI V3 SameValue
        CFI V4 SameValue
        CFI V5 SameValue
        CFI V6 SameValue
        CFI V7 SameValue
        CFI V8 SameValue
        CFI V9 SameValue
        CFI V10 SameValue
        CFI V11 SameValue
        CFI V12 SameValue
        CFI V13 SameValue
        CFI V14 SameValue
        CFI V15 SameValue
        CFI PSPH Undefined
        CFI PSPL Undefined
        CFI XSPH Undefined
        CFI XSPL Undefined
        CFI ?RET Concat
        CFI ?BRET_EXT SameValue
        CFI ?RET_HIGH Frame(CFA_SP, 2)
        CFI ?RET_LOW Frame(CFA_SP, 1)
        CFI EndCommon cfiCommon1
        
HalUARTOpen         SYMBOL "HalUARTOpen"
osal_msg_allocate   SYMBOL "osal_msg_allocate"
osal_msg_send       SYMBOL "osal_msg_send"
osal_msg_deallocate SYMBOL "osal_msg_deallocate"
??HalUARTOpen?relay SYMBOL "?relay", HalUARTOpen
`?<Name MT_X_UartProcessZToo 5>` SYMBOL "MT_X_UartProcessZToolData"
??MT_X_UartProcessZToolData?relay SYMBOL "?relay", `?<Name MT_X_UartProcessZToo 5>`
??osal_msg_allocate?relay SYMBOL "?relay", osal_msg_allocate
??osal_msg_deallocate?relay SYMBOL "?relay", osal_msg_deallocate
??osal_msg_send?relay SYMBOL "?relay", osal_msg_send
MT_UartCalcFCS      SYMBOL "MT_UartCalcFCS"
??MT_UartCalcFCS?relay SYMBOL "?relay", MT_UartCalcFCS
MT_UartInit         SYMBOL "MT_UartInit"
??MT_UartInit?relay SYMBOL "?relay", MT_UartInit
MT_UartProcessZToolByte SYMBOL "MT_UartProcessZToolByte"
??MT_UartProcessZToolByte?relay SYMBOL "?relay", MT_UartProcessZToolByte
MT_UartRegisterTaskID SYMBOL "MT_UartRegisterTaskID"
??MT_UartRegisterTaskID?relay SYMBOL "?relay", MT_UartRegisterTaskID

        EXTERN HalUARTOpen
        FUNCTION HalUARTOpen,0202H
        ARGFRAME ISTACK, 2, STACK
        ARGFRAME PSTACK, 0, STACK
        ARGFRAME XSTACK, 29, STACK
        ARGFRAME IOVERLAY, 0, STATIC
        ARGFRAME DOVERLAY, 0, STATIC
        EXTERN osal_msg_allocate
        FUNCTION osal_msg_allocate,0202H
        ARGFRAME ISTACK, 0, STACK
        ARGFRAME PSTACK, 0, STACK
        ARGFRAME XSTACK, 9, STACK
        ARGFRAME IOVERLAY, 0, STATIC
        ARGFRAME DOVERLAY, 0, STATIC
        EXTERN osal_msg_send
        FUNCTION osal_msg_send,0202H
        ARGFRAME ISTACK, 0, STACK
        ARGFRAME PSTACK, 0, STACK
        ARGFRAME XSTACK, 9, STACK
        ARGFRAME IOVERLAY, 0, STATIC
        ARGFRAME DOVERLAY, 0, STATIC
        EXTERN osal_msg_deallocate
        FUNCTION osal_msg_deallocate,0202H
        ARGFRAME ISTACK, 0, STACK
        ARGFRAME PSTACK, 0, STACK
        ARGFRAME XSTACK, 9, STACK
        ARGFRAME IOVERLAY, 0, STATIC
        ARGFRAME DOVERLAY, 0, STATIC
        EXTERN ??HalUARTOpen?relay
        FUNCTION ??HalUARTOpen?relay,00H
        EXTERN ??MT_X_UartProcessZToolData?relay
        FUNCTION ??MT_X_UartProcessZToolData?relay,00H
        EXTERN ??osal_msg_allocate?relay
        FUNCTION ??osal_msg_allocate?relay,00H
        EXTERN ??osal_msg_deallocate?relay
        FUNCTION ??osal_msg_deallocate?relay,00H
        EXTERN ??osal_msg_send?relay
        FUNCTION ??osal_msg_send?relay,00H

// D:\WorkReserve\project\AES_BOOT\CC2530EncBoot\Projects\zstack\Utilities\OAD\Source\MT_UART.c
//    1 /***************************************************************************************************
//    2   Filename:       MT_UART.c
//    3   Revised:        $Date: 2009-08-21 13:10:13 -0700 (Fri, 21 Aug 2009) $
//    4   Revision:       $Revision: 20630 $
//    5 
//    6   Description:  This module handles anything dealing with the serial port.
//    7 
//    8 
//    9   Copyright 2007-2009 Texas Instruments Incorporated. All rights reserved.
//   10 
//   11   IMPORTANT: Your use of this Software is limited to those specific rights
//   12   granted under the terms of a software license agreement between the user
//   13   who downloaded the software, his/her employer (which must be your employer)
//   14   and Texas Instruments Incorporated (the "License").  You may not use this
//   15   Software unless you agree to abide by the terms of the License. The License
//   16   limits your use, and you acknowledge, that the Software may not be modified,
//   17   copied or distributed unless embedded on a Texas Instruments microcontroller
//   18   or used solely and exclusively in conjunction with a Texas Instruments radio
//   19   frequency transceiver, which is integrated into your product.  Other than for
//   20   the foregoing purpose, you may not use, reproduce, copy, prepare derivative
//   21   works of, modify, distribute, perform, display or sell this Software and/or
//   22   its documentation for any purpose.
//   23 
//   24   YOU FURTHER ACKNOWLEDGE AND AGREE THAT THE SOFTWARE AND DOCUMENTATION ARE
//   25   PROVIDED “AS IS” WITHOUT WARRANTY OF ANY KIND, EITHER EXPRESS OR IMPLIED,
//   26   INCLUDING WITHOUT LIMITATION, ANY WARRANTY OF MERCHANTABILITY, TITLE,
//   27   NON-INFRINGEMENT AND FITNESS FOR A PARTICULAR PURPOSE. IN NO EVENT SHALL
//   28   TEXAS INSTRUMENTS OR ITS LICENSORS BE LIABLE OR OBLIGATED UNDER CONTRACT,
//   29   NEGLIGENCE, STRICT LIABILITY, CONTRIBUTION, BREACH OF WARRANTY, OR OTHER
//   30   LEGAL EQUITABLE THEORY ANY DIRECT OR INDIRECT DAMAGES OR EXPENSES
//   31   INCLUDING BUT NOT LIMITED TO ANY INCIDENTAL, SPECIAL, INDIRECT, PUNITIVE
//   32   OR CONSEQUENTIAL DAMAGES, LOST PROFITS OR LOST DATA, COST OF PROCUREMENT
//   33   OF SUBSTITUTE GOODS, TECHNOLOGY, SERVICES, OR ANY CLAIMS BY THIRD PARTIES
//   34   (INCLUDING BUT NOT LIMITED TO ANY DEFENSE THEREOF), OR OTHER SIMILAR COSTS.
//   35 
//   36   Should you have any questions regarding your right to use this Software,
//   37   contact Texas Instruments Incorporated at www.TI.com.
//   38 
//   39 ***************************************************************************************************/
//   40 
//   41 /***************************************************************************************************
//   42  * INCLUDES
//   43  ***************************************************************************************************/
//   44 #include "ZComDef.h"
//   45 #include "OSAL.h"
//   46 #include "hal_uart.h"
//   47 #include "MT.h"
//   48 #include "MT_UART.h"
//   49 #include "MT_X.h"
//   50 #include "OSAL_Memory.h"
//   51 
//   52 
//   53 /***************************************************************************************************
//   54  * MACROS
//   55  ***************************************************************************************************/
//   56 
//   57 /***************************************************************************************************
//   58  * CONSTANTS
//   59  ***************************************************************************************************/
//   60 /* State values for ZTool protocal */
//   61 #define SOP_STATE      0x00
//   62 #define CMD_STATE1     0x01
//   63 #define CMD_STATE2     0x02
//   64 #define LEN_STATE      0x03
//   65 #define DATA_STATE     0x04
//   66 #define FCS_STATE      0x05
//   67 
//   68 /***************************************************************************************************
//   69  *                                         GLOBAL VARIABLES
//   70  ***************************************************************************************************/
//   71 /* Used to indentify the application ID for osal task */

        RSEG XDATA_Z:XDATA:NOROOT(0)
        DATA8
//   72 byte App_TaskID;
App_TaskID:
        DS 1
        REQUIRE __INIT_XDATA_Z
//   73 
//   74 /* ZTool protocal parameters */

        RSEG XDATA_Z:XDATA:NOROOT(0)
        DATA8
//   75 uint8 state;
state:
        DS 1
        REQUIRE __INIT_XDATA_Z

        RSEG XDATA_Z:XDATA:NOROOT(0)
        DATA16
//   76 uint8  CMD_Token[2];
CMD_Token:
        DS 2
        REQUIRE __INIT_XDATA_Z

        RSEG XDATA_Z:XDATA:NOROOT(0)
        DATA8
//   77 uint8  LEN_Token;
LEN_Token:
        DS 1
        REQUIRE __INIT_XDATA_Z

        RSEG XDATA_Z:XDATA:NOROOT(0)
        DATA8
//   78 uint8  FSC_Token;
FSC_Token:
        DS 1
        REQUIRE __INIT_XDATA_Z

        RSEG XDATA_Z:XDATA:NOROOT(0)
        DATA16
//   79 mtOSALSerialData_t  *pMsg;
pMsg:
        DS 2
        REQUIRE __INIT_XDATA_Z

        RSEG XDATA_Z:XDATA:NOROOT(0)
        DATA8
//   80 uint8  tempDataLen;
tempDataLen:
        DS 1
        REQUIRE __INIT_XDATA_Z
//   81 
//   82 #if defined (ZAPP_P1) || defined (ZAPP_P2)
//   83 uint16  MT_UartMaxZAppBufLen;
//   84 bool    MT_UartZAppRxStatus;
//   85 #endif
//   86 
//   87 
//   88 /***************************************************************************************************
//   89  *                                          LOCAL FUNCTIONS
//   90  ***************************************************************************************************/
//   91 
//   92 /***************************************************************************************************
//   93  * @fn      MT_UartInit
//   94  *
//   95  * @brief   Initialize MT with UART support
//   96  *
//   97  * @param   None
//   98  *
//   99  * @return  None
//  100 ***************************************************************************************************/

        RSEG BANKED_CODE:CODE:NOROOT(0)
//  101 void MT_UartInit ()
MT_UartInit:
        CFI Block cfiBlock0 Using cfiCommon0
        CFI Function MT_UartInit
        CODE
//  102 {
        FUNCALL MT_UartInit, HalUARTOpen
        LOCFRAME ISTACK, 2, STACK
        LOCFRAME PSTACK, 0, STACK
        LOCFRAME XSTACK, 29, STACK
        LOCFRAME IOVERLAY, 0, STATIC
        LOCFRAME DOVERLAY, 0, STATIC
        ARGFRAME ISTACK, 2, STACK
        ARGFRAME PSTACK, 0, STACK
        ARGFRAME XSTACK, 29, STACK
        ARGFRAME IOVERLAY, 0, STATIC
        ARGFRAME DOVERLAY, 0, STATIC
        PUSH    DPL
        CFI DPL0 Frame(CFA_SP, 4)
        CFI CFA_SP SP+-4
        PUSH    DPH
        CFI DPH0 Frame(CFA_SP, 5)
        CFI CFA_SP SP+-5
        ; Saved register size: 2
        ; Auto size: 29
        MOV     A,#-0x1d
        LCALL   ?ALLOC_XSTACK8
        CFI CFA_XSP16 add(XSP16, 29)
//  103   halUARTCfg_t uartConfig;
//  104 
//  105   /* Initialize APP ID */
//  106   App_TaskID = 0;
        MOV     DPTR,#App_TaskID
        CLR     A
        MOVX    @DPTR,A
//  107 
//  108   /* UART Configuration */
//  109   uartConfig.configured           = TRUE;
        MOV     DPL,?XSP + 0
        MOV     DPH,?XSP + 1
        INC     A
        MOVX    @DPTR,A
//  110   uartConfig.baudRate             = MT_UART_DEFAULT_BAUDRATE;
        LCALL   ?XSTACK_DISP0_8
        MOV     A,#0x4
        MOVX    @DPTR,A
//  111   uartConfig.flowControl          = MT_UART_DEFAULT_OVERFLOW;
        MOV     A,#0x2
        LCALL   ?XSTACK_DISP0_8
        CLR     A
        MOVX    @DPTR,A
//  112   uartConfig.flowControlThreshold = MT_UART_DEFAULT_THRESHOLD;
        MOV     A,#0x3
        LCALL   ?XSTACK_DISP0_8
        MOV     A,#0x40
        MOVX    @DPTR,A
        INC     DPTR
        CLR     A
        MOVX    @DPTR,A
//  113   uartConfig.rx.maxBufSize        = MT_UART_DEFAULT_MAX_RX_BUFF;
        MOV     A,#0xa
        LCALL   ?XSTACK_DISP0_8
        MOV     A,#-0x80
        MOVX    @DPTR,A
        INC     DPTR
        CLR     A
        MOVX    @DPTR,A
//  114   // Need extra Tx for flurry of IEEE responses on large network.
//  115   uartConfig.tx.maxBufSize        = 254;
        MOV     A,#0x12
        LCALL   ?XSTACK_DISP0_8
        MOV     A,#-0x2
        MOVX    @DPTR,A
        INC     DPTR
        CLR     A
        MOVX    @DPTR,A
//  116   uartConfig.idleTimeout          = MT_UART_DEFAULT_IDLE_TIMEOUT;
        MOV     A,#0x5
        LCALL   ?XSTACK_DISP0_8
        MOV     A,#0x6
        MOVX    @DPTR,A
//  117   uartConfig.intEnable            = TRUE;
        MOV     A,#0x16
        LCALL   ?XSTACK_DISP0_8
        MOV     A,#0x1
        MOVX    @DPTR,A
//  118 #if defined (ZTOOL_P1) || defined (ZTOOL_P2)
//  119   uartConfig.callBackFunc         = MT_X_UartProcessZToolData;
        MOV     A,#0x1b
        LCALL   ?XSTACK_DISP0_8
        MOV     A,#??MT_X_UartProcessZToolData?relay & 0xff
        MOVX    @DPTR,A
        INC     DPTR
        MOV     A,#(??MT_X_UartProcessZToolData?relay >> 8) & 0xff
        MOVX    @DPTR,A
//  120 #elif defined (ZAPP_P1) || defined (ZAPP_P2)
//  121   uartConfig.callBackFunc         = MT_UartProcessZAppData;
//  122 #else
//  123   uartConfig.callBackFunc         = NULL;
//  124 #endif
//  125 
//  126   /* Start UART */
//  127 #if defined (MT_UART_DEFAULT_PORT)
//  128   HalUARTOpen (MT_UART_DEFAULT_PORT, &uartConfig);
        ; Setup parameters for call to function HalUARTOpen
        MOV     DPL,?XSP + 0
        MOV     DPH,?XSP + 1
        MOV     R2,DPL
        MOV     R3,DPH
        MOV     R1,#0x0
        LCALL   ??HalUARTOpen?relay
//  129 #else
//  130   /* Silence IAR compiler warning */
//  131   (void)uartConfig;
//  132 #endif
//  133 
//  134   /* Initialize for ZApp */
//  135 #if defined (ZAPP_P1) || defined (ZAPP_P2)
//  136   /* Default max bytes that ZAPP can take */
//  137   MT_UartMaxZAppBufLen  = 1;
//  138   MT_UartZAppRxStatus   = MT_UART_ZAPP_RX_READY;
//  139 #endif
//  140 
//  141 }
        MOV     A,#0x1d
        LCALL   ?DEALLOC_XSTACK8
        CFI EndBlock cfiBlock0
        REQUIRE ?Subroutine0
        ; // Fall through to label ?Subroutine0

        RSEG BANKED_CODE:CODE:NOROOT(0)
?Subroutine0:
        CFI Block cfiBlock1 Using cfiCommon0
        CFI NoFunction
        CFI CFA_SP SP+-5
        CFI DPL0 Frame(CFA_SP, 4)
        CFI DPH0 Frame(CFA_SP, 5)
        POP     DPH
        CFI CFA_SP SP+-4
        CFI DPH0 SameValue
        POP     DPL
        CFI CFA_SP SP+-3
        CFI DPL0 SameValue
        LJMP    ?BRET
        CFI EndBlock cfiBlock1
//  142 
//  143 /***************************************************************************************************
//  144  * @fn      MT_SerialRegisterTaskID
//  145  *
//  146  * @brief   This function registers the taskID of the application so it knows
//  147  *          where to send the messages whent they come in.
//  148  *
//  149  * @param   void
//  150  *
//  151  * @return  void
//  152  ***************************************************************************************************/

        RSEG BANKED_CODE:CODE:NOROOT(0)
//  153 void MT_UartRegisterTaskID( byte taskID )
MT_UartRegisterTaskID:
        CFI Block cfiBlock2 Using cfiCommon0
        CFI Function MT_UartRegisterTaskID
        CODE
//  154 {
        PUSH    DPL
        CFI DPL0 Frame(CFA_SP, 4)
        CFI CFA_SP SP+-4
        PUSH    DPH
        CFI DPH0 Frame(CFA_SP, 5)
        CFI CFA_SP SP+-5
        ; Saved register size: 2
        ; Auto size: 0
//  155   App_TaskID = taskID;
        MOV     A,R1
        MOV     DPTR,#App_TaskID
        MOVX    @DPTR,A
//  156 }
        SJMP    ?Subroutine0
        CFI EndBlock cfiBlock2
//  157 
//  158 /***************************************************************************************************
//  159  * @fn      SPIMgr_CalcFCS
//  160  *
//  161  * @brief   Calculate the FCS of a message buffer by XOR'ing each byte.
//  162  *          Remember to NOT include SOP and FCS fields, so start at the CMD field.
//  163  *
//  164  * @param   byte *msg_ptr - message pointer
//  165  * @param   byte len - length (in bytes) of message
//  166  *
//  167  * @return  result byte
//  168  ***************************************************************************************************/

        RSEG BANKED_CODE:CODE:NOROOT(0)
//  169 byte MT_UartCalcFCS( uint8 *msg_ptr, uint8 len )
MT_UartCalcFCS:
        CFI Block cfiBlock3 Using cfiCommon0
        CFI Function MT_UartCalcFCS
        CODE
//  170 {
        PUSH    DPL
        CFI DPL0 Frame(CFA_SP, 4)
        CFI CFA_SP SP+-4
        PUSH    DPH
        CFI DPH0 Frame(CFA_SP, 5)
        CFI CFA_SP SP+-5
        ; Saved register size: 2
        ; Auto size: 0
        MOV     A,R1
        MOV     R4,A
//  171   byte x;
//  172   byte xorResult;
//  173 
//  174   xorResult = 0;
        MOV     R1,#0x0
//  175 
//  176   for ( x = 0; x < len; x++, msg_ptr++ )
        MOV     R0,#0x0
        SJMP    ??MT_UartCalcFCS_0
//  177     xorResult = xorResult ^ *msg_ptr;
??MT_UartCalcFCS_1:
        MOV     DPL,R2
        MOV     DPH,R3
        MOVX    A,@DPTR
        XCH     A,R1
        XRL     A,R1
        MOV     R1,A
        INC     R0
        INC     DPTR
        MOV     R2,DPL
        MOV     R3,DPH
??MT_UartCalcFCS_0:
        MOV     A,R0
        CLR     C
        SUBB    A,R4
        JC      ??MT_UartCalcFCS_1
//  178 
//  179   return ( xorResult );
        SJMP    ?Subroutine0
        CFI EndBlock cfiBlock3
//  180 }
//  181 
//  182 /***************************************************************************************************
//  183  * @fn      MT_UartProcessZToolData
//  184  *
//  185  * @brief   | SOP | Data Length  |   CMD   |   Data   |  FCS  |
//  186  *          |  1  |     1        |    2    |  0-Len   |   1   |
//  187  *
//  188  *          Parses the data and determine either is SPI or just simply serial data
//  189  *          then send the data to correct place (MT or APP)
//  190  *
//  191  * @param   port     - UART port
//  192  *          event    - Event that causes the callback
//  193  *
//  194  *
//  195  * @return  None
//  196  ***************************************************************************************************/
//  197 void MT_UartProcessZToolByte ( uint8 ch );

        RSEG BANKED_CODE:CODE:NOROOT(0)
//  198 void MT_UartProcessZToolByte ( uint8 ch )
MT_UartProcessZToolByte:
        CFI Block cfiBlock4 Using cfiCommon0
        CFI Function MT_UartProcessZToolByte
        CODE
//  199 {
        FUNCALL MT_UartProcessZToolByte, osal_msg_allocate
        LOCFRAME ISTACK, 0, STACK
        LOCFRAME PSTACK, 0, STACK
        LOCFRAME XSTACK, 9, STACK
        LOCFRAME IOVERLAY, 0, STATIC
        LOCFRAME DOVERLAY, 0, STATIC
        ARGFRAME ISTACK, 0, STACK
        ARGFRAME PSTACK, 0, STACK
        ARGFRAME XSTACK, 9, STACK
        ARGFRAME IOVERLAY, 0, STATIC
        ARGFRAME DOVERLAY, 0, STATIC
        FUNCALL MT_UartProcessZToolByte, MT_UartCalcFCS
        LOCFRAME ISTACK, 0, STACK
        LOCFRAME PSTACK, 0, STACK
        LOCFRAME XSTACK, 9, STACK
        LOCFRAME IOVERLAY, 0, STATIC
        LOCFRAME DOVERLAY, 0, STATIC
        ARGFRAME ISTACK, 0, STACK
        ARGFRAME PSTACK, 0, STACK
        ARGFRAME XSTACK, 9, STACK
        ARGFRAME IOVERLAY, 0, STATIC
        ARGFRAME DOVERLAY, 0, STATIC
        FUNCALL MT_UartProcessZToolByte, osal_msg_send
        LOCFRAME ISTACK, 0, STACK
        LOCFRAME PSTACK, 0, STACK
        LOCFRAME XSTACK, 9, STACK
        LOCFRAME IOVERLAY, 0, STATIC
        LOCFRAME DOVERLAY, 0, STATIC
        ARGFRAME ISTACK, 0, STACK
        ARGFRAME PSTACK, 0, STACK
        ARGFRAME XSTACK, 9, STACK
        ARGFRAME IOVERLAY, 0, STATIC
        ARGFRAME DOVERLAY, 0, STATIC
        FUNCALL MT_UartProcessZToolByte, osal_msg_deallocate
        LOCFRAME ISTACK, 0, STACK
        LOCFRAME PSTACK, 0, STACK
        LOCFRAME XSTACK, 9, STACK
        LOCFRAME IOVERLAY, 0, STATIC
        LOCFRAME DOVERLAY, 0, STATIC
        ARGFRAME ISTACK, 0, STACK
        ARGFRAME PSTACK, 0, STACK
        ARGFRAME XSTACK, 9, STACK
        ARGFRAME IOVERLAY, 0, STATIC
        ARGFRAME DOVERLAY, 0, STATIC
        MOV     A,#-0x9
        LCALL   ?BANKED_ENTER_XDATA
        CFI DPH0 load(1, XDATA, add(CFA_XSP16, literal(-1)))
        CFI DPL0 load(1, XDATA, add(CFA_XSP16, literal(-2)))
        CFI ?BRET_EXT load(1, XDATA, add(CFA_XSP16, literal(-3)))
        CFI ?RET_HIGH load(1, XDATA, add(CFA_XSP16, literal(-4)))
        CFI ?RET_LOW load(1, XDATA, add(CFA_XSP16, literal(-5)))
        CFI R7 load(1, XDATA, add(CFA_XSP16, literal(-6)))
        CFI V0 load(1, XDATA, add(CFA_XSP16, literal(-7)))
        CFI VB load(1, XDATA, add(CFA_XSP16, literal(-8)))
        CFI R6 load(1, XDATA, add(CFA_XSP16, literal(-9)))
        CFI CFA_SP SP+0
        CFI CFA_XSP16 add(XSP16, 9)
        ; Saved register size: 9
        ; Auto size: 0
        MOV     A,R1
        MOV     R6,A
//  200     switch (state)
        MOV     DPTR,#pMsg
        MOVX    A,@DPTR
        ADD     A,#0x2
        MOV     R0,A
        INC     DPTR
        MOVX    A,@DPTR
        ADDC    A,#0x0
        MOV     R1,A
        MOV     A,R0
        MOV     R2,A
        MOV     A,R1
        MOV     R3,A
        MOV     DPTR,#state
        MOVX    A,@DPTR
        JZ      ??MT_UartProcessZToolByte_0
        DEC     A
        JNZ     $+5
        LJMP    ??MT_UartProcessZToolByte_1 & 0xFFFF
        DEC     A
        JNZ     $+5
        LJMP    ??MT_UartProcessZToolByte_2 & 0xFFFF
        DEC     A
        JZ      ??MT_UartProcessZToolByte_3
        DEC     A
        JNZ     $+5
        LJMP    ??MT_UartProcessZToolByte_4 & 0xFFFF
        DEC     A
        JNZ     $+5
        LJMP    ??MT_UartProcessZToolByte_5 & 0xFFFF
        SJMP    ??MT_UartProcessZToolByte_6
//  201     {
//  202       case SOP_STATE:
//  203         if (ch == MT_UART_SOF)
??MT_UartProcessZToolByte_0:
        MOV     A,#-0x2
        XRL     A,R6
        JNZ     ??MT_UartProcessZToolByte_6
//  204           state = LEN_STATE;
        MOV     A,#0x3
??MT_UartProcessZToolByte_7:
        MOVX    @DPTR,A
??MT_UartProcessZToolByte_6:
        MOV     R7,#0x1
        LJMP    ?BANKED_LEAVE_XDATA
//  205         break;
//  206 
//  207       case LEN_STATE:
//  208         LEN_Token = ch;
??MT_UartProcessZToolByte_3:
        MOV     A,R6
        MOV     DPTR,#LEN_Token
        MOVX    @DPTR,A
//  209 
//  210         tempDataLen = 0;
        MOV     DPTR,#tempDataLen
        CLR     A
        LCALL   ?Subroutine2 & 0xFFFF
//  211 
//  212         /* Allocate memory for the data */
//  213         pMsg = (mtOSALSerialData_t *)osal_msg_allocate( sizeof ( mtOSALSerialData_t ) +
//  214                                                         MT_RPC_FRAME_HDR_SZ + LEN_Token );
??CrossCallReturnLabel_2:
        ADD     A,#0x7
        MOV     R2,A
        CLR     A
        ADDC    A,#0x0
        MOV     R3,A
        LCALL   ??osal_msg_allocate?relay
        MOV     DPTR,#pMsg
        MOV     A,R2
        MOVX    @DPTR,A
        INC     DPTR
        MOV     A,R3
        MOVX    @DPTR,A
//  215 
//  216         if (pMsg)
        MOV     DPTR,#pMsg
        MOVX    A,@DPTR
        MOV     R0,A
        INC     DPTR
        MOVX    A,@DPTR
        MOV     R1,A
        MOV     A,R0
        ORL     A,R1
        JNZ     $+5
        LJMP    ??MT_UartProcessZToolByte_8 & 0xFFFF
//  217         {
//  218           /* Fill up what we can */
//  219           pMsg->hdr.event = CMD_SERIAL_MSG;
        MOVX    A,@DPTR
        MOV     DPH,A
        MOV     DPL,R0
        MOV     A,#0x1
        MOVX    @DPTR,A
//  220           pMsg->msg = (uint8*)(pMsg+1);
        MOV     DPTR,#pMsg
        MOVX    A,@DPTR
        ADD     A,#0x4
        MOV     R0,A
        INC     DPTR
        MOVX    A,@DPTR
        ADDC    A,#0x0
        MOV     R1,A
        MOV     DPTR,#pMsg
        MOVX    A,@DPTR
        MOV     R2,A
        INC     DPTR
        MOVX    A,@DPTR
        MOV     DPH,A
        MOV     DPL,R2
        INC     DPTR
        INC     DPTR
        MOV     A,R0
        MOVX    @DPTR,A
        INC     DPTR
        MOV     A,R1
        LCALL   ?Subroutine2 & 0xFFFF
//  221           pMsg->msg[MT_RPC_POS_LEN] = LEN_Token;
??CrossCallReturnLabel_3:
        PUSH    A
        CFI CFA_SP SP+-1
        MOV     DPTR,#pMsg
        LCALL   ?Subroutine1 & 0xFFFF
??CrossCallReturnLabel_0:
        LCALL   ?Subroutine3 & 0xFFFF
??CrossCallReturnLabel_6:
        POP     A
        CFI CFA_SP SP+0
        MOVX    @DPTR,A
//  222           state = CMD_STATE1;
        MOV     DPTR,#state
        MOV     A,#0x1
        SJMP    ??MT_UartProcessZToolByte_7
//  223         }
//  224         else
//  225         {
//  226           state = SOP_STATE;
//  227           return;
//  228         }
//  229         break;
//  230 
//  231       case CMD_STATE1:
//  232         pMsg->msg[MT_RPC_POS_CMD0] = ch;
??MT_UartProcessZToolByte_1:
        MOV     DPL,R2
        MOV     DPH,R3
        LCALL   ?Subroutine3 & 0xFFFF
??CrossCallReturnLabel_7:
        INC     DPTR
        MOV     A,R6
        MOVX    @DPTR,A
//  233         state = CMD_STATE2;
        MOV     DPTR,#state
        MOV     A,#0x2
        LJMP    ??MT_UartProcessZToolByte_7 & 0xFFFF
//  234         break;
//  235 
//  236       case CMD_STATE2:
//  237         pMsg->msg[MT_RPC_POS_CMD1] = ch;
??MT_UartProcessZToolByte_2:
        MOV     DPL,R2
        MOV     DPH,R3
        LCALL   ?Subroutine1 & 0xFFFF
??CrossCallReturnLabel_1:
        MOV     A,R6
        LCALL   ?Subroutine2 & 0xFFFF
//  238         /* If there is no data, skip to FCS state */
//  239         if (LEN_Token)
??CrossCallReturnLabel_4:
        JZ      ??MT_UartProcessZToolByte_9
//  240         {
//  241           state = DATA_STATE;
        MOV     DPTR,#state
        MOV     A,#0x4
        LJMP    ??MT_UartProcessZToolByte_7 & 0xFFFF
//  242         }
//  243         else
//  244         {
//  245           state = FCS_STATE;
//  246         }
//  247         break;
//  248 
//  249       case DATA_STATE:
//  250         /* Fill in the buffer the first byte of the data */
//  251         pMsg->msg[MT_RPC_FRAME_HDR_SZ + tempDataLen++] = ch;
??MT_UartProcessZToolByte_4:
        MOV     DPTR,#tempDataLen
        MOVX    A,@DPTR
        MOV     R0,A
        MOV     DPL,R2
        MOV     DPH,R3
        MOVX    A,@DPTR
        ADD     A,R0
        MOV     R2,A
        INC     DPTR
        MOVX    A,@DPTR
        ADDC    A,#0x0
        MOV     DPL,R2
        MOV     DPH,A
        INC     DPTR
        INC     DPTR
        INC     DPTR
        MOV     A,R6
        MOVX    @DPTR,A
        MOV     DPTR,#tempDataLen
        MOVX    A,@DPTR
        INC     A
        MOVX    @DPTR,A
//  252 
//  253         /* If number of bytes read is equal to data length, time to move on to FCS */
//  254         if ( tempDataLen == LEN_Token )
        MOV     R0,A
        MOV     DPTR,#LEN_Token
        MOVX    A,@DPTR
        XRL     A,R0
        JZ      $+5
        LJMP    ??MT_UartProcessZToolByte_6 & 0xFFFF
??MT_UartProcessZToolByte_9:
        MOV     DPTR,#state
        MOV     A,#0x5
        LJMP    ??MT_UartProcessZToolByte_7 & 0xFFFF
//  255             state = FCS_STATE;
//  256         break;
//  257 
//  258       case FCS_STATE:
//  259         FSC_Token = ch;
??MT_UartProcessZToolByte_5:
        MOV     A,R6
        MOV     DPTR,#FSC_Token
        LCALL   ?Subroutine2 & 0xFFFF
//  260 
//  261         /* Make sure it's correct */
//  262         if ((MT_UartCalcFCS ((uint8*)&pMsg->msg[0], MT_RPC_FRAME_HDR_SZ + LEN_Token) == FSC_Token))
??CrossCallReturnLabel_5:
        ADD     A,#0x3
        MOV     R1,A
        MOV     DPL,R2
        MOV     DPH,R3
        MOVX    A,@DPTR
        MOV     R2,A
        INC     DPTR
        MOVX    A,@DPTR
        MOV     R3,A
        LCALL   ??MT_UartCalcFCS?relay
        MOV     A,R1
        MOV     R0,A
        MOV     DPTR,#FSC_Token
        MOVX    A,@DPTR
        XRL     A,R0
        MOV     DPTR,#pMsg
        JNZ     ??MT_UartProcessZToolByte_10
//  263         {
//  264           osal_msg_send( App_TaskID, (byte *)pMsg );
        ; Setup parameters for call to function osal_msg_send
        MOVX    A,@DPTR
        MOV     R2,A
        INC     DPTR
        MOVX    A,@DPTR
        MOV     R3,A
        MOV     DPTR,#App_TaskID
        MOVX    A,@DPTR
        MOV     R1,A
        LCALL   ??osal_msg_send?relay
//  265         }
??MT_UartProcessZToolByte_8:
        MOV     DPTR,#state
        CLR     A
        LJMP    ??MT_UartProcessZToolByte_7 & 0xFFFF
//  266         else
//  267         {
//  268           /* deallocate the msg */
//  269           osal_msg_deallocate ( (uint8 *)pMsg );
??MT_UartProcessZToolByte_10:
        ; Setup parameters for call to function osal_msg_deallocate
        MOVX    A,@DPTR
        MOV     R2,A
        INC     DPTR
        MOVX    A,@DPTR
        MOV     R3,A
        LCALL   ??osal_msg_deallocate?relay
        SJMP    ??MT_UartProcessZToolByte_8
        CFI EndBlock cfiBlock4
//  270         }
//  271 
//  272         /* Reset the state, send or discard the buffers at this point */
//  273         state = SOP_STATE;
//  274         break;
//  275 
//  276       default:
//  277        break;
//  278     }
//  279 }

        RSEG BANKED_CODE:CODE:NOROOT(0)
?Subroutine3:
        CFI Block cfiCond5 Using cfiCommon0
        CFI NoFunction
        CFI Conditional ??CrossCallReturnLabel_6
        CFI R6 load(1, XDATA, add(CFA_XSP16, literal(-9)))
        CFI VB load(1, XDATA, add(CFA_XSP16, literal(-8)))
        CFI V0 load(1, XDATA, add(CFA_XSP16, literal(-7)))
        CFI R7 load(1, XDATA, add(CFA_XSP16, literal(-6)))
        CFI ?RET_LOW load(1, XDATA, add(CFA_XSP16, literal(-5)))
        CFI ?RET_HIGH load(1, XDATA, add(CFA_XSP16, literal(-4)))
        CFI ?BRET_EXT load(1, XDATA, add(CFA_XSP16, literal(-3)))
        CFI DPL0 load(1, XDATA, add(CFA_XSP16, literal(-2)))
        CFI DPH0 load(1, XDATA, add(CFA_XSP16, literal(-1)))
        CFI CFA_SP SP+-1
        CFI CFA_XSP16 add(XSP16, 9)
        CFI Block cfiCond6 Using cfiCommon0
        CFI (cfiCond6) NoFunction
        CFI (cfiCond6) Conditional ??CrossCallReturnLabel_7
        CFI (cfiCond6) R6 load(1, XDATA, add(CFA_XSP16, literal(-9)))
        CFI (cfiCond6) VB load(1, XDATA, add(CFA_XSP16, literal(-8)))
        CFI (cfiCond6) V0 load(1, XDATA, add(CFA_XSP16, literal(-7)))
        CFI (cfiCond6) R7 load(1, XDATA, add(CFA_XSP16, literal(-6)))
        CFI (cfiCond6) ?RET_LOW load(1, XDATA, add(CFA_XSP16, literal(-5)))
        CFI (cfiCond6) ?RET_HIGH load(1, XDATA, add(CFA_XSP16, literal(-4)))
        CFI (cfiCond6) ?BRET_EXT load(1, XDATA, add(CFA_XSP16, literal(-3)))
        CFI (cfiCond6) DPL0 load(1, XDATA, add(CFA_XSP16, literal(-2)))
        CFI (cfiCond6) DPH0 load(1, XDATA, add(CFA_XSP16, literal(-1)))
        CFI (cfiCond6) CFA_SP SP+0
        CFI (cfiCond6) CFA_XSP16 add(XSP16, 9)
        CFI Block cfiPicker7 Using cfiCommon1
        CFI (cfiPicker7) NoFunction
        CFI (cfiPicker7) Picker
        LCALL   ?Subroutine4 & 0xFFFF
??CrossCallReturnLabel_9:
        RET
        CFI EndBlock cfiCond5
        CFI EndBlock cfiCond6
        CFI EndBlock cfiPicker7

        RSEG BANKED_CODE:CODE:NOROOT(0)
?Subroutine4:
        CFI Block cfiCond8 Using cfiCommon0
        CFI NoFunction
        CFI Conditional ??CrossCallReturnLabel_9, ??CrossCallReturnLabel_6
        CFI R6 load(1, XDATA, add(CFA_XSP16, literal(-9)))
        CFI VB load(1, XDATA, add(CFA_XSP16, literal(-8)))
        CFI V0 load(1, XDATA, add(CFA_XSP16, literal(-7)))
        CFI R7 load(1, XDATA, add(CFA_XSP16, literal(-6)))
        CFI ?RET_LOW load(1, XDATA, add(CFA_XSP16, literal(-5)))
        CFI ?RET_HIGH load(1, XDATA, add(CFA_XSP16, literal(-4)))
        CFI ?BRET_EXT load(1, XDATA, add(CFA_XSP16, literal(-3)))
        CFI DPL0 load(1, XDATA, add(CFA_XSP16, literal(-2)))
        CFI DPH0 load(1, XDATA, add(CFA_XSP16, literal(-1)))
        CFI CFA_SP SP+-1
        CFI CFA_XSP16 add(XSP16, 9)
        CFI Block cfiCond9 Using cfiCommon0
        CFI (cfiCond9) NoFunction
        CFI (cfiCond9) Conditional ??CrossCallReturnLabel_9, ??CrossCallReturnLabel_7
        CFI (cfiCond9) R6 load(1, XDATA, add(CFA_XSP16, literal(-9)))
        CFI (cfiCond9) VB load(1, XDATA, add(CFA_XSP16, literal(-8)))
        CFI (cfiCond9) V0 load(1, XDATA, add(CFA_XSP16, literal(-7)))
        CFI (cfiCond9) R7 load(1, XDATA, add(CFA_XSP16, literal(-6)))
        CFI (cfiCond9) ?RET_LOW load(1, XDATA, add(CFA_XSP16, literal(-5)))
        CFI (cfiCond9) ?RET_HIGH load(1, XDATA, add(CFA_XSP16, literal(-4)))
        CFI (cfiCond9) ?BRET_EXT load(1, XDATA, add(CFA_XSP16, literal(-3)))
        CFI (cfiCond9) DPL0 load(1, XDATA, add(CFA_XSP16, literal(-2)))
        CFI (cfiCond9) DPH0 load(1, XDATA, add(CFA_XSP16, literal(-1)))
        CFI (cfiCond9) CFA_SP SP+0
        CFI (cfiCond9) CFA_XSP16 add(XSP16, 9)
        CFI Block cfiCond10 Using cfiCommon0
        CFI (cfiCond10) NoFunction
        CFI (cfiCond10) Conditional ??CrossCallReturnLabel_8, ??CrossCallReturnLabel_0
        CFI (cfiCond10) R6 load(1, XDATA, add(CFA_XSP16, literal(-9)))
        CFI (cfiCond10) VB load(1, XDATA, add(CFA_XSP16, literal(-8)))
        CFI (cfiCond10) V0 load(1, XDATA, add(CFA_XSP16, literal(-7)))
        CFI (cfiCond10) R7 load(1, XDATA, add(CFA_XSP16, literal(-6)))
        CFI (cfiCond10) ?RET_LOW load(1, XDATA, add(CFA_XSP16, literal(-5)))
        CFI (cfiCond10) ?RET_HIGH load(1, XDATA, add(CFA_XSP16, literal(-4)))
        CFI (cfiCond10) ?BRET_EXT load(1, XDATA, add(CFA_XSP16, literal(-3)))
        CFI (cfiCond10) DPL0 load(1, XDATA, add(CFA_XSP16, literal(-2)))
        CFI (cfiCond10) DPH0 load(1, XDATA, add(CFA_XSP16, literal(-1)))
        CFI (cfiCond10) CFA_SP SP+-1
        CFI (cfiCond10) CFA_XSP16 add(XSP16, 9)
        CFI Block cfiCond11 Using cfiCommon0
        CFI (cfiCond11) NoFunction
        CFI (cfiCond11) Conditional ??CrossCallReturnLabel_8, ??CrossCallReturnLabel_1
        CFI (cfiCond11) R6 load(1, XDATA, add(CFA_XSP16, literal(-9)))
        CFI (cfiCond11) VB load(1, XDATA, add(CFA_XSP16, literal(-8)))
        CFI (cfiCond11) V0 load(1, XDATA, add(CFA_XSP16, literal(-7)))
        CFI (cfiCond11) R7 load(1, XDATA, add(CFA_XSP16, literal(-6)))
        CFI (cfiCond11) ?RET_LOW load(1, XDATA, add(CFA_XSP16, literal(-5)))
        CFI (cfiCond11) ?RET_HIGH load(1, XDATA, add(CFA_XSP16, literal(-4)))
        CFI (cfiCond11) ?BRET_EXT load(1, XDATA, add(CFA_XSP16, literal(-3)))
        CFI (cfiCond11) DPL0 load(1, XDATA, add(CFA_XSP16, literal(-2)))
        CFI (cfiCond11) DPH0 load(1, XDATA, add(CFA_XSP16, literal(-1)))
        CFI (cfiCond11) CFA_SP SP+0
        CFI (cfiCond11) CFA_XSP16 add(XSP16, 9)
        CFI Block cfiPicker12 Using cfiCommon1
        CFI (cfiPicker12) NoFunction
        CFI (cfiPicker12) Picker
        MOVX    A,@DPTR
        MOV     R0,A
        INC     DPTR
        MOVX    A,@DPTR
        MOV     DPH,A
        MOV     DPL,R0
        RET
        CFI EndBlock cfiCond8
        CFI EndBlock cfiCond9
        CFI EndBlock cfiCond10
        CFI EndBlock cfiCond11
        CFI EndBlock cfiPicker12

        RSEG BANKED_CODE:CODE:NOROOT(0)
?Subroutine2:
        CFI Block cfiCond13 Using cfiCommon0
        CFI NoFunction
        CFI Conditional ??CrossCallReturnLabel_2
        CFI R6 load(1, XDATA, add(CFA_XSP16, literal(-9)))
        CFI VB load(1, XDATA, add(CFA_XSP16, literal(-8)))
        CFI V0 load(1, XDATA, add(CFA_XSP16, literal(-7)))
        CFI R7 load(1, XDATA, add(CFA_XSP16, literal(-6)))
        CFI ?RET_LOW load(1, XDATA, add(CFA_XSP16, literal(-5)))
        CFI ?RET_HIGH load(1, XDATA, add(CFA_XSP16, literal(-4)))
        CFI ?BRET_EXT load(1, XDATA, add(CFA_XSP16, literal(-3)))
        CFI DPL0 load(1, XDATA, add(CFA_XSP16, literal(-2)))
        CFI DPH0 load(1, XDATA, add(CFA_XSP16, literal(-1)))
        CFI CFA_SP SP+0
        CFI CFA_XSP16 add(XSP16, 9)
        CFI Block cfiCond14 Using cfiCommon0
        CFI (cfiCond14) NoFunction
        CFI (cfiCond14) Conditional ??CrossCallReturnLabel_3
        CFI (cfiCond14) R6 load(1, XDATA, add(CFA_XSP16, literal(-9)))
        CFI (cfiCond14) VB load(1, XDATA, add(CFA_XSP16, literal(-8)))
        CFI (cfiCond14) V0 load(1, XDATA, add(CFA_XSP16, literal(-7)))
        CFI (cfiCond14) R7 load(1, XDATA, add(CFA_XSP16, literal(-6)))
        CFI (cfiCond14) ?RET_LOW load(1, XDATA, add(CFA_XSP16, literal(-5)))
        CFI (cfiCond14) ?RET_HIGH load(1, XDATA, add(CFA_XSP16, literal(-4)))
        CFI (cfiCond14) ?BRET_EXT load(1, XDATA, add(CFA_XSP16, literal(-3)))
        CFI (cfiCond14) DPL0 load(1, XDATA, add(CFA_XSP16, literal(-2)))
        CFI (cfiCond14) DPH0 load(1, XDATA, add(CFA_XSP16, literal(-1)))
        CFI (cfiCond14) CFA_SP SP+0
        CFI (cfiCond14) CFA_XSP16 add(XSP16, 9)
        CFI Block cfiCond15 Using cfiCommon0
        CFI (cfiCond15) NoFunction
        CFI (cfiCond15) Conditional ??CrossCallReturnLabel_4
        CFI (cfiCond15) R6 load(1, XDATA, add(CFA_XSP16, literal(-9)))
        CFI (cfiCond15) VB load(1, XDATA, add(CFA_XSP16, literal(-8)))
        CFI (cfiCond15) V0 load(1, XDATA, add(CFA_XSP16, literal(-7)))
        CFI (cfiCond15) R7 load(1, XDATA, add(CFA_XSP16, literal(-6)))
        CFI (cfiCond15) ?RET_LOW load(1, XDATA, add(CFA_XSP16, literal(-5)))
        CFI (cfiCond15) ?RET_HIGH load(1, XDATA, add(CFA_XSP16, literal(-4)))
        CFI (cfiCond15) ?BRET_EXT load(1, XDATA, add(CFA_XSP16, literal(-3)))
        CFI (cfiCond15) DPL0 load(1, XDATA, add(CFA_XSP16, literal(-2)))
        CFI (cfiCond15) DPH0 load(1, XDATA, add(CFA_XSP16, literal(-1)))
        CFI (cfiCond15) CFA_SP SP+0
        CFI (cfiCond15) CFA_XSP16 add(XSP16, 9)
        CFI Block cfiCond16 Using cfiCommon0
        CFI (cfiCond16) NoFunction
        CFI (cfiCond16) Conditional ??CrossCallReturnLabel_5
        CFI (cfiCond16) R6 load(1, XDATA, add(CFA_XSP16, literal(-9)))
        CFI (cfiCond16) VB load(1, XDATA, add(CFA_XSP16, literal(-8)))
        CFI (cfiCond16) V0 load(1, XDATA, add(CFA_XSP16, literal(-7)))
        CFI (cfiCond16) R7 load(1, XDATA, add(CFA_XSP16, literal(-6)))
        CFI (cfiCond16) ?RET_LOW load(1, XDATA, add(CFA_XSP16, literal(-5)))
        CFI (cfiCond16) ?RET_HIGH load(1, XDATA, add(CFA_XSP16, literal(-4)))
        CFI (cfiCond16) ?BRET_EXT load(1, XDATA, add(CFA_XSP16, literal(-3)))
        CFI (cfiCond16) DPL0 load(1, XDATA, add(CFA_XSP16, literal(-2)))
        CFI (cfiCond16) DPH0 load(1, XDATA, add(CFA_XSP16, literal(-1)))
        CFI (cfiCond16) CFA_SP SP+0
        CFI (cfiCond16) CFA_XSP16 add(XSP16, 9)
        CFI Block cfiPicker17 Using cfiCommon1
        CFI (cfiPicker17) NoFunction
        CFI (cfiPicker17) Picker
        MOVX    @DPTR,A
        ; Setup parameters for call to function osal_msg_allocate
        ; Setup parameters for call to function MT_UartCalcFCS
        MOV     DPTR,#LEN_Token
        MOVX    A,@DPTR
        RET
        CFI EndBlock cfiCond13
        CFI EndBlock cfiCond14
        CFI EndBlock cfiCond15
        CFI EndBlock cfiCond16
        CFI EndBlock cfiPicker17

        RSEG BANKED_CODE:CODE:NOROOT(0)
?Subroutine1:
        CFI Block cfiCond18 Using cfiCommon0
        CFI NoFunction
        CFI Conditional ??CrossCallReturnLabel_0
        CFI R6 load(1, XDATA, add(CFA_XSP16, literal(-9)))
        CFI VB load(1, XDATA, add(CFA_XSP16, literal(-8)))
        CFI V0 load(1, XDATA, add(CFA_XSP16, literal(-7)))
        CFI R7 load(1, XDATA, add(CFA_XSP16, literal(-6)))
        CFI ?RET_LOW load(1, XDATA, add(CFA_XSP16, literal(-5)))
        CFI ?RET_HIGH load(1, XDATA, add(CFA_XSP16, literal(-4)))
        CFI ?BRET_EXT load(1, XDATA, add(CFA_XSP16, literal(-3)))
        CFI DPL0 load(1, XDATA, add(CFA_XSP16, literal(-2)))
        CFI DPH0 load(1, XDATA, add(CFA_XSP16, literal(-1)))
        CFI CFA_SP SP+-1
        CFI CFA_XSP16 add(XSP16, 9)
        CFI Block cfiCond19 Using cfiCommon0
        CFI (cfiCond19) NoFunction
        CFI (cfiCond19) Conditional ??CrossCallReturnLabel_1
        CFI (cfiCond19) R6 load(1, XDATA, add(CFA_XSP16, literal(-9)))
        CFI (cfiCond19) VB load(1, XDATA, add(CFA_XSP16, literal(-8)))
        CFI (cfiCond19) V0 load(1, XDATA, add(CFA_XSP16, literal(-7)))
        CFI (cfiCond19) R7 load(1, XDATA, add(CFA_XSP16, literal(-6)))
        CFI (cfiCond19) ?RET_LOW load(1, XDATA, add(CFA_XSP16, literal(-5)))
        CFI (cfiCond19) ?RET_HIGH load(1, XDATA, add(CFA_XSP16, literal(-4)))
        CFI (cfiCond19) ?BRET_EXT load(1, XDATA, add(CFA_XSP16, literal(-3)))
        CFI (cfiCond19) DPL0 load(1, XDATA, add(CFA_XSP16, literal(-2)))
        CFI (cfiCond19) DPH0 load(1, XDATA, add(CFA_XSP16, literal(-1)))
        CFI (cfiCond19) CFA_SP SP+0
        CFI (cfiCond19) CFA_XSP16 add(XSP16, 9)
        CFI Block cfiPicker20 Using cfiCommon1
        CFI (cfiPicker20) NoFunction
        CFI (cfiPicker20) Picker
        LCALL   ?Subroutine4 & 0xFFFF
??CrossCallReturnLabel_8:
        INC     DPTR
        INC     DPTR
        RET
        CFI EndBlock cfiCond18
        CFI EndBlock cfiCond19
        CFI EndBlock cfiPicker20

        RSEG BANK_RELAYS:CODE:REORDER:NOROOT(0)
??MT_UartInit?relay:
        LCALL   ?BDISPATCH
        DATA
        DC24    MT_UartInit

        RSEG BANK_RELAYS:CODE:REORDER:NOROOT(0)
??MT_UartRegisterTaskID?relay:
        LCALL   ?BDISPATCH
        DATA
        DC24    MT_UartRegisterTaskID

        RSEG BANK_RELAYS:CODE:REORDER:NOROOT(0)
??MT_UartCalcFCS?relay:
        LCALL   ?BDISPATCH
        DATA
        DC24    MT_UartCalcFCS

        RSEG BANK_RELAYS:CODE:REORDER:NOROOT(0)
??MT_UartProcessZToolByte?relay:
        LCALL   ?BDISPATCH
        DATA
        DC24    MT_UartProcessZToolByte

        END
//  280 
//  281 #if defined (ZAPP_P1) || defined (ZAPP_P2)
//  282 /***************************************************************************************************
//  283  * @fn      MT_UartProcessZAppData
//  284  *
//  285  * @brief   | SOP | CMD  |   Data Length   | FSC  |
//  286  *          |  1  |  2   |       1         |  1   |
//  287  *
//  288  *          Parses the data and determine either is SPI or just simply serial data
//  289  *          then send the data to correct place (MT or APP)
//  290  *
//  291  * @param   port    - UART port
//  292  *          event   - Event that causes the callback
//  293  *
//  294  *
//  295  * @return  None
//  296  ***************************************************************************************************/
//  297 void MT_UartProcessZAppData ( uint8 port, uint8 event )
//  298 {
//  299 
//  300   osal_event_hdr_t  *msg_ptr;
//  301   uint16 length = 0;
//  302   uint16 rxBufLen  = Hal_UART_RxBufLen(MT_UART_DEFAULT_PORT);
//  303 
//  304   /*
//  305      If maxZAppBufferLength is 0 or larger than current length
//  306      the entire length of the current buffer is returned.
//  307   */
//  308   if ((MT_UartMaxZAppBufLen != 0) && (MT_UartMaxZAppBufLen <= rxBufLen))
//  309   {
//  310     length = MT_UartMaxZAppBufLen;
//  311   }
//  312   else
//  313   {
//  314     length = rxBufLen;
//  315   }
//  316 
//  317   /* Verify events */
//  318   if (event == HAL_UART_TX_FULL)
//  319   {
//  320     // Do something when TX if full
//  321     return;
//  322   }
//  323 
//  324   if (event & ( HAL_UART_RX_FULL | HAL_UART_RX_ABOUT_FULL | HAL_UART_RX_TIMEOUT))
//  325   {
//  326     if ( App_TaskID )
//  327     {
//  328       /*
//  329          If Application is ready to receive and there is something
//  330          in the Rx buffer then send it up
//  331       */
//  332       if ((MT_UartZAppRxStatus == MT_UART_ZAPP_RX_READY ) && (length != 0))
//  333       {
//  334         /* Disable App flow control until it processes the current data */
//  335          MT_UartAppFlowControl (MT_UART_ZAPP_RX_NOT_READY);
//  336 
//  337         /* 2 more bytes are added, 1 for CMD type, other for length */
//  338         msg_ptr = (osal_event_hdr_t *)osal_msg_allocate( length + sizeof(osal_event_hdr_t) );
//  339         if ( msg_ptr )
//  340         {
//  341           msg_ptr->event = SPI_INCOMING_ZAPP_DATA;
//  342           msg_ptr->status = length;
//  343 
//  344           /* Read the data of Rx buffer */
//  345           HalUARTRead( MT_UART_DEFAULT_PORT, (uint8 *)(msg_ptr + 1), length );
//  346 
//  347           /* Send the raw data to application...or where ever */
//  348           osal_msg_send( App_TaskID, (uint8 *)msg_ptr );
//  349         }
//  350       }
//  351     }
//  352   }
//  353 }
//  354 
//  355 /***************************************************************************************************
//  356  * @fn      SPIMgr_ZAppBufferLengthRegister
//  357  *
//  358  * @brief
//  359  *
//  360  * @param   maxLen - Max Length that the application wants at a time
//  361  *
//  362  * @return  None
//  363  *
//  364  ***************************************************************************************************/
//  365 void MT_UartZAppBufferLengthRegister ( uint16 maxLen )
//  366 {
//  367   /* If the maxLen is larger than the RX buff, something is not right */
//  368   if (maxLen <= MT_UART_DEFAULT_MAX_RX_BUFF)
//  369     MT_UartMaxZAppBufLen = maxLen;
//  370   else
//  371     MT_UartMaxZAppBufLen = 1; /* default is 1 byte */
//  372 }
//  373 
//  374 /***************************************************************************************************
//  375  * @fn      SPIMgr_AppFlowControl
//  376  *
//  377  * @brief
//  378  *
//  379  * @param   status - ready to send or not
//  380  *
//  381  * @return  None
//  382  *
//  383  ***************************************************************************************************/
//  384 void MT_UartAppFlowControl ( bool status )
//  385 {
//  386 
//  387   /* Make sure only update if needed */
//  388   if (status != MT_UartZAppRxStatus )
//  389   {
//  390     MT_UartZAppRxStatus = status;
//  391   }
//  392 
//  393   /* App is ready to read again, ProcessZAppData have to be triggered too */
//  394   if (status == MT_UART_ZAPP_RX_READY)
//  395   {
//  396     MT_UartProcessZAppData (MT_UART_DEFAULT_PORT, HAL_UART_RX_TIMEOUT );
//  397   }
//  398 
//  399 }
//  400 
//  401 #endif //ZAPP
//  402 
//  403 /***************************************************************************************************
//  404 ***************************************************************************************************/
// 
// 522 bytes in segment BANKED_CODE
//  24 bytes in segment BANK_RELAYS
//   9 bytes in segment XDATA_Z
// 
// 546 bytes of CODE  memory
//   9 bytes of XDATA memory
//
//Errors: none
//Warnings: none
