///////////////////////////////////////////////////////////////////////////////
//                                                                            /
// IAR C/C++ Compiler V8.10.3.40338/W32 for 8051        21/Jul/2014  12:20:26 /
// Copyright 2004-2011 IAR Systems AB.                                        /
//                                                                            /
//    Core               =  plain                                             /
//    Code model         =  banked                                            /
//    Data model         =  large                                             /
//    Calling convention =  xdata reentrant                                   /
//    Constant location  =  data_rom                                          /
//    Dptr setup         =  1,16                                              /
//    Source file        =  D:\WorkReserve\project\AES_BOOT\CC2530EncBoot\Pro /
//                          jects\zstack\Utilities\OAD\Source\oad_app.c       /
//    Command line       =  -f D:\WorkReserve\project\AES_BOOT\CC2530EncBoot\ /
//                          Projects\zstack\Utilities\OAD\CC2530DB\..\..\..\T /
//                          ools\CC2530DB\f8wEndev.cfg (-DCPU32MHZ            /
//                          -DROOT=__near_func -DBLINK_LEDS) -f               /
//                          D:\WorkReserve\project\AES_BOOT\CC2530EncBoot\Pro /
//                          jects\zstack\Utilities\OAD\CC2530DB\..\..\..\Tool /
//                          s\CC2530DB\f8wConfig.cfg (-DSECURE=0              /
//                          -DZG_SECURE_DYNAMIC=0 -DREFLECTOR                 /
//                          -DDEFAULT_CHANLIST=0x00000800                     /
//                          -DZDAPP_CONFIG_PAN_ID=0xFFF0                      /
//                          -DNWK_START_DELAY=100 -DEXTENDED_JOINING_RANDOM_M /
//                          ASK=0x007F -DBEACON_REQUEST_DELAY=100             /
//                          -DBEACON_REQ_DELAY_MASK=0x00FF                    /
//                          -DROUTE_EXPIRY_TIME=30 -DAPSC_ACK_WAIT_DURATION_P /
//                          OLLED=3000 -DNWK_INDIRECT_MSG_TIMEOUT=7           /
//                          -DMAX_RREQ_ENTRIES=8 -DAPSC_MAX_FRAME_RETRIES=3   /
//                          -DNWK_MAX_DATA_RETRIES=2                          /
//                          -DMAX_POLL_FAILURE_RETRIES=2 -DMAX_BCAST=9        /
//                          -DAPS_MAX_GROUPS=16 -DMAX_RTG_ENTRIES=40          /
//                          -DNWK_MAX_BINDING_ENTRIES=4                       /
//                          -DMAX_BINDING_CLUSTER_IDS=4                       /
//                          "-DDEFAULT_KEY={0x01, 0x03, 0x05, 0x07, 0x09,     /
//                          0x0B, 0x0D, 0x0F, 0x00, 0x02, 0x04, 0x06, 0x08,   /
//                          0x0A, 0x0C, 0x0D}" -DMAC_MAX_FRAME_SIZE=116       /
//                          "-DCONST=const __code" -DGENERIC=__generic        /
//                          -DRFD_RCVC_ALWAYS_ON=FALSE -DPOLL_RATE=1000       /
//                          -DQUEUED_POLL_RATE=100 -DRESPONSE_POLL_RATE=100)  /
//                          -DREJOIN_POLL_RATE=440 D:\WorkReserve\project\AES /
//                          _BOOT\CC2530EncBoot\Projects\zstack\Utilities\OAD /
//                          \Source\oad_app.c -D NWK_AUTO_POLL -D ZTOOL_P1    /
//                          -D MT_TASK -D MT_APP_FUNC -D MT_NWK_FUNC -D       /
//                          MT_NWK_CB_FUNC -D MT_SYS_FUNC -D MT_ZDO_FUNC -D   /
//                          MT_ZDO_CB_FUNC -D MT_UTIL_FUNC -D LCD_SUPPORTED   /
//                          -D RFD_RCVC_ALWAYS_ON -D ZPORT -D                 /
//                          HOLD_AUTO_START -lC D:\WorkReserve\project\AES_BO /
//                          OT\CC2530EncBoot\Projects\zstack\Utilities\OAD\CC /
//                          2530DB\DongleEB\List\ -lA                         /
//                          D:\WorkReserve\project\AES_BOOT\CC2530EncBoot\Pro /
//                          jects\zstack\Utilities\OAD\CC2530DB\DongleEB\List /
//                          \ -o D:\WorkReserve\project\AES_BOOT\CC2530EncBoo /
//                          t\Projects\zstack\Utilities\OAD\CC2530DB\DongleEB /
//                          \Obj\ -e --debug --core=plain --dptr=16,1         /
//                          --data_model=large --code_model=banked            /
//                          --calling_convention=xdata_reentrant              /
//                          --place_constants=data_rom --nr_virtual_regs 16   /
//                          -I D:\WorkReserve\project\AES_BOOT\CC2530EncBoot\ /
//                          Projects\zstack\Utilities\OAD\CC2530DB\ -I        /
//                          D:\WorkReserve\project\AES_BOOT\CC2530EncBoot\Pro /
//                          jects\zstack\Utilities\OAD\CC2530DB\..\SOURCE\    /
//                          -I D:\WorkReserve\project\AES_BOOT\CC2530EncBoot\ /
//                          Projects\zstack\Utilities\OAD\CC2530DB\..\..\..\Z /
//                          MAIN\TI2530DB\ -I D:\WorkReserve\project\AES_BOOT /
//                          \CC2530EncBoot\Projects\zstack\Utilities\OAD\CC25 /
//                          30DB\..\..\..\..\..\COMPONENTS\MT\ -I             /
//                          D:\WorkReserve\project\AES_BOOT\CC2530EncBoot\Pro /
//                          jects\zstack\Utilities\OAD\CC2530DB\..\..\..\..\. /
//                          .\COMPONENTS\HAL\INCLUDE\ -I                      /
//                          D:\WorkReserve\project\AES_BOOT\CC2530EncBoot\Pro /
//                          jects\zstack\Utilities\OAD\CC2530DB\..\..\..\..\. /
//                          .\COMPONENTS\HAL\TARGET\CC2530EB\ -I              /
//                          D:\WorkReserve\project\AES_BOOT\CC2530EncBoot\Pro /
//                          jects\zstack\Utilities\OAD\CC2530DB\..\..\..\..\. /
//                          .\COMPONENTS\OSAL\INCLUDE\ -I                     /
//                          D:\WorkReserve\project\AES_BOOT\CC2530EncBoot\Pro /
//                          jects\zstack\Utilities\OAD\CC2530DB\..\..\..\..\. /
//                          .\COMPONENTS\STACK\AF\ -I                         /
//                          D:\WorkReserve\project\AES_BOOT\CC2530EncBoot\Pro /
//                          jects\zstack\Utilities\OAD\CC2530DB\..\..\..\..\. /
//                          .\COMPONENTS\STACK\NWK\ -I                        /
//                          D:\WorkReserve\project\AES_BOOT\CC2530EncBoot\Pro /
//                          jects\zstack\Utilities\OAD\CC2530DB\..\..\..\..\. /
//                          .\COMPONENTS\STACK\SEC\ -I                        /
//                          D:\WorkReserve\project\AES_BOOT\CC2530EncBoot\Pro /
//                          jects\zstack\Utilities\OAD\CC2530DB\..\..\..\..\. /
//                          .\COMPONENTS\STACK\SAPI\ -I                       /
//                          D:\WorkReserve\project\AES_BOOT\CC2530EncBoot\Pro /
//                          jects\zstack\Utilities\OAD\CC2530DB\..\..\..\..\. /
//                          .\COMPONENTS\STACK\SYS\ -I                        /
//                          D:\WorkReserve\project\AES_BOOT\CC2530EncBoot\Pro /
//                          jects\zstack\Utilities\OAD\CC2530DB\..\..\..\..\. /
//                          .\COMPONENTS\STACK\ZDO\ -I                        /
//                          D:\WorkReserve\project\AES_BOOT\CC2530EncBoot\Pro /
//                          jects\zstack\Utilities\OAD\CC2530DB\..\..\..\..\. /
//                          .\COMPONENTS\ZMAC\F8W\ -I                         /
//                          D:\WorkReserve\project\AES_BOOT\CC2530EncBoot\Pro /
//                          jects\zstack\Utilities\OAD\CC2530DB\..\..\..\..\. /
//                          .\COMPONENTS\ZMAC\ -I D:\WorkReserve\project\AES_ /
//                          BOOT\CC2530EncBoot\Projects\zstack\Utilities\OAD\ /
//                          CC2530DB\..\..\..\..\..\COMPONENTS\SERVICES\SADDR /
//                          \ -I D:\WorkReserve\project\AES_BOOT\CC2530EncBoo /
//                          t\Projects\zstack\Utilities\OAD\CC2530DB\..\..\.. /
//                          \..\..\COMPONENTS\SERVICES\SDATA\ -I              /
//                          D:\WorkReserve\project\AES_BOOT\CC2530EncBoot\Pro /
//                          jects\zstack\Utilities\OAD\CC2530DB\..\..\..\..\. /
//                          .\COMPONENTS\MAC\INCLUDE\ -I                      /
//                          D:\WorkReserve\project\AES_BOOT\CC2530EncBoot\Pro /
//                          jects\zstack\Utilities\OAD\CC2530DB\..\..\..\..\. /
//                          .\COMPONENTS\MAC\HIGH_LEVEL\ -I                   /
//                          D:\WorkReserve\project\AES_BOOT\CC2530EncBoot\Pro /
//                          jects\zstack\Utilities\OAD\CC2530DB\..\..\..\..\. /
//                          .\COMPONENTS\MAC\LOW_LEVEL\srf04\ -I              /
//                          D:\WorkReserve\project\AES_BOOT\CC2530EncBoot\Pro /
//                          jects\zstack\Utilities\OAD\CC2530DB\..\..\..\..\. /
//                          .\COMPONENTS\MAC\LOW_LEVEL\srf04\SINGLE_CHIP\     /
//                          -Ohz --require_prototypes                         /
//    List file          =  D:\WorkReserve\project\AES_BOOT\CC2530EncBoot\Pro /
//                          jects\zstack\Utilities\OAD\CC2530DB\DongleEB\List /
//                          \oad_app.s51                                      /
//                                                                            /
//                                                                            /
///////////////////////////////////////////////////////////////////////////////

        NAME oad_app

        RTMODEL "__SystemLibrary", "CLib"
        RTMODEL "__calling_convention", "xdata_reentrant"
        RTMODEL "__code_model", "banked"
        RTMODEL "__core", "plain"
        RTMODEL "__data_model", "large"
        RTMODEL "__dptr_size", "16"
        RTMODEL "__extended_stack", "disabled"
        RTMODEL "__location_for_constants", "data"
        RTMODEL "__number_of_dptrs", "1"
        RTMODEL "__rt_version", "1"

        RSEG DOVERLAY:DATA:NOROOT(0)
        RSEG IOVERLAY:IDATA:NOROOT(0)
        RSEG ISTACK:IDATA:NOROOT(0)
        RSEG PSTACK:XDATA:NOROOT(0)
        RSEG XSTACK:XDATA:NOROOT(0)

        EXTERN ?ALLOC_XSTACK8
        EXTERN ?BANKED_ENTER_XDATA
        EXTERN ?BANKED_LEAVE_XDATA
        EXTERN ?BDISPATCH
        EXTERN ?BRET
        EXTERN ?CALL_IND
        EXTERN ?DEALLOC_XSTACK8
        EXTERN ?L_ADD
        EXTERN ?L_MOV_X
        EXTERN ?MOVE_LONG8_XDATA_XDATA
        EXTERN ?PUSH_XSTACK8_X_TWO
        EXTERN ?PUSH_XSTACK_I_ONE
        EXTERN ?PUSH_XSTACK_I_THREE
        EXTERN ?PUSH_XSTACK_I_TWO
        EXTERN ?UL_DIV_MOD
        EXTERN ?UL_GE_X
        EXTERN ?V0
        EXTERN ?XSP
        EXTERN ?XSTACK_DISP0_8
        EXTERN __INIT_XDATA_I
        EXTERN __INIT_XDATA_Z

        FUNCTION ??ZLOADApp_SerialMessageMSGCB?relay,0203H
        FUNCTION ??ZLOADApp_handleCommand?relay,0203H
        FUNCTION ??ZLOADApp_handleReply?relay,0203H
        PUBLIC ??oadAppEvt?relay
        FUNCTION ??oadAppEvt?relay,0203H
        PUBLIC ??oadAppInit?relay
        FUNCTION ??oadAppInit?relay,0203H
        FUNCTION ??procSysEvtMsg?relay,0203H
        FUNCTION ??zlBuildExternalInboundSerialMSG?relay,0203H
        FUNCTION ??zlBuildInternalInboundSerialMSG?relay,0203H
        FUNCTION ??zlRequestNextDataPacket?relay,0203H
        FUNCTION ??zlResetState?relay,0203H
        FUNCTION ??zlSendSerial?relay,0203H
        FUNCTION ??zlStartClientSession?relay,0203H
        PUBWEAK WDCTL
        FUNCTION ZLOADApp_SerialMessageMSGCB,021203H
        ARGFRAME XSTACK, 10, STACK
        ARGFRAME IOVERLAY, 0, STATIC
        ARGFRAME DOVERLAY, 0, STATIC
        LOCFRAME ISTACK, 1, STACK
        LOCFRAME XSTACK, 33, STACK
        FUNCTION ZLOADApp_handleCommand,021203H
        ARGFRAME XSTACK, 24, STACK
        ARGFRAME IOVERLAY, 0, STATIC
        ARGFRAME DOVERLAY, 0, STATIC
        LOCFRAME ISTACK, 1, STACK
        LOCFRAME XSTACK, 46, STACK
        FUNCTION ZLOADApp_handleReply,021203H
        ARGFRAME XSTACK, 24, STACK
        ARGFRAME IOVERLAY, 0, STATIC
        ARGFRAME DOVERLAY, 0, STATIC
        LOCFRAME ISTACK, 2, STACK
        LOCFRAME XSTACK, 27, STACK
        PUBWEAK _A_IEN0
        PUBWEAK __Constant_3a801
        PUBLIC oadAppEvt
        FUNCTION oadAppEvt,021203H
        ARGFRAME XSTACK, 0, STACK
        LOCFRAME ISTACK, 1, STACK
        LOCFRAME XSTACK, 16, STACK
        PUBLIC oadAppInit
        FUNCTION oadAppInit,021203H
        ARGFRAME XSTACK, 0, STACK
        LOCFRAME ISTACK, 1, STACK
        LOCFRAME XSTACK, 13, STACK
        PUBLIC oad_app_taskId
        FUNCTION procSysEvtMsg,021203H
        ARGFRAME XSTACK, 16, STACK
        ARGFRAME IOVERLAY, 0, STATIC
        ARGFRAME DOVERLAY, 0, STATIC
        LOCFRAME XSTACK, 10, STACK
        FUNCTION zlBuildExternalInboundSerialMSG,021203H
        ARGFRAME XSTACK, 37, STACK
        ARGFRAME IOVERLAY, 0, STATIC
        ARGFRAME DOVERLAY, 0, STATIC
        LOCFRAME ISTACK, 1, STACK
        LOCFRAME XSTACK, 22, STACK
        FUNCTION zlBuildInternalInboundSerialMSG,021203H
        ARGFRAME XSTACK, 37, STACK
        ARGFRAME IOVERLAY, 0, STATIC
        ARGFRAME DOVERLAY, 0, STATIC
        LOCFRAME ISTACK, 1, STACK
        LOCFRAME XSTACK, 19, STACK
        FUNCTION zlRequestNextDataPacket,021203H
        ARGFRAME XSTACK, 18, STACK
        ARGFRAME IOVERLAY, 0, STATIC
        ARGFRAME DOVERLAY, 0, STATIC
        LOCFRAME ISTACK, 2, STACK
        LOCFRAME XSTACK, 10, STACK
        FUNCTION zlResetState,021203H
        ARGFRAME XSTACK, 16, STACK
        ARGFRAME IOVERLAY, 0, STATIC
        ARGFRAME DOVERLAY, 0, STATIC
        LOCFRAME ISTACK, 2, STACK
        FUNCTION zlSendSerial,021203H
        ARGFRAME XSTACK, 37, STACK
        ARGFRAME IOVERLAY, 0, STATIC
        ARGFRAME DOVERLAY, 0, STATIC
        LOCFRAME XSTACK, 16, STACK
        FUNCTION zlStartClientSession,021203H
        ARGFRAME XSTACK, 16, STACK
        ARGFRAME IOVERLAY, 0, STATIC
        ARGFRAME DOVERLAY, 0, STATIC
        LOCFRAME ISTACK, 1, STACK
        LOCFRAME XSTACK, 26, STACK
        
        CFI Names cfiNames0
        CFI StackFrame CFA_SP SP IDATA
        CFI StackFrame CFA_PSP16 PSP16 XDATA
        CFI StackFrame CFA_XSP16 XSP16 XDATA
        CFI StaticOverlayFrame CFA_IOVERLAY IOVERLAY
        CFI StaticOverlayFrame CFA_DOVERLAY DOVERLAY
        CFI Resource `PSW.CY`:1, `B.BR0`:1, `B.BR1`:1, `B.BR2`:1, `B.BR3`:1
        CFI Resource `B.BR4`:1, `B.BR5`:1, `B.BR6`:1, `B.BR7`:1, `VB.BR8`:1
        CFI Resource `VB.BR9`:1, `VB.BR10`:1, `VB.BR11`:1, `VB.BR12`:1
        CFI Resource `VB.BR13`:1, `VB.BR14`:1, `VB.BR15`:1, VB:8, B:8, A:8
        CFI Resource PSW:8, DPL0:8, DPH0:8, R0:8, R1:8, R2:8, R3:8, R4:8, R5:8
        CFI Resource R6:8, R7:8, V0:8, V1:8, V2:8, V3:8, V4:8, V5:8, V6:8, V7:8
        CFI Resource V8:8, V9:8, V10:8, V11:8, V12:8, V13:8, V14:8, V15:8, SP:8
        CFI Resource PSPH:8, PSPL:8, PSP16:16, XSPH:8, XSPL:8, XSP16:16
        CFI VirtualResource ?RET:24
        CFI Resource ?BRET_EXT:8
        CFI VirtualResource ?RET_HIGH:8, ?RET_LOW:8
        CFI ResourceParts PSP16 PSPH, PSPL
        CFI ResourceParts XSP16 XSPH, XSPL
        CFI ResourceParts ?RET ?BRET_EXT, ?RET_HIGH, ?RET_LOW
        CFI EndNames cfiNames0
        
        CFI Common cfiCommon0 Using cfiNames0
        CFI CodeAlign 1
        CFI DataAlign -1
        CFI ReturnAddress ?RET CODE
        CFI CFA_DOVERLAY Used
        CFI CFA_IOVERLAY Used
        CFI CFA_SP SP+-3
        CFI CFA_PSP16 PSP16+0
        CFI CFA_XSP16 XSP16+0
        CFI `PSW.CY` SameValue
        CFI `B.BR0` SameValue
        CFI `B.BR1` SameValue
        CFI `B.BR2` SameValue
        CFI `B.BR3` SameValue
        CFI `B.BR4` SameValue
        CFI `B.BR5` SameValue
        CFI `B.BR6` SameValue
        CFI `B.BR7` SameValue
        CFI `VB.BR8` SameValue
        CFI `VB.BR9` SameValue
        CFI `VB.BR10` SameValue
        CFI `VB.BR11` SameValue
        CFI `VB.BR12` SameValue
        CFI `VB.BR13` SameValue
        CFI `VB.BR14` SameValue
        CFI `VB.BR15` SameValue
        CFI VB SameValue
        CFI B Undefined
        CFI A Undefined
        CFI PSW SameValue
        CFI DPL0 SameValue
        CFI DPH0 SameValue
        CFI R0 Undefined
        CFI R1 Undefined
        CFI R2 Undefined
        CFI R3 Undefined
        CFI R4 Undefined
        CFI R5 Undefined
        CFI R6 SameValue
        CFI R7 SameValue
        CFI V0 SameValue
        CFI V1 SameValue
        CFI V2 SameValue
        CFI V3 SameValue
        CFI V4 SameValue
        CFI V5 SameValue
        CFI V6 SameValue
        CFI V7 SameValue
        CFI V8 SameValue
        CFI V9 SameValue
        CFI V10 SameValue
        CFI V11 SameValue
        CFI V12 SameValue
        CFI V13 SameValue
        CFI V14 SameValue
        CFI V15 SameValue
        CFI PSPH Undefined
        CFI PSPL Undefined
        CFI XSPH Undefined
        CFI XSPL Undefined
        CFI ?RET Concat
        CFI ?BRET_EXT Frame(CFA_SP, 3)
        CFI ?RET_HIGH Frame(CFA_SP, 2)
        CFI ?RET_LOW Frame(CFA_SP, 1)
        CFI EndCommon cfiCommon0
        
        
        CFI Common cfiCommon1 Using cfiNames0
        CFI CodeAlign 1
        CFI DataAlign -1
        CFI ReturnAddress ?RET CODE
        CFI CFA_DOVERLAY Used
        CFI CFA_IOVERLAY Used
        CFI CFA_SP SP+-2
        CFI CFA_PSP16 PSP16+0
        CFI CFA_XSP16 XSP16+0
        CFI `PSW.CY` SameValue
        CFI `B.BR0` SameValue
        CFI `B.BR1` SameValue
        CFI `B.BR2` SameValue
        CFI `B.BR3` SameValue
        CFI `B.BR4` SameValue
        CFI `B.BR5` SameValue
        CFI `B.BR6` SameValue
        CFI `B.BR7` SameValue
        CFI `VB.BR8` SameValue
        CFI `VB.BR9` SameValue
        CFI `VB.BR10` SameValue
        CFI `VB.BR11` SameValue
        CFI `VB.BR12` SameValue
        CFI `VB.BR13` SameValue
        CFI `VB.BR14` SameValue
        CFI `VB.BR15` SameValue
        CFI VB SameValue
        CFI B SameValue
        CFI A SameValue
        CFI PSW SameValue
        CFI DPL0 SameValue
        CFI DPH0 SameValue
        CFI R0 SameValue
        CFI R1 SameValue
        CFI R2 SameValue
        CFI R3 SameValue
        CFI R4 SameValue
        CFI R5 SameValue
        CFI R6 SameValue
        CFI R7 SameValue
        CFI V0 SameValue
        CFI V1 SameValue
        CFI V2 SameValue
        CFI V3 SameValue
        CFI V4 SameValue
        CFI V5 SameValue
        CFI V6 SameValue
        CFI V7 SameValue
        CFI V8 SameValue
        CFI V9 SameValue
        CFI V10 SameValue
        CFI V11 SameValue
        CFI V12 SameValue
        CFI V13 SameValue
        CFI V14 SameValue
        CFI V15 SameValue
        CFI PSPH Undefined
        CFI PSPL Undefined
        CFI XSPH Undefined
        CFI XSPL Undefined
        CFI ?RET Concat
        CFI ?BRET_EXT SameValue
        CFI ?RET_HIGH Frame(CFA_SP, 2)
        CFI ?RET_LOW Frame(CFA_SP, 1)
        CFI EndCommon cfiCommon1
        
afRegister          SYMBOL "afRegister"
osal_nv_item_init   SYMBOL "osal_nv_item_init"
RegisterForKeys     SYMBOL "RegisterForKeys"
osal_mem_alloc      SYMBOL "osal_mem_alloc"
osal_mem_free       SYMBOL "osal_mem_free"
osal_start_timerEx  SYMBOL "osal_start_timerEx"
osal_set_event      SYMBOL "osal_set_event"
MT_X_FakeNwkJoinCnf SYMBOL "MT_X_FakeNwkJoinCnf"
osal_msg_deallocate SYMBOL "osal_msg_deallocate"
osal_msg_receive    SYMBOL "osal_msg_receive"
osal_memcpy         SYMBOL "osal_memcpy"
osal_nv_read        SYMBOL "osal_nv_read"
osal_memset         SYMBOL "osal_memset"
osal_memcmp         SYMBOL "osal_memcmp"
memcmp              SYMBOL "memcmp"
afFindEndPointDesc  SYMBOL "afFindEndPointDesc"
AF_DataRequest      SYMBOL "AF_DataRequest"
osal_stop_timerEx   SYMBOL "osal_stop_timerEx"
ZMacGetReq          SYMBOL "ZMacGetReq"
MTProcessAppRspMsg  SYMBOL "MTProcessAppRspMsg"
??AF_DataRequest?relay SYMBOL "?relay", AF_DataRequest
??MTProcessAppRspMsg?relay SYMBOL "?relay", MTProcessAppRspMsg
??MT_X_FakeNwkJoinCnf?relay SYMBOL "?relay", MT_X_FakeNwkJoinCnf
??RegisterForKeys?relay SYMBOL "?relay", RegisterForKeys
??ZMacGetReq?relay  SYMBOL "?relay", ZMacGetReq
??afFindEndPointDesc?relay SYMBOL "?relay", afFindEndPointDesc
??afRegister?relay  SYMBOL "?relay", afRegister
??memcmp?relay      SYMBOL "?relay", memcmp
??osal_mem_alloc?relay SYMBOL "?relay", osal_mem_alloc
??osal_mem_free?relay SYMBOL "?relay", osal_mem_free
??osal_memcmp?relay SYMBOL "?relay", osal_memcmp
??osal_memcpy?relay SYMBOL "?relay", osal_memcpy
??osal_memset?relay SYMBOL "?relay", osal_memset
??osal_msg_deallocate?relay SYMBOL "?relay", osal_msg_deallocate
??osal_msg_receive?relay SYMBOL "?relay", osal_msg_receive
??osal_nv_item_init?relay SYMBOL "?relay", osal_nv_item_init
??osal_nv_read?relay SYMBOL "?relay", osal_nv_read
??osal_set_event?relay SYMBOL "?relay", osal_set_event
??osal_start_timerEx?relay SYMBOL "?relay", osal_start_timerEx
??osal_stop_timerEx?relay SYMBOL "?relay", osal_stop_timerEx
oadAppEvt           SYMBOL "oadAppEvt"
??oadAppEvt?relay   SYMBOL "?relay", oadAppEvt
oadAppInit          SYMBOL "oadAppInit"
??oadAppInit?relay  SYMBOL "?relay", oadAppInit

        EXTERN afRegister
        FUNCTION afRegister,0202H
        ARGFRAME ISTACK, 0, STACK
        ARGFRAME PSTACK, 0, STACK
        ARGFRAME XSTACK, 11, STACK
        ARGFRAME IOVERLAY, 0, STATIC
        ARGFRAME DOVERLAY, 0, STATIC
        EXTERN osal_nv_item_init
        FUNCTION osal_nv_item_init,0202H
        ARGFRAME ISTACK, 0, STACK
        ARGFRAME PSTACK, 0, STACK
        ARGFRAME XSTACK, 13, STACK
        ARGFRAME IOVERLAY, 0, STATIC
        ARGFRAME DOVERLAY, 0, STATIC
        EXTERN RegisterForKeys
        FUNCTION RegisterForKeys,0202H
        ARGFRAME ISTACK, 0, STACK
        ARGFRAME PSTACK, 0, STACK
        ARGFRAME XSTACK, 11, STACK
        ARGFRAME IOVERLAY, 0, STATIC
        ARGFRAME DOVERLAY, 0, STATIC
        EXTERN osal_mem_alloc
        FUNCTION osal_mem_alloc,0202H
        ARGFRAME ISTACK, 0, STACK
        ARGFRAME PSTACK, 0, STACK
        ARGFRAME XSTACK, 37, STACK
        ARGFRAME IOVERLAY, 0, STATIC
        ARGFRAME DOVERLAY, 0, STATIC
        EXTERN osal_mem_free
        FUNCTION osal_mem_free,0202H
        ARGFRAME ISTACK, 2, STACK
        ARGFRAME PSTACK, 0, STACK
        ARGFRAME XSTACK, 37, STACK
        ARGFRAME IOVERLAY, 0, STATIC
        ARGFRAME DOVERLAY, 0, STATIC
        EXTERN osal_start_timerEx
        FUNCTION osal_start_timerEx,0202H
        ARGFRAME ISTACK, 0, STACK
        ARGFRAME PSTACK, 0, STACK
        ARGFRAME XSTACK, 37, STACK
        ARGFRAME IOVERLAY, 0, STATIC
        ARGFRAME DOVERLAY, 0, STATIC
        EXTERN osal_set_event
        FUNCTION osal_set_event,0202H
        ARGFRAME ISTACK, 0, STACK
        ARGFRAME PSTACK, 0, STACK
        ARGFRAME XSTACK, 37, STACK
        ARGFRAME IOVERLAY, 0, STATIC
        ARGFRAME DOVERLAY, 0, STATIC
        EXTERN MT_X_FakeNwkJoinCnf
        FUNCTION MT_X_FakeNwkJoinCnf,0202H
        ARGFRAME ISTACK, 0, STACK
        ARGFRAME PSTACK, 0, STACK
        ARGFRAME XSTACK, 10, STACK
        ARGFRAME IOVERLAY, 0, STATIC
        ARGFRAME DOVERLAY, 0, STATIC
        EXTERN osal_msg_deallocate
        FUNCTION osal_msg_deallocate,0202H
        ARGFRAME ISTACK, 0, STACK
        ARGFRAME PSTACK, 0, STACK
        ARGFRAME XSTACK, 10, STACK
        ARGFRAME IOVERLAY, 0, STATIC
        ARGFRAME DOVERLAY, 0, STATIC
        EXTERN osal_msg_receive
        FUNCTION osal_msg_receive,0202H
        ARGFRAME ISTACK, 0, STACK
        ARGFRAME PSTACK, 0, STACK
        ARGFRAME XSTACK, 10, STACK
        ARGFRAME IOVERLAY, 0, STATIC
        ARGFRAME DOVERLAY, 0, STATIC
        EXTERN osal_memcpy
        FUNCTION osal_memcpy,0202H
        ARGFRAME ISTACK, 0, STACK
        ARGFRAME PSTACK, 0, STACK
        ARGFRAME XSTACK, 43, STACK
        ARGFRAME IOVERLAY, 0, STATIC
        ARGFRAME DOVERLAY, 0, STATIC
        EXTERN osal_nv_read
        FUNCTION osal_nv_read,0202H
        ARGFRAME ISTACK, 0, STACK
        ARGFRAME PSTACK, 0, STACK
        ARGFRAME XSTACK, 41, STACK
        ARGFRAME IOVERLAY, 0, STATIC
        ARGFRAME DOVERLAY, 0, STATIC
        EXTERN osal_memset
        FUNCTION osal_memset,0202H
        ARGFRAME ISTACK, 0, STACK
        ARGFRAME PSTACK, 0, STACK
        ARGFRAME XSTACK, 37, STACK
        ARGFRAME IOVERLAY, 0, STATIC
        ARGFRAME DOVERLAY, 0, STATIC
        EXTERN osal_memcmp
        FUNCTION osal_memcmp,0202H
        ARGFRAME ISTACK, 0, STACK
        ARGFRAME PSTACK, 0, STACK
        ARGFRAME XSTACK, 40, STACK
        ARGFRAME IOVERLAY, 0, STATIC
        ARGFRAME DOVERLAY, 0, STATIC
        EXTERN memcmp
        FUNCTION memcmp,010202H
        ARGFRAME ISTACK, 0, STACK
        ARGFRAME PSTACK, 0, STACK
        ARGFRAME XSTACK, 39, STACK
        ARGFRAME IOVERLAY, 0, STATIC
        ARGFRAME DOVERLAY, 0, STATIC
        EXTERN afFindEndPointDesc
        FUNCTION afFindEndPointDesc,0202H
        ARGFRAME ISTACK, 0, STACK
        ARGFRAME PSTACK, 0, STACK
        ARGFRAME XSTACK, 37, STACK
        ARGFRAME IOVERLAY, 0, STATIC
        ARGFRAME DOVERLAY, 0, STATIC
        EXTERN AF_DataRequest
        FUNCTION AF_DataRequest,0202H
        ARGFRAME ISTACK, 0, STACK
        ARGFRAME PSTACK, 0, STACK
        ARGFRAME XSTACK, 46, STACK
        ARGFRAME IOVERLAY, 0, STATIC
        ARGFRAME DOVERLAY, 0, STATIC
        EXTERN osal_stop_timerEx
        FUNCTION osal_stop_timerEx,0202H
        ARGFRAME ISTACK, 2, STACK
        ARGFRAME PSTACK, 0, STACK
        ARGFRAME XSTACK, 10, STACK
        ARGFRAME IOVERLAY, 0, STATIC
        ARGFRAME DOVERLAY, 0, STATIC
        EXTERN ZMacGetReq
        FUNCTION ZMacGetReq,0202H
        ARGFRAME ISTACK, 0, STACK
        ARGFRAME PSTACK, 0, STACK
        ARGFRAME XSTACK, 23, STACK
        ARGFRAME IOVERLAY, 0, STATIC
        ARGFRAME DOVERLAY, 0, STATIC
        EXTERN MTProcessAppRspMsg
        FUNCTION MTProcessAppRspMsg,0202H
        ARGFRAME ISTACK, 0, STACK
        ARGFRAME PSTACK, 0, STACK
        ARGFRAME XSTACK, 13, STACK
        ARGFRAME IOVERLAY, 0, STATIC
        ARGFRAME DOVERLAY, 0, STATIC
        EXTERN ??AF_DataRequest?relay
        FUNCTION ??AF_DataRequest?relay,00H
        EXTERN ??MTProcessAppRspMsg?relay
        FUNCTION ??MTProcessAppRspMsg?relay,00H
        EXTERN ??MT_X_FakeNwkJoinCnf?relay
        FUNCTION ??MT_X_FakeNwkJoinCnf?relay,00H
        EXTERN ??RegisterForKeys?relay
        FUNCTION ??RegisterForKeys?relay,00H
        EXTERN ??ZMacGetReq?relay
        FUNCTION ??ZMacGetReq?relay,00H
        EXTERN ??afFindEndPointDesc?relay
        FUNCTION ??afFindEndPointDesc?relay,00H
        EXTERN ??afRegister?relay
        FUNCTION ??afRegister?relay,00H
        EXTERN ??memcmp?relay
        FUNCTION ??memcmp?relay,00H
        EXTERN ??osal_mem_alloc?relay
        FUNCTION ??osal_mem_alloc?relay,00H
        EXTERN ??osal_mem_free?relay
        FUNCTION ??osal_mem_free?relay,00H
        EXTERN ??osal_memcmp?relay
        FUNCTION ??osal_memcmp?relay,00H
        EXTERN ??osal_memcpy?relay
        FUNCTION ??osal_memcpy?relay,00H
        EXTERN ??osal_memset?relay
        FUNCTION ??osal_memset?relay,00H
        EXTERN ??osal_msg_deallocate?relay
        FUNCTION ??osal_msg_deallocate?relay,00H
        EXTERN ??osal_msg_receive?relay
        FUNCTION ??osal_msg_receive?relay,00H
        EXTERN ??osal_nv_item_init?relay
        FUNCTION ??osal_nv_item_init?relay,00H
        EXTERN ??osal_nv_read?relay
        FUNCTION ??osal_nv_read?relay,00H
        EXTERN ??osal_set_event?relay
        FUNCTION ??osal_set_event?relay,00H
        EXTERN ??osal_start_timerEx?relay
        FUNCTION ??osal_start_timerEx?relay,00H
        EXTERN ??osal_stop_timerEx?relay
        FUNCTION ??osal_stop_timerEx?relay,00H
        EXTERN mtxMode

// D:\WorkReserve\project\AES_BOOT\CC2530EncBoot\Projects\zstack\Utilities\OAD\Source\oad_app.c
//    1 /**************************************************************************************************
//    2   Filename:       oad_app.c
//    3   Revised:        $Date: 2009-08-21 13:10:13 -0700 (Fri, 21 Aug 2009) $
//    4   Revision:       $Revision: 20630 $
//    5 
//    6   Description:    This file contains the implementation of an Over Air Download application.
//    7 
//    8 
//    9   Copyright 2008-2009 Texas Instruments Incorporated. All rights reserved.
//   10 
//   11   IMPORTANT: Your use of this Software is limited to those specific rights
//   12   granted under the terms of a software license agreement between the user
//   13   who downloaded the software, his/her employer (which must be your employer)
//   14   and Texas Instruments Incorporated (the "License").  You may not use this
//   15   Software unless you agree to abide by the terms of the License. The License
//   16   limits your use, and you acknowledge, that the Software may not be modified,
//   17   copied or distributed unless embedded on a Texas Instruments microcontroller
//   18   or used solely and exclusively in conjunction with a Texas Instruments radio
//   19   frequency transceiver, which is integrated into your product.  Other than for
//   20   the foregoing purpose, you may not use, reproduce, copy, prepare derivative
//   21   works of, modify, distribute, perform, display or sell this Software and/or
//   22   its documentation for any purpose.
//   23 
//   24   YOU FURTHER ACKNOWLEDGE AND AGREE THAT THE SOFTWARE AND DOCUMENTATION ARE
//   25   PROVIDED “AS IS” WITHOUT WARRANTY OF ANY KIND, EITHER EXPRESS OR IMPLIED,
//   26   INCLUDING WITHOUT LIMITATION, ANY WARRANTY OF MERCHANTABILITY, TITLE,
//   27   NON-INFRINGEMENT AND FITNESS FOR A PARTICULAR PURPOSE. IN NO EVENT SHALL
//   28   TEXAS INSTRUMENTS OR ITS LICENSORS BE LIABLE OR OBLIGATED UNDER CONTRACT,
//   29   NEGLIGENCE, STRICT LIABILITY, CONTRIBUTION, BREACH OF WARRANTY, OR OTHER
//   30   LEGAL EQUITABLE THEORY ANY DIRECT OR INDIRECT DAMAGES OR EXPENSES
//   31   INCLUDING BUT NOT LIMITED TO ANY INCIDENTAL, SPECIAL, INDIRECT, PUNITIVE
//   32   OR CONSEQUENTIAL DAMAGES, LOST PROFITS OR LOST DATA, COST OF PROCUREMENT
//   33   OF SUBSTITUTE GOODS, TECHNOLOGY, SERVICES, OR ANY CLAIMS BY THIRD PARTIES
//   34   (INCLUDING BUT NOT LIMITED TO ANY DEFENSE THEREOF), OR OTHER SIMILAR COSTS.
//   35 
//   36   Should you have any questions regarding your right to use this Software,
//   37   contact Texas Instruments Incorporated at www.TI.com.
//   38 **************************************************************************************************/
//   39 
//   40 /* ------------------------------------------------------------------------------------------------
//   41  *                                          Includes
//   42  * ------------------------------------------------------------------------------------------------
//   43  */
//   44 
//   45 #include <string.h>
//   46 
//   47 #include "AF.h"
//   48 #include "hal_board_cfg.h"

        ASEGN SFR_AN:DATA:NOROOT,0a8H
// union <unnamed> volatile __sfr _A_IEN0
_A_IEN0:
        DATA8
        DS 1

        ASEGN SFR_AN:DATA:NOROOT,0c9H
// unsigned char volatile __sfr WDCTL
WDCTL:
        DATA8
        DS 1
//   49 #include "hal_flash.h"
//   50 #include "hal_oad.h"
//   51 #include "oad_app.h"
//   52 #include "oad_preamble.h"
//   53 #include "OnBoard.h"
//   54 #include "OSAL_Nv.h"
//   55 
//   56 #if defined ZPORT
//   57 #include "hal_key.h"
//   58 #include "MT.h"
//   59 #include "MT_APP.h"
//   60 #include "MT_X.h"
//   61 #include "ZDApp.h"
//   62 #else
//   63 #if (HAL_OAD_XNV_IS_INT && ((HAL_OAD_DL_OSET % HAL_FLASH_PAGE_SIZE) != 0))
//   64 #include "hal_xnv.h"
//   65 #endif
//   66 #endif
//   67 
//   68 /* ------------------------------------------------------------------------------------------------
//   69  *                                           Macros  
//   70  * ------------------------------------------------------------------------------------------------
//   71  */
//   72 
//   73 #define  DO_EVENT_CALLBACK(e) st ( if (s_pCallback && ((e) & s_eventMask))  s_pCallback((e)); )
//   74 
//   75 /* ------------------------------------------------------------------------------------------------
//   76  *                                          Constants
//   77  * ------------------------------------------------------------------------------------------------
//   78  */
//   79 
//   80 #if !defined OAD_NV_ID
//   81 // Arbitrarily pick the last Id available to the user Application.
//   82 #define OAD_NV_ID  0x0FFF
//   83 #endif
//   84 #define PREAMBLE_NV_ID                    OAD_NV_ID
//   85 
//   86 // support to select callback event for which subscription is desired
//   87 // this information is transmitted as a bit map.
//   88 #define  ZLCB_EVENT_OADBEGIN_CLIENT     ((uint16)0x0001)
//   89 #define  ZLCB_EVENT_OADEND_CLIENT       ((uint16)0x0002)
//   90 #define  ZLCB_EVENT_OADBEGIN_SERVER     ((uint16)0x0004)
//   91 #define  ZLCB_EVENT_OADEND_SERVER       ((uint16)0x0008)
//   92 #define  ZLCB_EVENT_CODE_ENABLE_RESET   ((uint16)0x0010)
//   93 #define  ZLCB_EVENT_ALL                 (ZLCB_EVENT_OADBEGIN_CLIENT   | \ 
//   94                                          ZLCB_EVENT_OADEND_CLIENT     | \ 
//   95                                          ZLCB_EVENT_OADBEGIN_SERVER   | \ 
//   96                                          ZLCB_EVENT_OADEND_SERVER     | \ 
//   97                                          ZLCB_EVENT_CODE_ENABLE_RESET   \ 
//   98                                         )
//   99 
//  100 #define  SDC_RETRY_COUNT         (10)
//  101 #define  SDR_WAIT_TO             (1000)
//  102 // Some reasonable time to get the code enable response out.
//  103 #define  SDC_WAIT_TO_ENABLE      (10000)
//  104 
//  105 /* ------------------------------------------------------------------------------------------------
//  106  *                                          Typedefs
//  107  * ------------------------------------------------------------------------------------------------
//  108  */
//  109 
//  110 // Used by the optional OAD en masse mode - TODO.
//  111 /*
//  112 typedef enum {
//  113   emBeg = 0x0010,
//  114   emDat,
//  115   emRst,
//  116   emEnd
//  117 } en_masse_t;
//  118 
//  119 #define OAD_CLUSTERID_EM  0x0010
//  120 */
//  121 
//  122 #if defined ZPORT
//  123 #define SIZEOF_ZAIN_HDR   (sizeof(uint16) + sizeof(uint8) + sizeof(uint16) + sizeof(uint8))
//  124 
//  125 // Z-Architect headers
//  126 // inbound to host (from dongle directly or external platform)
//  127 PACK_1
//  128 typedef struct  {
//  129     uint16 zaproxy_nwkAddr;
//  130     uint8  zaproxy_endp;
//  131     uint16 zaproxy_ClusterID;
//  132     uint8  zaproxy_msglen;
//  133     uint8  zaproxy_payload[1];
//  134 } zahdrin_t;
//  135 
//  136 // outbound from host (to dongle directly or external platform)
//  137 PACK_1
//  138 typedef struct  {
//  139     uint16 zaproxy_nwkAddr;
//  140     uint8  zaproxy_endp;
//  141     uint16 zaproxy_ClusterID;
//  142     uint8  zaproxy_msglen;
//  143     uint8  zaproxy_payload[1];
//  144 } zahdrout_t;
//  145 #endif
//  146 
//  147 /* ------------------------------------------------------------------------------------------------
//  148  *                                       Global Variables
//  149  * ------------------------------------------------------------------------------------------------
//  150  */
//  151 

        RSEG XDATA_Z:XDATA:NOROOT(0)
        DATA8
//  152 uint8 oad_app_taskId;
oad_app_taskId:
        DS 1
        REQUIRE __INIT_XDATA_Z
//  153 
//  154 /* ------------------------------------------------------------------------------------------------
//  155  *                                       Global Functions
//  156  * ------------------------------------------------------------------------------------------------
//  157  */
//  158 
//  159 #if defined ZPORT
//  160 #define HalOADChkDL(V)  1
//  161 #define HalOADInvRC(V)
//  162 #define HalOADAvail(V)  HAL_OAD_DL_SIZE
//  163 #define HalOADRead(A, B, C, D)
//  164 #define HalOADWrite(A, B, C, D)
//  165 #endif
//  166 
//  167 /* ------------------------------------------------------------------------------------------------
//  168  *                                       Local Variables
//  169  * ------------------------------------------------------------------------------------------------
//  170  */
//  171 

        RSEG XDATA_Z:XDATA:NOROOT(0)
        DATA8
//  172 static uint8 transId;
transId:
        DS 1
        REQUIRE __INIT_XDATA_Z

        RSEG XDATA_Z:XDATA:NOROOT(0)
        DATA8
//  173 static afAddrType_t dstAddr;
dstAddr:
        DS 12
        REQUIRE __INIT_XDATA_Z
//  174 

        RSEG XDATA_Z:XDATA:NOROOT(0)
        DATA16
//  175 static zlclientC_t *s_clientInfo;
s_clientInfo:
        DS 2
        REQUIRE __INIT_XDATA_Z

        RSEG XDATA_Z:XDATA:NOROOT(0)
        DATA8
//  176 static uint8 s_State, s_SessionID, s_blkSize;
s_State:
        DS 1
        REQUIRE __INIT_XDATA_Z

        RSEG XDATA_Z:XDATA:NOROOT(0)
        DATA8
s_SessionID:
        DS 1
        REQUIRE __INIT_XDATA_Z

        RSEG XDATA_Z:XDATA:NOROOT(0)
        DATA8
s_blkSize:
        DS 1
        REQUIRE __INIT_XDATA_Z

        RSEG XDATA_Z:XDATA:NOROOT(0)
        DATA16
//  177 static uint16 s_NextPacket, s_NumPktGet, s_SDCRetryCount;
s_NextPacket:
        DS 2
        REQUIRE __INIT_XDATA_Z

        RSEG XDATA_Z:XDATA:NOROOT(0)
        DATA16
s_NumPktGet:
        DS 2
        REQUIRE __INIT_XDATA_Z

        RSEG XDATA_Z:XDATA:NOROOT(0)
        DATA16
s_SDCRetryCount:
        DS 2
        REQUIRE __INIT_XDATA_Z

        RSEG XDATA_Z:XDATA:NOROOT(0)
        DATA16
//  178 static zlmhdr_t    *s_sdcmd;
s_sdcmd:
        DS 2
        REQUIRE __INIT_XDATA_Z

        RSEG XDATA_Z:XDATA:NOROOT(0)
        DATA16
//  179 static zlsdC_t     *s_sdcpayload;
s_sdcpayload:
        DS 2
        REQUIRE __INIT_XDATA_Z

        RSEG XDATA_Z:XDATA:NOROOT(0)
        DATA16
//  180 static zlmhdr_t    *s_sdreply;
s_sdreply:
        DS 2
        REQUIRE __INIT_XDATA_Z
//  181 #if !defined ZPORT
//  182 static zlsdR_t     *s_sdrpayload;
//  183 static image_t      s_itype;
//  184 static uint8       s_lastSeen, s_firstTx = 1;
//  185 #endif

        RSEG XDATA_Z:XDATA:NOROOT(0)
        DATA16
//  186 static void        (*s_pCallback)(uint16);
s_pCallback:
        DS 2
        REQUIRE __INIT_XDATA_Z

        RSEG XDATA_Z:XDATA:NOROOT(0)
        DATA16
//  187 static uint16      s_eventMask;
s_eventMask:
        DS 2
        REQUIRE __INIT_XDATA_Z

        RSEG XDATA_Z:XDATA:NOROOT(0)
        DATA8
//  188 static uint8       s_lastTxSeqNum;
s_lastTxSeqNum:
        DS 1
        REQUIRE __INIT_XDATA_Z
//  189 
//  190 #if defined ZPORT

        RSEG XDATA_Z:XDATA:NOROOT(0)
        DATA8
//  191 static uint8       s_serialMsg;
s_serialMsg:
        DS 1
        REQUIRE __INIT_XDATA_Z

        RSEG XDATA_Z:XDATA:NOROOT(0)
        DATA16
//  192 static uint16      s_lastSeqNum;
s_lastSeqNum:
        DS 2
        REQUIRE __INIT_XDATA_Z

        RSEG XDATA_I:XDATA:NOROOT(0)
//  193 static uint16      s_myNwkAddr = 0xFFFE;
s_myNwkAddr:
        DATA16
        DS 2
        REQUIRE `?<Initializer for s_myNwkAddr>`
        REQUIRE __INIT_XDATA_I
//  194 
//  195 // pass through stuff

        RSEG XDATA_Z:XDATA:NOROOT(0)
        DATA8
//  196 static uint8                  s_PTSeqNum;
s_PTSeqNum:
        DS 1
        REQUIRE __INIT_XDATA_Z

        RSEG XDATA_Z:XDATA:NOROOT(0)
        DATA8
//  197 static afIncomingMSGPacket_t  s_PTClientInfo;
s_PTClientInfo:
        DS 35
        REQUIRE __INIT_XDATA_Z
//  198 #else
//  199 
//  200 #pragma location="CRC_SHDW"
//  201 const CODE uint16 _crcShdw = 0xFFFF;
//  202 #pragma required=_crcShdw
//  203 
//  204 #pragma location="PREAMBLE"
//  205 const CODE preamble_t _preamble = {
//  206  {PREAMBLE_MAGIC1, PREAMBLE_MAGIC2},
//  207   HAL_OAD_DL_SIZE,
//  208   HAL_OAD_VERS,
//  209   HAL_OAD_MANU,
//  210   HAL_OAD_PROD
//  211 };
//  212 #pragma required=_preamble
//  213 #endif
//  214 
//  215 // This list should be filled with Application specific Cluster IDs.

        RSEG XDATA_ROM_C:CONST:REORDER:NOROOT(0)
        DATA32
//  216 static const cId_t OAD_ClusterList[OAD_CLUSTER_CNT] =
OAD_ClusterList:
        DATA16
        DW 1
        DW 0
//  217 {
//  218   OAD_CLUSTERID_CS
//  219   //,OAD_CLUSTERID_EM
//  220 };
//  221 

        RSEG XDATA_ROM_C:CONST:REORDER:NOROOT(0)
        DATA8
//  222 static const SimpleDescriptionFormat_t OAD_SimpleDesc =
OAD_SimpleDesc:
        DB 200
        DATA16
        DW 49155
        DW 1
        DATA8
        DB 0
        DB 2
        DATA16
        DW OAD_ClusterList
        DATA8
        DB 0
        DATA16
        DW 0H
//  223 {
//  224   OAD_ENDPOINT,
//  225   OAD_PROFILE_ID,
//  226   OAD_DEVICEID,
//  227   OAD_DEVICE_VERSION,
//  228   OAD_FLAGS,
//  229   OAD_CLUSTER_CNT,
//  230   (cId_t *)OAD_ClusterList,
//  231   0,
//  232   NULL
//  233 };
//  234 

        RSEG XDATA_ROM_C:CONST:REORDER:NOROOT(0)
        DATA8
//  235 static const endPointDesc_t OAD_epDesc=
OAD_epDesc:
        DB 200
        DATA16
        DW oad_app_taskId
        DW OAD_SimpleDesc
        DATA8
        DB 0
//  236 {
//  237   OAD_ENDPOINT,
//  238   &oad_app_taskId,
//  239   (SimpleDescriptionFormat_t *)&OAD_SimpleDesc,
//  240   noLatencyReqs,
//  241 };
//  242 
//  243 #if defined HAL_OAD_BL21
//  244 // this is the mailbox value that tells the boot code to flash the downloaded image
//  245 // even though the operational image may be sane.
//  246 #define MBOX_OAD_ENABLE      0x454E424C           // 'ENBL' enable downloaded code
//  247 PACK_1
//  248 typedef struct mbox_s {
//  249   volatile unsigned long BootRead;
//  250   volatile unsigned long AppRead;
//  251 } mboxMsg_t;
//  252 #pragma location="MBOXMSG_ADDR"
//  253 __no_init mboxMsg_t mboxMsg;
//  254 PACK_1
//  255 typedef struct  {
//  256      uint8      (*ReadFlash)(image_t, uint32 addr, uint8 *pBuf, uint16 len);
//  257      uint8      (*WriteFlash)(image_t, uint32 addr, uint8 *pBuf, uint16 len);
//  258      uint8      (*CheckCodeSanity)(image_t, uint32 addr1, uint32 addr2);
//  259      uint8      (*GetPreamble)(image_t, uint32 addr, preamble_t *pBuf);
//  260 } mbox_t;
//  261 #pragma location="MBOX_ADDR"
//  262 __no_init mbox_t mbox;
//  263 #endif
//  264 
//  265 /* ------------------------------------------------------------------------------------------------
//  266  *                                       Local Functions
//  267  * ------------------------------------------------------------------------------------------------
//  268  */
//  269 
//  270 static void procSysEvtMsg(void);
//  271 static void zlResetState(void);
//  272 
//  273 static void   ZLOADApp_MessageMSGCB( afIncomingMSGPacket_t * );
//  274 static void   ZLOADApp_handleCommand(afIncomingMSGPacket_t *, zlmhdr_t *);
//  275 static void   ZLOADApp_handleReply(afIncomingMSGPacket_t *, zlmhdr_t *);
//  276 
//  277 static void   zlCleanupOnReset(void);
//  278 static void   zlStartClientSession(void);
//  279 static void   zlProcessSDR(zlsdR_t *);
//  280 static void   zlRequestNextDataPacket(void);
//  281 static void   zlCleanupOnXferDone(void);
//  282 static void   zlResendSDC(void);
//  283 
//  284 #if defined ZPORT
//  285 static void   zlSendSerial(uint8 *, uint8);
//  286 static void   ZLOADApp_SerialMessageMSGCB(zahdrout_t *);
//  287 static void   zlZArchitectProxyMsg(zahdrout_t *);
//  288 
//  289 static uint8      zlPassOnStartSessionOK(uint8 *);
//  290 static zahdrin_t *zlBuildExternalInboundSerialMSG(afIncomingMSGPacket_t *, uint8 *, uint8);
//  291 static zahdrin_t *zlBuildInternalInboundSerialMSG(uint8 *, uint8);
//  292 static void zlHandleKeys(uint8 shift, uint8 keys);
//  293 #else
//  294 static uint8  zlSendCommand(uint8, uint8 *);
//  295 static void   zlProcessSDC(zlsdC_t *);
//  296 static uint8  zlIsReqPacketNumOK(uint16);
//  297 #if (HAL_OAD_XNV_IS_INT && ((HAL_OAD_DL_OSET % HAL_FLASH_PAGE_SIZE) != 0))
//  298 static Status_t zlEraseHalfPage(void);
//  299 #endif
//  300 #endif
//  301 
//  302 /**************************************************************************************************
//  303  * @fn          oadAppInit
//  304  *
//  305  * @brief       This function is called by OSAL system startup.
//  306  *
//  307  * input parameters
//  308  *
//  309  * @param       id - The Task ID assigned by OSAL.
//  310  *
//  311  * output parameters
//  312  *
//  313  * None.
//  314  *
//  315  * @return      None.
//  316  **************************************************************************************************
//  317  */

        RSEG BANKED_CODE:CODE:NOROOT(0)
//  318 void oadAppInit(uint8 id)
oadAppInit:
        CFI Block cfiBlock0 Using cfiCommon0
        CFI Function oadAppInit
        CODE
//  319 {
        FUNCALL oadAppInit, afRegister
        LOCFRAME ISTACK, 0, STACK
        LOCFRAME PSTACK, 0, STACK
        LOCFRAME XSTACK, 11, STACK
        LOCFRAME IOVERLAY, 0, STATIC
        LOCFRAME DOVERLAY, 0, STATIC
        ARGFRAME ISTACK, 0, STACK
        ARGFRAME PSTACK, 0, STACK
        ARGFRAME XSTACK, 11, STACK
        ARGFRAME IOVERLAY, 0, STATIC
        ARGFRAME DOVERLAY, 0, STATIC
        FUNCALL oadAppInit, osal_nv_item_init
        LOCFRAME ISTACK, 0, STACK
        LOCFRAME PSTACK, 0, STACK
        LOCFRAME XSTACK, 13, STACK
        LOCFRAME IOVERLAY, 0, STATIC
        LOCFRAME DOVERLAY, 0, STATIC
        ARGFRAME ISTACK, 0, STACK
        ARGFRAME PSTACK, 0, STACK
        ARGFRAME XSTACK, 13, STACK
        ARGFRAME IOVERLAY, 0, STATIC
        ARGFRAME DOVERLAY, 0, STATIC
        FUNCALL oadAppInit, RegisterForKeys
        LOCFRAME ISTACK, 0, STACK
        LOCFRAME PSTACK, 0, STACK
        LOCFRAME XSTACK, 11, STACK
        LOCFRAME IOVERLAY, 0, STATIC
        LOCFRAME DOVERLAY, 0, STATIC
        ARGFRAME ISTACK, 0, STACK
        ARGFRAME PSTACK, 0, STACK
        ARGFRAME XSTACK, 11, STACK
        ARGFRAME IOVERLAY, 0, STATIC
        ARGFRAME DOVERLAY, 0, STATIC
        MOV     A,#-0xa
        LCALL   ?BANKED_ENTER_XDATA
        CFI DPH0 load(1, XDATA, add(CFA_XSP16, literal(-1)))
        CFI DPL0 load(1, XDATA, add(CFA_XSP16, literal(-2)))
        CFI ?BRET_EXT load(1, XDATA, add(CFA_XSP16, literal(-3)))
        CFI ?RET_HIGH load(1, XDATA, add(CFA_XSP16, literal(-4)))
        CFI ?RET_LOW load(1, XDATA, add(CFA_XSP16, literal(-5)))
        CFI R7 load(1, XDATA, add(CFA_XSP16, literal(-6)))
        CFI V1 load(1, XDATA, add(CFA_XSP16, literal(-7)))
        CFI V0 load(1, XDATA, add(CFA_XSP16, literal(-8)))
        CFI VB load(1, XDATA, add(CFA_XSP16, literal(-9)))
        CFI R6 load(1, XDATA, add(CFA_XSP16, literal(-10)))
        CFI CFA_SP SP+0
        CFI CFA_XSP16 add(XSP16, 10)
        ; Saved register size: 10
        ; Auto size: 1
        MOV     A,#-0x1
        LCALL   ?ALLOC_XSTACK8
        CFI CFA_XSP16 add(XSP16, 11)
        MOV     A,R1
        MOV     DPL,?XSP + 0
        MOV     DPH,?XSP + 1
        MOVX    @DPTR,A
//  320   oad_app_taskId = id;
        MOV     DPTR,#oad_app_taskId
        MOVX    @DPTR,A
//  321   afRegister((endPointDesc_t *)&OAD_epDesc);
        ; Setup parameters for call to function afRegister
        MOV     R2,#OAD_epDesc & 0xff
        MOV     R3,#(OAD_epDesc >> 8) & 0xff
        LCALL   ??afRegister?relay
//  322   s_State = ZLSTATE_IDLE;
        MOV     DPTR,#s_State
        MOV     A,#0x1
        MOVX    @DPTR,A
//  323   id = PREAMBLE_OFFSET;
        MOV     DPL,?XSP + 0
        MOV     DPH,?XSP + 1
        MOV     A,#-0x74
        MOVX    @DPTR,A
//  324   osal_nv_item_init(PREAMBLE_NV_ID, 1, &id);
        ; Setup parameters for call to function osal_nv_item_init
        MOV     ?V0 + 0,DPL
        MOV     ?V0 + 1,DPH
        MOV     R0,#?V0 + 0
        LCALL   ?PUSH_XSTACK_I_TWO
        CFI CFA_XSP16 add(XSP16, 13)
        MOV     R4,#0x1
        MOV     R5,#0x0
        MOV     R2,#-0x1
        MOV     R3,#0xf
        LCALL   ??osal_nv_item_init?relay
        MOV     A,#0x2
        LCALL   ?DEALLOC_XSTACK8
        CFI CFA_XSP16 add(XSP16, 11)
//  325 #if defined HAL_OAD_BL21
//  326   mboxMsg.BootRead = 0;
//  327 #endif
//  328 #if defined ZPORT
//  329   // Register for all key events - This app will handle all key events
//  330   RegisterForKeys(oad_app_taskId);
        ; Setup parameters for call to function RegisterForKeys
        MOV     DPTR,#oad_app_taskId
        MOVX    A,@DPTR
        MOV     R1,A
        LCALL   ??RegisterForKeys?relay
//  331   mtxMode = TRUE;
        MOV     DPTR,#mtxMode
        MOV     A,#0x1
        MOVX    @DPTR,A
//  332 #endif
//  333 }
        LCALL   ?DEALLOC_XSTACK8
        CFI EndBlock cfiBlock0
        REQUIRE ?Subroutine0
        ; // Fall through to label ?Subroutine0

        RSEG BANKED_CODE:CODE:NOROOT(0)
?Subroutine0:
        CFI Block cfiBlock1 Using cfiCommon0
        CFI NoFunction
        CFI CFA_SP SP+0
        CFI CFA_XSP16 add(XSP16, 10)
        CFI VB load(1, XDATA, add(CFA_XSP16, literal(-9)))
        CFI DPL0 load(1, XDATA, add(CFA_XSP16, literal(-2)))
        CFI DPH0 load(1, XDATA, add(CFA_XSP16, literal(-1)))
        CFI R6 load(1, XDATA, add(CFA_XSP16, literal(-10)))
        CFI R7 load(1, XDATA, add(CFA_XSP16, literal(-6)))
        CFI V0 load(1, XDATA, add(CFA_XSP16, literal(-8)))
        CFI V1 load(1, XDATA, add(CFA_XSP16, literal(-7)))
        CFI ?BRET_EXT load(1, XDATA, add(CFA_XSP16, literal(-3)))
        CFI ?RET_HIGH load(1, XDATA, add(CFA_XSP16, literal(-4)))
        CFI ?RET_LOW load(1, XDATA, add(CFA_XSP16, literal(-5)))
        MOV     R7,#0x2
        LJMP    ?BANKED_LEAVE_XDATA
        CFI EndBlock cfiBlock1
//  334 
//  335 /**************************************************************************************************
//  336  * @fn          oadAppEvt
//  337  *
//  338  * @brief       This function is called to process the OSAL events for the task.
//  339  *
//  340  * input parameters
//  341  *
//  342  * @param       id - The Task ID assigned by OSAL.
//  343  * @param       evts - A bit mask representing the OSAL events that are pending for this task.
//  344  *
//  345  * output parameters
//  346  *
//  347  * None.
//  348  *
//  349  * @return      None.
//  350  **************************************************************************************************
//  351  */

        RSEG BANKED_CODE:CODE:NOROOT(0)
//  352 uint16 oadAppEvt(uint8 id, uint16 evts)
oadAppEvt:
        CFI Block cfiBlock2 Using cfiCommon0
        CFI Function oadAppEvt
        CODE
//  353 {
        FUNCALL oadAppEvt, procSysEvtMsg
        LOCFRAME ISTACK, 0, STACK
        LOCFRAME PSTACK, 0, STACK
        LOCFRAME XSTACK, 16, STACK
        LOCFRAME IOVERLAY, 0, STATIC
        LOCFRAME DOVERLAY, 0, STATIC
        ARGFRAME ISTACK, 0, STACK
        ARGFRAME PSTACK, 0, STACK
        ARGFRAME XSTACK, 16, STACK
        ARGFRAME IOVERLAY, 0, STATIC
        ARGFRAME DOVERLAY, 0, STATIC
        FUNCALL oadAppEvt, zlStartClientSession
        LOCFRAME ISTACK, 0, STACK
        LOCFRAME PSTACK, 0, STACK
        LOCFRAME XSTACK, 16, STACK
        LOCFRAME IOVERLAY, 0, STATIC
        LOCFRAME DOVERLAY, 0, STATIC
        ARGFRAME ISTACK, 0, STACK
        ARGFRAME PSTACK, 0, STACK
        ARGFRAME XSTACK, 16, STACK
        ARGFRAME IOVERLAY, 0, STATIC
        ARGFRAME DOVERLAY, 0, STATIC
        FUNCALL oadAppEvt, osal_mem_alloc
        LOCFRAME ISTACK, 0, STACK
        LOCFRAME PSTACK, 0, STACK
        LOCFRAME XSTACK, 16, STACK
        LOCFRAME IOVERLAY, 0, STATIC
        LOCFRAME DOVERLAY, 0, STATIC
        ARGFRAME ISTACK, 0, STACK
        ARGFRAME PSTACK, 0, STACK
        ARGFRAME XSTACK, 16, STACK
        ARGFRAME IOVERLAY, 0, STATIC
        ARGFRAME DOVERLAY, 0, STATIC
        FUNCALL oadAppEvt, zlBuildInternalInboundSerialMSG
        LOCFRAME ISTACK, 0, STACK
        LOCFRAME PSTACK, 0, STACK
        LOCFRAME XSTACK, 16, STACK
        LOCFRAME IOVERLAY, 0, STATIC
        LOCFRAME DOVERLAY, 0, STATIC
        ARGFRAME ISTACK, 0, STACK
        ARGFRAME PSTACK, 0, STACK
        ARGFRAME XSTACK, 16, STACK
        ARGFRAME IOVERLAY, 0, STATIC
        ARGFRAME DOVERLAY, 0, STATIC
        FUNCALL oadAppEvt, zlSendSerial
        LOCFRAME ISTACK, 0, STACK
        LOCFRAME PSTACK, 0, STACK
        LOCFRAME XSTACK, 16, STACK
        LOCFRAME IOVERLAY, 0, STATIC
        LOCFRAME DOVERLAY, 0, STATIC
        ARGFRAME ISTACK, 0, STACK
        ARGFRAME PSTACK, 0, STACK
        ARGFRAME XSTACK, 16, STACK
        ARGFRAME IOVERLAY, 0, STATIC
        ARGFRAME DOVERLAY, 0, STATIC
        FUNCALL oadAppEvt, osal_mem_free
        LOCFRAME ISTACK, 0, STACK
        LOCFRAME PSTACK, 0, STACK
        LOCFRAME XSTACK, 16, STACK
        LOCFRAME IOVERLAY, 0, STATIC
        LOCFRAME DOVERLAY, 0, STATIC
        ARGFRAME ISTACK, 0, STACK
        ARGFRAME PSTACK, 0, STACK
        ARGFRAME XSTACK, 16, STACK
        ARGFRAME IOVERLAY, 0, STATIC
        ARGFRAME DOVERLAY, 0, STATIC
        FUNCALL oadAppEvt, osal_mem_free
        LOCFRAME ISTACK, 0, STACK
        LOCFRAME PSTACK, 0, STACK
        LOCFRAME XSTACK, 16, STACK
        LOCFRAME IOVERLAY, 0, STATIC
        LOCFRAME DOVERLAY, 0, STATIC
        ARGFRAME ISTACK, 0, STACK
        ARGFRAME PSTACK, 0, STACK
        ARGFRAME XSTACK, 16, STACK
        ARGFRAME IOVERLAY, 0, STATIC
        ARGFRAME DOVERLAY, 0, STATIC
        FUNCALL oadAppEvt, zlResetState
        LOCFRAME ISTACK, 0, STACK
        LOCFRAME PSTACK, 0, STACK
        LOCFRAME XSTACK, 16, STACK
        LOCFRAME IOVERLAY, 0, STATIC
        LOCFRAME DOVERLAY, 0, STATIC
        ARGFRAME ISTACK, 0, STACK
        ARGFRAME PSTACK, 0, STACK
        ARGFRAME XSTACK, 16, STACK
        ARGFRAME IOVERLAY, 0, STATIC
        ARGFRAME DOVERLAY, 0, STATIC
        FUNCALL oadAppEvt, zlResetState
        LOCFRAME ISTACK, 0, STACK
        LOCFRAME PSTACK, 0, STACK
        LOCFRAME XSTACK, 16, STACK
        LOCFRAME IOVERLAY, 0, STATIC
        LOCFRAME DOVERLAY, 0, STATIC
        ARGFRAME ISTACK, 0, STACK
        ARGFRAME PSTACK, 0, STACK
        ARGFRAME XSTACK, 16, STACK
        ARGFRAME IOVERLAY, 0, STATIC
        ARGFRAME DOVERLAY, 0, STATIC
        FUNCALL oadAppEvt, zlBuildInternalInboundSerialMSG
        LOCFRAME ISTACK, 0, STACK
        LOCFRAME PSTACK, 0, STACK
        LOCFRAME XSTACK, 16, STACK
        LOCFRAME IOVERLAY, 0, STATIC
        LOCFRAME DOVERLAY, 0, STATIC
        ARGFRAME ISTACK, 0, STACK
        ARGFRAME PSTACK, 0, STACK
        ARGFRAME XSTACK, 16, STACK
        ARGFRAME IOVERLAY, 0, STATIC
        ARGFRAME DOVERLAY, 0, STATIC
        FUNCALL oadAppEvt, zlSendSerial
        LOCFRAME ISTACK, 0, STACK
        LOCFRAME PSTACK, 0, STACK
        LOCFRAME XSTACK, 16, STACK
        LOCFRAME IOVERLAY, 0, STATIC
        LOCFRAME DOVERLAY, 0, STATIC
        ARGFRAME ISTACK, 0, STACK
        ARGFRAME PSTACK, 0, STACK
        ARGFRAME XSTACK, 16, STACK
        ARGFRAME IOVERLAY, 0, STATIC
        ARGFRAME DOVERLAY, 0, STATIC
        FUNCALL oadAppEvt, osal_mem_free
        LOCFRAME ISTACK, 0, STACK
        LOCFRAME PSTACK, 0, STACK
        LOCFRAME XSTACK, 16, STACK
        LOCFRAME IOVERLAY, 0, STATIC
        LOCFRAME DOVERLAY, 0, STATIC
        ARGFRAME ISTACK, 0, STACK
        ARGFRAME PSTACK, 0, STACK
        ARGFRAME XSTACK, 16, STACK
        ARGFRAME IOVERLAY, 0, STATIC
        ARGFRAME DOVERLAY, 0, STATIC
        FUNCALL oadAppEvt, osal_start_timerEx
        LOCFRAME ISTACK, 0, STACK
        LOCFRAME PSTACK, 0, STACK
        LOCFRAME XSTACK, 16, STACK
        LOCFRAME IOVERLAY, 0, STATIC
        LOCFRAME DOVERLAY, 0, STATIC
        ARGFRAME ISTACK, 0, STACK
        ARGFRAME PSTACK, 0, STACK
        ARGFRAME XSTACK, 16, STACK
        ARGFRAME IOVERLAY, 0, STATIC
        ARGFRAME DOVERLAY, 0, STATIC
        FUNCALL oadAppEvt, osal_set_event
        LOCFRAME ISTACK, 0, STACK
        LOCFRAME PSTACK, 0, STACK
        LOCFRAME XSTACK, 16, STACK
        LOCFRAME IOVERLAY, 0, STATIC
        LOCFRAME DOVERLAY, 0, STATIC
        ARGFRAME ISTACK, 0, STACK
        ARGFRAME PSTACK, 0, STACK
        ARGFRAME XSTACK, 16, STACK
        ARGFRAME IOVERLAY, 0, STATIC
        ARGFRAME DOVERLAY, 0, STATIC
        FUNCALL oadAppEvt, osal_set_event
        LOCFRAME ISTACK, 0, STACK
        LOCFRAME PSTACK, 0, STACK
        LOCFRAME XSTACK, 16, STACK
        LOCFRAME IOVERLAY, 0, STATIC
        LOCFRAME DOVERLAY, 0, STATIC
        ARGFRAME ISTACK, 0, STACK
        ARGFRAME PSTACK, 0, STACK
        ARGFRAME XSTACK, 16, STACK
        ARGFRAME IOVERLAY, 0, STATIC
        ARGFRAME DOVERLAY, 0, STATIC
        MOV     A,#-0x10
        LCALL   ?BANKED_ENTER_XDATA
        CFI DPH0 load(1, XDATA, add(CFA_XSP16, literal(-1)))
        CFI DPL0 load(1, XDATA, add(CFA_XSP16, literal(-2)))
        CFI ?BRET_EXT load(1, XDATA, add(CFA_XSP16, literal(-3)))
        CFI ?RET_HIGH load(1, XDATA, add(CFA_XSP16, literal(-4)))
        CFI ?RET_LOW load(1, XDATA, add(CFA_XSP16, literal(-5)))
        CFI R7 load(1, XDATA, add(CFA_XSP16, literal(-6)))
        CFI V7 load(1, XDATA, add(CFA_XSP16, literal(-7)))
        CFI V6 load(1, XDATA, add(CFA_XSP16, literal(-8)))
        CFI V5 load(1, XDATA, add(CFA_XSP16, literal(-9)))
        CFI V4 load(1, XDATA, add(CFA_XSP16, literal(-10)))
        CFI V3 load(1, XDATA, add(CFA_XSP16, literal(-11)))
        CFI V2 load(1, XDATA, add(CFA_XSP16, literal(-12)))
        CFI V1 load(1, XDATA, add(CFA_XSP16, literal(-13)))
        CFI V0 load(1, XDATA, add(CFA_XSP16, literal(-14)))
        CFI VB load(1, XDATA, add(CFA_XSP16, literal(-15)))
        CFI R6 load(1, XDATA, add(CFA_XSP16, literal(-16)))
        CFI CFA_SP SP+0
        CFI CFA_XSP16 add(XSP16, 16)
        ; Saved register size: 16
        ; Auto size: 0
        MOV     A,R2
        MOV     R6,A
        MOV     A,R3
        MOV     R7,A
//  354   uint16 mask = 0;
//  355   (void)id;
//  356   
//  357   if (evts & SYS_EVENT_MSG)
        ANL     A,#0x80
        JZ      ??oadAppEvt_0
//  358   {
//  359     mask = SYS_EVENT_MSG;
        MOV     ?V0 + 0,#0x0
        MOV     ?V0 + 1,#-0x80
//  360     procSysEvtMsg();
        ; Setup parameters for call to function procSysEvtMsg
        LCALL   ??procSysEvtMsg?relay
        LJMP    ??oadAppEvt_1 & 0xFFFF
//  361   }
//  362   else if (evts & ZLOAD_CODE_ENABLE_EVT)
??oadAppEvt_0:
        MOV     A,R6
        MOV     C,0xE0 /* A   */.0
        JNC     ??oadAppEvt_2
//  363   {
//  364     // let the user shut down the environment if requested
//  365     DO_EVENT_CALLBACK(ZLCB_EVENT_CODE_ENABLE_RESET);
        LCALL   ?Subroutine11 & 0xFFFF
??CrossCallReturnLabel_64:
        JZ      ??oadAppEvt_3
        MOV     DPTR,#s_eventMask
        MOVX    A,@DPTR
        ANL     A,#0x10
        JZ      ??oadAppEvt_3
        ; Setup parameters for indirect call
        MOV     R2,#0x10
        MOV     R3,#0x0
        MOV     DPTR,#s_pCallback + 1
        MOVX    A,@DPTR
        MOV     DPH,A
        MOV     DPL,R0
        LCALL   ?CALL_IND
//  366 
//  367 #if defined HAL_OAD_BL21
//  368     // Set up mail box to tell the pre-2.2 boot code to flash the downloaded image.
//  369     mboxMsg.BootRead = MBOX_OAD_ENABLE;
//  370 #else
//  371     HalOADInvRC();
//  372 #endif
//  373     SystemReset();
??oadAppEvt_3:
        CLR     0xa8.7
        MOV     0xc9,#-0x55
        MOV     0xc9,#0x5b
??oadAppEvt_4:
        SJMP    ??oadAppEvt_4
//  374   }
//  375   else if (evts & ZLOAD_IS_CLIENT_EVT)
??oadAppEvt_2:
        ANL     A,#0x2
        JZ      ??oadAppEvt_5
//  376   {
//  377     mask = ZLOAD_IS_CLIENT_EVT;
        MOV     ?V0 + 0,#0x2
        MOV     ?V0 + 1,#0x0
//  378     zlStartClientSession();
        ; Setup parameters for call to function zlStartClientSession
        LCALL   ??zlStartClientSession?relay
        LJMP    ??oadAppEvt_1 & 0xFFFF
//  379   }
//  380   else if (evts & ZLOAD_XFER_DONE_EVT)
??oadAppEvt_5:
        MOV     A,R6
        ANL     A,#0x4
        JZ      ??oadAppEvt_6
//  381   {
//  382     mask = ZLOAD_XFER_DONE_EVT;
        MOV     ?V0 + 0,#0x4
        MOV     ?V0 + 1,#0x0
//  383     zlCleanupOnXferDone();
        MOV     DPTR,#s_State
        MOVX    A,@DPTR
        XRL     A,#0x4
        JNZ     ??oadAppEvt_7
        MOV     A,#0x1
        MOVX    @DPTR,A
        LJMP    ??oadAppEvt_1 & 0xFFFF
??oadAppEvt_7:
        MOVX    A,@DPTR
        XRL     A,#0x2
        JNZ     ??oadAppEvt_8
        ; Setup parameters for call to function osal_mem_alloc
        MOV     R2,#0x4
        MOV     R3,#0x0
        LCALL   ??osal_mem_alloc?relay
        MOV     ?V0 + 2,R2
        MOV     ?V0 + 3,R3
        MOV     A,R2
        ORL     A,?V0 + 3
        JZ      ??oadAppEvt_8
        MOV     DPL,R2
        MOV     DPH,R3
        MOV     A,#0x3
        MOVX    @DPTR,A
        INC     DPTR
        INC     DPTR
        MOV     A,#0x1
        MOVX    @DPTR,A
        MOV     DPTR,#s_SessionID
        LCALL   ?Subroutine18 & 0xFFFF
//  384   }
??CrossCallReturnLabel_22:
        INC     DPTR
        INC     DPTR
        MOVX    @DPTR,A
        MOV     DPTR,#s_lastTxSeqNum
        MOVX    A,@DPTR
        INC     A
        MOVX    @DPTR,A
        MOV     DPL,R2
        MOV     DPH,R3
        INC     DPTR
        MOVX    @DPTR,A
        ; Setup parameters for call to function zlBuildInternalInboundSerialMSG
        MOV     R1,#0x4
        LCALL   ??zlBuildInternalInboundSerialMSG?relay
        MOV     ?V0 + 4,R2
        MOV     ?V0 + 5,R3
        MOV     A,R2
        ORL     A,?V0 + 5
        JZ      ??oadAppEvt_9
        ; Setup parameters for call to function zlSendSerial
        MOV     R1,#0xa
        LCALL   ??zlSendSerial?relay
        ; Setup parameters for call to function osal_mem_free
        MOV     R2,?V0 + 4
        MOV     R3,?V0 + 5
        LCALL   ??osal_mem_free?relay
??oadAppEvt_9:
        ; Setup parameters for call to function osal_mem_free
        MOV     R2,?V0 + 2
        MOV     R3,?V0 + 3
        LCALL   ??osal_mem_free?relay
??oadAppEvt_8:
        ; Setup parameters for call to function zlResetState
        LCALL   ??zlResetState?relay
        SJMP    ??oadAppEvt_1
//  385   else if (evts & ZLOAD_RESET_EVT)
??oadAppEvt_6:
        MOV     A,R6
        ANL     A,#0x8
        JZ      ??oadAppEvt_10
//  386   {
//  387     mask = ZLOAD_RESET_EVT;
        MOV     ?V0 + 0,#0x8
        MOV     ?V0 + 1,#0x0
//  388     zlCleanupOnReset();
        ; Setup parameters for call to function zlResetState
        SJMP    ??oadAppEvt_8
//  389   }
//  390   else if (evts & ZLOAD_SDRTIMER_EVT)
??oadAppEvt_10:
        MOV     A,R6
        ANL     A,#0x10
        JZ      ??oadAppEvt_11
//  391   {
//  392     mask = ZLOAD_SDRTIMER_EVT;
        MOV     ?V0 + 0,#0x10
        MOV     ?V0 + 1,#0x0
//  393     zlResendSDC();
        MOV     DPTR,#s_State
        MOVX    A,@DPTR
        XRL     A,#0x2
        JNZ     ??oadAppEvt_1
        MOV     DPTR,#s_SDCRetryCount
        MOVX    A,@DPTR
        ADD     A,#-0x1
        MOVX    @DPTR,A
        MOV     R0,A
        INC     DPTR
        MOVX    A,@DPTR
        ADDC    A,#-0x1
        MOVX    @DPTR,A
        MOV     R1,A
        MOV     A,R0
        ORL     A,R1
        JZ      ??oadAppEvt_12
        LCALL   ?Subroutine5 & 0xFFFF
//  394   }
??CrossCallReturnLabel_7:
        PUSH    A
        CFI CFA_SP SP+-1
        LCALL   ?Subroutine14 & 0xFFFF
??CrossCallReturnLabel_55:
        POP     A
        CFI CFA_SP SP+0
        LCALL   ?Subroutine2 & 0xFFFF
??CrossCallReturnLabel_1:
        MOV     ?V0 + 2,R2
        MOV     ?V0 + 3,R3
        MOV     A,R2
        ORL     A,?V0 + 3
        JZ      ??oadAppEvt_13
        ; Setup parameters for call to function zlSendSerial
        MOV     R1,#0xc
        LCALL   ??zlSendSerial?relay
        ; Setup parameters for call to function osal_mem_free
        MOV     R2,?V0 + 2
        MOV     R3,?V0 + 3
        LCALL   ??osal_mem_free?relay
??oadAppEvt_13:
        ; Setup parameters for call to function osal_start_timerEx
        LCALL   ?Subroutine17 & 0xFFFF
??CrossCallReturnLabel_53:
        JZ      ??oadAppEvt_1
        ; Setup parameters for call to function osal_set_event
        MOV     R2,#0x10
??oadAppEvt_14:
        LCALL   ??Subroutine38_0 & 0xFFFF
??CrossCallReturnLabel_76:
        SJMP    ??oadAppEvt_1
??oadAppEvt_12:
        ; Setup parameters for call to function osal_set_event
        MOV     R2,#0x4
        SJMP    ??oadAppEvt_14
//  395   else if (evts & ZLOAD_RESET_BOARD_EVT)
??oadAppEvt_11:
        MOV     A,R6
        ANL     A,#0x20
        JZ      ??oadAppEvt_15
//  396   {
//  397     SystemReset();
        CLR     0xa8.7
        MOV     0xc9,#-0x55
        MOV     0xc9,#0x5b
??oadAppEvt_16:
        SJMP    ??oadAppEvt_16
//  398   }
//  399   else
//  400   {
//  401     mask = evts;  // Discard unknown events - should never happen.
??oadAppEvt_15:
        MOV     ?V0 + 0,R6
        MOV     ?V0 + 1,R7
//  402   }
//  403 
//  404   return (evts ^ mask);  // Return unprocessed events.
??oadAppEvt_1:
        MOV     A,R6
        XRL     A,?V0 + 0
        MOV     R2,A
        MOV     A,R7
        XRL     A,?V0 + 1
        MOV     R3,A
        CFI EndBlock cfiBlock2
        REQUIRE ?Subroutine1
        REQUIRE _A_IEN0
        REQUIRE WDCTL
        ; // Fall through to label ?Subroutine1
//  405 }

        RSEG BANKED_CODE:CODE:NOROOT(0)
?Subroutine1:
        CFI Block cfiBlock3 Using cfiCommon0
        CFI NoFunction
        CFI CFA_SP SP+0
        CFI CFA_XSP16 add(XSP16, 16)
        CFI VB load(1, XDATA, add(CFA_XSP16, literal(-15)))
        CFI DPL0 load(1, XDATA, add(CFA_XSP16, literal(-2)))
        CFI DPH0 load(1, XDATA, add(CFA_XSP16, literal(-1)))
        CFI R6 load(1, XDATA, add(CFA_XSP16, literal(-16)))
        CFI R7 load(1, XDATA, add(CFA_XSP16, literal(-6)))
        CFI V0 load(1, XDATA, add(CFA_XSP16, literal(-14)))
        CFI V1 load(1, XDATA, add(CFA_XSP16, literal(-13)))
        CFI V2 load(1, XDATA, add(CFA_XSP16, literal(-12)))
        CFI V3 load(1, XDATA, add(CFA_XSP16, literal(-11)))
        CFI V4 load(1, XDATA, add(CFA_XSP16, literal(-10)))
        CFI V5 load(1, XDATA, add(CFA_XSP16, literal(-9)))
        CFI V6 load(1, XDATA, add(CFA_XSP16, literal(-8)))
        CFI V7 load(1, XDATA, add(CFA_XSP16, literal(-7)))
        CFI ?BRET_EXT load(1, XDATA, add(CFA_XSP16, literal(-3)))
        CFI ?RET_HIGH load(1, XDATA, add(CFA_XSP16, literal(-4)))
        CFI ?RET_LOW load(1, XDATA, add(CFA_XSP16, literal(-5)))
        MOV     R7,#0x8
        LJMP    ?BANKED_LEAVE_XDATA
        CFI EndBlock cfiBlock3

        RSEG BANKED_CODE:CODE:NOROOT(0)
?Subroutine17:
        CFI Block cfiCond4 Using cfiCommon0
        CFI NoFunction
        CFI Conditional ??CrossCallReturnLabel_53
        CFI R6 load(1, XDATA, add(CFA_XSP16, literal(-16)))
        CFI VB load(1, XDATA, add(CFA_XSP16, literal(-15)))
        CFI V0 load(1, XDATA, add(CFA_XSP16, literal(-14)))
        CFI V1 load(1, XDATA, add(CFA_XSP16, literal(-13)))
        CFI V2 load(1, XDATA, add(CFA_XSP16, literal(-12)))
        CFI V3 load(1, XDATA, add(CFA_XSP16, literal(-11)))
        CFI V4 load(1, XDATA, add(CFA_XSP16, literal(-10)))
        CFI V5 load(1, XDATA, add(CFA_XSP16, literal(-9)))
        CFI V6 load(1, XDATA, add(CFA_XSP16, literal(-8)))
        CFI V7 load(1, XDATA, add(CFA_XSP16, literal(-7)))
        CFI R7 load(1, XDATA, add(CFA_XSP16, literal(-6)))
        CFI ?RET_LOW load(1, XDATA, add(CFA_XSP16, literal(-5)))
        CFI ?RET_HIGH load(1, XDATA, add(CFA_XSP16, literal(-4)))
        CFI ?BRET_EXT load(1, XDATA, add(CFA_XSP16, literal(-3)))
        CFI DPL0 load(1, XDATA, add(CFA_XSP16, literal(-2)))
        CFI DPH0 load(1, XDATA, add(CFA_XSP16, literal(-1)))
        CFI CFA_SP SP+0
        CFI CFA_XSP16 add(XSP16, 16)
        CFI Block cfiCond5 Using cfiCommon0
        CFI (cfiCond5) NoFunction
        CFI (cfiCond5) Conditional ??CrossCallReturnLabel_51
        CFI (cfiCond5) R6 load(1, XDATA, add(CFA_XSP16, literal(-10)))
        CFI (cfiCond5) VB load(1, XDATA, add(CFA_XSP16, literal(-9)))
        CFI (cfiCond5) V0 load(1, XDATA, add(CFA_XSP16, literal(-8)))
        CFI (cfiCond5) V1 load(1, XDATA, add(CFA_XSP16, literal(-7)))
        CFI (cfiCond5) R7 load(1, XDATA, add(CFA_XSP16, literal(-6)))
        CFI (cfiCond5) ?RET_LOW load(1, XDATA, add(CFA_XSP16, literal(-5)))
        CFI (cfiCond5) ?RET_HIGH load(1, XDATA, add(CFA_XSP16, literal(-4)))
        CFI (cfiCond5) ?BRET_EXT load(1, XDATA, add(CFA_XSP16, literal(-3)))
        CFI (cfiCond5) DPL0 load(1, XDATA, add(CFA_XSP16, literal(-2)))
        CFI (cfiCond5) DPH0 load(1, XDATA, add(CFA_XSP16, literal(-1)))
        CFI (cfiCond5) CFA_SP SP+0
        CFI (cfiCond5) CFA_XSP16 add(XSP16, 10)
        CFI Block cfiPicker6 Using cfiCommon1
        CFI (cfiPicker6) NoFunction
        CFI (cfiPicker6) Picker
        MOV     R4,#-0x18
        MOV     R5,#0x3
        MOV     R2,#0x10
        CFI EndBlock cfiCond4
        CFI EndBlock cfiCond5
        CFI EndBlock cfiPicker6
        REQUIRE ??Subroutine34_0
        ; // Fall through to label ??Subroutine34_0

        RSEG BANKED_CODE:CODE:NOROOT(0)
??Subroutine34_0:
        CFI Block cfiCond7 Using cfiCommon0
        CFI NoFunction
        CFI Conditional ??CrossCallReturnLabel_52
        CFI R6 load(1, XDATA, add(CFA_XSP16, literal(-24)))
        CFI VB load(1, XDATA, add(CFA_XSP16, literal(-23)))
        CFI V0 load(1, XDATA, add(CFA_XSP16, literal(-22)))
        CFI V1 load(1, XDATA, add(CFA_XSP16, literal(-21)))
        CFI V2 load(1, XDATA, add(CFA_XSP16, literal(-20)))
        CFI V3 load(1, XDATA, add(CFA_XSP16, literal(-19)))
        CFI V4 load(1, XDATA, add(CFA_XSP16, literal(-18)))
        CFI V5 load(1, XDATA, add(CFA_XSP16, literal(-17)))
        CFI V6 load(1, XDATA, add(CFA_XSP16, literal(-16)))
        CFI V7 load(1, XDATA, add(CFA_XSP16, literal(-15)))
        CFI V8 load(1, XDATA, add(CFA_XSP16, literal(-14)))
        CFI V9 load(1, XDATA, add(CFA_XSP16, literal(-13)))
        CFI V10 load(1, XDATA, add(CFA_XSP16, literal(-12)))
        CFI V11 load(1, XDATA, add(CFA_XSP16, literal(-11)))
        CFI V12 load(1, XDATA, add(CFA_XSP16, literal(-10)))
        CFI V13 load(1, XDATA, add(CFA_XSP16, literal(-9)))
        CFI V14 load(1, XDATA, add(CFA_XSP16, literal(-8)))
        CFI V15 load(1, XDATA, add(CFA_XSP16, literal(-7)))
        CFI R7 load(1, XDATA, add(CFA_XSP16, literal(-6)))
        CFI ?RET_LOW load(1, XDATA, add(CFA_XSP16, literal(-5)))
        CFI ?RET_HIGH load(1, XDATA, add(CFA_XSP16, literal(-4)))
        CFI ?BRET_EXT load(1, XDATA, add(CFA_XSP16, literal(-3)))
        CFI DPL0 load(1, XDATA, add(CFA_XSP16, literal(-2)))
        CFI DPH0 load(1, XDATA, add(CFA_XSP16, literal(-1)))
        CFI CFA_SP SP+0
        CFI CFA_XSP16 add(XSP16, 37)
        CFI Block cfiCond8 Using cfiCommon0
        CFI (cfiCond8) NoFunction
        CFI (cfiCond8) Conditional ??CrossCallReturnLabel_53
        CFI (cfiCond8) R6 load(1, XDATA, add(CFA_XSP16, literal(-16)))
        CFI (cfiCond8) VB load(1, XDATA, add(CFA_XSP16, literal(-15)))
        CFI (cfiCond8) V0 load(1, XDATA, add(CFA_XSP16, literal(-14)))
        CFI (cfiCond8) V1 load(1, XDATA, add(CFA_XSP16, literal(-13)))
        CFI (cfiCond8) V2 load(1, XDATA, add(CFA_XSP16, literal(-12)))
        CFI (cfiCond8) V3 load(1, XDATA, add(CFA_XSP16, literal(-11)))
        CFI (cfiCond8) V4 load(1, XDATA, add(CFA_XSP16, literal(-10)))
        CFI (cfiCond8) V5 load(1, XDATA, add(CFA_XSP16, literal(-9)))
        CFI (cfiCond8) V6 load(1, XDATA, add(CFA_XSP16, literal(-8)))
        CFI (cfiCond8) V7 load(1, XDATA, add(CFA_XSP16, literal(-7)))
        CFI (cfiCond8) R7 load(1, XDATA, add(CFA_XSP16, literal(-6)))
        CFI (cfiCond8) ?RET_LOW load(1, XDATA, add(CFA_XSP16, literal(-5)))
        CFI (cfiCond8) ?RET_HIGH load(1, XDATA, add(CFA_XSP16, literal(-4)))
        CFI (cfiCond8) ?BRET_EXT load(1, XDATA, add(CFA_XSP16, literal(-3)))
        CFI (cfiCond8) DPL0 load(1, XDATA, add(CFA_XSP16, literal(-2)))
        CFI (cfiCond8) DPH0 load(1, XDATA, add(CFA_XSP16, literal(-1)))
        CFI (cfiCond8) CFA_SP SP+0
        CFI (cfiCond8) CFA_XSP16 add(XSP16, 16)
        CFI Block cfiCond9 Using cfiCommon0
        CFI (cfiCond9) NoFunction
        CFI (cfiCond9) Conditional ??CrossCallReturnLabel_51
        CFI (cfiCond9) R6 load(1, XDATA, add(CFA_XSP16, literal(-10)))
        CFI (cfiCond9) VB load(1, XDATA, add(CFA_XSP16, literal(-9)))
        CFI (cfiCond9) V0 load(1, XDATA, add(CFA_XSP16, literal(-8)))
        CFI (cfiCond9) V1 load(1, XDATA, add(CFA_XSP16, literal(-7)))
        CFI (cfiCond9) R7 load(1, XDATA, add(CFA_XSP16, literal(-6)))
        CFI (cfiCond9) ?RET_LOW load(1, XDATA, add(CFA_XSP16, literal(-5)))
        CFI (cfiCond9) ?RET_HIGH load(1, XDATA, add(CFA_XSP16, literal(-4)))
        CFI (cfiCond9) ?BRET_EXT load(1, XDATA, add(CFA_XSP16, literal(-3)))
        CFI (cfiCond9) DPL0 load(1, XDATA, add(CFA_XSP16, literal(-2)))
        CFI (cfiCond9) DPH0 load(1, XDATA, add(CFA_XSP16, literal(-1)))
        CFI (cfiCond9) CFA_SP SP+0
        CFI (cfiCond9) CFA_XSP16 add(XSP16, 10)
        CFI Block cfiPicker10 Using cfiCommon1
        CFI (cfiPicker10) NoFunction
        CFI (cfiPicker10) Picker
        MOV     R3,#0x0
        MOV     DPTR,#oad_app_taskId
        MOVX    A,@DPTR
        MOV     R1,A
        LCALL   ??osal_start_timerEx?relay
        MOV     A,R1
        RET
        CFI EndBlock cfiCond7
        CFI EndBlock cfiCond8
        CFI EndBlock cfiCond9
        CFI EndBlock cfiPicker10

        RSEG BANKED_CODE:CODE:NOROOT(0)
?Subroutine14:
        CFI Block cfiCond11 Using cfiCommon0
        CFI NoFunction
        CFI Conditional ??CrossCallReturnLabel_55
        CFI R6 load(1, XDATA, add(CFA_XSP16, literal(-16)))
        CFI VB load(1, XDATA, add(CFA_XSP16, literal(-15)))
        CFI V0 load(1, XDATA, add(CFA_XSP16, literal(-14)))
        CFI V1 load(1, XDATA, add(CFA_XSP16, literal(-13)))
        CFI V2 load(1, XDATA, add(CFA_XSP16, literal(-12)))
        CFI V3 load(1, XDATA, add(CFA_XSP16, literal(-11)))
        CFI V4 load(1, XDATA, add(CFA_XSP16, literal(-10)))
        CFI V5 load(1, XDATA, add(CFA_XSP16, literal(-9)))
        CFI V6 load(1, XDATA, add(CFA_XSP16, literal(-8)))
        CFI V7 load(1, XDATA, add(CFA_XSP16, literal(-7)))
        CFI R7 load(1, XDATA, add(CFA_XSP16, literal(-6)))
        CFI ?RET_LOW load(1, XDATA, add(CFA_XSP16, literal(-5)))
        CFI ?RET_HIGH load(1, XDATA, add(CFA_XSP16, literal(-4)))
        CFI ?BRET_EXT load(1, XDATA, add(CFA_XSP16, literal(-3)))
        CFI DPL0 load(1, XDATA, add(CFA_XSP16, literal(-2)))
        CFI DPH0 load(1, XDATA, add(CFA_XSP16, literal(-1)))
        CFI CFA_SP SP+-1
        CFI CFA_XSP16 add(XSP16, 16)
        CFI Block cfiCond12 Using cfiCommon0
        CFI (cfiCond12) NoFunction
        CFI (cfiCond12) Conditional ??CrossCallReturnLabel_56
        CFI (cfiCond12) R6 load(1, XDATA, add(CFA_XSP16, literal(-10)))
        CFI (cfiCond12) VB load(1, XDATA, add(CFA_XSP16, literal(-9)))
        CFI (cfiCond12) V0 load(1, XDATA, add(CFA_XSP16, literal(-8)))
        CFI (cfiCond12) V1 load(1, XDATA, add(CFA_XSP16, literal(-7)))
        CFI (cfiCond12) R7 load(1, XDATA, add(CFA_XSP16, literal(-6)))
        CFI (cfiCond12) ?RET_LOW load(1, XDATA, add(CFA_XSP16, literal(-5)))
        CFI (cfiCond12) ?RET_HIGH load(1, XDATA, add(CFA_XSP16, literal(-4)))
        CFI (cfiCond12) ?BRET_EXT load(1, XDATA, add(CFA_XSP16, literal(-3)))
        CFI (cfiCond12) DPL0 load(1, XDATA, add(CFA_XSP16, literal(-2)))
        CFI (cfiCond12) DPH0 load(1, XDATA, add(CFA_XSP16, literal(-1)))
        CFI (cfiCond12) CFA_SP SP+-1
        CFI (cfiCond12) CFA_XSP16 add(XSP16, 10)
        CFI Block cfiPicker13 Using cfiCommon1
        CFI (cfiPicker13) NoFunction
        CFI (cfiPicker13) Picker
        MOV     DPTR,#s_sdcmd
        CFI EndBlock cfiCond11
        CFI EndBlock cfiCond12
        CFI EndBlock cfiPicker13
        REQUIRE ??Subroutine35_0
        ; // Fall through to label ??Subroutine35_0

        RSEG BANKED_CODE:CODE:NOROOT(0)
??Subroutine35_0:
        CFI Block cfiCond14 Using cfiCommon0
        CFI NoFunction
        CFI Conditional ??CrossCallReturnLabel_54
        CFI R6 load(1, XDATA, add(CFA_XSP16, literal(-15)))
        CFI VB load(1, XDATA, add(CFA_XSP16, literal(-14)))
        CFI V0 load(1, XDATA, add(CFA_XSP16, literal(-13)))
        CFI V1 load(1, XDATA, add(CFA_XSP16, literal(-12)))
        CFI V2 load(1, XDATA, add(CFA_XSP16, literal(-11)))
        CFI V3 load(1, XDATA, add(CFA_XSP16, literal(-10)))
        CFI V4 load(1, XDATA, add(CFA_XSP16, literal(-9)))
        CFI V5 load(1, XDATA, add(CFA_XSP16, literal(-8)))
        CFI V6 load(1, XDATA, add(CFA_XSP16, literal(-7)))
        CFI R7 load(1, XDATA, add(CFA_XSP16, literal(-6)))
        CFI ?RET_LOW load(1, XDATA, add(CFA_XSP16, literal(-5)))
        CFI ?RET_HIGH load(1, XDATA, add(CFA_XSP16, literal(-4)))
        CFI ?BRET_EXT load(1, XDATA, add(CFA_XSP16, literal(-3)))
        CFI DPL0 load(1, XDATA, add(CFA_XSP16, literal(-2)))
        CFI DPH0 load(1, XDATA, add(CFA_XSP16, literal(-1)))
        CFI CFA_SP SP+-1
        CFI CFA_XSP16 add(XSP16, 23)
        CFI Block cfiCond15 Using cfiCommon0
        CFI (cfiCond15) NoFunction
        CFI (cfiCond15) Conditional ??CrossCallReturnLabel_55
        CFI (cfiCond15) R6 load(1, XDATA, add(CFA_XSP16, literal(-16)))
        CFI (cfiCond15) VB load(1, XDATA, add(CFA_XSP16, literal(-15)))
        CFI (cfiCond15) V0 load(1, XDATA, add(CFA_XSP16, literal(-14)))
        CFI (cfiCond15) V1 load(1, XDATA, add(CFA_XSP16, literal(-13)))
        CFI (cfiCond15) V2 load(1, XDATA, add(CFA_XSP16, literal(-12)))
        CFI (cfiCond15) V3 load(1, XDATA, add(CFA_XSP16, literal(-11)))
        CFI (cfiCond15) V4 load(1, XDATA, add(CFA_XSP16, literal(-10)))
        CFI (cfiCond15) V5 load(1, XDATA, add(CFA_XSP16, literal(-9)))
        CFI (cfiCond15) V6 load(1, XDATA, add(CFA_XSP16, literal(-8)))
        CFI (cfiCond15) V7 load(1, XDATA, add(CFA_XSP16, literal(-7)))
        CFI (cfiCond15) R7 load(1, XDATA, add(CFA_XSP16, literal(-6)))
        CFI (cfiCond15) ?RET_LOW load(1, XDATA, add(CFA_XSP16, literal(-5)))
        CFI (cfiCond15) ?RET_HIGH load(1, XDATA, add(CFA_XSP16, literal(-4)))
        CFI (cfiCond15) ?BRET_EXT load(1, XDATA, add(CFA_XSP16, literal(-3)))
        CFI (cfiCond15) DPL0 load(1, XDATA, add(CFA_XSP16, literal(-2)))
        CFI (cfiCond15) DPH0 load(1, XDATA, add(CFA_XSP16, literal(-1)))
        CFI (cfiCond15) CFA_SP SP+-1
        CFI (cfiCond15) CFA_XSP16 add(XSP16, 16)
        CFI Block cfiCond16 Using cfiCommon0
        CFI (cfiCond16) NoFunction
        CFI (cfiCond16) Conditional ??CrossCallReturnLabel_56
        CFI (cfiCond16) R6 load(1, XDATA, add(CFA_XSP16, literal(-10)))
        CFI (cfiCond16) VB load(1, XDATA, add(CFA_XSP16, literal(-9)))
        CFI (cfiCond16) V0 load(1, XDATA, add(CFA_XSP16, literal(-8)))
        CFI (cfiCond16) V1 load(1, XDATA, add(CFA_XSP16, literal(-7)))
        CFI (cfiCond16) R7 load(1, XDATA, add(CFA_XSP16, literal(-6)))
        CFI (cfiCond16) ?RET_LOW load(1, XDATA, add(CFA_XSP16, literal(-5)))
        CFI (cfiCond16) ?RET_HIGH load(1, XDATA, add(CFA_XSP16, literal(-4)))
        CFI (cfiCond16) ?BRET_EXT load(1, XDATA, add(CFA_XSP16, literal(-3)))
        CFI (cfiCond16) DPL0 load(1, XDATA, add(CFA_XSP16, literal(-2)))
        CFI (cfiCond16) DPH0 load(1, XDATA, add(CFA_XSP16, literal(-1)))
        CFI (cfiCond16) CFA_SP SP+-1
        CFI (cfiCond16) CFA_XSP16 add(XSP16, 10)
        CFI Block cfiPicker17 Using cfiCommon1
        CFI (cfiPicker17) NoFunction
        CFI (cfiPicker17) Picker
        LCALL   ?Subroutine31 & 0xFFFF
??CrossCallReturnLabel_59:
        INC     DPTR
        RET
        CFI EndBlock cfiCond14
        CFI EndBlock cfiCond15
        CFI EndBlock cfiCond16
        CFI EndBlock cfiPicker17

        RSEG BANKED_CODE:CODE:NOROOT(0)
?Subroutine11:
        CFI Block cfiCond18 Using cfiCommon0
        CFI NoFunction
        CFI Conditional ??CrossCallReturnLabel_64
        CFI R6 load(1, XDATA, add(CFA_XSP16, literal(-16)))
        CFI VB load(1, XDATA, add(CFA_XSP16, literal(-15)))
        CFI V0 load(1, XDATA, add(CFA_XSP16, literal(-14)))
        CFI V1 load(1, XDATA, add(CFA_XSP16, literal(-13)))
        CFI V2 load(1, XDATA, add(CFA_XSP16, literal(-12)))
        CFI V3 load(1, XDATA, add(CFA_XSP16, literal(-11)))
        CFI V4 load(1, XDATA, add(CFA_XSP16, literal(-10)))
        CFI V5 load(1, XDATA, add(CFA_XSP16, literal(-9)))
        CFI V6 load(1, XDATA, add(CFA_XSP16, literal(-8)))
        CFI V7 load(1, XDATA, add(CFA_XSP16, literal(-7)))
        CFI R7 load(1, XDATA, add(CFA_XSP16, literal(-6)))
        CFI ?RET_LOW load(1, XDATA, add(CFA_XSP16, literal(-5)))
        CFI ?RET_HIGH load(1, XDATA, add(CFA_XSP16, literal(-4)))
        CFI ?BRET_EXT load(1, XDATA, add(CFA_XSP16, literal(-3)))
        CFI DPL0 load(1, XDATA, add(CFA_XSP16, literal(-2)))
        CFI DPH0 load(1, XDATA, add(CFA_XSP16, literal(-1)))
        CFI CFA_SP SP+0
        CFI CFA_XSP16 add(XSP16, 16)
        CFI Block cfiCond19 Using cfiCommon0
        CFI (cfiCond19) NoFunction
        CFI (cfiCond19) Conditional ??CrossCallReturnLabel_65
        CFI (cfiCond19) R6 load(1, XDATA, add(CFA_XSP16, literal(-15)))
        CFI (cfiCond19) VB load(1, XDATA, add(CFA_XSP16, literal(-14)))
        CFI (cfiCond19) V0 load(1, XDATA, add(CFA_XSP16, literal(-13)))
        CFI (cfiCond19) V1 load(1, XDATA, add(CFA_XSP16, literal(-12)))
        CFI (cfiCond19) V2 load(1, XDATA, add(CFA_XSP16, literal(-11)))
        CFI (cfiCond19) V3 load(1, XDATA, add(CFA_XSP16, literal(-10)))
        CFI (cfiCond19) V4 load(1, XDATA, add(CFA_XSP16, literal(-9)))
        CFI (cfiCond19) V5 load(1, XDATA, add(CFA_XSP16, literal(-8)))
        CFI (cfiCond19) V6 load(1, XDATA, add(CFA_XSP16, literal(-7)))
        CFI (cfiCond19) R7 load(1, XDATA, add(CFA_XSP16, literal(-6)))
        CFI (cfiCond19) ?RET_LOW load(1, XDATA, add(CFA_XSP16, literal(-5)))
        CFI (cfiCond19) ?RET_HIGH load(1, XDATA, add(CFA_XSP16, literal(-4)))
        CFI (cfiCond19) ?BRET_EXT load(1, XDATA, add(CFA_XSP16, literal(-3)))
        CFI (cfiCond19) DPL0 load(1, XDATA, add(CFA_XSP16, literal(-2)))
        CFI (cfiCond19) DPH0 load(1, XDATA, add(CFA_XSP16, literal(-1)))
        CFI (cfiCond19) CFA_SP SP+0
        CFI (cfiCond19) CFA_XSP16 add(XSP16, 23)
        CFI Block cfiPicker20 Using cfiCommon1
        CFI (cfiPicker20) NoFunction
        CFI (cfiPicker20) Picker
        MOV     DPTR,#s_pCallback
        CFI EndBlock cfiCond18
        CFI EndBlock cfiCond19
        CFI EndBlock cfiPicker20
        REQUIRE ??Subroutine36_0
        ; // Fall through to label ??Subroutine36_0

        RSEG BANKED_CODE:CODE:NOROOT(0)
??Subroutine36_0:
        CFI Block cfiCond21 Using cfiCommon0
        CFI NoFunction
        CFI Conditional ??CrossCallReturnLabel_60
        CFI R6 load(1, XDATA, add(CFA_XSP16, literal(-24)))
        CFI VB load(1, XDATA, add(CFA_XSP16, literal(-23)))
        CFI V0 load(1, XDATA, add(CFA_XSP16, literal(-22)))
        CFI V1 load(1, XDATA, add(CFA_XSP16, literal(-21)))
        CFI V2 load(1, XDATA, add(CFA_XSP16, literal(-20)))
        CFI V3 load(1, XDATA, add(CFA_XSP16, literal(-19)))
        CFI V4 load(1, XDATA, add(CFA_XSP16, literal(-18)))
        CFI V5 load(1, XDATA, add(CFA_XSP16, literal(-17)))
        CFI V6 load(1, XDATA, add(CFA_XSP16, literal(-16)))
        CFI V7 load(1, XDATA, add(CFA_XSP16, literal(-15)))
        CFI V8 load(1, XDATA, add(CFA_XSP16, literal(-14)))
        CFI V9 load(1, XDATA, add(CFA_XSP16, literal(-13)))
        CFI V10 load(1, XDATA, add(CFA_XSP16, literal(-12)))
        CFI V11 load(1, XDATA, add(CFA_XSP16, literal(-11)))
        CFI V12 load(1, XDATA, add(CFA_XSP16, literal(-10)))
        CFI V13 load(1, XDATA, add(CFA_XSP16, literal(-9)))
        CFI V14 load(1, XDATA, add(CFA_XSP16, literal(-8)))
        CFI V15 load(1, XDATA, add(CFA_XSP16, literal(-7)))
        CFI R7 load(1, XDATA, add(CFA_XSP16, literal(-6)))
        CFI ?RET_LOW load(1, XDATA, add(CFA_XSP16, literal(-5)))
        CFI ?RET_HIGH load(1, XDATA, add(CFA_XSP16, literal(-4)))
        CFI ?BRET_EXT load(1, XDATA, add(CFA_XSP16, literal(-3)))
        CFI DPL0 load(1, XDATA, add(CFA_XSP16, literal(-2)))
        CFI DPH0 load(1, XDATA, add(CFA_XSP16, literal(-1)))
        CFI CFA_SP SP+0
        CFI CFA_XSP16 add(XSP16, 37)
        CFI Block cfiCond22 Using cfiCommon0
        CFI (cfiCond22) NoFunction
        CFI (cfiCond22) Conditional ??CrossCallReturnLabel_61
        CFI (cfiCond22) R6 load(1, XDATA, add(CFA_XSP16, literal(-24)))
        CFI (cfiCond22) VB load(1, XDATA, add(CFA_XSP16, literal(-23)))
        CFI (cfiCond22) V0 load(1, XDATA, add(CFA_XSP16, literal(-22)))
        CFI (cfiCond22) V1 load(1, XDATA, add(CFA_XSP16, literal(-21)))
        CFI (cfiCond22) V2 load(1, XDATA, add(CFA_XSP16, literal(-20)))
        CFI (cfiCond22) V3 load(1, XDATA, add(CFA_XSP16, literal(-19)))
        CFI (cfiCond22) V4 load(1, XDATA, add(CFA_XSP16, literal(-18)))
        CFI (cfiCond22) V5 load(1, XDATA, add(CFA_XSP16, literal(-17)))
        CFI (cfiCond22) V6 load(1, XDATA, add(CFA_XSP16, literal(-16)))
        CFI (cfiCond22) V7 load(1, XDATA, add(CFA_XSP16, literal(-15)))
        CFI (cfiCond22) V8 load(1, XDATA, add(CFA_XSP16, literal(-14)))
        CFI (cfiCond22) V9 load(1, XDATA, add(CFA_XSP16, literal(-13)))
        CFI (cfiCond22) V10 load(1, XDATA, add(CFA_XSP16, literal(-12)))
        CFI (cfiCond22) V11 load(1, XDATA, add(CFA_XSP16, literal(-11)))
        CFI (cfiCond22) V12 load(1, XDATA, add(CFA_XSP16, literal(-10)))
        CFI (cfiCond22) V13 load(1, XDATA, add(CFA_XSP16, literal(-9)))
        CFI (cfiCond22) V14 load(1, XDATA, add(CFA_XSP16, literal(-8)))
        CFI (cfiCond22) V15 load(1, XDATA, add(CFA_XSP16, literal(-7)))
        CFI (cfiCond22) R7 load(1, XDATA, add(CFA_XSP16, literal(-6)))
        CFI (cfiCond22) ?RET_LOW load(1, XDATA, add(CFA_XSP16, literal(-5)))
        CFI (cfiCond22) ?RET_HIGH load(1, XDATA, add(CFA_XSP16, literal(-4)))
        CFI (cfiCond22) ?BRET_EXT load(1, XDATA, add(CFA_XSP16, literal(-3)))
        CFI (cfiCond22) DPL0 load(1, XDATA, add(CFA_XSP16, literal(-2)))
        CFI (cfiCond22) DPH0 load(1, XDATA, add(CFA_XSP16, literal(-1)))
        CFI (cfiCond22) CFA_SP SP+0
        CFI (cfiCond22) CFA_XSP16 add(XSP16, 37)
        CFI Block cfiCond23 Using cfiCommon0
        CFI (cfiCond23) NoFunction
        CFI (cfiCond23) Conditional ??CrossCallReturnLabel_62
        CFI (cfiCond23) DPL0 Frame(CFA_SP, 4)
        CFI (cfiCond23) DPH0 Frame(CFA_SP, 5)
        CFI (cfiCond23) CFA_SP SP+-5
        CFI Block cfiCond24 Using cfiCommon0
        CFI (cfiCond24) NoFunction
        CFI (cfiCond24) Conditional ??CrossCallReturnLabel_63
        CFI (cfiCond24) DPL0 Frame(CFA_SP, 4)
        CFI (cfiCond24) DPH0 Frame(CFA_SP, 5)
        CFI (cfiCond24) CFA_SP SP+-5
        CFI Block cfiCond25 Using cfiCommon0
        CFI (cfiCond25) NoFunction
        CFI (cfiCond25) Conditional ??CrossCallReturnLabel_64
        CFI (cfiCond25) R6 load(1, XDATA, add(CFA_XSP16, literal(-16)))
        CFI (cfiCond25) VB load(1, XDATA, add(CFA_XSP16, literal(-15)))
        CFI (cfiCond25) V0 load(1, XDATA, add(CFA_XSP16, literal(-14)))
        CFI (cfiCond25) V1 load(1, XDATA, add(CFA_XSP16, literal(-13)))
        CFI (cfiCond25) V2 load(1, XDATA, add(CFA_XSP16, literal(-12)))
        CFI (cfiCond25) V3 load(1, XDATA, add(CFA_XSP16, literal(-11)))
        CFI (cfiCond25) V4 load(1, XDATA, add(CFA_XSP16, literal(-10)))
        CFI (cfiCond25) V5 load(1, XDATA, add(CFA_XSP16, literal(-9)))
        CFI (cfiCond25) V6 load(1, XDATA, add(CFA_XSP16, literal(-8)))
        CFI (cfiCond25) V7 load(1, XDATA, add(CFA_XSP16, literal(-7)))
        CFI (cfiCond25) R7 load(1, XDATA, add(CFA_XSP16, literal(-6)))
        CFI (cfiCond25) ?RET_LOW load(1, XDATA, add(CFA_XSP16, literal(-5)))
        CFI (cfiCond25) ?RET_HIGH load(1, XDATA, add(CFA_XSP16, literal(-4)))
        CFI (cfiCond25) ?BRET_EXT load(1, XDATA, add(CFA_XSP16, literal(-3)))
        CFI (cfiCond25) DPL0 load(1, XDATA, add(CFA_XSP16, literal(-2)))
        CFI (cfiCond25) DPH0 load(1, XDATA, add(CFA_XSP16, literal(-1)))
        CFI (cfiCond25) CFA_SP SP+0
        CFI (cfiCond25) CFA_XSP16 add(XSP16, 16)
        CFI Block cfiCond26 Using cfiCommon0
        CFI (cfiCond26) NoFunction
        CFI (cfiCond26) Conditional ??CrossCallReturnLabel_65
        CFI (cfiCond26) R6 load(1, XDATA, add(CFA_XSP16, literal(-15)))
        CFI (cfiCond26) VB load(1, XDATA, add(CFA_XSP16, literal(-14)))
        CFI (cfiCond26) V0 load(1, XDATA, add(CFA_XSP16, literal(-13)))
        CFI (cfiCond26) V1 load(1, XDATA, add(CFA_XSP16, literal(-12)))
        CFI (cfiCond26) V2 load(1, XDATA, add(CFA_XSP16, literal(-11)))
        CFI (cfiCond26) V3 load(1, XDATA, add(CFA_XSP16, literal(-10)))
        CFI (cfiCond26) V4 load(1, XDATA, add(CFA_XSP16, literal(-9)))
        CFI (cfiCond26) V5 load(1, XDATA, add(CFA_XSP16, literal(-8)))
        CFI (cfiCond26) V6 load(1, XDATA, add(CFA_XSP16, literal(-7)))
        CFI (cfiCond26) R7 load(1, XDATA, add(CFA_XSP16, literal(-6)))
        CFI (cfiCond26) ?RET_LOW load(1, XDATA, add(CFA_XSP16, literal(-5)))
        CFI (cfiCond26) ?RET_HIGH load(1, XDATA, add(CFA_XSP16, literal(-4)))
        CFI (cfiCond26) ?BRET_EXT load(1, XDATA, add(CFA_XSP16, literal(-3)))
        CFI (cfiCond26) DPL0 load(1, XDATA, add(CFA_XSP16, literal(-2)))
        CFI (cfiCond26) DPH0 load(1, XDATA, add(CFA_XSP16, literal(-1)))
        CFI (cfiCond26) CFA_SP SP+0
        CFI (cfiCond26) CFA_XSP16 add(XSP16, 23)
        CFI Block cfiPicker27 Using cfiCommon1
        CFI (cfiPicker27) NoFunction
        CFI (cfiPicker27) Picker
        LCALL   ?Subroutine32 & 0xFFFF
??CrossCallReturnLabel_105:
        MOV     A,R0
        ORL     A,R1
        RET
        CFI EndBlock cfiCond21
        CFI EndBlock cfiCond22
        CFI EndBlock cfiCond23
        CFI EndBlock cfiCond24
        CFI EndBlock cfiCond25
        CFI EndBlock cfiCond26
        CFI EndBlock cfiPicker27
//  406 
//  407 /**************************************************************************************************
//  408  * @fn          procSysEvtMsg
//  409  *
//  410  * @brief       This function is called by oadAppEvt() to process all of the pending OSAL messages.
//  411  *
//  412  * input parameters
//  413  *
//  414  * None.
//  415  *
//  416  * output parameters
//  417  *
//  418  * None.
//  419  *
//  420  * @return      None.
//  421  **************************************************************************************************
//  422  */

        RSEG BANKED_CODE:CODE:NOROOT(0)
//  423 static void procSysEvtMsg(void)
procSysEvtMsg:
        CFI Block cfiBlock28 Using cfiCommon0
        CFI Function procSysEvtMsg
        CODE
//  424 {
        FUNCALL procSysEvtMsg, MT_X_FakeNwkJoinCnf
        LOCFRAME ISTACK, 0, STACK
        LOCFRAME PSTACK, 0, STACK
        LOCFRAME XSTACK, 10, STACK
        LOCFRAME IOVERLAY, 0, STATIC
        LOCFRAME DOVERLAY, 0, STATIC
        ARGFRAME ISTACK, 0, STACK
        ARGFRAME PSTACK, 0, STACK
        ARGFRAME XSTACK, 10, STACK
        ARGFRAME IOVERLAY, 0, STATIC
        ARGFRAME DOVERLAY, 0, STATIC
        FUNCALL procSysEvtMsg, osal_msg_deallocate
        LOCFRAME ISTACK, 0, STACK
        LOCFRAME PSTACK, 0, STACK
        LOCFRAME XSTACK, 10, STACK
        LOCFRAME IOVERLAY, 0, STATIC
        LOCFRAME DOVERLAY, 0, STATIC
        ARGFRAME ISTACK, 0, STACK
        ARGFRAME PSTACK, 0, STACK
        ARGFRAME XSTACK, 10, STACK
        ARGFRAME IOVERLAY, 0, STATIC
        ARGFRAME DOVERLAY, 0, STATIC
        FUNCALL procSysEvtMsg, osal_msg_receive
        LOCFRAME ISTACK, 0, STACK
        LOCFRAME PSTACK, 0, STACK
        LOCFRAME XSTACK, 10, STACK
        LOCFRAME IOVERLAY, 0, STATIC
        LOCFRAME DOVERLAY, 0, STATIC
        ARGFRAME ISTACK, 0, STACK
        ARGFRAME PSTACK, 0, STACK
        ARGFRAME XSTACK, 10, STACK
        ARGFRAME IOVERLAY, 0, STATIC
        ARGFRAME DOVERLAY, 0, STATIC
        FUNCALL procSysEvtMsg, ZLOADApp_SerialMessageMSGCB
        LOCFRAME ISTACK, 0, STACK
        LOCFRAME PSTACK, 0, STACK
        LOCFRAME XSTACK, 10, STACK
        LOCFRAME IOVERLAY, 0, STATIC
        LOCFRAME DOVERLAY, 0, STATIC
        ARGFRAME ISTACK, 0, STACK
        ARGFRAME PSTACK, 0, STACK
        ARGFRAME XSTACK, 10, STACK
        ARGFRAME IOVERLAY, 0, STATIC
        ARGFRAME DOVERLAY, 0, STATIC
        FUNCALL procSysEvtMsg, ZLOADApp_handleReply
        LOCFRAME ISTACK, 0, STACK
        LOCFRAME PSTACK, 0, STACK
        LOCFRAME XSTACK, 10, STACK
        LOCFRAME IOVERLAY, 0, STATIC
        LOCFRAME DOVERLAY, 0, STATIC
        ARGFRAME ISTACK, 0, STACK
        ARGFRAME PSTACK, 0, STACK
        ARGFRAME XSTACK, 10, STACK
        ARGFRAME IOVERLAY, 0, STATIC
        ARGFRAME DOVERLAY, 0, STATIC
        FUNCALL procSysEvtMsg, ZLOADApp_handleCommand
        LOCFRAME ISTACK, 0, STACK
        LOCFRAME PSTACK, 0, STACK
        LOCFRAME XSTACK, 10, STACK
        LOCFRAME IOVERLAY, 0, STATIC
        LOCFRAME DOVERLAY, 0, STATIC
        ARGFRAME ISTACK, 0, STACK
        ARGFRAME PSTACK, 0, STACK
        ARGFRAME XSTACK, 10, STACK
        ARGFRAME IOVERLAY, 0, STATIC
        ARGFRAME DOVERLAY, 0, STATIC
        MOV     A,#-0xa
        LCALL   ?BANKED_ENTER_XDATA
        CFI DPH0 load(1, XDATA, add(CFA_XSP16, literal(-1)))
        CFI DPL0 load(1, XDATA, add(CFA_XSP16, literal(-2)))
        CFI ?BRET_EXT load(1, XDATA, add(CFA_XSP16, literal(-3)))
        CFI ?RET_HIGH load(1, XDATA, add(CFA_XSP16, literal(-4)))
        CFI ?RET_LOW load(1, XDATA, add(CFA_XSP16, literal(-5)))
        CFI R7 load(1, XDATA, add(CFA_XSP16, literal(-6)))
        CFI V1 load(1, XDATA, add(CFA_XSP16, literal(-7)))
        CFI V0 load(1, XDATA, add(CFA_XSP16, literal(-8)))
        CFI VB load(1, XDATA, add(CFA_XSP16, literal(-9)))
        CFI R6 load(1, XDATA, add(CFA_XSP16, literal(-10)))
        CFI CFA_SP SP+0
        CFI CFA_XSP16 add(XSP16, 10)
        ; Saved register size: 10
        ; Auto size: 0
        SJMP    ??procSysEvtMsg_0
//  425   uint8 *msgPtr;
//  426 
//  427   while ((msgPtr = osal_msg_receive(oad_app_taskId)))
//  428   {
//  429 #if defined ZPORT
//  430     s_serialMsg = 0;
//  431 #endif
//  432 
//  433     switch ( *msgPtr )
//  434     {
//  435     case MT_SYS_APP_MSG:
//  436     case MT_SYS_APP_RSP_MSG:
//  437 #if defined ZPORT
//  438       // This is how we get messages from a Host application (ZOAD.exe).
//  439       s_serialMsg = 1;
//  440       ZLOADApp_SerialMessageMSGCB((zahdrout_t *)(((mtSysAppMsg_t *)msgPtr)->appData));
//  441 #endif
//  442       break;
//  443 
//  444     case AF_DATA_CONFIRM_CMD:
//  445       break;
//  446 
//  447     case AF_INCOMING_MSG_CMD:
//  448       ZLOADApp_MessageMSGCB((afIncomingMSGPacket_t *)msgPtr);
//  449       break;
//  450 
//  451 #if defined ZPORT
//  452     case KEY_CHANGE:
//  453       zlHandleKeys(((keyChange_t *)msgPtr)->state, ((keyChange_t *)msgPtr)->keys);
//  454       break;
//  455 #endif
//  456 
//  457     case ZDO_NEW_DSTADDR:
//  458       /*
//  459       dstEP = msgPtr[1];
//  460       dstAddr = (zAddrType_t *)&msgPtr[2];
//  461 
//  462       dstAddr.addrMode = dstAddr->addrMode;
//  463       dstAddr.endPoint = dstEP;
//  464       if (dstAddr->addrMode == afAddr16Bit)
//  465         dstAddr.addr.shortAddr = dstAddr->addr.shortAddr;
//  466       else
//  467         osal_memcpy(dstAddr.addr.extAddr, dstAddr->addr.extAddr, Z_EXTADDR_LEN);
//  468        */
//  469       break;
//  470 
//  471     case ZDO_STATE_CHANGE:
//  472 #if defined ZPORT
//  473       if (((devStates_t)(((osal_event_hdr_t *)msgPtr)->status) == DEV_END_DEVICE_UNAUTH) ||
//  474           ((devStates_t)(((osal_event_hdr_t *)msgPtr)->status) == DEV_END_DEVICE))
??procSysEvtMsg_1:
        INC     DPTR
        MOVX    A,@DPTR
        XRL     A,#0x5
        JZ      ??procSysEvtMsg_2
        MOVX    A,@DPTR
        XRL     A,#0x6
        JNZ     ??procSysEvtMsg_3
//  475       {
//  476         MT_X_FakeNwkJoinCnf();
??procSysEvtMsg_2:
        ; Setup parameters for call to function MT_X_FakeNwkJoinCnf
        LCALL   ??MT_X_FakeNwkJoinCnf?relay
//  477       }
//  478 #endif
//  479       break;
//  480 
//  481     default:
//  482       break;
//  483     }
//  484 
//  485     osal_msg_deallocate(msgPtr);  // Receiving task is responsible for releasing the memory.
??procSysEvtMsg_3:
        ; Setup parameters for call to function osal_msg_deallocate
        MOV     A,R6
        MOV     R2,A
        MOV     A,R7
        MOV     R3,A
        LCALL   ??osal_msg_deallocate?relay
??procSysEvtMsg_0:
        ; Setup parameters for call to function osal_msg_receive
        MOV     DPTR,#oad_app_taskId
        MOVX    A,@DPTR
        MOV     R1,A
        LCALL   ??osal_msg_receive?relay
        MOV     ?V0 + 0,R2
        MOV     ?V0 + 1,R3
        MOV     R0,?V0 + 0
        MOV     R1,?V0 + 1
        MOV     A,R0
        MOV     R6,A
        MOV     A,R1
        MOV     R7,A
        MOV     A,R0
        ORL     A,R1
        JZ      ??procSysEvtMsg_4
        MOV     DPTR,#s_serialMsg
        CLR     A
        LCALL   ?Subroutine30 & 0xFFFF
??CrossCallReturnLabel_44:
        MOVX    A,@DPTR
        ADD     A,#-0x1a
        JZ      ??procSysEvtMsg_5
        ADD     A,#-0x9
        JZ      ??procSysEvtMsg_6
        DEC     A
        JZ      ??procSysEvtMsg_6
        ADD     A,#0x64
        JZ      ??procSysEvtMsg_7
        ADD     A,#-0x11
        JZ      ??procSysEvtMsg_1
        SJMP    ??procSysEvtMsg_3
??procSysEvtMsg_6:
        MOV     DPTR,#s_serialMsg
        MOV     A,#0x1
        LCALL   ?Subroutine7 & 0xFFFF
??CrossCallReturnLabel_11:
        INC     DPTR
        INC     DPTR
        INC     DPTR
        LCALL   ?Subroutine20 & 0xFFFF
??CrossCallReturnLabel_27:
        LCALL   ??ZLOADApp_SerialMessageMSGCB?relay
        SJMP    ??procSysEvtMsg_3
??procSysEvtMsg_5:
        MOV     A,R6
        ADD     A,#0x21
        MOV     DPL,A
        MOV     A,R7
        ADDC    A,#0x0
        MOV     DPH,A
        MOVX    A,@DPTR
        MOV     R4,A
        INC     DPTR
        MOVX    A,@DPTR
        MOV     R5,A
        MOV     DPL,R4
        MOV     DPH,R5
        MOVX    A,@DPTR
        MOV     C,0xE0 /* A   */.7
        JNC     ??procSysEvtMsg_8
        ; Setup parameters for call to function ZLOADApp_handleReply
        LCALL   ??ZLOADApp_handleReply?relay
        SJMP    ??procSysEvtMsg_3
??procSysEvtMsg_8:
        ; Setup parameters for call to function ZLOADApp_handleCommand
        LCALL   ??ZLOADApp_handleCommand?relay
        SJMP    ??procSysEvtMsg_3
??procSysEvtMsg_7:
        INC     DPTR
        INC     DPTR
        INC     DPTR
        MOVX    A,@DPTR
        MOV     R0,A
        MOV     DPL,R6
        MOV     DPH,R7
        INC     DPTR
        INC     DPTR
        MOVX    A,@DPTR
        JNZ     ??procSysEvtMsg_3
        MOV     A,R0
        MOV     C,0xE0 /* A   */.0
        JNC     ??procSysEvtMsg_9
        MOV     DPTR,#mtxMode
        MOV     A,#0x1
        MOVX    @DPTR,A
??procSysEvtMsg_9:
        MOV     A,R0
        MOV     C,0xE0 /* A   */.4
        JC      $+5
        LJMP    ??procSysEvtMsg_3 & 0xFFFF
        MOV     DPTR,#mtxMode
        CLR     A
        MOVX    @DPTR,A
        LJMP    ??procSysEvtMsg_3 & 0xFFFF
//  486   }
//  487 }
??procSysEvtMsg_4:
        LJMP    ?Subroutine0 & 0xFFFF
        CFI EndBlock cfiBlock28
//  488 
//  489 /**********************************************************************************
//  490  * @fn      ZLOADApp_MessageMSGCB
//  491  *
//  492  * @brief   Handle a normal ZLOAD command or reply. Forward it to proper handler
//  493  *
//  494  * @param   MSGpkt -  pointer to incoming AF packet
//  495  *
//  496  * @return  none
//  497  */
//  498 static void ZLOADApp_MessageMSGCB(afIncomingMSGPacket_t *MSGpkt)
//  499 {
//  500   zlmhdr_t *inMsg = (zlmhdr_t *)MSGpkt->cmd.Data;
//  501 
//  502   if (inMsg->zlhdr_msgid & ZLMSGID_REPLY_BIT)
//  503   {
//  504     ZLOADApp_handleReply(MSGpkt, inMsg);
//  505   }
//  506   else
//  507   {
//  508     ZLOADApp_handleCommand(MSGpkt, inMsg);
//  509   }
//  510 
//  511   return;
//  512 }
//  513 
//  514 /**********************************************************************************
//  515  * @fn      ZLOADApp_handleCommand
//  516  *
//  517  * @brief   Handle a normal ZLOAD command
//  518  *
//  519  * @param   input
//  520  *            MSGpkt  pointer to incoming AF packet. needed to get
//  521  *                    reply address info
//  522  *            msg     pointer to ZLOAD message
//  523  *
//  524  * @return  none
//  525  */

        RSEG BANKED_CODE:CODE:NOROOT(0)
//  526 static void ZLOADApp_handleCommand(afIncomingMSGPacket_t *MSGpkt, zlmhdr_t *msg)
ZLOADApp_handleCommand:
        CFI Block cfiBlock29 Using cfiCommon0
        CFI Function ZLOADApp_handleCommand
        CODE
//  527 {
        FUNCALL ZLOADApp_handleCommand, osal_mem_alloc
        LOCFRAME ISTACK, 0, STACK
        LOCFRAME PSTACK, 0, STACK
        LOCFRAME XSTACK, 37, STACK
        LOCFRAME IOVERLAY, 0, STATIC
        LOCFRAME DOVERLAY, 0, STATIC
        ARGFRAME ISTACK, 0, STACK
        ARGFRAME PSTACK, 0, STACK
        ARGFRAME XSTACK, 37, STACK
        ARGFRAME IOVERLAY, 0, STATIC
        ARGFRAME DOVERLAY, 0, STATIC
        FUNCALL ZLOADApp_handleCommand, osal_memcpy
        LOCFRAME ISTACK, 0, STACK
        LOCFRAME PSTACK, 0, STACK
        LOCFRAME XSTACK, 40, STACK
        LOCFRAME IOVERLAY, 0, STATIC
        LOCFRAME DOVERLAY, 0, STATIC
        ARGFRAME ISTACK, 0, STACK
        ARGFRAME PSTACK, 0, STACK
        ARGFRAME XSTACK, 40, STACK
        ARGFRAME IOVERLAY, 0, STATIC
        ARGFRAME DOVERLAY, 0, STATIC
        FUNCALL ZLOADApp_handleCommand, osal_nv_read
        LOCFRAME ISTACK, 0, STACK
        LOCFRAME PSTACK, 0, STACK
        LOCFRAME XSTACK, 41, STACK
        LOCFRAME IOVERLAY, 0, STATIC
        LOCFRAME DOVERLAY, 0, STATIC
        ARGFRAME ISTACK, 0, STACK
        ARGFRAME PSTACK, 0, STACK
        ARGFRAME XSTACK, 41, STACK
        ARGFRAME IOVERLAY, 0, STATIC
        ARGFRAME DOVERLAY, 0, STATIC
        FUNCALL ZLOADApp_handleCommand, osal_memcpy
        LOCFRAME ISTACK, 0, STACK
        LOCFRAME PSTACK, 0, STACK
        LOCFRAME XSTACK, 40, STACK
        LOCFRAME IOVERLAY, 0, STATIC
        LOCFRAME DOVERLAY, 0, STATIC
        ARGFRAME ISTACK, 0, STACK
        ARGFRAME PSTACK, 0, STACK
        ARGFRAME XSTACK, 40, STACK
        ARGFRAME IOVERLAY, 0, STATIC
        ARGFRAME DOVERLAY, 0, STATIC
        FUNCALL ZLOADApp_handleCommand, osal_memset
        LOCFRAME ISTACK, 0, STACK
        LOCFRAME PSTACK, 0, STACK
        LOCFRAME XSTACK, 37, STACK
        LOCFRAME IOVERLAY, 0, STATIC
        LOCFRAME DOVERLAY, 0, STATIC
        ARGFRAME ISTACK, 0, STACK
        ARGFRAME PSTACK, 0, STACK
        ARGFRAME XSTACK, 37, STACK
        ARGFRAME IOVERLAY, 0, STATIC
        ARGFRAME DOVERLAY, 0, STATIC
        FUNCALL ZLOADApp_handleCommand, osal_memcpy
        LOCFRAME ISTACK, 0, STACK
        LOCFRAME PSTACK, 0, STACK
        LOCFRAME XSTACK, 43, STACK
        LOCFRAME IOVERLAY, 0, STATIC
        LOCFRAME DOVERLAY, 0, STATIC
        ARGFRAME ISTACK, 0, STACK
        ARGFRAME PSTACK, 0, STACK
        ARGFRAME XSTACK, 43, STACK
        ARGFRAME IOVERLAY, 0, STATIC
        ARGFRAME DOVERLAY, 0, STATIC
        FUNCALL ZLOADApp_handleCommand, osal_memcpy
        LOCFRAME ISTACK, 0, STACK
        LOCFRAME PSTACK, 0, STACK
        LOCFRAME XSTACK, 40, STACK
        LOCFRAME IOVERLAY, 0, STATIC
        LOCFRAME DOVERLAY, 0, STATIC
        ARGFRAME ISTACK, 0, STACK
        ARGFRAME PSTACK, 0, STACK
        ARGFRAME XSTACK, 40, STACK
        ARGFRAME IOVERLAY, 0, STATIC
        ARGFRAME DOVERLAY, 0, STATIC
        FUNCALL ZLOADApp_handleCommand, zlBuildExternalInboundSerialMSG
        LOCFRAME ISTACK, 0, STACK
        LOCFRAME PSTACK, 0, STACK
        LOCFRAME XSTACK, 37, STACK
        LOCFRAME IOVERLAY, 0, STATIC
        LOCFRAME DOVERLAY, 0, STATIC
        ARGFRAME ISTACK, 0, STACK
        ARGFRAME PSTACK, 0, STACK
        ARGFRAME XSTACK, 37, STACK
        ARGFRAME IOVERLAY, 0, STATIC
        ARGFRAME DOVERLAY, 0, STATIC
        FUNCALL ZLOADApp_handleCommand, zlSendSerial
        LOCFRAME ISTACK, 0, STACK
        LOCFRAME PSTACK, 0, STACK
        LOCFRAME XSTACK, 37, STACK
        LOCFRAME IOVERLAY, 0, STATIC
        LOCFRAME DOVERLAY, 0, STATIC
        ARGFRAME ISTACK, 0, STACK
        ARGFRAME PSTACK, 0, STACK
        ARGFRAME XSTACK, 37, STACK
        ARGFRAME IOVERLAY, 0, STATIC
        ARGFRAME DOVERLAY, 0, STATIC
        FUNCALL ZLOADApp_handleCommand, osal_mem_free
        LOCFRAME ISTACK, 0, STACK
        LOCFRAME PSTACK, 0, STACK
        LOCFRAME XSTACK, 37, STACK
        LOCFRAME IOVERLAY, 0, STATIC
        LOCFRAME DOVERLAY, 0, STATIC
        ARGFRAME ISTACK, 0, STACK
        ARGFRAME PSTACK, 0, STACK
        ARGFRAME XSTACK, 37, STACK
        ARGFRAME IOVERLAY, 0, STATIC
        ARGFRAME DOVERLAY, 0, STATIC
        FUNCALL ZLOADApp_handleCommand, zlBuildExternalInboundSerialMSG
        LOCFRAME ISTACK, 0, STACK
        LOCFRAME PSTACK, 0, STACK
        LOCFRAME XSTACK, 37, STACK
        LOCFRAME IOVERLAY, 0, STATIC
        LOCFRAME DOVERLAY, 0, STATIC
        ARGFRAME ISTACK, 0, STACK
        ARGFRAME PSTACK, 0, STACK
        ARGFRAME XSTACK, 37, STACK
        ARGFRAME IOVERLAY, 0, STATIC
        ARGFRAME DOVERLAY, 0, STATIC
        FUNCALL ZLOADApp_handleCommand, osal_start_timerEx
        LOCFRAME ISTACK, 0, STACK
        LOCFRAME PSTACK, 0, STACK
        LOCFRAME XSTACK, 37, STACK
        LOCFRAME IOVERLAY, 0, STATIC
        LOCFRAME DOVERLAY, 0, STATIC
        ARGFRAME ISTACK, 0, STACK
        ARGFRAME PSTACK, 0, STACK
        ARGFRAME XSTACK, 37, STACK
        ARGFRAME IOVERLAY, 0, STATIC
        ARGFRAME DOVERLAY, 0, STATIC
        FUNCALL ZLOADApp_handleCommand, osal_set_event
        LOCFRAME ISTACK, 0, STACK
        LOCFRAME PSTACK, 0, STACK
        LOCFRAME XSTACK, 37, STACK
        LOCFRAME IOVERLAY, 0, STATIC
        LOCFRAME DOVERLAY, 0, STATIC
        ARGFRAME ISTACK, 0, STACK
        ARGFRAME PSTACK, 0, STACK
        ARGFRAME XSTACK, 37, STACK
        ARGFRAME IOVERLAY, 0, STATIC
        ARGFRAME DOVERLAY, 0, STATIC
        FUNCALL ZLOADApp_handleCommand, zlSendSerial
        LOCFRAME ISTACK, 0, STACK
        LOCFRAME PSTACK, 0, STACK
        LOCFRAME XSTACK, 37, STACK
        LOCFRAME IOVERLAY, 0, STATIC
        LOCFRAME DOVERLAY, 0, STATIC
        ARGFRAME ISTACK, 0, STACK
        ARGFRAME PSTACK, 0, STACK
        ARGFRAME XSTACK, 37, STACK
        ARGFRAME IOVERLAY, 0, STATIC
        ARGFRAME DOVERLAY, 0, STATIC
        FUNCALL ZLOADApp_handleCommand, osal_mem_free
        LOCFRAME ISTACK, 0, STACK
        LOCFRAME PSTACK, 0, STACK
        LOCFRAME XSTACK, 37, STACK
        LOCFRAME IOVERLAY, 0, STATIC
        LOCFRAME DOVERLAY, 0, STATIC
        ARGFRAME ISTACK, 0, STACK
        ARGFRAME PSTACK, 0, STACK
        ARGFRAME XSTACK, 37, STACK
        ARGFRAME IOVERLAY, 0, STATIC
        ARGFRAME DOVERLAY, 0, STATIC
        FUNCALL ZLOADApp_handleCommand, osal_memcmp
        LOCFRAME ISTACK, 0, STACK
        LOCFRAME PSTACK, 0, STACK
        LOCFRAME XSTACK, 40, STACK
        LOCFRAME IOVERLAY, 0, STATIC
        LOCFRAME DOVERLAY, 0, STATIC
        ARGFRAME ISTACK, 0, STACK
        ARGFRAME PSTACK, 0, STACK
        ARGFRAME XSTACK, 40, STACK
        ARGFRAME IOVERLAY, 0, STATIC
        ARGFRAME DOVERLAY, 0, STATIC
        FUNCALL ZLOADApp_handleCommand, osal_mem_alloc
        LOCFRAME ISTACK, 0, STACK
        LOCFRAME PSTACK, 0, STACK
        LOCFRAME XSTACK, 37, STACK
        LOCFRAME IOVERLAY, 0, STATIC
        LOCFRAME DOVERLAY, 0, STATIC
        ARGFRAME ISTACK, 0, STACK
        ARGFRAME PSTACK, 0, STACK
        ARGFRAME XSTACK, 37, STACK
        ARGFRAME IOVERLAY, 0, STATIC
        ARGFRAME DOVERLAY, 0, STATIC
        FUNCALL ZLOADApp_handleCommand, osal_memcpy
        LOCFRAME ISTACK, 0, STACK
        LOCFRAME PSTACK, 0, STACK
        LOCFRAME XSTACK, 40, STACK
        LOCFRAME IOVERLAY, 0, STATIC
        LOCFRAME DOVERLAY, 0, STATIC
        ARGFRAME ISTACK, 0, STACK
        ARGFRAME PSTACK, 0, STACK
        ARGFRAME XSTACK, 40, STACK
        ARGFRAME IOVERLAY, 0, STATIC
        ARGFRAME DOVERLAY, 0, STATIC
        FUNCALL ZLOADApp_handleCommand, osal_memcpy
        LOCFRAME ISTACK, 0, STACK
        LOCFRAME PSTACK, 0, STACK
        LOCFRAME XSTACK, 40, STACK
        LOCFRAME IOVERLAY, 0, STATIC
        LOCFRAME DOVERLAY, 0, STATIC
        ARGFRAME ISTACK, 0, STACK
        ARGFRAME PSTACK, 0, STACK
        ARGFRAME XSTACK, 40, STACK
        ARGFRAME IOVERLAY, 0, STATIC
        ARGFRAME DOVERLAY, 0, STATIC
        FUNCALL ZLOADApp_handleCommand, osal_set_event
        LOCFRAME ISTACK, 0, STACK
        LOCFRAME PSTACK, 0, STACK
        LOCFRAME XSTACK, 37, STACK
        LOCFRAME IOVERLAY, 0, STATIC
        LOCFRAME DOVERLAY, 0, STATIC
        ARGFRAME ISTACK, 0, STACK
        ARGFRAME PSTACK, 0, STACK
        ARGFRAME XSTACK, 37, STACK
        ARGFRAME IOVERLAY, 0, STATIC
        ARGFRAME DOVERLAY, 0, STATIC
        FUNCALL ZLOADApp_handleCommand, osal_nv_read
        LOCFRAME ISTACK, 0, STACK
        LOCFRAME PSTACK, 0, STACK
        LOCFRAME XSTACK, 41, STACK
        LOCFRAME IOVERLAY, 0, STATIC
        LOCFRAME DOVERLAY, 0, STATIC
        ARGFRAME ISTACK, 0, STACK
        ARGFRAME PSTACK, 0, STACK
        ARGFRAME XSTACK, 41, STACK
        ARGFRAME IOVERLAY, 0, STATIC
        ARGFRAME DOVERLAY, 0, STATIC
        FUNCALL ZLOADApp_handleCommand, memcmp
        LOCFRAME ISTACK, 0, STACK
        LOCFRAME PSTACK, 0, STACK
        LOCFRAME XSTACK, 39, STACK
        LOCFRAME IOVERLAY, 0, STATIC
        LOCFRAME DOVERLAY, 0, STATIC
        ARGFRAME ISTACK, 0, STACK
        ARGFRAME PSTACK, 0, STACK
        ARGFRAME XSTACK, 39, STACK
        ARGFRAME IOVERLAY, 0, STATIC
        ARGFRAME DOVERLAY, 0, STATIC
        FUNCALL ZLOADApp_handleCommand, zlBuildExternalInboundSerialMSG
        LOCFRAME ISTACK, 0, STACK
        LOCFRAME PSTACK, 0, STACK
        LOCFRAME XSTACK, 37, STACK
        LOCFRAME IOVERLAY, 0, STATIC
        LOCFRAME DOVERLAY, 0, STATIC
        ARGFRAME ISTACK, 0, STACK
        ARGFRAME PSTACK, 0, STACK
        ARGFRAME XSTACK, 37, STACK
        ARGFRAME IOVERLAY, 0, STATIC
        ARGFRAME DOVERLAY, 0, STATIC
        FUNCALL ZLOADApp_handleCommand, zlSendSerial
        LOCFRAME ISTACK, 0, STACK
        LOCFRAME PSTACK, 0, STACK
        LOCFRAME XSTACK, 37, STACK
        LOCFRAME IOVERLAY, 0, STATIC
        LOCFRAME DOVERLAY, 0, STATIC
        ARGFRAME ISTACK, 0, STACK
        ARGFRAME PSTACK, 0, STACK
        ARGFRAME XSTACK, 37, STACK
        ARGFRAME IOVERLAY, 0, STATIC
        ARGFRAME DOVERLAY, 0, STATIC
        FUNCALL ZLOADApp_handleCommand, osal_mem_free
        LOCFRAME ISTACK, 0, STACK
        LOCFRAME PSTACK, 0, STACK
        LOCFRAME XSTACK, 37, STACK
        LOCFRAME IOVERLAY, 0, STATIC
        LOCFRAME DOVERLAY, 0, STATIC
        ARGFRAME ISTACK, 0, STACK
        ARGFRAME PSTACK, 0, STACK
        ARGFRAME XSTACK, 37, STACK
        ARGFRAME IOVERLAY, 0, STATIC
        ARGFRAME DOVERLAY, 0, STATIC
        FUNCALL ZLOADApp_handleCommand, osal_set_event
        LOCFRAME ISTACK, 0, STACK
        LOCFRAME PSTACK, 0, STACK
        LOCFRAME XSTACK, 37, STACK
        LOCFRAME IOVERLAY, 0, STATIC
        LOCFRAME DOVERLAY, 0, STATIC
        ARGFRAME ISTACK, 0, STACK
        ARGFRAME PSTACK, 0, STACK
        ARGFRAME XSTACK, 37, STACK
        ARGFRAME IOVERLAY, 0, STATIC
        ARGFRAME DOVERLAY, 0, STATIC
        FUNCALL ZLOADApp_handleCommand, afFindEndPointDesc
        LOCFRAME ISTACK, 0, STACK
        LOCFRAME PSTACK, 0, STACK
        LOCFRAME XSTACK, 37, STACK
        LOCFRAME IOVERLAY, 0, STATIC
        LOCFRAME DOVERLAY, 0, STATIC
        ARGFRAME ISTACK, 0, STACK
        ARGFRAME PSTACK, 0, STACK
        ARGFRAME XSTACK, 37, STACK
        ARGFRAME IOVERLAY, 0, STATIC
        ARGFRAME DOVERLAY, 0, STATIC
        FUNCALL ZLOADApp_handleCommand, AF_DataRequest
        LOCFRAME ISTACK, 0, STACK
        LOCFRAME PSTACK, 0, STACK
        LOCFRAME XSTACK, 46, STACK
        LOCFRAME IOVERLAY, 0, STATIC
        LOCFRAME DOVERLAY, 0, STATIC
        ARGFRAME ISTACK, 0, STACK
        ARGFRAME PSTACK, 0, STACK
        ARGFRAME XSTACK, 46, STACK
        ARGFRAME IOVERLAY, 0, STATIC
        ARGFRAME DOVERLAY, 0, STATIC
        FUNCALL ZLOADApp_handleCommand, zlBuildInternalInboundSerialMSG
        LOCFRAME ISTACK, 0, STACK
        LOCFRAME PSTACK, 0, STACK
        LOCFRAME XSTACK, 37, STACK
        LOCFRAME IOVERLAY, 0, STATIC
        LOCFRAME DOVERLAY, 0, STATIC
        ARGFRAME ISTACK, 0, STACK
        ARGFRAME PSTACK, 0, STACK
        ARGFRAME XSTACK, 37, STACK
        ARGFRAME IOVERLAY, 0, STATIC
        ARGFRAME DOVERLAY, 0, STATIC
        FUNCALL ZLOADApp_handleCommand, zlSendSerial
        LOCFRAME ISTACK, 0, STACK
        LOCFRAME PSTACK, 0, STACK
        LOCFRAME XSTACK, 37, STACK
        LOCFRAME IOVERLAY, 0, STATIC
        LOCFRAME DOVERLAY, 0, STATIC
        ARGFRAME ISTACK, 0, STACK
        ARGFRAME PSTACK, 0, STACK
        ARGFRAME XSTACK, 37, STACK
        ARGFRAME IOVERLAY, 0, STATIC
        ARGFRAME DOVERLAY, 0, STATIC
        FUNCALL ZLOADApp_handleCommand, osal_mem_free
        LOCFRAME ISTACK, 0, STACK
        LOCFRAME PSTACK, 0, STACK
        LOCFRAME XSTACK, 37, STACK
        LOCFRAME IOVERLAY, 0, STATIC
        LOCFRAME DOVERLAY, 0, STATIC
        ARGFRAME ISTACK, 0, STACK
        ARGFRAME PSTACK, 0, STACK
        ARGFRAME XSTACK, 37, STACK
        ARGFRAME IOVERLAY, 0, STATIC
        ARGFRAME DOVERLAY, 0, STATIC
        MOV     A,#-0x18
        LCALL   ?BANKED_ENTER_XDATA
        CFI DPH0 load(1, XDATA, add(CFA_XSP16, literal(-1)))
        CFI DPL0 load(1, XDATA, add(CFA_XSP16, literal(-2)))
        CFI ?BRET_EXT load(1, XDATA, add(CFA_XSP16, literal(-3)))
        CFI ?RET_HIGH load(1, XDATA, add(CFA_XSP16, literal(-4)))
        CFI ?RET_LOW load(1, XDATA, add(CFA_XSP16, literal(-5)))
        CFI R7 load(1, XDATA, add(CFA_XSP16, literal(-6)))
        CFI V15 load(1, XDATA, add(CFA_XSP16, literal(-7)))
        CFI V14 load(1, XDATA, add(CFA_XSP16, literal(-8)))
        CFI V13 load(1, XDATA, add(CFA_XSP16, literal(-9)))
        CFI V12 load(1, XDATA, add(CFA_XSP16, literal(-10)))
        CFI V11 load(1, XDATA, add(CFA_XSP16, literal(-11)))
        CFI V10 load(1, XDATA, add(CFA_XSP16, literal(-12)))
        CFI V9 load(1, XDATA, add(CFA_XSP16, literal(-13)))
        CFI V8 load(1, XDATA, add(CFA_XSP16, literal(-14)))
        CFI V7 load(1, XDATA, add(CFA_XSP16, literal(-15)))
        CFI V6 load(1, XDATA, add(CFA_XSP16, literal(-16)))
        CFI V5 load(1, XDATA, add(CFA_XSP16, literal(-17)))
        CFI V4 load(1, XDATA, add(CFA_XSP16, literal(-18)))
        CFI V3 load(1, XDATA, add(CFA_XSP16, literal(-19)))
        CFI V2 load(1, XDATA, add(CFA_XSP16, literal(-20)))
        CFI V1 load(1, XDATA, add(CFA_XSP16, literal(-21)))
        CFI V0 load(1, XDATA, add(CFA_XSP16, literal(-22)))
        CFI VB load(1, XDATA, add(CFA_XSP16, literal(-23)))
        CFI R6 load(1, XDATA, add(CFA_XSP16, literal(-24)))
        CFI CFA_SP SP+0
        CFI CFA_XSP16 add(XSP16, 24)
        ; Saved register size: 24
        ; Auto size: 13
        MOV     A,#-0xd
        LCALL   ?ALLOC_XSTACK8
        CFI CFA_XSP16 add(XSP16, 37)
        MOV     ?V0 + 10,R2
        MOV     ?V0 + 11,R3
        MOV     ?V0 + 8,R4
        MOV     ?V0 + 9,R5
//  528   uint8 *cpc, *cpr, paylSize;
//  529   preamble_t preamble;
//  530 
//  531 #if defined ZPORT
//  532   static uint8 *buf;
//  533   if (!buf)
        MOV     DPTR,#??buf
        LCALL   ??Subroutine36_0 & 0xFFFF
??CrossCallReturnLabel_60:
        JNZ     ??ZLOADApp_handleCommand_0
//  534   {
//  535     if (!(buf = osal_mem_alloc(sizeof(zlmhdr_t) + sizeof(zlreply_t))))
        ; Setup parameters for call to function osal_mem_alloc
        MOV     R2,#0x17
        MOV     R3,#0x0
        LCALL   ??osal_mem_alloc?relay
        MOV     DPTR,#??buf
        MOV     A,R2
        MOVX    @DPTR,A
        INC     DPTR
        MOV     A,R3
        MOVX    @DPTR,A
        MOV     DPTR,#??buf
        LCALL   ??Subroutine36_0 & 0xFFFF
//  536     {
//  537       return;
//  538     }
//  539   }
??CrossCallReturnLabel_61:
        JNZ     $+5
        LJMP    ??ZLOADApp_handleCommand_1 & 0xFFFF
//  540 #else
//  541   uint8 *buf = NULL;
//  542   // allocate the reply buffer. use a union of the replies -- they're all pretty
//  543   // small -- except for Send Data. that one is preallocated because we want
//  544   // to really have it and not spend time doing malloc/free for so many transactions
//  545   // besides, we don't want a malloc() to fail during the transfer.
//  546   if (msg->zlhdr_msgid != ZLMSGID_SEND_DATA)
//  547   {
//  548     if (!(buf = osal_mem_alloc(sizeof(zlmhdr_t) + sizeof(zlreply_t))))
//  549     {
//  550       return;
//  551     }
//  552   }
//  553   else
//  554   {
//  555     // make sure we don't have a premature send-data command. this is awkward because
//  556     // in the normal case we've done a "static" allocation (for the durtion of the session)
//  557     // to prevent thousands of alloc/free calls or a failed alloc. but now, we dont' have
//  558     // that "static" memory yet.
//  559     if (s_State != ZLSTATE_SERVER)
//  560     {
//  561       // uh oh. we never got a start session. now we need memory to
//  562       // send the reply
//  563       if (!(buf = osal_mem_alloc(sizeof(zlmhdr_t) + sizeof(zlsdR_t))))
//  564       {
//  565         return;
//  566       }
//  567       // make the rest of the code work
//  568       s_sdreply                     = (zlmhdr_t *)buf;
//  569       s_sdreply->zlhdr_msgid        = ZLMSGID_SEND_DATA | ZLMSGID_REPLY_BIT;
//  570       s_sdreply->zlhdr_msglen       = sizeof(zlsdR_t);
//  571       s_sdrpayload                  = (zlsdR_t *)(buf+sizeof(zlmhdr_t));
//  572       s_sdrpayload->zlsdR_state     = s_State;
//  573       s_sdrpayload->zlsdR_errorCode = EC_SD_NOT_SERVER;
//  574     }
//  575   }
//  576 #endif
//  577 
//  578   cpr = buf + sizeof(zlmhdr_t);            // offset of reply payload
??ZLOADApp_handleCommand_0:
        MOV     DPTR,#??buf
        MOVX    A,@DPTR
        ADD     A,#0x3
        MOV     ?V0 + 4,A
        INC     DPTR
        MOVX    A,@DPTR
        ADDC    A,#0x0
        MOV     ?V0 + 5,A
//  579   cpc = (uint8 *)msg + sizeof(zlmhdr_t);   // offset of command payload
        MOV     A,?V0 + 8
        ADD     A,#0x3
        MOV     ?V0 + 6,A
        MOV     A,?V0 + 9
        ADDC    A,#0x0
        MOV     ?V0 + 7,A
//  580 
//  581   switch (msg->zlhdr_msgid)  {
        MOV     DPL,?V0 + 4
        MOV     DPH,?V0 + 5
        INC     DPTR
        MOV     R6,DPL
        MOV     R7,DPH
        MOV     DPL,?V0 + 8
        MOV     DPH,?V0 + 9
        INC     DPTR
        MOV     ?V0 + 14,DPL
        MOV     ?V0 + 15,DPH
        MOV     A,?V0 + 10
        ADD     A,#0x6
        MOV     ?V0 + 12,A
        MOV     A,?V0 + 11
        ADDC    A,#0x0
        MOV     ?V0 + 13,A
        MOV     DPL,?V0 + 8
        MOV     DPH,?V0 + 9
        MOVX    A,@DPTR
        DEC     A
        JZ      ??ZLOADApp_handleCommand_2
        DEC     A
        JNZ     $+5
        LJMP    ??ZLOADApp_handleCommand_3 & 0xFFFF
        DEC     A
        JNZ     $+5
        LJMP    ??ZLOADApp_handleCommand_4 & 0xFFFF
        DEC     A
        JNZ     $+5
        LJMP    ??ZLOADApp_handleCommand_5 & 0xFFFF
        DEC     A
        JNZ     $+5
        LJMP    ??ZLOADApp_handleCommand_6 & 0xFFFF
        DEC     A
        JNZ     $+5
        LJMP    ??ZLOADApp_handleCommand_7 & 0xFFFF
        DEC     A
        JNZ     $+5
        LJMP    ??ZLOADApp_handleCommand_8 & 0xFFFF
        LJMP    ??ZLOADApp_handleCommand_1 & 0xFFFF
//  582   case ZLMSGID_STATUSQ:
//  583     {
//  584       uint8 dlImagePreambleOffset;
//  585       zlstatusR_t *reply = (zlstatusR_t *)cpr;
//  586       paylSize = sizeof(zlstatusR_t);
??ZLOADApp_handleCommand_2:
        MOV     ?V0 + 3,#0x14
//  587 
//  588       reply->zlsqR_state     = s_State;
        LCALL   ?Subroutine4 & 0xFFFF
//  589       reply->zlsqR_errorCode = EC_NO_ERROR;
//  590       // report capabiltities and version
//  591       reply->zlsqR_ProtocolVersion = ZLOAD_PROTOCOL_VERSION;
??CrossCallReturnLabel_4:
        MOV     DPL,?V0 + 4
        MOV     DPH,?V0 + 5
        INC     DPTR
        INC     DPTR
        INC     A
        MOVX    @DPTR,A
//  592       reply->zlsqR_capabilties     = ZLOAD_CAPABILTIES;
        MOV     DPL,?V0 + 4
        MOV     DPH,?V0 + 5
        INC     DPTR
        INC     DPTR
        INC     DPTR
        CLR     A
        MOVX    @DPTR,A
//  593       cpr +=4;
//  594 
//  595       // populate the operational version values
//  596       HalOADRead(PREAMBLE_OFFSET, (uint8 *)&preamble, sizeof(preamble_t), HAL_OAD_RC);
//  597       cpr = osal_memcpy(cpr, &preamble.vers, ZL_IMAGE_ID_LENGTH);
        MOV     A,#0x7
        LCALL   ?XSTACK_DISP0_8
        MOV     R1,DPL
        MOV     R2,DPH
        MOV     ?V0 + 0,R1
        MOV     ?V0 + 1,R2
        MOV     ?V0 + 2,#0x0
        ; Setup parameters for call to function osal_memcpy
        MOV     R0,#?V0 + 0
        LCALL   ?PUSH_XSTACK_I_THREE
        CFI CFA_XSP16 add(XSP16, 40)
        MOV     R4,#0x6
        MOV     R5,#0x0
        MOV     A,?V0 + 4
        ADD     A,#0x4
        MOV     R2,A
        MOV     A,?V0 + 5
        LCALL   ??Subroutine43_0 & 0xFFFF
??CrossCallReturnLabel_90:
        LCALL   ?DEALLOC_XSTACK8
        CFI CFA_XSP16 add(XSP16, 37)
        MOV     ?V0 + 4,R2
        MOV     ?V0 + 5,R3
//  598 
//  599       // do downloaded image if it's there
//  600       osal_nv_read(PREAMBLE_NV_ID, 0, 1, &dlImagePreambleOffset);
        ; Setup parameters for call to function osal_nv_read
        MOV     DPL,?XSP + 0
        MOV     DPH,?XSP + 1
        MOV     ?V0 + 6,DPL
        MOV     ?V0 + 7,DPH
        MOV     R0,#?V0 + 6
        LCALL   ?PUSH_XSTACK_I_TWO
        CFI CFA_XSP16 add(XSP16, 39)
        MOV     ?V0 + 6,#0x1
        MOV     ?V0 + 7,#0x0
        MOV     R0,#?V0 + 6
        LCALL   ?PUSH_XSTACK_I_TWO
        CFI CFA_XSP16 add(XSP16, 41)
        MOV     R4,#0x0
        MOV     R5,#0x0
        MOV     R2,#-0x1
        MOV     R3,#0xf
        LCALL   ??osal_nv_read?relay
        MOV     A,#0x4
        LCALL   ?DEALLOC_XSTACK8
        CFI CFA_XSP16 add(XSP16, 37)
//  601       HalOADRead(dlImagePreambleOffset, (uint8 *)&preamble, sizeof(preamble_t), HAL_OAD_DL);
//  602       if (preamble.vers != 0xFF)
        MOV     A,#0x7
        LCALL   ?XSTACK_DISP0_8
        MOVX    A,@DPTR
        CPL     A
        JNZ     ??ZLOADApp_handleCommand_9
        INC     DPTR
        MOVX    A,@DPTR
??ZLOADApp_handleCommand_9:
        JZ      ??ZLOADApp_handleCommand_10
//  603       {
//  604         cpr = osal_memcpy(cpr, &preamble.vers, ZL_IMAGE_ID_LENGTH);
        ; Setup parameters for call to function osal_memcpy
        MOV     R0,#?V0 + 0
        LCALL   ?PUSH_XSTACK_I_THREE
        CFI CFA_XSP16 add(XSP16, 40)
        MOV     R4,#0x6
        MOV     R5,#0x0
        MOV     R2,?V0 + 4
        MOV     R3,?V0 + 5
        LCALL   ??Subroutine44_0 & 0xFFFF
//  605       }
??CrossCallReturnLabel_93:
        LCALL   ?DEALLOC_XSTACK8
        CFI CFA_XSP16 add(XSP16, 37)
        MOV     ?V0 + 4,R2
        MOV     ?V0 + 5,R3
        SJMP    ??ZLOADApp_handleCommand_11
//  606       else
//  607       {
//  608         osal_memset(cpr, 0, ZL_IMAGE_ID_LENGTH);
??ZLOADApp_handleCommand_10:
        ; Setup parameters for call to function osal_memset
        MOV     R4,#0x6
        MOV     R5,#0x0
        MOV     R1,#0x0
        MOV     R2,?V0 + 4
        MOV     R3,?V0 + 5
        LCALL   ??osal_memset?relay
//  609         cpr += ZL_IMAGE_ID_LENGTH;
        MOV     A,?V0 + 4
        ADD     A,#0x6
        MOV     ?V0 + 4,A
        MOV     A,?V0 + 5
        ADDC    A,#0x0
        MOV     ?V0 + 5,A
//  610       }
//  611 
//  612       cpr = osal_memcpy(cpr, &s_NextPacket, sizeof(s_NextPacket));
//  613       osal_memcpy(cpr, &s_NumPktGet, sizeof(s_NumPktGet));
??ZLOADApp_handleCommand_11:
        ; Setup parameters for call to function osal_memcpy
        MOV     ?V0 + 0,#s_NumPktGet & 0xff
        MOV     ?V0 + 1,#(s_NumPktGet >> 8) & 0xff
        MOV     R0,#?V0 + 0
        LCALL   ?PUSH_XSTACK_I_THREE
        CFI CFA_XSP16 add(XSP16, 40)
        ; Setup parameters for call to function osal_memcpy
        MOV     ?V0 + 0,#s_NextPacket & 0xff
        MOV     ?V0 + 1,#(s_NextPacket >> 8) & 0xff
        MOV     R0,#?V0 + 0
        LCALL   ?PUSH_XSTACK_I_THREE
        CFI CFA_XSP16 add(XSP16, 43)
        MOV     R4,#0x2
        MOV     R5,#0x0
        MOV     R2,?V0 + 4
        MOV     R3,?V0 + 5
        LCALL   ??Subroutine44_0 & 0xFFFF
//  614     }
??CrossCallReturnLabel_94:
        LCALL   ?DEALLOC_XSTACK8
        CFI CFA_XSP16 add(XSP16, 40)
        MOV     R4,#0x2
        MOV     R5,#0x0
        LCALL   ??Subroutine44_0 & 0xFFFF
??CrossCallReturnLabel_95:
        LCALL   ?DEALLOC_XSTACK8
        CFI CFA_XSP16 add(XSP16, 37)
//  615     break;
        LJMP    ??CrossCallReturnLabel_75 & 0xFFFF
//  616 
//  617   case ZLMSGID_SESSION_START:
//  618 #if defined ZPORT
//  619     // the pass through condition starts here, when a client tries
//  620     // to begin a session with the dongle.
//  621     if (s_State != ZLSTATE_IDLE)  {
??ZLOADApp_handleCommand_3:
        MOV     DPTR,#s_State
        MOVX    A,@DPTR
        XRL     A,#0x1
        JZ      ??ZLOADApp_handleCommand_12
//  622       ((zlbegsessR_t *)cpr)->zlbsR_errorCode = EC_BS_NOT_IDLE;
        MOV     DPL,R6
        MOV     DPH,R7
        MOV     A,#0x21
??ZLOADApp_handleCommand_13:
        MOVX    @DPTR,A
        LJMP    ??CrossCallReturnLabel_75 & 0xFFFF
//  623     }
//  624     else if (s_serialMsg)  {
??ZLOADApp_handleCommand_12:
        MOV     DPTR,#s_serialMsg
        MOVX    A,@DPTR
        JZ      ??ZLOADApp_handleCommand_14
//  625       // somehow this came over the serial port and it isn't legal
//  626       ((zlbegsessR_t *)cpr)->zlbsR_errorCode = EC_BS_NOT_SERVER;
        MOV     DPL,R6
        MOV     DPH,R7
        MOV     A,#0x24
        SJMP    ??ZLOADApp_handleCommand_13
//  627     }
//  628     else  {
//  629       // set mode. delay reply until we hear back from the Host
//  630       s_PTSeqNum     = msg->zlhdr_seqnum;
??ZLOADApp_handleCommand_14:
        MOV     DPL,?V0 + 14
        MOV     DPH,?V0 + 15
        MOVX    A,@DPTR
        MOV     DPTR,#s_PTSeqNum
        MOVX    @DPTR,A
//  631       s_PTClientInfo = *MSGpkt;
        MOV     DPL,?V0 + 10
        MOV     DPH,?V0 + 11
        MOV     R4,#s_PTClientInfo & 0xff
        MOV     R5,#(s_PTClientInfo >> 8) & 0xff
        MOV     A,#0x23
        LCALL   ?MOVE_LONG8_XDATA_XDATA
//  632       s_SessionID    = ((zlbegsessC_t *)cpc)->zlbsC_sessionID;
        MOV     DPL,?V0 + 6
        MOV     DPH,?V0 + 7
        INC     DPTR
        INC     DPTR
        INC     DPTR
        INC     DPTR
        INC     DPTR
        INC     DPTR
        MOVX    A,@DPTR
        MOV     DPTR,#s_SessionID
        MOVX    @DPTR,A
//  633       if (zlPassOnStartSessionOK((uint8 *)msg))  {
        ; Setup parameters for call to function zlBuildExternalInboundSerialMSG
        MOV     R1,#0xa
        LCALL   ?Subroutine26 & 0xFFFF
??CrossCallReturnLabel_37:
        JNZ     ??ZLOADApp_handleCommand_15
//  634         s_State = ZLSTATE_PASS_THROUGH;
//  635         return;
//  636       }
//  637       else  {
//  638         ((zlbegsessR_t *)cpr)->zlbsR_errorCode = EC_BS_NO_MEM;
        MOV     DPL,R6
        MOV     DPH,R7
        MOV     A,#0x23
        SJMP    ??ZLOADApp_handleCommand_13
??ZLOADApp_handleCommand_15:
        ; Setup parameters for call to function zlSendSerial
//  639       }
        LCALL   ?Subroutine22 & 0xFFFF
??CrossCallReturnLabel_83:
        MOV     DPTR,#s_State
        MOV     A,#0x4
        MOVX    @DPTR,A
        LJMP    ??ZLOADApp_handleCommand_1 & 0xFFFF
//  640     }
//  641 #else
//  642     do {
//  643       uint8 dlImagePreambleOffset;
//  644       zlbegsessR_t *reply = (zlbegsessR_t *)cpr;
//  645 
//  646       // assume we're OK and set up fixed part of reply here
//  647       reply->zlbsR_blkSize   = ZL_DATA_BLK_SIZE;
//  648       reply->zlbsR_numBlks   = ZL_NUM_DATA_BLKS;
//  649       reply->zlbsR_state     = s_State;
//  650       reply->zlbsR_errorCode = EC_NO_ERROR;
//  651 
//  652       paylSize = sizeof(zlbegsessR_t);
//  653 
//  654       if (s_State != ZLSTATE_IDLE)  {
//  655         if (s_SessionID == ((zlbegsessC_t *)cpc)->zlbsC_sessionID)
//  656         {
//  657           // Ok - this must be a no ack retransmit or a retry.
//  658         }
//  659         else
//  660         {
//  661           reply->zlbsR_errorCode = EC_BS_NOT_IDLE;
//  662           continue;  // done
//  663         }
//  664       }
//  665 
//  666       // see if there is a DL image to send
//  667       osal_nv_read(PREAMBLE_NV_ID, 0, 1, &dlImagePreambleOffset);
//  668       HalOADRead(dlImagePreambleOffset, (uint8 *)&preamble, sizeof(preamble_t), HAL_OAD_DL);
//  669       if (preamble.vers != 0xFFFF)
//  670       {
//  671         if (!memcmp(cpc, (uint8 *)&preamble.vers, ZL_IMAGE_ID_LENGTH))  {
//  672           // image matches request.
//  673           osal_memcpy(&reply->zlbsR_imgLen, &preamble.len, sizeof(uint32));
//  674           s_State             = ZLSTATE_SERVER;
//  675           s_itype             = HAL_OAD_DL;
//  676           reply->zlbsR_preambleOffset = (uint8)PREAMBLE_OFFSET;
//  677           continue;    // done
//  678         }
//  679       }
//  680       // no DL image. we know there's an operational image
//  681       HalOADRead(PREAMBLE_OFFSET, (uint8 *)&preamble, sizeof(preamble_t), HAL_OAD_RC);
//  682       if (!memcmp(cpc, (uint8 *)&preamble.vers, ZL_IMAGE_ID_LENGTH))  {
//  683         // image matches request.
//  684         osal_memcpy(&reply->zlbsR_imgLen, &preamble.len, sizeof(uint32));
//  685         s_State                     = ZLSTATE_SERVER;
//  686         s_itype                     = HAL_OAD_RC;
//  687         reply->zlbsR_preambleOffset = (uint8)PREAMBLE_OFFSET;
//  688       }
//  689       else  {
//  690         reply->zlbsR_errorCode = EC_BS_NO_MATCHES;
//  691       }
//  692     } while (0);
//  693 
//  694     // if we're good to go, allocate the memory for the SD replies
//  695     // this will make things more efficient during the transfer
//  696     if (!((zlbegsessR_t *)cpr)->zlbsR_errorCode)  {
//  697       uint8 *cp;
//  698       zlbegsessR_t *reply = (zlbegsessR_t *)cpr;
//  699 
//  700       // need memory for sending replies and for holding flash pages
//  701       if (!(cp=osal_mem_alloc(sizeof(zlmhdr_t)+sizeof(zlsdR_t))))  {
//  702         // oops -- none available. let Client decide what to do.
//  703         s_State                = ZLSTATE_IDLE;
//  704         reply->zlbsR_errorCode = EC_BS_NO_MEM;
//  705       }
//  706       else  {
//  707         s_NumPktGet  = (preamble.len + (ZL_DATA_BLK_SIZE*ZL_NUM_DATA_BLKS-1)) /
//  708                                        (ZL_DATA_BLK_SIZE*ZL_NUM_DATA_BLKS);
//  709         s_blkSize = ZL_DATA_BLK_SIZE * ZL_NUM_DATA_BLKS;
//  710         s_NextPacket = 0;
//  711         s_SessionID  = ((zlbegsessC_t *)cpc)->zlbsC_sessionID;
//  712 
//  713         // set up other pointers
//  714         s_sdreply               = (zlmhdr_t *)cp;
//  715         s_sdreply->zlhdr_msgid  = ZLMSGID_SEND_DATA | ZLMSGID_REPLY_BIT;
//  716         s_sdreply->zlhdr_msglen = sizeof(zlsdR_t);
//  717         s_sdrpayload            = (zlsdR_t *)(cp+sizeof(zlmhdr_t));
//  718         DO_EVENT_CALLBACK(ZLCB_EVENT_OADBEGIN_SERVER);
//  719       }
//  720     }
//  721 #endif
//  722     break;
//  723 
//  724   case ZLMSGID_SESSION_TERM:
//  725     {
//  726       zlendsessR_t *reply = (zlendsessR_t *)cpr;
//  727 
//  728       reply->zlesR_state     = s_State;
??ZLOADApp_handleCommand_4:
        LCALL   ?Subroutine4 & 0xFFFF
//  729       reply->zlesR_errorCode = EC_NO_ERROR;
//  730 
//  731       // guard against terminating the wrong session
//  732       if (((zlendsessC_t *)cpc)->zlesC_sessionID != s_SessionID)  {
??CrossCallReturnLabel_5:
        MOV     DPL,?V0 + 6
        MOV     DPH,?V0 + 7
        MOVX    A,@DPTR
        MOV     R0,A
        MOV     DPTR,#s_SessionID
        MOVX    A,@DPTR
        XRL     A,R0
        JZ      ??ZLOADApp_handleCommand_16
//  733         // wrong session ID
//  734         reply->zlesR_errorCode = EC_ES_BAD_SESS_ID;
        MOV     DPL,R6
        MOV     DPH,R7
        MOV     A,#0x31
        SJMP    ??ZLOADApp_handleCommand_17
//  735       }
//  736 #if defined ZPORT
//  737       else if (s_serialMsg)  {
??ZLOADApp_handleCommand_16:
        MOV     DPTR,#s_serialMsg
        MOVX    A,@DPTR
        JNZ     ??ZLOADApp_handleCommand_18
//  738         // somehow this came over the serial port and it isn't legal
//  739         ((zlbegsessR_t *)cpr)->zlbsR_errorCode = EC_ES_NOT_SERVER;
//  740       }
//  741 #endif
//  742       else  {
//  743 #if defined ZPORT
//  744         if (ZLSTATE_PASS_THROUGH == s_State)  {
        MOV     DPTR,#s_State
        MOVX    A,@DPTR
        XRL     A,#0x4
        JNZ     ??ZLOADApp_handleCommand_18
//  745           // everything is OK. pass this up to host if we're in pass-through mode
//  746           // forward message to host
//  747           zahdrin_t *zain = zlBuildExternalInboundSerialMSG(&s_PTClientInfo, (uint8 *)msg, sizeof(zlmhdr_t) + sizeof(zlendsessC_t));
        ; Setup parameters for call to function zlBuildExternalInboundSerialMSG
        MOV     R1,#0x4
        LCALL   ?Subroutine26 & 0xFFFF
//  748 
//  749           if (zain)  {
??CrossCallReturnLabel_35:
        JZ      ??ZLOADApp_handleCommand_19
//  750             if (SUCCESS != osal_start_timerEx(oad_app_taskId, ZLOAD_XFER_DONE_EVT, SDR_WAIT_TO))
        ; Setup parameters for call to function osal_start_timerEx
        MOV     R4,#-0x18
        MOV     R5,#0x3
        MOV     R2,#0x4
        LCALL   ??Subroutine34_0 & 0xFFFF
??CrossCallReturnLabel_52:
        JZ      ??CrossCallReturnLabel_70
//  751             {
//  752               osal_set_event(oad_app_taskId, ZLOAD_XFER_DONE_EVT);
        ; Setup parameters for call to function osal_set_event
        LCALL   ?Subroutine13 & 0xFFFF
//  753             }
//  754 
//  755             s_PTClientInfo = *MSGpkt;
??CrossCallReturnLabel_70:
        MOV     DPL,?V0 + 10
        MOV     DPH,?V0 + 11
        MOV     R4,#s_PTClientInfo & 0xff
        MOV     R5,#(s_PTClientInfo >> 8) & 0xff
        MOV     A,#0x23
        LCALL   ?MOVE_LONG8_XDATA_XDATA
//  756             zlSendSerial((uint8 *)zain, SIZEOF_ZAIN_HDR + sizeof(zlmhdr_t) + sizeof(zlendsessC_t));
        ; Setup parameters for call to function zlSendSerial
        MOV     R1,#0xa
        MOV     R2,?V0 + 0
        MOV     R3,?V0 + 1
        LCALL   ??zlSendSerial?relay
//  757             osal_mem_free(zain);
        ; Setup parameters for call to function osal_mem_free
        MOV     R2,?V0 + 0
        MOV     R3,?V0 + 1
        LJMP    ??ZLOADApp_handleCommand_20 & 0xFFFF
//  758             return;
//  759           }
//  760           else  {
//  761             reply->zlesR_errorCode = EC_ES_NO_MEM;
??ZLOADApp_handleCommand_19:
        MOV     DPL,R6
        MOV     DPH,R7
        MOV     A,#0x33
        SJMP    ??ZLOADApp_handleCommand_17
//  762           }
//  763         }
//  764 #else
//  765         if (s_State == ZLSTATE_SERVER)  {
//  766           // everything is OK.
//  767           osal_set_event(oad_app_taskId, ZLOAD_XFER_DONE_EVT);
//  768         }
//  769 #endif
//  770         else  {
//  771           // right session ID but I'm not the server
//  772           reply->zlesR_errorCode = EC_ES_NOT_SERVER;
??ZLOADApp_handleCommand_18:
        MOV     DPL,R6
        MOV     DPH,R7
        MOV     A,#0x32
??ZLOADApp_handleCommand_17:
        MOVX    @DPTR,A
//  773         }
//  774       }
//  775     }
//  776     paylSize = sizeof(zlendsessR_t);
        MOV     ?V0 + 3,#0x2
//  777     break;
        LJMP    ??CrossCallReturnLabel_75 & 0xFFFF
//  778 
//  779         case ZLMSGID_CLIENT_CMD:
//  780             {
//  781                 zlclientR_t *reply = (zlclientR_t *)cpr;
//  782 
//  783                 reply->zlclR_errorCode = EC_NO_ERROR;
??ZLOADApp_handleCommand_5:
        MOV     DPL,R6
        MOV     DPH,R7
        CLR     A
        MOVX    @DPTR,A
//  784                 paylSize               = sizeof(zlclientR_t);
        LCALL   ?Subroutine16 & 0xFFFF
//  785                 reply->zlclR_state     = s_State;
//  786 
//  787 #if defined ZPORT
//  788                 // we can be the client only if the dongle code itself is being updated
//  789                 // and then only if the Host is the server
//  790                 if (!s_serialMsg)  {
??CrossCallReturnLabel_20:
        JNZ     ??ZLOADApp_handleCommand_21
//  791                     reply->zlclR_errorCode = EC_CL_NOT_CLIENT;
        MOV     DPL,R6
        MOV     DPH,R7
        MOV     A,#0x43
        LJMP    ??ZLOADApp_handleCommand_13 & 0xFFFF
//  792                 }
//  793                 else                
//  794 #endif
//  795                 if (s_State != ZLSTATE_IDLE) {
??ZLOADApp_handleCommand_21:
        MOV     ?V0 + 0,?V0 + 6
        MOV     ?V0 + 1,?V0 + 7
        MOV     ?V0 + 2,#0x0
        MOV     DPTR,#s_State
        MOVX    A,@DPTR
        XRL     A,#0x1
        JZ      ??ZLOADApp_handleCommand_22
//  796                   if (!osal_memcmp(s_clientInfo, cpc, sizeof(zlclientC_t))) {
        ; Setup parameters for call to function osal_memcmp
        MOV     R0,#?V0 + 0
        LCALL   ?PUSH_XSTACK_I_THREE
        CFI CFA_XSP16 add(XSP16, 40)
        MOV     R4,#0x11
        MOV     R5,#0x0
        MOV     DPTR,#s_clientInfo
        LCALL   ?Subroutine31 & 0xFFFF
??CrossCallReturnLabel_57:
        MOV     R1,DPL
        MOV     R2,DPH
        MOV     R3,#0x0
        LCALL   ??osal_memcmp?relay
        MOV     A,#0x3
        LCALL   ?DEALLOC_XSTACK8
        CFI CFA_XSP16 add(XSP16, 37)
        MOV     A,R1
        JZ      $+5
        LJMP    ??CrossCallReturnLabel_75 & 0xFFFF
//  797                     reply->zlclR_errorCode = EC_CL_NOT_IDLE;
        MOV     DPL,R6
        MOV     DPH,R7
        MOV     A,#0x41
        LJMP    ??ZLOADApp_handleCommand_13 & 0xFFFF
//  798                   }
//  799                 }
//  800 #if (HAL_OAD_XNV_IS_INT && ((HAL_OAD_DL_OSET % HAL_FLASH_PAGE_SIZE) != 0))
//  801                 // Bug 2946 - HalXNVWrite() only triggers a page erase when the first byte of a
//  802                 // page boundary is written, so when dividing the available internal flash in half
//  803                 // results in a page being split in half, this remedial measure is necessary.
//  804                 else if (zlEraseHalfPage() != SUCCESS)
//  805                 {
//  806                   reply->zlclR_errorCode = EC_CL_NO_MEM;
//  807                 }
//  808 #endif
//  809                 else  {
//  810                     zlclientC_t *cmd = (zlclientC_t *)cpc;
//  811                     uint8       *cp;
//  812 
//  813                     // need memory for holding client info, and current send-data cmd
//  814                     // do one alloc and set up the pointers
//  815                     cp = osal_mem_alloc(sizeof(zlclientC_t)+sizeof(zlmhdr_t)+sizeof(zlsdC_t));
??ZLOADApp_handleCommand_22:
        ; Setup parameters for call to function osal_mem_alloc
        MOV     R2,#0x17
        MOV     R3,#0x0
        LCALL   ??osal_mem_alloc?relay
        MOV     ?V0 + 4,R2
        MOV     ?V0 + 5,R3
        MOV     R0,?V0 + 4
        MOV     R1,?V0 + 5
//  816                     if (!cp)  {
        MOV     A,R0
        ORL     A,R1
        JNZ     ??ZLOADApp_handleCommand_23
//  817                         // no more memory. let Commissioner decide what to do. maybe retry later.
//  818                         reply->zlclR_errorCode = EC_CL_NO_MEM;
        MOV     DPL,R6
        MOV     DPH,R7
        MOV     A,#0x42
        LJMP    ??ZLOADApp_handleCommand_13 & 0xFFFF
//  819                         break;
//  820                     }
//  821                     else  {
//  822                         // set up other pointers
//  823                         s_clientInfo  = (zlclientC_t *)cp;
??ZLOADApp_handleCommand_23:
        MOV     DPTR,#s_clientInfo
        MOV     A,R0
        MOVX    @DPTR,A
        INC     DPTR
        MOV     A,R1
        MOVX    @DPTR,A
//  824                         s_sdcmd       = (zlmhdr_t *)(cp+sizeof(zlclientC_t));
        MOV     A,R0
        ADD     A,#0x11
        MOV     R2,A
        MOV     A,R1
        ADDC    A,#0x0
        MOV     R3,A
        MOV     DPTR,#s_sdcmd
        MOV     A,R2
        MOVX    @DPTR,A
        INC     DPTR
        MOV     A,R3
        MOVX    @DPTR,A
//  825                         s_sdcpayload  = (zlsdC_t *)(cp+sizeof(zlclientC_t)+sizeof(zlmhdr_t));
        MOV     A,R0
        ADD     A,#0x14
        MOV     R0,A
        MOV     A,R1
        ADDC    A,#0x0
        MOV     R1,A
        MOV     DPTR,#s_sdcpayload
        MOV     A,R0
        MOVX    @DPTR,A
        INC     DPTR
        MOV     A,R1
        MOVX    @DPTR,A
//  826                     }
//  827 
//  828                     // the info on the image to be downloaded and
//  829                     // the address of the Server is now saved both here
//  830                     // and in persistent memory
//  831                     osal_memcpy(s_clientInfo, cpc, sizeof(zlclientC_t));
        ; Setup parameters for call to function osal_memcpy
        MOV     R0,#?V0 + 0
        LCALL   ?PUSH_XSTACK_I_THREE
        CFI CFA_XSP16 add(XSP16, 40)
        MOV     R4,#0x11
        MOV     R5,#0x0
        MOV     DPTR,#s_clientInfo
        LCALL   ?Subroutine20 & 0xFFFF
??CrossCallReturnLabel_28:
        LCALL   ??Subroutine44_0 & 0xFFFF
??CrossCallReturnLabel_96:
        LCALL   ?DEALLOC_XSTACK8
        CFI CFA_XSP16 add(XSP16, 37)
//  832 
//  833                     // populate destination address structure for convenience
//  834                     dstAddr.addrMode       = afAddr16Bit;
        MOV     DPTR,#dstAddr + 8
        MOV     A,#0x2
        MOVX    @DPTR,A
//  835                     dstAddr.endPoint       = cmd->zlclC_endp;
        MOV     A,?V0 + 6
        ADD     A,#0x10
        MOV     DPL,A
        MOV     A,?V0 + 7
        ADDC    A,#0x0
        MOV     DPH,A
        MOVX    A,@DPTR
        MOV     DPTR,#dstAddr + 9
        MOVX    @DPTR,A
//  836                     osal_memcpy(&dstAddr.addr.shortAddr, &cmd->zlclC_nwk, sizeof(uint16));
        ; Setup parameters for call to function osal_memcpy
        MOV     A,?V0 + 6
        ADD     A,#0xe
        MOV     ?V0 + 0,A
        MOV     A,?V0 + 7
        LCALL   ?Subroutine27 & 0xFFFF
??CrossCallReturnLabel_38:
        LCALL   ?PUSH_XSTACK_I_THREE
        CFI CFA_XSP16 add(XSP16, 40)
        MOV     R4,#0x2
        MOV     R5,#0x0
        MOV     R2,#dstAddr & 0xff
        MOV     R3,#(dstAddr >> 8) & 0xff
        LCALL   ??Subroutine44_0 & 0xFFFF
??CrossCallReturnLabel_97:
        LCALL   ?DEALLOC_XSTACK8
        CFI CFA_XSP16 add(XSP16, 37)
//  837 
//  838                     // set event to cause the session to begin
//  839                     osal_set_event(oad_app_taskId, ZLOAD_IS_CLIENT_EVT);
        ; Setup parameters for call to function osal_set_event
        MOV     R2,#0x2
        MOV     R3,#0x0
        LJMP    ??ZLOADApp_handleCommand_24 & 0xFFFF
//  840                 }
//  841             }
//  842 
//  843             break;
//  844 
//  845         case ZLMSGID_CODE_ENABLE:
//  846             {
//  847                 zlceR_t *reply   = (zlceR_t *)cpr;
//  848 
//  849                 paylSize = sizeof(zlceR_t);
??ZLOADApp_handleCommand_6:
        LCALL   ?Subroutine16 & 0xFFFF
//  850 
//  851                 reply->zlceR_state = s_State;
//  852 
//  853 #if defined ZPORT
//  854                 // we can enable code if the dongle code itself is being updated.
//  855                 if (!s_serialMsg)  {
??CrossCallReturnLabel_21:
        JNZ     ??ZLOADApp_handleCommand_25
//  856                     reply->zlceR_errorCode = EC_CE_NOT_CLIENT;
        MOV     DPL,R6
        MOV     DPH,R7
        MOV     A,#0x55
        LJMP    ??ZLOADApp_handleCommand_13 & 0xFFFF
//  857                 }
//  858                 else
//  859 #endif
//  860                 if (s_State != ZLSTATE_IDLE)  {
??ZLOADApp_handleCommand_25:
        MOV     DPTR,#s_State
        MOVX    A,@DPTR
        XRL     A,#0x1
        JZ      ??ZLOADApp_handleCommand_26
//  861                     reply->zlceR_errorCode = EC_CE_NOT_IDLE;
        MOV     DPL,R6
        MOV     DPH,R7
        MOV     A,#0x53
        LJMP    ??ZLOADApp_handleCommand_13 & 0xFFFF
//  862                 }
//  863                 // see if we're supposed to enable the DL image. spec is in command payload
//  864                 // see if there is one...
//  865                 else {
//  866                   uint8 dlImagePreambleOset;
//  867                   osal_nv_read(PREAMBLE_NV_ID, 0, 1, &dlImagePreambleOset);
??ZLOADApp_handleCommand_26:
        ; Setup parameters for call to function osal_nv_read
        MOV     DPL,?XSP + 0
        MOV     DPH,?XSP + 1
        MOV     ?V0 + 0,DPL
        MOV     ?V0 + 1,DPH
        MOV     R0,#?V0 + 0
        LCALL   ?PUSH_XSTACK_I_TWO
        CFI CFA_XSP16 add(XSP16, 39)
        MOV     ?V0 + 0,#0x1
        MOV     ?V0 + 1,#0x0
        MOV     R0,#?V0 + 0
        LCALL   ?PUSH_XSTACK_I_TWO
        CFI CFA_XSP16 add(XSP16, 41)
        MOV     R4,#0x0
        MOV     R5,#0x0
        MOV     R2,#-0x1
        MOV     R3,#0xf
        LCALL   ??osal_nv_read?relay
        MOV     A,#0x4
        LCALL   ?DEALLOC_XSTACK8
        CFI CFA_XSP16 add(XSP16, 37)
//  868                   HalOADRead(dlImagePreambleOset,(uint8 *)&preamble,sizeof(preamble_t),HAL_OAD_DL);
//  869                   if (preamble.vers != 0xFFFF) {
        MOV     A,#0x7
        LCALL   ?XSTACK_DISP0_8
        MOVX    A,@DPTR
        CPL     A
        JNZ     ??ZLOADApp_handleCommand_27
        INC     DPTR
        MOVX    A,@DPTR
        CPL     A
??ZLOADApp_handleCommand_27:
        JZ      ??ZLOADApp_handleCommand_28
//  870                     // see if they match
//  871                     if (!memcmp(cpc, (uint8 *)&preamble.vers, ZL_IMAGE_ID_LENGTH))  {
        ; Setup parameters for call to function memcmp
        MOV     ?V0 + 0,#0x6
        MOV     R0,#?V0 + 0
        LCALL   ?PUSH_XSTACK_I_TWO
        CFI CFA_XSP16 add(XSP16, 39)
        MOV     A,#0x9
        LCALL   ?XSTACK_DISP0_8
        MOV     R4,DPL
        MOV     R5,DPH
        MOV     R2,?V0 + 6
        MOV     R3,?V0 + 7
        LCALL   ??memcmp?relay
        MOV     A,#0x2
        LCALL   ?DEALLOC_XSTACK8
        CFI CFA_XSP16 add(XSP16, 37)
        MOV     ?V0 + 1,R3
        MOV     A,R2
        ORL     A,?V0 + 1
        MOV     DPL,R6
        MOV     DPH,R7
        JNZ     ??ZLOADApp_handleCommand_29
//  872                         // DL image there and matches request, see if image is sane.
//  873                         if (SUCCESS == HalOADChkDL(dlImagePreambleOset)) {
//  874                             //set event to cause reset
//  875                             if (SUCCESS != osal_start_timerEx(oad_app_taskId, ZLOAD_CODE_ENABLE_EVT,
//  876                                                               SDC_WAIT_TO_ENABLE))
//  877                             {
//  878                               osal_set_event(oad_app_taskId, ZLOAD_CODE_ENABLE_EVT);
//  879                             }
//  880                             reply->zlceR_errorCode = EC_NO_ERROR;
//  881                         }
//  882                         else  {
//  883                             reply->zlceR_errorCode = EC_CE_IMAGE_INSANE;
        MOV     A,#0x54
        LJMP    ??ZLOADApp_handleCommand_13 & 0xFFFF
//  884                         }
//  885                     }
//  886                     else  {
//  887                         // DL image there but doesn't match request
//  888                         reply->zlceR_errorCode = EC_CE_NO_MATCH;
??ZLOADApp_handleCommand_29:
        MOV     A,#0x52
??ZLOADApp_handleCommand_30:
        LJMP    ??ZLOADApp_handleCommand_13 & 0xFFFF
//  889                     }
//  890                   }
//  891                   else  {
//  892                     // no DL image
//  893                     reply->zlceR_errorCode = EC_CE_NO_IMAGE;
??ZLOADApp_handleCommand_28:
        MOV     DPL,R6
        MOV     DPH,R7
        MOV     A,#0x51
        LJMP    ??ZLOADApp_handleCommand_13 & 0xFFFF
//  894                   }
//  895                 }
//  896             }
//  897             break;
//  898 
//  899         case ZLMSGID_SEND_DATA:
//  900 #if defined ZPORT
//  901         {
//  902           zlsdR_t *reply = (zlsdR_t *)cpr;
//  903 
//  904           paylSize = sizeof(zlsdR_t);
??ZLOADApp_handleCommand_7:
        MOV     ?V0 + 3,#0x24
//  905 
//  906           // do a sanity check.
//  907           if (s_serialMsg)  {
        MOV     DPTR,#s_serialMsg
        MOVX    A,@DPTR
        JZ      ??ZLOADApp_handleCommand_31
//  908             reply->zlsdR_errorCode = EC_SD_NOT_SERVER;
??ZLOADApp_handleCommand_32:
        MOV     DPL,R6
        MOV     DPH,R7
        MOV     A,#0x61
        LJMP    ??ZLOADApp_handleCommand_13 & 0xFFFF
//  909           }
//  910           else if (ZLSTATE_PASS_THROUGH == s_State)  {
??ZLOADApp_handleCommand_31:
        MOV     DPTR,#s_State
        MOVX    A,@DPTR
        XRL     A,#0x4
        JNZ     ??ZLOADApp_handleCommand_32
//  911             // this should be good enough...
//  912             if (s_PTClientInfo.srcAddr.addr.shortAddr != MSGpkt->srcAddr.addr.shortAddr)  {
        MOV     DPTR,#s_PTClientInfo + 6
        LCALL   ??Subroutine37_0 & 0xFFFF
??CrossCallReturnLabel_66:
        MOV     DPL,?V0 + 12
        MOV     DPH,?V0 + 13
        MOVX    A,@DPTR
        XRL     A,R0
        JNZ     ??ZLOADApp_handleCommand_33
        INC     DPTR
        MOVX    A,@DPTR
        XRL     A,R1
??ZLOADApp_handleCommand_33:
        JZ      ??ZLOADApp_handleCommand_34
//  913                 // wrong client -- not the current client
//  914                 reply->zlsdR_errorCode = EC_SD_NOT_CLIENT;
        MOV     DPL,R6
        MOV     DPH,R7
        MOV     A,#0x65
        LJMP    ??ZLOADApp_handleCommand_13 & 0xFFFF
//  915             }
//  916             else if (((zlsdC_t *)cpc)->zlsdC_sessionID != s_SessionID)  {
??ZLOADApp_handleCommand_34:
        MOV     DPL,?V0 + 6
        MOV     DPH,?V0 + 7
        INC     DPTR
        INC     DPTR
        MOVX    A,@DPTR
        MOV     R0,A
        MOV     DPTR,#s_SessionID
        MOVX    A,@DPTR
        XRL     A,R0
        JZ      ??ZLOADApp_handleCommand_35
//  917                 reply->zlsdR_errorCode = EC_SD_BAD_SESS_ID;
        MOV     DPL,R6
        MOV     DPH,R7
        MOV     A,#0x62
        SJMP    ??ZLOADApp_handleCommand_30
//  918             }
//  919             else  {
//  920                 zahdrin_t *zain = zlBuildExternalInboundSerialMSG(&s_PTClientInfo, (uint8 *)msg, sizeof(zlmhdr_t) + sizeof(zlsdC_t));
??ZLOADApp_handleCommand_35:
        ; Setup parameters for call to function zlBuildExternalInboundSerialMSG
        MOV     R1,#0x6
        LCALL   ?Subroutine26 & 0xFFFF
//  921 
//  922                 // forward message to host
//  923                 if (zain)  {
??CrossCallReturnLabel_36:
        JZ      ??ZLOADApp_handleCommand_36
//  924                     zlSendSerial((uint8 *)zain, SIZEOF_ZAIN_HDR + sizeof(zlmhdr_t) + sizeof(zlsdC_t));
        ; Setup parameters for call to function zlSendSerial
        MOV     R1,#0xc
        LCALL   ??Subroutine41_0 & 0xFFFF
//  925                     osal_mem_free(zain);
//  926                     // save the AF data. there may be AF parameters we need for the reply
//  927                     s_PTClientInfo = *MSGpkt;
??CrossCallReturnLabel_82:
        MOV     DPL,?V0 + 10
        MOV     DPH,?V0 + 11
        MOV     R4,#s_PTClientInfo & 0xff
        MOV     R5,#(s_PTClientInfo >> 8) & 0xff
        MOV     A,#0x23
        LCALL   ?MOVE_LONG8_XDATA_XDATA
//  928                     return;
        LJMP    ??ZLOADApp_handleCommand_1 & 0xFFFF
//  929                 }
//  930                 else  {
//  931                     reply->zlsdR_errorCode = EC_SD_NO_MEM;
??ZLOADApp_handleCommand_36:
        MOV     DPL,R6
        MOV     DPH,R7
        MOV     A,#0x66
        LJMP    ??ZLOADApp_handleCommand_13 & 0xFFFF
//  932                 }
//  933             }
//  934           }
//  935           else  {
//  936             reply->zlsdR_errorCode = EC_SD_NOT_SERVER;
//  937           }
//  938       }
//  939 #else
//  940             paylSize = sizeof(zlsdR_t);
//  941             if (s_State != ZLSTATE_SERVER)  {
//  942                 // this is the error case when we get a SD before we've started a session
//  943                 break;
//  944             }
//  945             s_sdrpayload->zlsdR_state = s_State;
//  946             buf = (uint8 *)s_sdreply;
//  947             if (((zlsdC_t *)cpc)->zlsdC_sessionID != s_SessionID)  {
//  948                 s_sdrpayload->zlsdR_errorCode = EC_SD_BAD_SESS_ID;
//  949             }
//  950             else  {
//  951                 // set error code first. it might get reset in the processing routine
//  952                 s_sdrpayload->zlsdR_errorCode = EC_NO_ERROR;
//  953                 // process the command
//  954                 zlProcessSDC((zlsdC_t *)cpc);
//  955             }
//  956 #endif
//  957             break;
//  958 
//  959         case ZLMSGID_RESET:
//  960 #if defined ZPORT
//  961             // always legal if over serial port
//  962             if (!s_serialMsg)  {
??ZLOADApp_handleCommand_8:
        MOV     DPTR,#s_serialMsg
        MOVX    A,@DPTR
        JNZ     $+5
        LJMP    ??ZLOADApp_handleCommand_1 & 0xFFFF
//  963                 return;
//  964             }
//  965             else  
//  966 #endif
//  967             {
//  968                 zlrstR_t *reply = (zlrstR_t *)cpr;
//  969 
//  970                 reply->zlrstR_state     = s_State;
        LCALL   ?Subroutine4 & 0xFFFF
//  971                 reply->zlrstR_errorCode = EC_NO_ERROR;
//  972             }
//  973             paylSize = sizeof(zlrstR_t);
??CrossCallReturnLabel_6:
        MOV     ?V0 + 3,#0x2
//  974             osal_set_event(oad_app_taskId, ZLOAD_RESET_EVT);
        ; Setup parameters for call to function osal_set_event
        MOV     R2,#0x8
        MOV     R3,A
??ZLOADApp_handleCommand_24:
        LCALL   ??Subroutine39_0 & 0xFFFF
//  975             break;
//  976 
//  977         default:
//  978             return;
//  979     }
//  980 
//  981     // the case above has filled in the payload. the header is the
//  982     // same for all. go ahead and fill in header and send reply
//  983     {
//  984         zlmhdr_t *hdr = (zlmhdr_t *)buf;
??CrossCallReturnLabel_75:
        MOV     DPTR,#??buf
        LCALL   ?Subroutine20 & 0xFFFF
//  985 
//  986         hdr->zlhdr_msgid  = msg->zlhdr_msgid | ZLMSGID_REPLY_BIT;
??CrossCallReturnLabel_29:
        MOV     DPL,?V0 + 8
        MOV     DPH,?V0 + 9
        MOVX    A,@DPTR
        ORL     A,#0x80
        MOV     DPL,R2
        MOV     DPH,R3
        MOVX    @DPTR,A
//  987         hdr->zlhdr_seqnum = msg->zlhdr_seqnum;
        MOV     DPL,?V0 + 14
        MOV     DPH,?V0 + 15
        LCALL   ?Subroutine18 & 0xFFFF
??CrossCallReturnLabel_23:
        LCALL   ?Subroutine29 & 0xFFFF
//  988         hdr->zlhdr_msglen = paylSize;
??CrossCallReturnLabel_41:
        MOV     A,?V0 + 3
        MOVX    @DPTR,A
//  989 
//  990 #if defined ZPORT
//  991         if (!s_serialMsg)  {
        MOV     DPTR,#s_serialMsg
        MOVX    A,@DPTR
        JNZ     ??ZLOADApp_handleCommand_37
//  992 #endif
//  993         AF_DataRequest( &MSGpkt->srcAddr,
//  994                          afFindEndPointDesc( MSGpkt->endPoint),
//  995                          MSGpkt->clusterId,
//  996                          sizeof(zlmhdr_t) + paylSize, buf,
//  997                         &MSGpkt->cmd.TransSeqNumber,
//  998                          AF_DISCV_ROUTE, AF_DEFAULT_RADIUS );
        ; Setup parameters for call to function afFindEndPointDesc
        MOV     A,?V0 + 10
        ADD     A,#0x14
        MOV     DPL,A
        MOV     A,?V0 + 11
        ADDC    A,#0x0
        MOV     DPH,A
        LCALL   ??Subroutine40_0 & 0xFFFF
//  999 #if defined ZPORT
// 1000         } else  {
??CrossCallReturnLabel_80:
        LCALL   ?PUSH_XSTACK_I_ONE
        CFI CFA_XSP16 add(XSP16, 38)
        MOV     A,?V0 + 10
        ADD     A,#0x1e
        MOV     ?V0 + 0,A
        MOV     A,?V0 + 11
        LCALL   ?Subroutine27 & 0xFFFF
??CrossCallReturnLabel_39:
        LCALL   ?PUSH_XSTACK_I_TWO
        CFI CFA_XSP16 add(XSP16, 40)
        MOV     DPTR,#??buf
        LCALL   ?PUSH_XSTACK8_X_TWO
        CFI CFA_XSP16 add(XSP16, 42)
        MOV     ?V0 + 0,?V0 + 3
        MOV     A,?V0 + 0
        ADD     A,#0x3
        MOV     ?V0 + 0,A
        CLR     A
        LCALL   ?Subroutine27 & 0xFFFF
??CrossCallReturnLabel_40:
        LCALL   ?PUSH_XSTACK_I_TWO
        CFI CFA_XSP16 add(XSP16, 44)
        MOV     DPL,?V0 + 10
        MOV     DPH,?V0 + 11
        INC     DPTR
        INC     DPTR
        INC     DPTR
        INC     DPTR
        LCALL   ?PUSH_XSTACK8_X_TWO
        CFI CFA_XSP16 add(XSP16, 46)
        MOV     R1,#0x20
        MOV     R2,?V0 + 12
        MOV     R3,?V0 + 13
        LCALL   ??Subroutine42_0 & 0xFFFF
??CrossCallReturnLabel_86:
        LCALL   ?DEALLOC_XSTACK8
        CFI CFA_XSP16 add(XSP16, 37)
        SJMP    ??ZLOADApp_handleCommand_1
// 1001             zahdrin_t *zain = zlBuildInternalInboundSerialMSG((uint8 *)hdr, sizeof(zlmhdr_t) + paylSize);
??ZLOADApp_handleCommand_37:
        ; Setup parameters for call to function zlBuildInternalInboundSerialMSG
        MOV     A,#0x3
        ADD     A,?V0 + 3
        MOV     R1,A
        LCALL   ??zlBuildInternalInboundSerialMSG?relay
        MOV     ?V0 + 0,R2
        MOV     ?V0 + 1,R3
        MOV     R6,?V0 + 0
        MOV     R7,?V0 + 1
// 1002 
// 1003             if (zain)  {
        MOV     A,R6
        ORL     A,R7
        JZ      ??ZLOADApp_handleCommand_1
// 1004                 zlSendSerial((uint8 *)zain, SIZEOF_ZAIN_HDR + sizeof(zlmhdr_t) + paylSize);
        ; Setup parameters for call to function zlSendSerial
        MOV     A,#0x9
        ADD     A,?V0 + 3
        MOV     R1,A
        LCALL   ??zlSendSerial?relay
// 1005                 osal_mem_free(zain);
        ; Setup parameters for call to function osal_mem_free
        MOV     A,R6
        MOV     R2,A
        MOV     A,R7
        MOV     R3,A
??ZLOADApp_handleCommand_20:
        LCALL   ??osal_mem_free?relay
??ZLOADApp_handleCommand_1:
        MOV     A,#0xd
        LCALL   ?DEALLOC_XSTACK8
        CFI CFA_XSP16 add(XSP16, 24)
        MOV     R7,#0x10
        LJMP    ?BANKED_LEAVE_XDATA
        CFI EndBlock cfiBlock29
// 1006             }
// 1007         }
// 1008 #else
// 1009         if ((buf != NULL) && 
// 1010            ((msg->zlhdr_msgid != ZLMSGID_SEND_DATA) || (s_State != ZLSTATE_SERVER)))
// 1011         {
// 1012           osal_mem_free(buf);
// 1013         }
// 1014 #endif
// 1015     }
// 1016 
// 1017     return;
// 1018 }

        RSEG BANKED_CODE:CODE:NOROOT(0)
?Subroutine27:
        CFI Block cfiCond30 Using cfiCommon0
        CFI NoFunction
        CFI Conditional ??CrossCallReturnLabel_38
        CFI R6 load(1, XDATA, add(CFA_XSP16, literal(-24)))
        CFI VB load(1, XDATA, add(CFA_XSP16, literal(-23)))
        CFI V0 load(1, XDATA, add(CFA_XSP16, literal(-22)))
        CFI V1 load(1, XDATA, add(CFA_XSP16, literal(-21)))
        CFI V2 load(1, XDATA, add(CFA_XSP16, literal(-20)))
        CFI V3 load(1, XDATA, add(CFA_XSP16, literal(-19)))
        CFI V4 load(1, XDATA, add(CFA_XSP16, literal(-18)))
        CFI V5 load(1, XDATA, add(CFA_XSP16, literal(-17)))
        CFI V6 load(1, XDATA, add(CFA_XSP16, literal(-16)))
        CFI V7 load(1, XDATA, add(CFA_XSP16, literal(-15)))
        CFI V8 load(1, XDATA, add(CFA_XSP16, literal(-14)))
        CFI V9 load(1, XDATA, add(CFA_XSP16, literal(-13)))
        CFI V10 load(1, XDATA, add(CFA_XSP16, literal(-12)))
        CFI V11 load(1, XDATA, add(CFA_XSP16, literal(-11)))
        CFI V12 load(1, XDATA, add(CFA_XSP16, literal(-10)))
        CFI V13 load(1, XDATA, add(CFA_XSP16, literal(-9)))
        CFI V14 load(1, XDATA, add(CFA_XSP16, literal(-8)))
        CFI V15 load(1, XDATA, add(CFA_XSP16, literal(-7)))
        CFI R7 load(1, XDATA, add(CFA_XSP16, literal(-6)))
        CFI ?RET_LOW load(1, XDATA, add(CFA_XSP16, literal(-5)))
        CFI ?RET_HIGH load(1, XDATA, add(CFA_XSP16, literal(-4)))
        CFI ?BRET_EXT load(1, XDATA, add(CFA_XSP16, literal(-3)))
        CFI DPL0 load(1, XDATA, add(CFA_XSP16, literal(-2)))
        CFI DPH0 load(1, XDATA, add(CFA_XSP16, literal(-1)))
        CFI CFA_SP SP+0
        CFI CFA_XSP16 add(XSP16, 37)
        CFI Block cfiCond31 Using cfiCommon0
        CFI (cfiCond31) NoFunction
        CFI (cfiCond31) Conditional ??CrossCallReturnLabel_39
        CFI (cfiCond31) R6 load(1, XDATA, add(CFA_XSP16, literal(-24)))
        CFI (cfiCond31) VB load(1, XDATA, add(CFA_XSP16, literal(-23)))
        CFI (cfiCond31) V0 load(1, XDATA, add(CFA_XSP16, literal(-22)))
        CFI (cfiCond31) V1 load(1, XDATA, add(CFA_XSP16, literal(-21)))
        CFI (cfiCond31) V2 load(1, XDATA, add(CFA_XSP16, literal(-20)))
        CFI (cfiCond31) V3 load(1, XDATA, add(CFA_XSP16, literal(-19)))
        CFI (cfiCond31) V4 load(1, XDATA, add(CFA_XSP16, literal(-18)))
        CFI (cfiCond31) V5 load(1, XDATA, add(CFA_XSP16, literal(-17)))
        CFI (cfiCond31) V6 load(1, XDATA, add(CFA_XSP16, literal(-16)))
        CFI (cfiCond31) V7 load(1, XDATA, add(CFA_XSP16, literal(-15)))
        CFI (cfiCond31) V8 load(1, XDATA, add(CFA_XSP16, literal(-14)))
        CFI (cfiCond31) V9 load(1, XDATA, add(CFA_XSP16, literal(-13)))
        CFI (cfiCond31) V10 load(1, XDATA, add(CFA_XSP16, literal(-12)))
        CFI (cfiCond31) V11 load(1, XDATA, add(CFA_XSP16, literal(-11)))
        CFI (cfiCond31) V12 load(1, XDATA, add(CFA_XSP16, literal(-10)))
        CFI (cfiCond31) V13 load(1, XDATA, add(CFA_XSP16, literal(-9)))
        CFI (cfiCond31) V14 load(1, XDATA, add(CFA_XSP16, literal(-8)))
        CFI (cfiCond31) V15 load(1, XDATA, add(CFA_XSP16, literal(-7)))
        CFI (cfiCond31) R7 load(1, XDATA, add(CFA_XSP16, literal(-6)))
        CFI (cfiCond31) ?RET_LOW load(1, XDATA, add(CFA_XSP16, literal(-5)))
        CFI (cfiCond31) ?RET_HIGH load(1, XDATA, add(CFA_XSP16, literal(-4)))
        CFI (cfiCond31) ?BRET_EXT load(1, XDATA, add(CFA_XSP16, literal(-3)))
        CFI (cfiCond31) DPL0 load(1, XDATA, add(CFA_XSP16, literal(-2)))
        CFI (cfiCond31) DPH0 load(1, XDATA, add(CFA_XSP16, literal(-1)))
        CFI (cfiCond31) CFA_SP SP+0
        CFI (cfiCond31) CFA_XSP16 add(XSP16, 38)
        CFI Block cfiCond32 Using cfiCommon0
        CFI (cfiCond32) NoFunction
        CFI (cfiCond32) Conditional ??CrossCallReturnLabel_40
        CFI (cfiCond32) R6 load(1, XDATA, add(CFA_XSP16, literal(-24)))
        CFI (cfiCond32) VB load(1, XDATA, add(CFA_XSP16, literal(-23)))
        CFI (cfiCond32) V0 load(1, XDATA, add(CFA_XSP16, literal(-22)))
        CFI (cfiCond32) V1 load(1, XDATA, add(CFA_XSP16, literal(-21)))
        CFI (cfiCond32) V2 load(1, XDATA, add(CFA_XSP16, literal(-20)))
        CFI (cfiCond32) V3 load(1, XDATA, add(CFA_XSP16, literal(-19)))
        CFI (cfiCond32) V4 load(1, XDATA, add(CFA_XSP16, literal(-18)))
        CFI (cfiCond32) V5 load(1, XDATA, add(CFA_XSP16, literal(-17)))
        CFI (cfiCond32) V6 load(1, XDATA, add(CFA_XSP16, literal(-16)))
        CFI (cfiCond32) V7 load(1, XDATA, add(CFA_XSP16, literal(-15)))
        CFI (cfiCond32) V8 load(1, XDATA, add(CFA_XSP16, literal(-14)))
        CFI (cfiCond32) V9 load(1, XDATA, add(CFA_XSP16, literal(-13)))
        CFI (cfiCond32) V10 load(1, XDATA, add(CFA_XSP16, literal(-12)))
        CFI (cfiCond32) V11 load(1, XDATA, add(CFA_XSP16, literal(-11)))
        CFI (cfiCond32) V12 load(1, XDATA, add(CFA_XSP16, literal(-10)))
        CFI (cfiCond32) V13 load(1, XDATA, add(CFA_XSP16, literal(-9)))
        CFI (cfiCond32) V14 load(1, XDATA, add(CFA_XSP16, literal(-8)))
        CFI (cfiCond32) V15 load(1, XDATA, add(CFA_XSP16, literal(-7)))
        CFI (cfiCond32) R7 load(1, XDATA, add(CFA_XSP16, literal(-6)))
        CFI (cfiCond32) ?RET_LOW load(1, XDATA, add(CFA_XSP16, literal(-5)))
        CFI (cfiCond32) ?RET_HIGH load(1, XDATA, add(CFA_XSP16, literal(-4)))
        CFI (cfiCond32) ?BRET_EXT load(1, XDATA, add(CFA_XSP16, literal(-3)))
        CFI (cfiCond32) DPL0 load(1, XDATA, add(CFA_XSP16, literal(-2)))
        CFI (cfiCond32) DPH0 load(1, XDATA, add(CFA_XSP16, literal(-1)))
        CFI (cfiCond32) CFA_SP SP+0
        CFI (cfiCond32) CFA_XSP16 add(XSP16, 42)
        CFI Block cfiPicker33 Using cfiCommon1
        CFI (cfiPicker33) NoFunction
        CFI (cfiPicker33) Picker
        ADDC    A,#0x0
        MOV     ?V0 + 1,A
        MOV     R0,#?V0 + 0
        RET
        CFI EndBlock cfiCond30
        CFI EndBlock cfiCond31
        CFI EndBlock cfiCond32
        CFI EndBlock cfiPicker33

        RSEG BANKED_CODE:CODE:NOROOT(0)
?Subroutine26:
        CFI Block cfiCond34 Using cfiCommon0
        CFI NoFunction
        CFI Conditional ??CrossCallReturnLabel_37
        CFI R6 load(1, XDATA, add(CFA_XSP16, literal(-24)))
        CFI VB load(1, XDATA, add(CFA_XSP16, literal(-23)))
        CFI V0 load(1, XDATA, add(CFA_XSP16, literal(-22)))
        CFI V1 load(1, XDATA, add(CFA_XSP16, literal(-21)))
        CFI V2 load(1, XDATA, add(CFA_XSP16, literal(-20)))
        CFI V3 load(1, XDATA, add(CFA_XSP16, literal(-19)))
        CFI V4 load(1, XDATA, add(CFA_XSP16, literal(-18)))
        CFI V5 load(1, XDATA, add(CFA_XSP16, literal(-17)))
        CFI V6 load(1, XDATA, add(CFA_XSP16, literal(-16)))
        CFI V7 load(1, XDATA, add(CFA_XSP16, literal(-15)))
        CFI V8 load(1, XDATA, add(CFA_XSP16, literal(-14)))
        CFI V9 load(1, XDATA, add(CFA_XSP16, literal(-13)))
        CFI V10 load(1, XDATA, add(CFA_XSP16, literal(-12)))
        CFI V11 load(1, XDATA, add(CFA_XSP16, literal(-11)))
        CFI V12 load(1, XDATA, add(CFA_XSP16, literal(-10)))
        CFI V13 load(1, XDATA, add(CFA_XSP16, literal(-9)))
        CFI V14 load(1, XDATA, add(CFA_XSP16, literal(-8)))
        CFI V15 load(1, XDATA, add(CFA_XSP16, literal(-7)))
        CFI R7 load(1, XDATA, add(CFA_XSP16, literal(-6)))
        CFI ?RET_LOW load(1, XDATA, add(CFA_XSP16, literal(-5)))
        CFI ?RET_HIGH load(1, XDATA, add(CFA_XSP16, literal(-4)))
        CFI ?BRET_EXT load(1, XDATA, add(CFA_XSP16, literal(-3)))
        CFI DPL0 load(1, XDATA, add(CFA_XSP16, literal(-2)))
        CFI DPH0 load(1, XDATA, add(CFA_XSP16, literal(-1)))
        CFI CFA_SP SP+0
        CFI CFA_XSP16 add(XSP16, 37)
        CFI Block cfiCond35 Using cfiCommon0
        CFI (cfiCond35) NoFunction
        CFI (cfiCond35) Conditional ??CrossCallReturnLabel_35
        CFI (cfiCond35) R6 load(1, XDATA, add(CFA_XSP16, literal(-24)))
        CFI (cfiCond35) VB load(1, XDATA, add(CFA_XSP16, literal(-23)))
        CFI (cfiCond35) V0 load(1, XDATA, add(CFA_XSP16, literal(-22)))
        CFI (cfiCond35) V1 load(1, XDATA, add(CFA_XSP16, literal(-21)))
        CFI (cfiCond35) V2 load(1, XDATA, add(CFA_XSP16, literal(-20)))
        CFI (cfiCond35) V3 load(1, XDATA, add(CFA_XSP16, literal(-19)))
        CFI (cfiCond35) V4 load(1, XDATA, add(CFA_XSP16, literal(-18)))
        CFI (cfiCond35) V5 load(1, XDATA, add(CFA_XSP16, literal(-17)))
        CFI (cfiCond35) V6 load(1, XDATA, add(CFA_XSP16, literal(-16)))
        CFI (cfiCond35) V7 load(1, XDATA, add(CFA_XSP16, literal(-15)))
        CFI (cfiCond35) V8 load(1, XDATA, add(CFA_XSP16, literal(-14)))
        CFI (cfiCond35) V9 load(1, XDATA, add(CFA_XSP16, literal(-13)))
        CFI (cfiCond35) V10 load(1, XDATA, add(CFA_XSP16, literal(-12)))
        CFI (cfiCond35) V11 load(1, XDATA, add(CFA_XSP16, literal(-11)))
        CFI (cfiCond35) V12 load(1, XDATA, add(CFA_XSP16, literal(-10)))
        CFI (cfiCond35) V13 load(1, XDATA, add(CFA_XSP16, literal(-9)))
        CFI (cfiCond35) V14 load(1, XDATA, add(CFA_XSP16, literal(-8)))
        CFI (cfiCond35) V15 load(1, XDATA, add(CFA_XSP16, literal(-7)))
        CFI (cfiCond35) R7 load(1, XDATA, add(CFA_XSP16, literal(-6)))
        CFI (cfiCond35) ?RET_LOW load(1, XDATA, add(CFA_XSP16, literal(-5)))
        CFI (cfiCond35) ?RET_HIGH load(1, XDATA, add(CFA_XSP16, literal(-4)))
        CFI (cfiCond35) ?BRET_EXT load(1, XDATA, add(CFA_XSP16, literal(-3)))
        CFI (cfiCond35) DPL0 load(1, XDATA, add(CFA_XSP16, literal(-2)))
        CFI (cfiCond35) DPH0 load(1, XDATA, add(CFA_XSP16, literal(-1)))
        CFI (cfiCond35) CFA_SP SP+0
        CFI (cfiCond35) CFA_XSP16 add(XSP16, 37)
        CFI Block cfiCond36 Using cfiCommon0
        CFI (cfiCond36) NoFunction
        CFI (cfiCond36) Conditional ??CrossCallReturnLabel_36
        CFI (cfiCond36) R6 load(1, XDATA, add(CFA_XSP16, literal(-24)))
        CFI (cfiCond36) VB load(1, XDATA, add(CFA_XSP16, literal(-23)))
        CFI (cfiCond36) V0 load(1, XDATA, add(CFA_XSP16, literal(-22)))
        CFI (cfiCond36) V1 load(1, XDATA, add(CFA_XSP16, literal(-21)))
        CFI (cfiCond36) V2 load(1, XDATA, add(CFA_XSP16, literal(-20)))
        CFI (cfiCond36) V3 load(1, XDATA, add(CFA_XSP16, literal(-19)))
        CFI (cfiCond36) V4 load(1, XDATA, add(CFA_XSP16, literal(-18)))
        CFI (cfiCond36) V5 load(1, XDATA, add(CFA_XSP16, literal(-17)))
        CFI (cfiCond36) V6 load(1, XDATA, add(CFA_XSP16, literal(-16)))
        CFI (cfiCond36) V7 load(1, XDATA, add(CFA_XSP16, literal(-15)))
        CFI (cfiCond36) V8 load(1, XDATA, add(CFA_XSP16, literal(-14)))
        CFI (cfiCond36) V9 load(1, XDATA, add(CFA_XSP16, literal(-13)))
        CFI (cfiCond36) V10 load(1, XDATA, add(CFA_XSP16, literal(-12)))
        CFI (cfiCond36) V11 load(1, XDATA, add(CFA_XSP16, literal(-11)))
        CFI (cfiCond36) V12 load(1, XDATA, add(CFA_XSP16, literal(-10)))
        CFI (cfiCond36) V13 load(1, XDATA, add(CFA_XSP16, literal(-9)))
        CFI (cfiCond36) V14 load(1, XDATA, add(CFA_XSP16, literal(-8)))
        CFI (cfiCond36) V15 load(1, XDATA, add(CFA_XSP16, literal(-7)))
        CFI (cfiCond36) R7 load(1, XDATA, add(CFA_XSP16, literal(-6)))
        CFI (cfiCond36) ?RET_LOW load(1, XDATA, add(CFA_XSP16, literal(-5)))
        CFI (cfiCond36) ?RET_HIGH load(1, XDATA, add(CFA_XSP16, literal(-4)))
        CFI (cfiCond36) ?BRET_EXT load(1, XDATA, add(CFA_XSP16, literal(-3)))
        CFI (cfiCond36) DPL0 load(1, XDATA, add(CFA_XSP16, literal(-2)))
        CFI (cfiCond36) DPH0 load(1, XDATA, add(CFA_XSP16, literal(-1)))
        CFI (cfiCond36) CFA_SP SP+0
        CFI (cfiCond36) CFA_XSP16 add(XSP16, 37)
        CFI Block cfiPicker37 Using cfiCommon1
        CFI (cfiPicker37) NoFunction
        CFI (cfiPicker37) Picker
        MOV     R4,?V0 + 8
        MOV     R5,?V0 + 9
        MOV     R2,#s_PTClientInfo & 0xff
        MOV     R3,#(s_PTClientInfo >> 8) & 0xff
        LCALL   ??zlBuildExternalInboundSerialMSG?relay
        MOV     ?V0 + 0,R2
        MOV     ?V0 + 1,R3
        MOV     A,R2
        ORL     A,?V0 + 1
        RET
        CFI EndBlock cfiCond34
        CFI EndBlock cfiCond35
        CFI EndBlock cfiCond36
        CFI EndBlock cfiPicker37

        RSEG BANKED_CODE:CODE:NOROOT(0)
?Subroutine20:
        CFI Block cfiCond38 Using cfiCommon0
        CFI NoFunction
        CFI Conditional ??CrossCallReturnLabel_27
        CFI R6 load(1, XDATA, add(CFA_XSP16, literal(-10)))
        CFI VB load(1, XDATA, add(CFA_XSP16, literal(-9)))
        CFI V0 load(1, XDATA, add(CFA_XSP16, literal(-8)))
        CFI V1 load(1, XDATA, add(CFA_XSP16, literal(-7)))
        CFI R7 load(1, XDATA, add(CFA_XSP16, literal(-6)))
        CFI ?RET_LOW load(1, XDATA, add(CFA_XSP16, literal(-5)))
        CFI ?RET_HIGH load(1, XDATA, add(CFA_XSP16, literal(-4)))
        CFI ?BRET_EXT load(1, XDATA, add(CFA_XSP16, literal(-3)))
        CFI DPL0 load(1, XDATA, add(CFA_XSP16, literal(-2)))
        CFI DPH0 load(1, XDATA, add(CFA_XSP16, literal(-1)))
        CFI CFA_SP SP+0
        CFI CFA_XSP16 add(XSP16, 10)
        CFI Block cfiCond39 Using cfiCommon0
        CFI (cfiCond39) NoFunction
        CFI (cfiCond39) Conditional ??CrossCallReturnLabel_28
        CFI (cfiCond39) R6 load(1, XDATA, add(CFA_XSP16, literal(-24)))
        CFI (cfiCond39) VB load(1, XDATA, add(CFA_XSP16, literal(-23)))
        CFI (cfiCond39) V0 load(1, XDATA, add(CFA_XSP16, literal(-22)))
        CFI (cfiCond39) V1 load(1, XDATA, add(CFA_XSP16, literal(-21)))
        CFI (cfiCond39) V2 load(1, XDATA, add(CFA_XSP16, literal(-20)))
        CFI (cfiCond39) V3 load(1, XDATA, add(CFA_XSP16, literal(-19)))
        CFI (cfiCond39) V4 load(1, XDATA, add(CFA_XSP16, literal(-18)))
        CFI (cfiCond39) V5 load(1, XDATA, add(CFA_XSP16, literal(-17)))
        CFI (cfiCond39) V6 load(1, XDATA, add(CFA_XSP16, literal(-16)))
        CFI (cfiCond39) V7 load(1, XDATA, add(CFA_XSP16, literal(-15)))
        CFI (cfiCond39) V8 load(1, XDATA, add(CFA_XSP16, literal(-14)))
        CFI (cfiCond39) V9 load(1, XDATA, add(CFA_XSP16, literal(-13)))
        CFI (cfiCond39) V10 load(1, XDATA, add(CFA_XSP16, literal(-12)))
        CFI (cfiCond39) V11 load(1, XDATA, add(CFA_XSP16, literal(-11)))
        CFI (cfiCond39) V12 load(1, XDATA, add(CFA_XSP16, literal(-10)))
        CFI (cfiCond39) V13 load(1, XDATA, add(CFA_XSP16, literal(-9)))
        CFI (cfiCond39) V14 load(1, XDATA, add(CFA_XSP16, literal(-8)))
        CFI (cfiCond39) V15 load(1, XDATA, add(CFA_XSP16, literal(-7)))
        CFI (cfiCond39) R7 load(1, XDATA, add(CFA_XSP16, literal(-6)))
        CFI (cfiCond39) ?RET_LOW load(1, XDATA, add(CFA_XSP16, literal(-5)))
        CFI (cfiCond39) ?RET_HIGH load(1, XDATA, add(CFA_XSP16, literal(-4)))
        CFI (cfiCond39) ?BRET_EXT load(1, XDATA, add(CFA_XSP16, literal(-3)))
        CFI (cfiCond39) DPL0 load(1, XDATA, add(CFA_XSP16, literal(-2)))
        CFI (cfiCond39) DPH0 load(1, XDATA, add(CFA_XSP16, literal(-1)))
        CFI (cfiCond39) CFA_SP SP+0
        CFI (cfiCond39) CFA_XSP16 add(XSP16, 40)
        CFI Block cfiCond40 Using cfiCommon0
        CFI (cfiCond40) NoFunction
        CFI (cfiCond40) Conditional ??CrossCallReturnLabel_29
        CFI (cfiCond40) R6 load(1, XDATA, add(CFA_XSP16, literal(-24)))
        CFI (cfiCond40) VB load(1, XDATA, add(CFA_XSP16, literal(-23)))
        CFI (cfiCond40) V0 load(1, XDATA, add(CFA_XSP16, literal(-22)))
        CFI (cfiCond40) V1 load(1, XDATA, add(CFA_XSP16, literal(-21)))
        CFI (cfiCond40) V2 load(1, XDATA, add(CFA_XSP16, literal(-20)))
        CFI (cfiCond40) V3 load(1, XDATA, add(CFA_XSP16, literal(-19)))
        CFI (cfiCond40) V4 load(1, XDATA, add(CFA_XSP16, literal(-18)))
        CFI (cfiCond40) V5 load(1, XDATA, add(CFA_XSP16, literal(-17)))
        CFI (cfiCond40) V6 load(1, XDATA, add(CFA_XSP16, literal(-16)))
        CFI (cfiCond40) V7 load(1, XDATA, add(CFA_XSP16, literal(-15)))
        CFI (cfiCond40) V8 load(1, XDATA, add(CFA_XSP16, literal(-14)))
        CFI (cfiCond40) V9 load(1, XDATA, add(CFA_XSP16, literal(-13)))
        CFI (cfiCond40) V10 load(1, XDATA, add(CFA_XSP16, literal(-12)))
        CFI (cfiCond40) V11 load(1, XDATA, add(CFA_XSP16, literal(-11)))
        CFI (cfiCond40) V12 load(1, XDATA, add(CFA_XSP16, literal(-10)))
        CFI (cfiCond40) V13 load(1, XDATA, add(CFA_XSP16, literal(-9)))
        CFI (cfiCond40) V14 load(1, XDATA, add(CFA_XSP16, literal(-8)))
        CFI (cfiCond40) V15 load(1, XDATA, add(CFA_XSP16, literal(-7)))
        CFI (cfiCond40) R7 load(1, XDATA, add(CFA_XSP16, literal(-6)))
        CFI (cfiCond40) ?RET_LOW load(1, XDATA, add(CFA_XSP16, literal(-5)))
        CFI (cfiCond40) ?RET_HIGH load(1, XDATA, add(CFA_XSP16, literal(-4)))
        CFI (cfiCond40) ?BRET_EXT load(1, XDATA, add(CFA_XSP16, literal(-3)))
        CFI (cfiCond40) DPL0 load(1, XDATA, add(CFA_XSP16, literal(-2)))
        CFI (cfiCond40) DPH0 load(1, XDATA, add(CFA_XSP16, literal(-1)))
        CFI (cfiCond40) CFA_SP SP+0
        CFI (cfiCond40) CFA_XSP16 add(XSP16, 37)
        CFI Block cfiCond41 Using cfiCommon0
        CFI (cfiCond41) NoFunction
        CFI (cfiCond41) Conditional ??CrossCallReturnLabel_30
        CFI (cfiCond41) R6 load(1, XDATA, add(CFA_XSP16, literal(-12)))
        CFI (cfiCond41) VB load(1, XDATA, add(CFA_XSP16, literal(-11)))
        CFI (cfiCond41) V0 load(1, XDATA, add(CFA_XSP16, literal(-10)))
        CFI (cfiCond41) V1 load(1, XDATA, add(CFA_XSP16, literal(-9)))
        CFI (cfiCond41) V2 load(1, XDATA, add(CFA_XSP16, literal(-8)))
        CFI (cfiCond41) V3 load(1, XDATA, add(CFA_XSP16, literal(-7)))
        CFI (cfiCond41) R7 load(1, XDATA, add(CFA_XSP16, literal(-6)))
        CFI (cfiCond41) ?RET_LOW load(1, XDATA, add(CFA_XSP16, literal(-5)))
        CFI (cfiCond41) ?RET_HIGH load(1, XDATA, add(CFA_XSP16, literal(-4)))
        CFI (cfiCond41) ?BRET_EXT load(1, XDATA, add(CFA_XSP16, literal(-3)))
        CFI (cfiCond41) DPL0 load(1, XDATA, add(CFA_XSP16, literal(-2)))
        CFI (cfiCond41) DPH0 load(1, XDATA, add(CFA_XSP16, literal(-1)))
        CFI (cfiCond41) CFA_SP SP+0
        CFI (cfiCond41) CFA_XSP16 add(XSP16, 24)
        CFI Block cfiPicker42 Using cfiCommon1
        CFI (cfiPicker42) NoFunction
        CFI (cfiPicker42) Picker
        MOVX    A,@DPTR
        MOV     R2,A
        INC     DPTR
        MOVX    A,@DPTR
        MOV     R3,A
        RET
        CFI EndBlock cfiCond38
        CFI EndBlock cfiCond39
        CFI EndBlock cfiCond40
        CFI EndBlock cfiCond41
        CFI EndBlock cfiPicker42

        RSEG BANKED_CODE:CODE:NOROOT(0)
?Subroutine18:
        CFI Block cfiCond43 Using cfiCommon0
        CFI NoFunction
        CFI Conditional ??CrossCallReturnLabel_22
        CFI R6 load(1, XDATA, add(CFA_XSP16, literal(-16)))
        CFI VB load(1, XDATA, add(CFA_XSP16, literal(-15)))
        CFI V0 load(1, XDATA, add(CFA_XSP16, literal(-14)))
        CFI V1 load(1, XDATA, add(CFA_XSP16, literal(-13)))
        CFI V2 load(1, XDATA, add(CFA_XSP16, literal(-12)))
        CFI V3 load(1, XDATA, add(CFA_XSP16, literal(-11)))
        CFI V4 load(1, XDATA, add(CFA_XSP16, literal(-10)))
        CFI V5 load(1, XDATA, add(CFA_XSP16, literal(-9)))
        CFI V6 load(1, XDATA, add(CFA_XSP16, literal(-8)))
        CFI V7 load(1, XDATA, add(CFA_XSP16, literal(-7)))
        CFI R7 load(1, XDATA, add(CFA_XSP16, literal(-6)))
        CFI ?RET_LOW load(1, XDATA, add(CFA_XSP16, literal(-5)))
        CFI ?RET_HIGH load(1, XDATA, add(CFA_XSP16, literal(-4)))
        CFI ?BRET_EXT load(1, XDATA, add(CFA_XSP16, literal(-3)))
        CFI DPL0 load(1, XDATA, add(CFA_XSP16, literal(-2)))
        CFI DPH0 load(1, XDATA, add(CFA_XSP16, literal(-1)))
        CFI CFA_SP SP+0
        CFI CFA_XSP16 add(XSP16, 16)
        CFI Block cfiCond44 Using cfiCommon0
        CFI (cfiCond44) NoFunction
        CFI (cfiCond44) Conditional ??CrossCallReturnLabel_23
        CFI (cfiCond44) R6 load(1, XDATA, add(CFA_XSP16, literal(-24)))
        CFI (cfiCond44) VB load(1, XDATA, add(CFA_XSP16, literal(-23)))
        CFI (cfiCond44) V0 load(1, XDATA, add(CFA_XSP16, literal(-22)))
        CFI (cfiCond44) V1 load(1, XDATA, add(CFA_XSP16, literal(-21)))
        CFI (cfiCond44) V2 load(1, XDATA, add(CFA_XSP16, literal(-20)))
        CFI (cfiCond44) V3 load(1, XDATA, add(CFA_XSP16, literal(-19)))
        CFI (cfiCond44) V4 load(1, XDATA, add(CFA_XSP16, literal(-18)))
        CFI (cfiCond44) V5 load(1, XDATA, add(CFA_XSP16, literal(-17)))
        CFI (cfiCond44) V6 load(1, XDATA, add(CFA_XSP16, literal(-16)))
        CFI (cfiCond44) V7 load(1, XDATA, add(CFA_XSP16, literal(-15)))
        CFI (cfiCond44) V8 load(1, XDATA, add(CFA_XSP16, literal(-14)))
        CFI (cfiCond44) V9 load(1, XDATA, add(CFA_XSP16, literal(-13)))
        CFI (cfiCond44) V10 load(1, XDATA, add(CFA_XSP16, literal(-12)))
        CFI (cfiCond44) V11 load(1, XDATA, add(CFA_XSP16, literal(-11)))
        CFI (cfiCond44) V12 load(1, XDATA, add(CFA_XSP16, literal(-10)))
        CFI (cfiCond44) V13 load(1, XDATA, add(CFA_XSP16, literal(-9)))
        CFI (cfiCond44) V14 load(1, XDATA, add(CFA_XSP16, literal(-8)))
        CFI (cfiCond44) V15 load(1, XDATA, add(CFA_XSP16, literal(-7)))
        CFI (cfiCond44) R7 load(1, XDATA, add(CFA_XSP16, literal(-6)))
        CFI (cfiCond44) ?RET_LOW load(1, XDATA, add(CFA_XSP16, literal(-5)))
        CFI (cfiCond44) ?RET_HIGH load(1, XDATA, add(CFA_XSP16, literal(-4)))
        CFI (cfiCond44) ?BRET_EXT load(1, XDATA, add(CFA_XSP16, literal(-3)))
        CFI (cfiCond44) DPL0 load(1, XDATA, add(CFA_XSP16, literal(-2)))
        CFI (cfiCond44) DPH0 load(1, XDATA, add(CFA_XSP16, literal(-1)))
        CFI (cfiCond44) CFA_SP SP+0
        CFI (cfiCond44) CFA_XSP16 add(XSP16, 37)
        CFI Block cfiCond45 Using cfiCommon0
        CFI (cfiCond45) NoFunction
        CFI (cfiCond45) Conditional ??CrossCallReturnLabel_24
        CFI (cfiCond45) R6 load(1, XDATA, add(CFA_XSP16, literal(-19)))
        CFI (cfiCond45) VB load(1, XDATA, add(CFA_XSP16, literal(-18)))
        CFI (cfiCond45) V0 load(1, XDATA, add(CFA_XSP16, literal(-17)))
        CFI (cfiCond45) V1 load(1, XDATA, add(CFA_XSP16, literal(-16)))
        CFI (cfiCond45) V2 load(1, XDATA, add(CFA_XSP16, literal(-15)))
        CFI (cfiCond45) V3 load(1, XDATA, add(CFA_XSP16, literal(-14)))
        CFI (cfiCond45) V4 load(1, XDATA, add(CFA_XSP16, literal(-13)))
        CFI (cfiCond45) V5 load(1, XDATA, add(CFA_XSP16, literal(-12)))
        CFI (cfiCond45) V6 load(1, XDATA, add(CFA_XSP16, literal(-11)))
        CFI (cfiCond45) V7 load(1, XDATA, add(CFA_XSP16, literal(-10)))
        CFI (cfiCond45) V8 load(1, XDATA, add(CFA_XSP16, literal(-9)))
        CFI (cfiCond45) V9 load(1, XDATA, add(CFA_XSP16, literal(-8)))
        CFI (cfiCond45) V10 load(1, XDATA, add(CFA_XSP16, literal(-7)))
        CFI (cfiCond45) R7 load(1, XDATA, add(CFA_XSP16, literal(-6)))
        CFI (cfiCond45) ?RET_LOW load(1, XDATA, add(CFA_XSP16, literal(-5)))
        CFI (cfiCond45) ?RET_HIGH load(1, XDATA, add(CFA_XSP16, literal(-4)))
        CFI (cfiCond45) ?BRET_EXT load(1, XDATA, add(CFA_XSP16, literal(-3)))
        CFI (cfiCond45) DPL0 load(1, XDATA, add(CFA_XSP16, literal(-2)))
        CFI (cfiCond45) DPH0 load(1, XDATA, add(CFA_XSP16, literal(-1)))
        CFI (cfiCond45) CFA_SP SP+0
        CFI (cfiCond45) CFA_XSP16 add(XSP16, 19)
        CFI Block cfiPicker46 Using cfiCommon1
        CFI (cfiPicker46) NoFunction
        CFI (cfiPicker46) Picker
        MOVX    A,@DPTR
        MOV     DPL,R2
        MOV     DPH,R3
        INC     DPTR
        RET
        CFI EndBlock cfiCond43
        CFI EndBlock cfiCond44
        CFI EndBlock cfiCond45
        CFI EndBlock cfiPicker46

        RSEG BANKED_CODE:CODE:NOROOT(0)
?Subroutine16:
        CFI Block cfiCond47 Using cfiCommon0
        CFI NoFunction
        CFI Conditional ??CrossCallReturnLabel_20
        CFI R6 load(1, XDATA, add(CFA_XSP16, literal(-24)))
        CFI VB load(1, XDATA, add(CFA_XSP16, literal(-23)))
        CFI V0 load(1, XDATA, add(CFA_XSP16, literal(-22)))
        CFI V1 load(1, XDATA, add(CFA_XSP16, literal(-21)))
        CFI V2 load(1, XDATA, add(CFA_XSP16, literal(-20)))
        CFI V3 load(1, XDATA, add(CFA_XSP16, literal(-19)))
        CFI V4 load(1, XDATA, add(CFA_XSP16, literal(-18)))
        CFI V5 load(1, XDATA, add(CFA_XSP16, literal(-17)))
        CFI V6 load(1, XDATA, add(CFA_XSP16, literal(-16)))
        CFI V7 load(1, XDATA, add(CFA_XSP16, literal(-15)))
        CFI V8 load(1, XDATA, add(CFA_XSP16, literal(-14)))
        CFI V9 load(1, XDATA, add(CFA_XSP16, literal(-13)))
        CFI V10 load(1, XDATA, add(CFA_XSP16, literal(-12)))
        CFI V11 load(1, XDATA, add(CFA_XSP16, literal(-11)))
        CFI V12 load(1, XDATA, add(CFA_XSP16, literal(-10)))
        CFI V13 load(1, XDATA, add(CFA_XSP16, literal(-9)))
        CFI V14 load(1, XDATA, add(CFA_XSP16, literal(-8)))
        CFI V15 load(1, XDATA, add(CFA_XSP16, literal(-7)))
        CFI R7 load(1, XDATA, add(CFA_XSP16, literal(-6)))
        CFI ?RET_LOW load(1, XDATA, add(CFA_XSP16, literal(-5)))
        CFI ?RET_HIGH load(1, XDATA, add(CFA_XSP16, literal(-4)))
        CFI ?BRET_EXT load(1, XDATA, add(CFA_XSP16, literal(-3)))
        CFI DPL0 load(1, XDATA, add(CFA_XSP16, literal(-2)))
        CFI DPH0 load(1, XDATA, add(CFA_XSP16, literal(-1)))
        CFI CFA_SP SP+0
        CFI CFA_XSP16 add(XSP16, 37)
        CFI Block cfiCond48 Using cfiCommon0
        CFI (cfiCond48) NoFunction
        CFI (cfiCond48) Conditional ??CrossCallReturnLabel_21
        CFI (cfiCond48) R6 load(1, XDATA, add(CFA_XSP16, literal(-24)))
        CFI (cfiCond48) VB load(1, XDATA, add(CFA_XSP16, literal(-23)))
        CFI (cfiCond48) V0 load(1, XDATA, add(CFA_XSP16, literal(-22)))
        CFI (cfiCond48) V1 load(1, XDATA, add(CFA_XSP16, literal(-21)))
        CFI (cfiCond48) V2 load(1, XDATA, add(CFA_XSP16, literal(-20)))
        CFI (cfiCond48) V3 load(1, XDATA, add(CFA_XSP16, literal(-19)))
        CFI (cfiCond48) V4 load(1, XDATA, add(CFA_XSP16, literal(-18)))
        CFI (cfiCond48) V5 load(1, XDATA, add(CFA_XSP16, literal(-17)))
        CFI (cfiCond48) V6 load(1, XDATA, add(CFA_XSP16, literal(-16)))
        CFI (cfiCond48) V7 load(1, XDATA, add(CFA_XSP16, literal(-15)))
        CFI (cfiCond48) V8 load(1, XDATA, add(CFA_XSP16, literal(-14)))
        CFI (cfiCond48) V9 load(1, XDATA, add(CFA_XSP16, literal(-13)))
        CFI (cfiCond48) V10 load(1, XDATA, add(CFA_XSP16, literal(-12)))
        CFI (cfiCond48) V11 load(1, XDATA, add(CFA_XSP16, literal(-11)))
        CFI (cfiCond48) V12 load(1, XDATA, add(CFA_XSP16, literal(-10)))
        CFI (cfiCond48) V13 load(1, XDATA, add(CFA_XSP16, literal(-9)))
        CFI (cfiCond48) V14 load(1, XDATA, add(CFA_XSP16, literal(-8)))
        CFI (cfiCond48) V15 load(1, XDATA, add(CFA_XSP16, literal(-7)))
        CFI (cfiCond48) R7 load(1, XDATA, add(CFA_XSP16, literal(-6)))
        CFI (cfiCond48) ?RET_LOW load(1, XDATA, add(CFA_XSP16, literal(-5)))
        CFI (cfiCond48) ?RET_HIGH load(1, XDATA, add(CFA_XSP16, literal(-4)))
        CFI (cfiCond48) ?BRET_EXT load(1, XDATA, add(CFA_XSP16, literal(-3)))
        CFI (cfiCond48) DPL0 load(1, XDATA, add(CFA_XSP16, literal(-2)))
        CFI (cfiCond48) DPH0 load(1, XDATA, add(CFA_XSP16, literal(-1)))
        CFI (cfiCond48) CFA_SP SP+0
        CFI (cfiCond48) CFA_XSP16 add(XSP16, 37)
        CFI Block cfiPicker49 Using cfiCommon1
        CFI (cfiPicker49) NoFunction
        CFI (cfiPicker49) Picker
        MOV     ?V0 + 3,#0x2
        MOV     DPTR,#s_State
        MOVX    A,@DPTR
        MOV     DPL,?V0 + 4
        MOV     DPH,?V0 + 5
        MOVX    @DPTR,A
        MOV     DPTR,#s_serialMsg
        MOVX    A,@DPTR
        RET
        CFI EndBlock cfiCond47
        CFI EndBlock cfiCond48
        CFI EndBlock cfiPicker49

        RSEG BANKED_CODE:CODE:NOROOT(0)
?Subroutine4:
        CFI Block cfiCond50 Using cfiCommon0
        CFI NoFunction
        CFI Conditional ??CrossCallReturnLabel_4
        CFI R6 load(1, XDATA, add(CFA_XSP16, literal(-24)))
        CFI VB load(1, XDATA, add(CFA_XSP16, literal(-23)))
        CFI V0 load(1, XDATA, add(CFA_XSP16, literal(-22)))
        CFI V1 load(1, XDATA, add(CFA_XSP16, literal(-21)))
        CFI V2 load(1, XDATA, add(CFA_XSP16, literal(-20)))
        CFI V3 load(1, XDATA, add(CFA_XSP16, literal(-19)))
        CFI V4 load(1, XDATA, add(CFA_XSP16, literal(-18)))
        CFI V5 load(1, XDATA, add(CFA_XSP16, literal(-17)))
        CFI V6 load(1, XDATA, add(CFA_XSP16, literal(-16)))
        CFI V7 load(1, XDATA, add(CFA_XSP16, literal(-15)))
        CFI V8 load(1, XDATA, add(CFA_XSP16, literal(-14)))
        CFI V9 load(1, XDATA, add(CFA_XSP16, literal(-13)))
        CFI V10 load(1, XDATA, add(CFA_XSP16, literal(-12)))
        CFI V11 load(1, XDATA, add(CFA_XSP16, literal(-11)))
        CFI V12 load(1, XDATA, add(CFA_XSP16, literal(-10)))
        CFI V13 load(1, XDATA, add(CFA_XSP16, literal(-9)))
        CFI V14 load(1, XDATA, add(CFA_XSP16, literal(-8)))
        CFI V15 load(1, XDATA, add(CFA_XSP16, literal(-7)))
        CFI R7 load(1, XDATA, add(CFA_XSP16, literal(-6)))
        CFI ?RET_LOW load(1, XDATA, add(CFA_XSP16, literal(-5)))
        CFI ?RET_HIGH load(1, XDATA, add(CFA_XSP16, literal(-4)))
        CFI ?BRET_EXT load(1, XDATA, add(CFA_XSP16, literal(-3)))
        CFI DPL0 load(1, XDATA, add(CFA_XSP16, literal(-2)))
        CFI DPH0 load(1, XDATA, add(CFA_XSP16, literal(-1)))
        CFI CFA_SP SP+0
        CFI CFA_XSP16 add(XSP16, 37)
        CFI Block cfiCond51 Using cfiCommon0
        CFI (cfiCond51) NoFunction
        CFI (cfiCond51) Conditional ??CrossCallReturnLabel_5
        CFI (cfiCond51) R6 load(1, XDATA, add(CFA_XSP16, literal(-24)))
        CFI (cfiCond51) VB load(1, XDATA, add(CFA_XSP16, literal(-23)))
        CFI (cfiCond51) V0 load(1, XDATA, add(CFA_XSP16, literal(-22)))
        CFI (cfiCond51) V1 load(1, XDATA, add(CFA_XSP16, literal(-21)))
        CFI (cfiCond51) V2 load(1, XDATA, add(CFA_XSP16, literal(-20)))
        CFI (cfiCond51) V3 load(1, XDATA, add(CFA_XSP16, literal(-19)))
        CFI (cfiCond51) V4 load(1, XDATA, add(CFA_XSP16, literal(-18)))
        CFI (cfiCond51) V5 load(1, XDATA, add(CFA_XSP16, literal(-17)))
        CFI (cfiCond51) V6 load(1, XDATA, add(CFA_XSP16, literal(-16)))
        CFI (cfiCond51) V7 load(1, XDATA, add(CFA_XSP16, literal(-15)))
        CFI (cfiCond51) V8 load(1, XDATA, add(CFA_XSP16, literal(-14)))
        CFI (cfiCond51) V9 load(1, XDATA, add(CFA_XSP16, literal(-13)))
        CFI (cfiCond51) V10 load(1, XDATA, add(CFA_XSP16, literal(-12)))
        CFI (cfiCond51) V11 load(1, XDATA, add(CFA_XSP16, literal(-11)))
        CFI (cfiCond51) V12 load(1, XDATA, add(CFA_XSP16, literal(-10)))
        CFI (cfiCond51) V13 load(1, XDATA, add(CFA_XSP16, literal(-9)))
        CFI (cfiCond51) V14 load(1, XDATA, add(CFA_XSP16, literal(-8)))
        CFI (cfiCond51) V15 load(1, XDATA, add(CFA_XSP16, literal(-7)))
        CFI (cfiCond51) R7 load(1, XDATA, add(CFA_XSP16, literal(-6)))
        CFI (cfiCond51) ?RET_LOW load(1, XDATA, add(CFA_XSP16, literal(-5)))
        CFI (cfiCond51) ?RET_HIGH load(1, XDATA, add(CFA_XSP16, literal(-4)))
        CFI (cfiCond51) ?BRET_EXT load(1, XDATA, add(CFA_XSP16, literal(-3)))
        CFI (cfiCond51) DPL0 load(1, XDATA, add(CFA_XSP16, literal(-2)))
        CFI (cfiCond51) DPH0 load(1, XDATA, add(CFA_XSP16, literal(-1)))
        CFI (cfiCond51) CFA_SP SP+0
        CFI (cfiCond51) CFA_XSP16 add(XSP16, 37)
        CFI Block cfiCond52 Using cfiCommon0
        CFI (cfiCond52) NoFunction
        CFI (cfiCond52) Conditional ??CrossCallReturnLabel_6
        CFI (cfiCond52) R6 load(1, XDATA, add(CFA_XSP16, literal(-24)))
        CFI (cfiCond52) VB load(1, XDATA, add(CFA_XSP16, literal(-23)))
        CFI (cfiCond52) V0 load(1, XDATA, add(CFA_XSP16, literal(-22)))
        CFI (cfiCond52) V1 load(1, XDATA, add(CFA_XSP16, literal(-21)))
        CFI (cfiCond52) V2 load(1, XDATA, add(CFA_XSP16, literal(-20)))
        CFI (cfiCond52) V3 load(1, XDATA, add(CFA_XSP16, literal(-19)))
        CFI (cfiCond52) V4 load(1, XDATA, add(CFA_XSP16, literal(-18)))
        CFI (cfiCond52) V5 load(1, XDATA, add(CFA_XSP16, literal(-17)))
        CFI (cfiCond52) V6 load(1, XDATA, add(CFA_XSP16, literal(-16)))
        CFI (cfiCond52) V7 load(1, XDATA, add(CFA_XSP16, literal(-15)))
        CFI (cfiCond52) V8 load(1, XDATA, add(CFA_XSP16, literal(-14)))
        CFI (cfiCond52) V9 load(1, XDATA, add(CFA_XSP16, literal(-13)))
        CFI (cfiCond52) V10 load(1, XDATA, add(CFA_XSP16, literal(-12)))
        CFI (cfiCond52) V11 load(1, XDATA, add(CFA_XSP16, literal(-11)))
        CFI (cfiCond52) V12 load(1, XDATA, add(CFA_XSP16, literal(-10)))
        CFI (cfiCond52) V13 load(1, XDATA, add(CFA_XSP16, literal(-9)))
        CFI (cfiCond52) V14 load(1, XDATA, add(CFA_XSP16, literal(-8)))
        CFI (cfiCond52) V15 load(1, XDATA, add(CFA_XSP16, literal(-7)))
        CFI (cfiCond52) R7 load(1, XDATA, add(CFA_XSP16, literal(-6)))
        CFI (cfiCond52) ?RET_LOW load(1, XDATA, add(CFA_XSP16, literal(-5)))
        CFI (cfiCond52) ?RET_HIGH load(1, XDATA, add(CFA_XSP16, literal(-4)))
        CFI (cfiCond52) ?BRET_EXT load(1, XDATA, add(CFA_XSP16, literal(-3)))
        CFI (cfiCond52) DPL0 load(1, XDATA, add(CFA_XSP16, literal(-2)))
        CFI (cfiCond52) DPH0 load(1, XDATA, add(CFA_XSP16, literal(-1)))
        CFI (cfiCond52) CFA_SP SP+0
        CFI (cfiCond52) CFA_XSP16 add(XSP16, 37)
        CFI Block cfiPicker53 Using cfiCommon1
        CFI (cfiPicker53) NoFunction
        CFI (cfiPicker53) Picker
        MOV     DPTR,#s_State
        MOVX    A,@DPTR
        MOV     DPL,?V0 + 4
        MOV     DPH,?V0 + 5
        LCALL   ?Subroutine30 & 0xFFFF
??CrossCallReturnLabel_45:
        CLR     A
        MOVX    @DPTR,A
        RET
        CFI EndBlock cfiCond50
        CFI EndBlock cfiCond51
        CFI EndBlock cfiCond52
        CFI EndBlock cfiPicker53

        RSEG XDATA_Z:XDATA:NOROOT(0)
        DATA16
??buf:
        DS 2
        REQUIRE __INIT_XDATA_Z
// 1019 
// 1020 #if !defined ZPORT
// 1021 /**********************************************************************************
// 1022  * @fn      zlProcessSDC
// 1023  *
// 1024  * @brief   Process the SDC command.
// 1025  *
// 1026  * @param   cmd - A valid alsdC_t structure with valid data.
// 1027  *
// 1028  * @return  none
// 1029  */
// 1030 static void zlProcessSDC(zlsdC_t *cmd)
// 1031 {
// 1032   uint16 reqPktNum;
// 1033   osal_memcpy(&reqPktNum, &cmd->zlsdC_pktNum, sizeof(uint16));
// 1034 
// 1035   // if the requested packet is the previous one the Client didn't get the
// 1036   // transmission for some reason. just resend the previous one. the data
// 1037   // are already in there. if we never got the command this test will fail.
// 1038   if (s_NextPacket && (reqPktNum == (s_NextPacket-1)))  {
// 1039       return;
// 1040   }
// 1041 
// 1042   // make sure the request is otherwise valid
// 1043   if (!zlIsReqPacketNumOK(reqPktNum))  {
// 1044       s_sdrpayload->zlsdR_errorCode = EC_SD_BAD_PKT_NUM;
// 1045       return;
// 1046   }
// 1047 
// 1048   // Read data into reply buffer.
// 1049   HalOADRead((uint32)s_NextPacket * s_blkSize, s_sdrpayload->zlsdR_data,
// 1050                                     ZL_DATA_BLK_SIZE*ZL_NUM_DATA_BLKS, s_itype);
// 1051 
// 1052   // set packet number in reply
// 1053   osal_memcpy(&s_sdrpayload->zlsdR_pktNum, &reqPktNum, sizeof(uint16));
// 1054   s_NextPacket++;
// 1055 }
// 1056 
// 1057 /**********************************************************************************
// 1058  * @fn      zlIsReqPacketNumOK
// 1059  *
// 1060  * @brief   Check validity of resquested packet number as Server
// 1061  *
// 1062  * @param   input
// 1063  *            reqNum  requested packet number
// 1064  *
// 1065  * @return  0: packet number request illegal
// 1066  *          1: packet number request is valid
// 1067  */
// 1068 static uint8 zlIsReqPacketNumOK(uint16 reqNum)
// 1069 {
// 1070     if (reqNum >= s_NumPktGet) {
// 1071         return 0;
// 1072     }
// 1073     return 1;
// 1074 }
// 1075 #endif
// 1076 
// 1077 /**********************************************************************************
// 1078  * @fn      ZLOADApp_handleReply
// 1079  *
// 1080  * @brief   Handle a normal ZLOAD reply
// 1081  *
// 1082  * @param   input
// 1083  *            msg pointer to ZLOAD message
// 1084  *
// 1085  * @return  none.
// 1086  */

        RSEG BANKED_CODE:CODE:NOROOT(0)
// 1087 static void ZLOADApp_handleReply(afIncomingMSGPacket_t *MSGpkt, zlmhdr_t *msg)
ZLOADApp_handleReply:
        CFI Block cfiBlock54 Using cfiCommon0
        CFI Function ZLOADApp_handleReply
        CODE
// 1088 {
        FUNCALL ZLOADApp_handleReply, zlBuildExternalInboundSerialMSG
        LOCFRAME ISTACK, 0, STACK
        LOCFRAME PSTACK, 0, STACK
        LOCFRAME XSTACK, 18, STACK
        LOCFRAME IOVERLAY, 0, STATIC
        LOCFRAME DOVERLAY, 0, STATIC
        ARGFRAME ISTACK, 0, STACK
        ARGFRAME PSTACK, 0, STACK
        ARGFRAME XSTACK, 18, STACK
        ARGFRAME IOVERLAY, 0, STATIC
        ARGFRAME DOVERLAY, 0, STATIC
        FUNCALL ZLOADApp_handleReply, zlSendSerial
        LOCFRAME ISTACK, 0, STACK
        LOCFRAME PSTACK, 0, STACK
        LOCFRAME XSTACK, 18, STACK
        LOCFRAME IOVERLAY, 0, STATIC
        LOCFRAME DOVERLAY, 0, STATIC
        ARGFRAME ISTACK, 0, STACK
        ARGFRAME PSTACK, 0, STACK
        ARGFRAME XSTACK, 18, STACK
        ARGFRAME IOVERLAY, 0, STATIC
        ARGFRAME DOVERLAY, 0, STATIC
        FUNCALL ZLOADApp_handleReply, osal_mem_free
        LOCFRAME ISTACK, 0, STACK
        LOCFRAME PSTACK, 0, STACK
        LOCFRAME XSTACK, 18, STACK
        LOCFRAME IOVERLAY, 0, STATIC
        LOCFRAME DOVERLAY, 0, STATIC
        ARGFRAME ISTACK, 0, STACK
        ARGFRAME PSTACK, 0, STACK
        ARGFRAME XSTACK, 18, STACK
        ARGFRAME IOVERLAY, 0, STATIC
        ARGFRAME DOVERLAY, 0, STATIC
        FUNCALL ZLOADApp_handleReply, afFindEndPointDesc
        LOCFRAME ISTACK, 0, STACK
        LOCFRAME PSTACK, 0, STACK
        LOCFRAME XSTACK, 18, STACK
        LOCFRAME IOVERLAY, 0, STATIC
        LOCFRAME DOVERLAY, 0, STATIC
        ARGFRAME ISTACK, 0, STACK
        ARGFRAME PSTACK, 0, STACK
        ARGFRAME XSTACK, 18, STACK
        ARGFRAME IOVERLAY, 0, STATIC
        ARGFRAME DOVERLAY, 0, STATIC
        FUNCALL ZLOADApp_handleReply, AF_DataRequest
        LOCFRAME ISTACK, 0, STACK
        LOCFRAME PSTACK, 0, STACK
        LOCFRAME XSTACK, 27, STACK
        LOCFRAME IOVERLAY, 0, STATIC
        LOCFRAME DOVERLAY, 0, STATIC
        ARGFRAME ISTACK, 0, STACK
        ARGFRAME PSTACK, 0, STACK
        ARGFRAME XSTACK, 27, STACK
        ARGFRAME IOVERLAY, 0, STATIC
        ARGFRAME DOVERLAY, 0, STATIC
        FUNCALL ZLOADApp_handleReply, osal_set_event
        LOCFRAME ISTACK, 0, STACK
        LOCFRAME PSTACK, 0, STACK
        LOCFRAME XSTACK, 18, STACK
        LOCFRAME IOVERLAY, 0, STATIC
        LOCFRAME DOVERLAY, 0, STATIC
        ARGFRAME ISTACK, 0, STACK
        ARGFRAME PSTACK, 0, STACK
        ARGFRAME XSTACK, 18, STACK
        ARGFRAME IOVERLAY, 0, STATIC
        ARGFRAME DOVERLAY, 0, STATIC
        FUNCALL ZLOADApp_handleReply, osal_set_event
        LOCFRAME ISTACK, 0, STACK
        LOCFRAME PSTACK, 0, STACK
        LOCFRAME XSTACK, 18, STACK
        LOCFRAME IOVERLAY, 0, STATIC
        LOCFRAME DOVERLAY, 0, STATIC
        ARGFRAME ISTACK, 0, STACK
        ARGFRAME PSTACK, 0, STACK
        ARGFRAME XSTACK, 18, STACK
        ARGFRAME IOVERLAY, 0, STATIC
        ARGFRAME DOVERLAY, 0, STATIC
        FUNCALL ZLOADApp_handleReply, zlRequestNextDataPacket
        LOCFRAME ISTACK, 0, STACK
        LOCFRAME PSTACK, 0, STACK
        LOCFRAME XSTACK, 18, STACK
        LOCFRAME IOVERLAY, 0, STATIC
        LOCFRAME DOVERLAY, 0, STATIC
        ARGFRAME ISTACK, 0, STACK
        ARGFRAME PSTACK, 0, STACK
        ARGFRAME XSTACK, 18, STACK
        ARGFRAME IOVERLAY, 0, STATIC
        ARGFRAME DOVERLAY, 0, STATIC
        FUNCALL ZLOADApp_handleReply, afFindEndPointDesc
        LOCFRAME ISTACK, 0, STACK
        LOCFRAME PSTACK, 0, STACK
        LOCFRAME XSTACK, 18, STACK
        LOCFRAME IOVERLAY, 0, STATIC
        LOCFRAME DOVERLAY, 0, STATIC
        ARGFRAME ISTACK, 0, STACK
        ARGFRAME PSTACK, 0, STACK
        ARGFRAME XSTACK, 18, STACK
        ARGFRAME IOVERLAY, 0, STATIC
        ARGFRAME DOVERLAY, 0, STATIC
        FUNCALL ZLOADApp_handleReply, AF_DataRequest
        LOCFRAME ISTACK, 0, STACK
        LOCFRAME PSTACK, 0, STACK
        LOCFRAME XSTACK, 27, STACK
        LOCFRAME IOVERLAY, 0, STATIC
        LOCFRAME DOVERLAY, 0, STATIC
        ARGFRAME ISTACK, 0, STACK
        ARGFRAME PSTACK, 0, STACK
        ARGFRAME XSTACK, 27, STACK
        ARGFRAME IOVERLAY, 0, STATIC
        ARGFRAME DOVERLAY, 0, STATIC
        FUNCALL ZLOADApp_handleReply, osal_memcpy
        LOCFRAME ISTACK, 0, STACK
        LOCFRAME PSTACK, 0, STACK
        LOCFRAME XSTACK, 21, STACK
        LOCFRAME IOVERLAY, 0, STATIC
        LOCFRAME DOVERLAY, 0, STATIC
        ARGFRAME ISTACK, 0, STACK
        ARGFRAME PSTACK, 0, STACK
        ARGFRAME XSTACK, 21, STACK
        ARGFRAME IOVERLAY, 0, STATIC
        ARGFRAME DOVERLAY, 0, STATIC
        FUNCALL ZLOADApp_handleReply, zlRequestNextDataPacket
        LOCFRAME ISTACK, 0, STACK
        LOCFRAME PSTACK, 0, STACK
        LOCFRAME XSTACK, 18, STACK
        LOCFRAME IOVERLAY, 0, STATIC
        LOCFRAME DOVERLAY, 0, STATIC
        ARGFRAME ISTACK, 0, STACK
        ARGFRAME PSTACK, 0, STACK
        ARGFRAME XSTACK, 18, STACK
        ARGFRAME IOVERLAY, 0, STATIC
        ARGFRAME DOVERLAY, 0, STATIC
        FUNCALL ZLOADApp_handleReply, afFindEndPointDesc
        LOCFRAME ISTACK, 0, STACK
        LOCFRAME PSTACK, 0, STACK
        LOCFRAME XSTACK, 18, STACK
        LOCFRAME IOVERLAY, 0, STATIC
        LOCFRAME DOVERLAY, 0, STATIC
        ARGFRAME ISTACK, 0, STACK
        ARGFRAME PSTACK, 0, STACK
        ARGFRAME XSTACK, 18, STACK
        ARGFRAME IOVERLAY, 0, STATIC
        ARGFRAME DOVERLAY, 0, STATIC
        FUNCALL ZLOADApp_handleReply, AF_DataRequest
        LOCFRAME ISTACK, 0, STACK
        LOCFRAME PSTACK, 0, STACK
        LOCFRAME XSTACK, 27, STACK
        LOCFRAME IOVERLAY, 0, STATIC
        LOCFRAME DOVERLAY, 0, STATIC
        ARGFRAME ISTACK, 0, STACK
        ARGFRAME PSTACK, 0, STACK
        ARGFRAME XSTACK, 27, STACK
        ARGFRAME IOVERLAY, 0, STATIC
        ARGFRAME DOVERLAY, 0, STATIC
        MOV     A,#-0x10
        LCALL   ?BANKED_ENTER_XDATA
        CFI DPH0 load(1, XDATA, add(CFA_XSP16, literal(-1)))
        CFI DPL0 load(1, XDATA, add(CFA_XSP16, literal(-2)))
        CFI ?BRET_EXT load(1, XDATA, add(CFA_XSP16, literal(-3)))
        CFI ?RET_HIGH load(1, XDATA, add(CFA_XSP16, literal(-4)))
        CFI ?RET_LOW load(1, XDATA, add(CFA_XSP16, literal(-5)))
        CFI R7 load(1, XDATA, add(CFA_XSP16, literal(-6)))
        CFI V7 load(1, XDATA, add(CFA_XSP16, literal(-7)))
        CFI V6 load(1, XDATA, add(CFA_XSP16, literal(-8)))
        CFI V5 load(1, XDATA, add(CFA_XSP16, literal(-9)))
        CFI V4 load(1, XDATA, add(CFA_XSP16, literal(-10)))
        CFI V3 load(1, XDATA, add(CFA_XSP16, literal(-11)))
        CFI V2 load(1, XDATA, add(CFA_XSP16, literal(-12)))
        CFI V1 load(1, XDATA, add(CFA_XSP16, literal(-13)))
        CFI V0 load(1, XDATA, add(CFA_XSP16, literal(-14)))
        CFI VB load(1, XDATA, add(CFA_XSP16, literal(-15)))
        CFI R6 load(1, XDATA, add(CFA_XSP16, literal(-16)))
        CFI CFA_SP SP+0
        CFI CFA_XSP16 add(XSP16, 16)
        ; Saved register size: 16
        ; Auto size: 2
        MOV     A,#-0x2
        LCALL   ?ALLOC_XSTACK8
        CFI CFA_XSP16 add(XSP16, 18)
        MOV     ?V0 + 2,R4
        MOV     ?V0 + 3,R5
// 1089   uint8    *cpr;
// 1090 #if defined ZPORT
// 1091   uint8 msgSize = 0;
// 1092 #endif
// 1093 
// 1094 #if !defined ZPORT
// 1095   // right reply?
// 1096   if (s_firstTx)  {
// 1097       s_firstTx = 0;
// 1098   }
// 1099   else  {
// 1100     if (msg->zlhdr_seqnum != s_lastTxSeqNum)  {
// 1101       return;
// 1102     }
// 1103     if (msg->zlhdr_seqnum == s_lastSeen)  {
// 1104       // duplicate reply to a resend
// 1105       return;
// 1106     }
// 1107   }
// 1108   s_lastSeen = msg->zlhdr_seqnum;
// 1109 #endif
// 1110 
// 1111   cpr = (uint8 *)msg + sizeof(zlmhdr_t);   // offset of reply payload
        MOV     A,R4
        ADD     A,#0x3
        MOV     A,R5
        ADDC    A,#0x0
        INC     R4
        INC     R4
        INC     R4
        MOV     R5,A
// 1112 
// 1113   // generate replies to commands here. reply may generate another command out, for
// 1114   // example, if data are being transfered and the dvice is acting as client.
// 1115   // Commands handled here. replies in next routine
// 1116 
// 1117   // ignore reply bit on switch()
// 1118   switch (msg->zlhdr_msgid & (0xFF ^ ZLMSGID_REPLY_BIT))  {
        MOV     DPL,R4
        MOV     DPH,R5
        INC     DPTR
        MOV     R6,DPL
        MOV     R7,DPH
        MOV     A,R4
        ADD     A,#0x2
        MOV     ?V0 + 0,A
        MOV     A,R5
        ADDC    A,#0x0
        MOV     ?V0 + 1,A
        MOV     DPL,?V0 + 2
        MOV     DPH,?V0 + 3
        MOVX    A,@DPTR
        ANL     A,#0x7f
        DEC     A
        JZ      ??ZLOADApp_handleReply_0
        DEC     A
        JZ      ??ZLOADApp_handleReply_1
        DEC     A
        JNZ     $+5
        LJMP    ??ZLOADApp_handleReply_2 & 0xFFFF
        DEC     A
        JZ      ??ZLOADApp_handleReply_3
        DEC     A
        JZ      ??ZLOADApp_handleReply_3
        DEC     A
        JNZ     $+5
        LJMP    ??ZLOADApp_handleReply_4 & 0xFFFF
        DEC     A
        JZ      ??ZLOADApp_handleReply_3
        LJMP    ??ZLOADApp_handleReply_5 & 0xFFFF
// 1119   case ZLMSGID_STATUSQ:
// 1120 #if defined ZPORT
// 1121     msgSize = 20;
??ZLOADApp_handleReply_0:
        MOV     ?V0 + 0,#0x14
        SJMP    ??ZLOADApp_handleReply_6
// 1122     //  * * *  NO BREAK  * * *
// 1123   case ZLMSGID_CLIENT_CMD:
// 1124   case ZLMSGID_RESET:
// 1125   case ZLMSGID_CODE_ENABLE:
// 1126     if (!msgSize)  {
// 1127       msgSize = 2;
??ZLOADApp_handleReply_3:
        MOV     ?V0 + 0,#0x2
// 1128     }
// 1129     // right now, only the host could have sent these -- the dongle never sends these
// 1130     // commands on its own. it's a proxy reply. forward it on...
// 1131     if (!s_serialMsg)  {
??ZLOADApp_handleReply_6:
        MOV     DPTR,#s_serialMsg
        MOVX    A,@DPTR
        JZ      $+5
        LJMP    ??ZLOADApp_handleReply_5 & 0xFFFF
// 1132       zahdrin_t *zain = zlBuildExternalInboundSerialMSG(MSGpkt, (uint8 *)msg, sizeof(zlmhdr_t) + msgSize);
        ; Setup parameters for call to function zlBuildExternalInboundSerialMSG
        MOV     A,#0x3
        ADD     A,?V0 + 0
        MOV     R1,A
        DEC     R4
        DEC     R4
        DEC     R4
        MOV     R5,?V0 + 3
        LCALL   ??zlBuildExternalInboundSerialMSG?relay
        MOV     ?V0 + 2,R2
        MOV     ?V0 + 3,R3
        MOV     R6,?V0 + 2
        MOV     R7,?V0 + 3
// 1133 
// 1134       if (zain)  {
        MOV     A,R6
        ORL     A,R7
        JNZ     $+5
        LJMP    ??ZLOADApp_handleReply_5 & 0xFFFF
// 1135         zlSendSerial((uint8 *)zain, SIZEOF_ZAIN_HDR + sizeof(zlmhdr_t) + msgSize);
        ; Setup parameters for call to function zlSendSerial
        MOV     A,#0x9
        ADD     A,?V0 + 0
        MOV     R1,A
        LCALL   ?Subroutine23 & 0xFFFF
// 1136         osal_mem_free(zain);
// 1137       }
// 1138     }
??CrossCallReturnLabel_31:
        LJMP    ??ZLOADApp_handleReply_5 & 0xFFFF
// 1139 #endif
// 1140     break;
// 1141 
// 1142   case ZLMSGID_SESSION_START:
// 1143 #if defined ZPORT
// 1144             // this can happen both in pass-through and client mode -- the dongle could be
// 1145             // getting updated firmware and is the client receiving the start session reply.
// 1146             // in any case we cannot get this reply over air. it has to have come from the Host
// 1147             if (!s_serialMsg)  {
??ZLOADApp_handleReply_1:
        MOV     DPTR,#s_serialMsg
        MOVX    A,@DPTR
        JNZ     $+5
        LJMP    ??ZLOADApp_handleReply_5 & 0xFFFF
// 1148                 break;
// 1149             }
// 1150             else if (ZLSTATE_PASS_THROUGH == s_State) {
        MOV     DPTR,#s_State
        MOVX    A,@DPTR
        XRL     A,#0x4
        JNZ     ??ZLOADApp_handleReply_7
// 1151                 // pass reply back to original client
// 1152                 msg->zlhdr_seqnum = s_PTSeqNum;
        MOV     DPTR,#s_PTSeqNum
        MOVX    A,@DPTR
        MOV     DPL,?V0 + 2
        MOV     DPH,?V0 + 3
        INC     DPTR
        MOVX    @DPTR,A
// 1153                 AF_DataRequest( &s_PTClientInfo.srcAddr,
// 1154                    afFindEndPointDesc( s_PTClientInfo.endPoint ),
// 1155                    s_PTClientInfo.clusterId,
// 1156                    sizeof(zlmhdr_t) + sizeof(zlbegsessR_t), (uint8 *)msg,
// 1157                    &s_PTClientInfo.cmd.TransSeqNumber,
// 1158                    AF_TX_OPTIONS_NONE, AF_DEFAULT_RADIUS );
        ; Setup parameters for call to function afFindEndPointDesc
        LCALL   ?Subroutine10 & 0xFFFF
// 1159             }
??CrossCallReturnLabel_77:
        LCALL   ?PUSH_XSTACK_I_ONE
        CFI CFA_XSP16 add(XSP16, 19)
        MOV     ?V0 + 0,#(s_PTClientInfo + 30) & 0xff
        MOV     ?V0 + 1,#((s_PTClientInfo + 30) >> 8) & 0xff
        MOV     R0,#?V0 + 0
        LCALL   ?PUSH_XSTACK_I_TWO
        CFI CFA_XSP16 add(XSP16, 21)
        MOV     R0,#?V0 + 2
        LCALL   ?PUSH_XSTACK_I_TWO
        CFI CFA_XSP16 add(XSP16, 23)
        MOV     ?V0 + 0,#0xc
        LJMP    ??ZLOADApp_handleReply_8 & 0xFFFF
        CFI CFA_XSP16 add(XSP16, 18)
// 1160             else if (((zlbegsessR_t *)cpr)->zlbsR_errorCode)  {
??ZLOADApp_handleReply_7:
        MOV     DPL,R6
        MOV     DPH,R7
        MOVX    A,@DPTR
        JZ      ??ZLOADApp_handleReply_9
// 1161                 // Server rejected the real client session. back to Idle state.
// 1162                 osal_set_event(oad_app_taskId, ZLOAD_RESET_EVT);
        ; Setup parameters for call to function osal_set_event
        MOV     R2,#0x8
// 1163             }
??ZLOADApp_handleReply_10:
        LCALL   ??Subroutine38_0 & 0xFFFF
??CrossCallReturnLabel_72:
        LJMP    ??ZLOADApp_handleReply_5 & 0xFFFF
// 1164             // reply from Server to Begin Session command from Client
// 1165             else if (ZLSTATE_CLIENT != s_State) {
??ZLOADApp_handleReply_9:
        MOV     DPTR,#s_State
        MOVX    A,@DPTR
        XRL     A,#0x2
        JZ      $+5
        LJMP    ??ZLOADApp_handleReply_5 & 0xFFFF
// 1166                 // I didn't send it...ignore.
// 1167                 break;
// 1168             }
// 1169 #else
// 1170 
// 1171 		    // reply from Server to Begin Session command from Client
// 1172 		    if (s_State != ZLSTATE_CLIENT) {
// 1173 				// I didn't send it...ignore.
// 1174 				break;
// 1175 			}
// 1176       else if (((zlbegsessR_t *)cpr)->zlbsR_errorCode)  {
// 1177         // Server rejected the session. back to Idle state.
// 1178         osal_set_event(oad_app_taskId, ZLOAD_RESET_EVT);
// 1179       }
// 1180 #endif
// 1181       else  {
// 1182         // get length and make sure we have room
// 1183         uint32 imglen = ((zlbegsessR_t *)cpr)->zlbsR_imgLen;
        MOV     DPL,?V0 + 0
        MOV     DPH,?V0 + 1
        MOV     R0,#?V0 + 0
        LCALL   ?L_MOV_X
// 1184 
// 1185         if (imglen > HalOADAvail()) {
        MOV     DPTR,#__Constant_3a801
        MOV     R0,#?V0 + 0
        LCALL   ?UL_GE_X
        JNC     ??ZLOADApp_handleReply_11
// 1186           // no room. terminate session
// 1187           osal_set_event(oad_app_taskId, ZLOAD_XFER_DONE_EVT);
??ZLOADApp_handleReply_12:
        ; Setup parameters for call to function osal_set_event
        MOV     R2,#0x4
        SJMP    ??ZLOADApp_handleReply_10
// 1188         }
// 1189         else  {
// 1190           // TODO: The OAD Dongle Tool is broken and passes the wrong offset.
// 1191           //uint8 dlImagePreambleOffset = ((zlbegsessR_t *)cpr)->zlbsR_preambleOffset;
// 1192           //osal_nv_write(PREAMBLE_NV_ID, 0, 1, &dlImagePreambleOffset);
// 1193 
// 1194           s_blkSize  = ((zlbegsessR_t *)cpr)->zlbsR_blkSize;
// 1195           s_blkSize *= ((zlbegsessR_t *)cpr)->zlbsR_numBlks;
??ZLOADApp_handleReply_11:
        MOV     DPL,R4
        MOV     DPH,R5
        INC     DPTR
        INC     DPTR
        INC     DPTR
        INC     DPTR
        INC     DPTR
        INC     DPTR
        INC     DPTR
        MOVX    A,@DPTR
        MOV     B,A
        MOV     DPL,R4
        MOV     DPH,R5
        INC     DPTR
        INC     DPTR
        INC     DPTR
        INC     DPTR
        INC     DPTR
        INC     DPTR
        MOVX    A,@DPTR
        MUL     AB
        MOV     DPTR,#s_blkSize
        MOVX    @DPTR,A
// 1196 
// 1197           // figure out how many data packets to request.
// 1198           s_NumPktGet   = (imglen+(s_blkSize-1)) / s_blkSize;
        ADD     A,#-0x1
        MOV     ?V0 + 4,A
        CLR     A
        ADDC    A,#-0x1
        MOV     ?V0 + 5,A
        RLC     A
        SUBB    A,0xE0 /* A   */
        MOV     ?V0 + 6,A
        MOV     ?V0 + 7,A
        MOV     R0,#?V0 + 0
        MOV     R1,#?V0 + 4
        LCALL   ?L_ADD
        MOVX    A,@DPTR
        MOV     ?V0 + 4,A
        CLR     A
        MOV     ?V0 + 5,A
        MOV     ?V0 + 6,A
        MOV     ?V0 + 7,A
        MOV     R0,#?V0 + 0
        MOV     R1,#?V0 + 4
        LCALL   ?UL_DIV_MOD
        MOV     DPTR,#s_NumPktGet
        MOV     A,?V0 + 0
        MOVX    @DPTR,A
        INC     DPTR
        MOV     A,?V0 + 1
        MOVX    @DPTR,A
// 1199           s_NextPacket  = 0;
        MOV     DPTR,#s_NextPacket
        CLR     A
        MOVX    @DPTR,A
        INC     DPTR
??ZLOADApp_handleReply_13:
        MOVX    @DPTR,A
// 1200           // request "next" (i.e., first) packet
// 1201           zlRequestNextDataPacket();
        ; Setup parameters for call to function zlRequestNextDataPacket
        LCALL   ??zlRequestNextDataPacket?relay
        LJMP    ??ZLOADApp_handleReply_5 & 0xFFFF
// 1202         }
// 1203       }
// 1204       break;
// 1205 
// 1206   case ZLMSGID_SESSION_TERM:
// 1207 #if defined ZPORT
// 1208             // pass it back if we're in pass-through mode
// 1209           if (s_serialMsg && (ZLSTATE_PASS_THROUGH == s_State))  {
??ZLOADApp_handleReply_2:
        MOV     DPTR,#s_serialMsg
        MOVX    A,@DPTR
        JNZ     $+5
        LJMP    ??ZLOADApp_handleReply_5 & 0xFFFF
        MOV     DPTR,#s_State
        MOVX    A,@DPTR
        XRL     A,#0x4
        JZ      $+5
        LJMP    ??ZLOADApp_handleReply_5 & 0xFFFF
// 1210               AF_DataRequest( &s_PTClientInfo.srcAddr,
// 1211                  afFindEndPointDesc( s_PTClientInfo.endPoint),
// 1212                  s_PTClientInfo.clusterId,
// 1213                  sizeof(zlmhdr_t) + sizeof(zlendsessR_t), (uint8 *)msg,
// 1214                  &s_PTClientInfo.cmd.TransSeqNumber,
// 1215                  AF_TX_OPTIONS_NONE, AF_DEFAULT_RADIUS );
        ; Setup parameters for call to function afFindEndPointDesc
        LCALL   ?Subroutine10 & 0xFFFF
// 1216               // in any case, clean up
// 1217               osal_set_event(oad_app_taskId, ZLOAD_XFER_DONE_EVT);
// 1218             }
??CrossCallReturnLabel_78:
        LCALL   ?PUSH_XSTACK_I_ONE
        CFI CFA_XSP16 add(XSP16, 19)
        MOV     ?V0 + 0,#(s_PTClientInfo + 30) & 0xff
        MOV     ?V0 + 1,#((s_PTClientInfo + 30) >> 8) & 0xff
        MOV     R0,#?V0 + 0
        LCALL   ?PUSH_XSTACK_I_TWO
        CFI CFA_XSP16 add(XSP16, 21)
        MOV     R0,#?V0 + 2
        LCALL   ?PUSH_XSTACK_I_TWO
        CFI CFA_XSP16 add(XSP16, 23)
        MOV     ?V0 + 0,#0x5
        MOV     ?V0 + 1,#0x0
        MOV     R0,#?V0 + 0
        LCALL   ?PUSH_XSTACK_I_TWO
        CFI CFA_XSP16 add(XSP16, 25)
        MOV     DPTR,#s_PTClientInfo + 4
        LCALL   ?PUSH_XSTACK8_X_TWO
        CFI CFA_XSP16 add(XSP16, 27)
        LCALL   ?Subroutine28 & 0xFFFF
??CrossCallReturnLabel_84:
        LCALL   ?DEALLOC_XSTACK8
        CFI CFA_XSP16 add(XSP16, 18)
        LJMP    ??ZLOADApp_handleReply_12 & 0xFFFF
// 1219 #else
// 1220             // don't care. right now the Commisioner can't be
// 1221             // the client so it will never get a reply to the
// 1222             // terminate session command because it can't send
// 1223             // that command.
// 1224 #endif
// 1225             break;
// 1226 
// 1227   case ZLMSGID_SEND_DATA:
// 1228 #if defined ZPORT
// 1229             if (!s_serialMsg)  {
??ZLOADApp_handleReply_4:
        MOV     DPTR,#s_serialMsg
        MOVX    A,@DPTR
        JNZ     $+5
        LJMP    ??ZLOADApp_handleReply_5 & 0xFFFF
// 1230                 // reply should not be over air
// 1231                 break;
// 1232             }
// 1233             else if (ZLSTATE_CLIENT == s_State)  {
        MOV     DPTR,#s_State
        MOVX    A,@DPTR
        XRL     A,#0x2
        JNZ     ??ZLOADApp_handleReply_14
// 1234                 // not a don't care if we're in client state
// 1235                 zlProcessSDR((zlsdR_t *)cpr);
        ; Setup parameters for call to function osal_memcpy
        MOV     ?V0 + 2,#0x0
        MOV     R0,#?V0 + 0
        LCALL   ?PUSH_XSTACK_I_THREE
        CFI CFA_XSP16 add(XSP16, 21)
        MOV     R4,#0x2
        MOV     R5,#0x0
        MOV     A,#0x3
        LCALL   ?XSTACK_DISP0_8
        MOV     R2,DPL
        MOV     R3,DPH
        LCALL   ??Subroutine44_0 & 0xFFFF
// 1236             }
??CrossCallReturnLabel_100:
        LCALL   ?DEALLOC_XSTACK8
        CFI CFA_XSP16 add(XSP16, 18)
        MOV     DPL,?XSP + 0
        MOV     DPH,?XSP + 1
        PUSH    DPL
        CFI CFA_SP SP+-1
        PUSH    DPH
        CFI CFA_SP SP+-2
        LCALL   ?Subroutine21 & 0xFFFF
??CrossCallReturnLabel_68:
        POP     DPH
        CFI CFA_SP SP+-1
        POP     DPL
        CFI CFA_SP SP+0
        CLR     C
        MOVX    A,@DPTR
        SUBB    A,R0
        INC     DPTR
        MOVX    A,@DPTR
        SUBB    A,R1
        JC      ??ZLOADApp_handleReply_5
        MOV     DPL,?XSP + 0
        MOV     DPH,?XSP + 1
        LCALL   ?Subroutine12 & 0xFFFF
??CrossCallReturnLabel_18:
        JNC     $+5
        LJMP    ??ZLOADApp_handleReply_12 & 0xFFFF
        MOV     DPL,R6
        MOV     DPH,R7
        MOVX    A,@DPTR
        JNZ     ??ZLOADApp_handleReply_5
        MOV     DPTR,#s_NextPacket
        LCALL   ?Subroutine33 & 0xFFFF
??CrossCallReturnLabel_49:
        LJMP    ??ZLOADApp_handleReply_13 & 0xFFFF
// 1237             else if (ZLSTATE_PASS_THROUGH == s_State)  {
??ZLOADApp_handleReply_14:
        MOVX    A,@DPTR
        XRL     A,#0x4
        JNZ     ??ZLOADApp_handleReply_5
// 1238                 // forward to client
// 1239                 AF_DataRequest( &s_PTClientInfo.srcAddr,
// 1240                    afFindEndPointDesc( s_PTClientInfo.endPoint),
// 1241                    s_PTClientInfo.clusterId,
// 1242                    sizeof(zlmhdr_t) + sizeof(zlsdR_t), (uint8 *)msg,
// 1243                    &s_PTClientInfo.cmd.TransSeqNumber,
// 1244                    AF_TX_OPTIONS_NONE, AF_DEFAULT_RADIUS );
        ; Setup parameters for call to function afFindEndPointDesc
        LCALL   ?Subroutine10 & 0xFFFF
// 1245             }
// 1246 #else
// 1247             // not a don't care if we're in client state
// 1248             if (s_State == ZLSTATE_CLIENT)  {
// 1249                 zlProcessSDR((zlsdR_t *)cpr);
// 1250             }
// 1251 #endif
// 1252             break;
// 1253 
// 1254   default:
// 1255             // don't care
// 1256             break;
// 1257   }
??CrossCallReturnLabel_79:
        LCALL   ?PUSH_XSTACK_I_ONE
        CFI CFA_XSP16 add(XSP16, 19)
        MOV     ?V0 + 0,#(s_PTClientInfo + 30) & 0xff
        MOV     ?V0 + 1,#((s_PTClientInfo + 30) >> 8) & 0xff
        MOV     R0,#?V0 + 0
        LCALL   ?PUSH_XSTACK_I_TWO
        CFI CFA_XSP16 add(XSP16, 21)
        MOV     R0,#?V0 + 2
        LCALL   ?PUSH_XSTACK_I_TWO
        CFI CFA_XSP16 add(XSP16, 23)
        MOV     ?V0 + 0,#0x27
??ZLOADApp_handleReply_8:
        MOV     ?V0 + 1,#0x0
        MOV     R0,#?V0 + 0
        LCALL   ?PUSH_XSTACK_I_TWO
        CFI CFA_XSP16 add(XSP16, 25)
        MOV     DPTR,#s_PTClientInfo + 4
        LCALL   ?PUSH_XSTACK8_X_TWO
        CFI CFA_XSP16 add(XSP16, 27)
        LCALL   ?Subroutine28 & 0xFFFF
??CrossCallReturnLabel_85:
        LCALL   ?DEALLOC_XSTACK8
        CFI CFA_XSP16 add(XSP16, 18)
// 1258 }
??ZLOADApp_handleReply_5:
        MOV     A,#0x2
        LCALL   ?DEALLOC_XSTACK8
        CFI CFA_XSP16 add(XSP16, 16)
        LJMP    ?Subroutine1 & 0xFFFF
        CFI EndBlock cfiBlock54

        RSEG BANKED_CODE:CODE:NOROOT(0)
?Subroutine21:
        CFI Block cfiCond55 Using cfiCommon0
        CFI NoFunction
        CFI Conditional ??CrossCallReturnLabel_68
        CFI R6 load(1, XDATA, add(CFA_XSP16, literal(-16)))
        CFI VB load(1, XDATA, add(CFA_XSP16, literal(-15)))
        CFI V0 load(1, XDATA, add(CFA_XSP16, literal(-14)))
        CFI V1 load(1, XDATA, add(CFA_XSP16, literal(-13)))
        CFI V2 load(1, XDATA, add(CFA_XSP16, literal(-12)))
        CFI V3 load(1, XDATA, add(CFA_XSP16, literal(-11)))
        CFI V4 load(1, XDATA, add(CFA_XSP16, literal(-10)))
        CFI V5 load(1, XDATA, add(CFA_XSP16, literal(-9)))
        CFI V6 load(1, XDATA, add(CFA_XSP16, literal(-8)))
        CFI V7 load(1, XDATA, add(CFA_XSP16, literal(-7)))
        CFI R7 load(1, XDATA, add(CFA_XSP16, literal(-6)))
        CFI ?RET_LOW load(1, XDATA, add(CFA_XSP16, literal(-5)))
        CFI ?RET_HIGH load(1, XDATA, add(CFA_XSP16, literal(-4)))
        CFI ?BRET_EXT load(1, XDATA, add(CFA_XSP16, literal(-3)))
        CFI DPL0 load(1, XDATA, add(CFA_XSP16, literal(-2)))
        CFI DPH0 load(1, XDATA, add(CFA_XSP16, literal(-1)))
        CFI CFA_SP SP+-2
        CFI CFA_XSP16 add(XSP16, 18)
        CFI Block cfiCond56 Using cfiCommon0
        CFI (cfiCond56) NoFunction
        CFI (cfiCond56) Conditional ??CrossCallReturnLabel_69
        CFI (cfiCond56) R6 load(1, XDATA, add(CFA_XSP16, literal(-10)))
        CFI (cfiCond56) VB load(1, XDATA, add(CFA_XSP16, literal(-9)))
        CFI (cfiCond56) V0 load(1, XDATA, add(CFA_XSP16, literal(-8)))
        CFI (cfiCond56) V1 load(1, XDATA, add(CFA_XSP16, literal(-7)))
        CFI (cfiCond56) R7 load(1, XDATA, add(CFA_XSP16, literal(-6)))
        CFI (cfiCond56) ?RET_LOW load(1, XDATA, add(CFA_XSP16, literal(-5)))
        CFI (cfiCond56) ?RET_HIGH load(1, XDATA, add(CFA_XSP16, literal(-4)))
        CFI (cfiCond56) ?BRET_EXT load(1, XDATA, add(CFA_XSP16, literal(-3)))
        CFI (cfiCond56) DPL0 load(1, XDATA, add(CFA_XSP16, literal(-2)))
        CFI (cfiCond56) DPH0 load(1, XDATA, add(CFA_XSP16, literal(-1)))
        CFI (cfiCond56) CFA_SP SP+0
        CFI (cfiCond56) CFA_XSP16 add(XSP16, 10)
        CFI Block cfiPicker57 Using cfiCommon1
        CFI (cfiPicker57) NoFunction
        CFI (cfiPicker57) Picker
        MOV     DPTR,#s_NextPacket
        CFI EndBlock cfiCond55
        CFI EndBlock cfiCond56
        CFI EndBlock cfiPicker57
        REQUIRE ??Subroutine37_0
        ; // Fall through to label ??Subroutine37_0

        RSEG BANKED_CODE:CODE:NOROOT(0)
??Subroutine37_0:
        CFI Block cfiCond58 Using cfiCommon0
        CFI NoFunction
        CFI Conditional ??CrossCallReturnLabel_66
        CFI R6 load(1, XDATA, add(CFA_XSP16, literal(-24)))
        CFI VB load(1, XDATA, add(CFA_XSP16, literal(-23)))
        CFI V0 load(1, XDATA, add(CFA_XSP16, literal(-22)))
        CFI V1 load(1, XDATA, add(CFA_XSP16, literal(-21)))
        CFI V2 load(1, XDATA, add(CFA_XSP16, literal(-20)))
        CFI V3 load(1, XDATA, add(CFA_XSP16, literal(-19)))
        CFI V4 load(1, XDATA, add(CFA_XSP16, literal(-18)))
        CFI V5 load(1, XDATA, add(CFA_XSP16, literal(-17)))
        CFI V6 load(1, XDATA, add(CFA_XSP16, literal(-16)))
        CFI V7 load(1, XDATA, add(CFA_XSP16, literal(-15)))
        CFI V8 load(1, XDATA, add(CFA_XSP16, literal(-14)))
        CFI V9 load(1, XDATA, add(CFA_XSP16, literal(-13)))
        CFI V10 load(1, XDATA, add(CFA_XSP16, literal(-12)))
        CFI V11 load(1, XDATA, add(CFA_XSP16, literal(-11)))
        CFI V12 load(1, XDATA, add(CFA_XSP16, literal(-10)))
        CFI V13 load(1, XDATA, add(CFA_XSP16, literal(-9)))
        CFI V14 load(1, XDATA, add(CFA_XSP16, literal(-8)))
        CFI V15 load(1, XDATA, add(CFA_XSP16, literal(-7)))
        CFI R7 load(1, XDATA, add(CFA_XSP16, literal(-6)))
        CFI ?RET_LOW load(1, XDATA, add(CFA_XSP16, literal(-5)))
        CFI ?RET_HIGH load(1, XDATA, add(CFA_XSP16, literal(-4)))
        CFI ?BRET_EXT load(1, XDATA, add(CFA_XSP16, literal(-3)))
        CFI DPL0 load(1, XDATA, add(CFA_XSP16, literal(-2)))
        CFI DPH0 load(1, XDATA, add(CFA_XSP16, literal(-1)))
        CFI CFA_SP SP+0
        CFI CFA_XSP16 add(XSP16, 37)
        CFI Block cfiCond59 Using cfiCommon0
        CFI (cfiCond59) NoFunction
        CFI (cfiCond59) Conditional ??CrossCallReturnLabel_67
        CFI (cfiCond59) R6 load(1, XDATA, add(CFA_XSP16, literal(-12)))
        CFI (cfiCond59) VB load(1, XDATA, add(CFA_XSP16, literal(-11)))
        CFI (cfiCond59) V0 load(1, XDATA, add(CFA_XSP16, literal(-10)))
        CFI (cfiCond59) V1 load(1, XDATA, add(CFA_XSP16, literal(-9)))
        CFI (cfiCond59) V2 load(1, XDATA, add(CFA_XSP16, literal(-8)))
        CFI (cfiCond59) V3 load(1, XDATA, add(CFA_XSP16, literal(-7)))
        CFI (cfiCond59) R7 load(1, XDATA, add(CFA_XSP16, literal(-6)))
        CFI (cfiCond59) ?RET_LOW load(1, XDATA, add(CFA_XSP16, literal(-5)))
        CFI (cfiCond59) ?RET_HIGH load(1, XDATA, add(CFA_XSP16, literal(-4)))
        CFI (cfiCond59) ?BRET_EXT load(1, XDATA, add(CFA_XSP16, literal(-3)))
        CFI (cfiCond59) DPL0 load(1, XDATA, add(CFA_XSP16, literal(-2)))
        CFI (cfiCond59) DPH0 load(1, XDATA, add(CFA_XSP16, literal(-1)))
        CFI (cfiCond59) CFA_SP SP+0
        CFI (cfiCond59) CFA_XSP16 add(XSP16, 24)
        CFI Block cfiCond60 Using cfiCommon0
        CFI (cfiCond60) NoFunction
        CFI (cfiCond60) Conditional ??CrossCallReturnLabel_68
        CFI (cfiCond60) R6 load(1, XDATA, add(CFA_XSP16, literal(-16)))
        CFI (cfiCond60) VB load(1, XDATA, add(CFA_XSP16, literal(-15)))
        CFI (cfiCond60) V0 load(1, XDATA, add(CFA_XSP16, literal(-14)))
        CFI (cfiCond60) V1 load(1, XDATA, add(CFA_XSP16, literal(-13)))
        CFI (cfiCond60) V2 load(1, XDATA, add(CFA_XSP16, literal(-12)))
        CFI (cfiCond60) V3 load(1, XDATA, add(CFA_XSP16, literal(-11)))
        CFI (cfiCond60) V4 load(1, XDATA, add(CFA_XSP16, literal(-10)))
        CFI (cfiCond60) V5 load(1, XDATA, add(CFA_XSP16, literal(-9)))
        CFI (cfiCond60) V6 load(1, XDATA, add(CFA_XSP16, literal(-8)))
        CFI (cfiCond60) V7 load(1, XDATA, add(CFA_XSP16, literal(-7)))
        CFI (cfiCond60) R7 load(1, XDATA, add(CFA_XSP16, literal(-6)))
        CFI (cfiCond60) ?RET_LOW load(1, XDATA, add(CFA_XSP16, literal(-5)))
        CFI (cfiCond60) ?RET_HIGH load(1, XDATA, add(CFA_XSP16, literal(-4)))
        CFI (cfiCond60) ?BRET_EXT load(1, XDATA, add(CFA_XSP16, literal(-3)))
        CFI (cfiCond60) DPL0 load(1, XDATA, add(CFA_XSP16, literal(-2)))
        CFI (cfiCond60) DPH0 load(1, XDATA, add(CFA_XSP16, literal(-1)))
        CFI (cfiCond60) CFA_SP SP+-2
        CFI (cfiCond60) CFA_XSP16 add(XSP16, 18)
        CFI Block cfiCond61 Using cfiCommon0
        CFI (cfiCond61) NoFunction
        CFI (cfiCond61) Conditional ??CrossCallReturnLabel_69
        CFI (cfiCond61) R6 load(1, XDATA, add(CFA_XSP16, literal(-10)))
        CFI (cfiCond61) VB load(1, XDATA, add(CFA_XSP16, literal(-9)))
        CFI (cfiCond61) V0 load(1, XDATA, add(CFA_XSP16, literal(-8)))
        CFI (cfiCond61) V1 load(1, XDATA, add(CFA_XSP16, literal(-7)))
        CFI (cfiCond61) R7 load(1, XDATA, add(CFA_XSP16, literal(-6)))
        CFI (cfiCond61) ?RET_LOW load(1, XDATA, add(CFA_XSP16, literal(-5)))
        CFI (cfiCond61) ?RET_HIGH load(1, XDATA, add(CFA_XSP16, literal(-4)))
        CFI (cfiCond61) ?BRET_EXT load(1, XDATA, add(CFA_XSP16, literal(-3)))
        CFI (cfiCond61) DPL0 load(1, XDATA, add(CFA_XSP16, literal(-2)))
        CFI (cfiCond61) DPH0 load(1, XDATA, add(CFA_XSP16, literal(-1)))
        CFI (cfiCond61) CFA_SP SP+0
        CFI (cfiCond61) CFA_XSP16 add(XSP16, 10)
        CFI Block cfiPicker62 Using cfiCommon1
        CFI (cfiPicker62) NoFunction
        CFI (cfiPicker62) Picker
        LCALL   ?Subroutine32 & 0xFFFF
??CrossCallReturnLabel_106:
        RET
        CFI EndBlock cfiCond58
        CFI EndBlock cfiCond59
        CFI EndBlock cfiCond60
        CFI EndBlock cfiCond61
        CFI EndBlock cfiPicker62

        RSEG BANKED_CODE:CODE:NOROOT(0)
?Subroutine32:
        CFI Block cfiCond63 Using cfiCommon0
        CFI NoFunction
        CFI Conditional ??CrossCallReturnLabel_105, ??CrossCallReturnLabel_64
        CFI R6 load(1, XDATA, add(CFA_XSP16, literal(-16)))
        CFI VB load(1, XDATA, add(CFA_XSP16, literal(-15)))
        CFI V0 load(1, XDATA, add(CFA_XSP16, literal(-14)))
        CFI V1 load(1, XDATA, add(CFA_XSP16, literal(-13)))
        CFI V2 load(1, XDATA, add(CFA_XSP16, literal(-12)))
        CFI V3 load(1, XDATA, add(CFA_XSP16, literal(-11)))
        CFI V4 load(1, XDATA, add(CFA_XSP16, literal(-10)))
        CFI V5 load(1, XDATA, add(CFA_XSP16, literal(-9)))
        CFI V6 load(1, XDATA, add(CFA_XSP16, literal(-8)))
        CFI V7 load(1, XDATA, add(CFA_XSP16, literal(-7)))
        CFI R7 load(1, XDATA, add(CFA_XSP16, literal(-6)))
        CFI ?RET_LOW load(1, XDATA, add(CFA_XSP16, literal(-5)))
        CFI ?RET_HIGH load(1, XDATA, add(CFA_XSP16, literal(-4)))
        CFI ?BRET_EXT load(1, XDATA, add(CFA_XSP16, literal(-3)))
        CFI DPL0 load(1, XDATA, add(CFA_XSP16, literal(-2)))
        CFI DPH0 load(1, XDATA, add(CFA_XSP16, literal(-1)))
        CFI CFA_SP SP+0
        CFI CFA_XSP16 add(XSP16, 16)
        CFI Block cfiCond64 Using cfiCommon0
        CFI (cfiCond64) NoFunction
        CFI (cfiCond64) Conditional ??CrossCallReturnLabel_105, ??CrossCallReturnLabel_65
        CFI (cfiCond64) R6 load(1, XDATA, add(CFA_XSP16, literal(-15)))
        CFI (cfiCond64) VB load(1, XDATA, add(CFA_XSP16, literal(-14)))
        CFI (cfiCond64) V0 load(1, XDATA, add(CFA_XSP16, literal(-13)))
        CFI (cfiCond64) V1 load(1, XDATA, add(CFA_XSP16, literal(-12)))
        CFI (cfiCond64) V2 load(1, XDATA, add(CFA_XSP16, literal(-11)))
        CFI (cfiCond64) V3 load(1, XDATA, add(CFA_XSP16, literal(-10)))
        CFI (cfiCond64) V4 load(1, XDATA, add(CFA_XSP16, literal(-9)))
        CFI (cfiCond64) V5 load(1, XDATA, add(CFA_XSP16, literal(-8)))
        CFI (cfiCond64) V6 load(1, XDATA, add(CFA_XSP16, literal(-7)))
        CFI (cfiCond64) R7 load(1, XDATA, add(CFA_XSP16, literal(-6)))
        CFI (cfiCond64) ?RET_LOW load(1, XDATA, add(CFA_XSP16, literal(-5)))
        CFI (cfiCond64) ?RET_HIGH load(1, XDATA, add(CFA_XSP16, literal(-4)))
        CFI (cfiCond64) ?BRET_EXT load(1, XDATA, add(CFA_XSP16, literal(-3)))
        CFI (cfiCond64) DPL0 load(1, XDATA, add(CFA_XSP16, literal(-2)))
        CFI (cfiCond64) DPH0 load(1, XDATA, add(CFA_XSP16, literal(-1)))
        CFI (cfiCond64) CFA_SP SP+0
        CFI (cfiCond64) CFA_XSP16 add(XSP16, 23)
        CFI Block cfiCond65 Using cfiCommon0
        CFI (cfiCond65) NoFunction
        CFI (cfiCond65) Conditional ??CrossCallReturnLabel_105, ??CrossCallReturnLabel_60
        CFI (cfiCond65) R6 load(1, XDATA, add(CFA_XSP16, literal(-24)))
        CFI (cfiCond65) VB load(1, XDATA, add(CFA_XSP16, literal(-23)))
        CFI (cfiCond65) V0 load(1, XDATA, add(CFA_XSP16, literal(-22)))
        CFI (cfiCond65) V1 load(1, XDATA, add(CFA_XSP16, literal(-21)))
        CFI (cfiCond65) V2 load(1, XDATA, add(CFA_XSP16, literal(-20)))
        CFI (cfiCond65) V3 load(1, XDATA, add(CFA_XSP16, literal(-19)))
        CFI (cfiCond65) V4 load(1, XDATA, add(CFA_XSP16, literal(-18)))
        CFI (cfiCond65) V5 load(1, XDATA, add(CFA_XSP16, literal(-17)))
        CFI (cfiCond65) V6 load(1, XDATA, add(CFA_XSP16, literal(-16)))
        CFI (cfiCond65) V7 load(1, XDATA, add(CFA_XSP16, literal(-15)))
        CFI (cfiCond65) V8 load(1, XDATA, add(CFA_XSP16, literal(-14)))
        CFI (cfiCond65) V9 load(1, XDATA, add(CFA_XSP16, literal(-13)))
        CFI (cfiCond65) V10 load(1, XDATA, add(CFA_XSP16, literal(-12)))
        CFI (cfiCond65) V11 load(1, XDATA, add(CFA_XSP16, literal(-11)))
        CFI (cfiCond65) V12 load(1, XDATA, add(CFA_XSP16, literal(-10)))
        CFI (cfiCond65) V13 load(1, XDATA, add(CFA_XSP16, literal(-9)))
        CFI (cfiCond65) V14 load(1, XDATA, add(CFA_XSP16, literal(-8)))
        CFI (cfiCond65) V15 load(1, XDATA, add(CFA_XSP16, literal(-7)))
        CFI (cfiCond65) R7 load(1, XDATA, add(CFA_XSP16, literal(-6)))
        CFI (cfiCond65) ?RET_LOW load(1, XDATA, add(CFA_XSP16, literal(-5)))
        CFI (cfiCond65) ?RET_HIGH load(1, XDATA, add(CFA_XSP16, literal(-4)))
        CFI (cfiCond65) ?BRET_EXT load(1, XDATA, add(CFA_XSP16, literal(-3)))
        CFI (cfiCond65) DPL0 load(1, XDATA, add(CFA_XSP16, literal(-2)))
        CFI (cfiCond65) DPH0 load(1, XDATA, add(CFA_XSP16, literal(-1)))
        CFI (cfiCond65) CFA_SP SP+0
        CFI (cfiCond65) CFA_XSP16 add(XSP16, 37)
        CFI Block cfiCond66 Using cfiCommon0
        CFI (cfiCond66) NoFunction
        CFI (cfiCond66) Conditional ??CrossCallReturnLabel_105, ??CrossCallReturnLabel_61
        CFI (cfiCond66) R6 load(1, XDATA, add(CFA_XSP16, literal(-24)))
        CFI (cfiCond66) VB load(1, XDATA, add(CFA_XSP16, literal(-23)))
        CFI (cfiCond66) V0 load(1, XDATA, add(CFA_XSP16, literal(-22)))
        CFI (cfiCond66) V1 load(1, XDATA, add(CFA_XSP16, literal(-21)))
        CFI (cfiCond66) V2 load(1, XDATA, add(CFA_XSP16, literal(-20)))
        CFI (cfiCond66) V3 load(1, XDATA, add(CFA_XSP16, literal(-19)))
        CFI (cfiCond66) V4 load(1, XDATA, add(CFA_XSP16, literal(-18)))
        CFI (cfiCond66) V5 load(1, XDATA, add(CFA_XSP16, literal(-17)))
        CFI (cfiCond66) V6 load(1, XDATA, add(CFA_XSP16, literal(-16)))
        CFI (cfiCond66) V7 load(1, XDATA, add(CFA_XSP16, literal(-15)))
        CFI (cfiCond66) V8 load(1, XDATA, add(CFA_XSP16, literal(-14)))
        CFI (cfiCond66) V9 load(1, XDATA, add(CFA_XSP16, literal(-13)))
        CFI (cfiCond66) V10 load(1, XDATA, add(CFA_XSP16, literal(-12)))
        CFI (cfiCond66) V11 load(1, XDATA, add(CFA_XSP16, literal(-11)))
        CFI (cfiCond66) V12 load(1, XDATA, add(CFA_XSP16, literal(-10)))
        CFI (cfiCond66) V13 load(1, XDATA, add(CFA_XSP16, literal(-9)))
        CFI (cfiCond66) V14 load(1, XDATA, add(CFA_XSP16, literal(-8)))
        CFI (cfiCond66) V15 load(1, XDATA, add(CFA_XSP16, literal(-7)))
        CFI (cfiCond66) R7 load(1, XDATA, add(CFA_XSP16, literal(-6)))
        CFI (cfiCond66) ?RET_LOW load(1, XDATA, add(CFA_XSP16, literal(-5)))
        CFI (cfiCond66) ?RET_HIGH load(1, XDATA, add(CFA_XSP16, literal(-4)))
        CFI (cfiCond66) ?BRET_EXT load(1, XDATA, add(CFA_XSP16, literal(-3)))
        CFI (cfiCond66) DPL0 load(1, XDATA, add(CFA_XSP16, literal(-2)))
        CFI (cfiCond66) DPH0 load(1, XDATA, add(CFA_XSP16, literal(-1)))
        CFI (cfiCond66) CFA_SP SP+0
        CFI (cfiCond66) CFA_XSP16 add(XSP16, 37)
        CFI Block cfiCond67 Using cfiCommon0
        CFI (cfiCond67) NoFunction
        CFI (cfiCond67) Conditional ??CrossCallReturnLabel_105, ??CrossCallReturnLabel_62
        CFI (cfiCond67) DPL0 Frame(CFA_SP, 4)
        CFI (cfiCond67) DPH0 Frame(CFA_SP, 5)
        CFI (cfiCond67) CFA_SP SP+-5
        CFI Block cfiCond68 Using cfiCommon0
        CFI (cfiCond68) NoFunction
        CFI (cfiCond68) Conditional ??CrossCallReturnLabel_105, ??CrossCallReturnLabel_63
        CFI (cfiCond68) DPL0 Frame(CFA_SP, 4)
        CFI (cfiCond68) DPH0 Frame(CFA_SP, 5)
        CFI (cfiCond68) CFA_SP SP+-5
        CFI Block cfiCond69 Using cfiCommon0
        CFI (cfiCond69) NoFunction
        CFI (cfiCond69) Conditional ??CrossCallReturnLabel_106, ??CrossCallReturnLabel_68
        CFI (cfiCond69) R6 load(1, XDATA, add(CFA_XSP16, literal(-16)))
        CFI (cfiCond69) VB load(1, XDATA, add(CFA_XSP16, literal(-15)))
        CFI (cfiCond69) V0 load(1, XDATA, add(CFA_XSP16, literal(-14)))
        CFI (cfiCond69) V1 load(1, XDATA, add(CFA_XSP16, literal(-13)))
        CFI (cfiCond69) V2 load(1, XDATA, add(CFA_XSP16, literal(-12)))
        CFI (cfiCond69) V3 load(1, XDATA, add(CFA_XSP16, literal(-11)))
        CFI (cfiCond69) V4 load(1, XDATA, add(CFA_XSP16, literal(-10)))
        CFI (cfiCond69) V5 load(1, XDATA, add(CFA_XSP16, literal(-9)))
        CFI (cfiCond69) V6 load(1, XDATA, add(CFA_XSP16, literal(-8)))
        CFI (cfiCond69) V7 load(1, XDATA, add(CFA_XSP16, literal(-7)))
        CFI (cfiCond69) R7 load(1, XDATA, add(CFA_XSP16, literal(-6)))
        CFI (cfiCond69) ?RET_LOW load(1, XDATA, add(CFA_XSP16, literal(-5)))
        CFI (cfiCond69) ?RET_HIGH load(1, XDATA, add(CFA_XSP16, literal(-4)))
        CFI (cfiCond69) ?BRET_EXT load(1, XDATA, add(CFA_XSP16, literal(-3)))
        CFI (cfiCond69) DPL0 load(1, XDATA, add(CFA_XSP16, literal(-2)))
        CFI (cfiCond69) DPH0 load(1, XDATA, add(CFA_XSP16, literal(-1)))
        CFI (cfiCond69) CFA_SP SP+-2
        CFI (cfiCond69) CFA_XSP16 add(XSP16, 18)
        CFI Block cfiCond70 Using cfiCommon0
        CFI (cfiCond70) NoFunction
        CFI (cfiCond70) Conditional ??CrossCallReturnLabel_106, ??CrossCallReturnLabel_69
        CFI (cfiCond70) R6 load(1, XDATA, add(CFA_XSP16, literal(-10)))
        CFI (cfiCond70) VB load(1, XDATA, add(CFA_XSP16, literal(-9)))
        CFI (cfiCond70) V0 load(1, XDATA, add(CFA_XSP16, literal(-8)))
        CFI (cfiCond70) V1 load(1, XDATA, add(CFA_XSP16, literal(-7)))
        CFI (cfiCond70) R7 load(1, XDATA, add(CFA_XSP16, literal(-6)))
        CFI (cfiCond70) ?RET_LOW load(1, XDATA, add(CFA_XSP16, literal(-5)))
        CFI (cfiCond70) ?RET_HIGH load(1, XDATA, add(CFA_XSP16, literal(-4)))
        CFI (cfiCond70) ?BRET_EXT load(1, XDATA, add(CFA_XSP16, literal(-3)))
        CFI (cfiCond70) DPL0 load(1, XDATA, add(CFA_XSP16, literal(-2)))
        CFI (cfiCond70) DPH0 load(1, XDATA, add(CFA_XSP16, literal(-1)))
        CFI (cfiCond70) CFA_SP SP+0
        CFI (cfiCond70) CFA_XSP16 add(XSP16, 10)
        CFI Block cfiCond71 Using cfiCommon0
        CFI (cfiCond71) NoFunction
        CFI (cfiCond71) Conditional ??CrossCallReturnLabel_106, ??CrossCallReturnLabel_66
        CFI (cfiCond71) R6 load(1, XDATA, add(CFA_XSP16, literal(-24)))
        CFI (cfiCond71) VB load(1, XDATA, add(CFA_XSP16, literal(-23)))
        CFI (cfiCond71) V0 load(1, XDATA, add(CFA_XSP16, literal(-22)))
        CFI (cfiCond71) V1 load(1, XDATA, add(CFA_XSP16, literal(-21)))
        CFI (cfiCond71) V2 load(1, XDATA, add(CFA_XSP16, literal(-20)))
        CFI (cfiCond71) V3 load(1, XDATA, add(CFA_XSP16, literal(-19)))
        CFI (cfiCond71) V4 load(1, XDATA, add(CFA_XSP16, literal(-18)))
        CFI (cfiCond71) V5 load(1, XDATA, add(CFA_XSP16, literal(-17)))
        CFI (cfiCond71) V6 load(1, XDATA, add(CFA_XSP16, literal(-16)))
        CFI (cfiCond71) V7 load(1, XDATA, add(CFA_XSP16, literal(-15)))
        CFI (cfiCond71) V8 load(1, XDATA, add(CFA_XSP16, literal(-14)))
        CFI (cfiCond71) V9 load(1, XDATA, add(CFA_XSP16, literal(-13)))
        CFI (cfiCond71) V10 load(1, XDATA, add(CFA_XSP16, literal(-12)))
        CFI (cfiCond71) V11 load(1, XDATA, add(CFA_XSP16, literal(-11)))
        CFI (cfiCond71) V12 load(1, XDATA, add(CFA_XSP16, literal(-10)))
        CFI (cfiCond71) V13 load(1, XDATA, add(CFA_XSP16, literal(-9)))
        CFI (cfiCond71) V14 load(1, XDATA, add(CFA_XSP16, literal(-8)))
        CFI (cfiCond71) V15 load(1, XDATA, add(CFA_XSP16, literal(-7)))
        CFI (cfiCond71) R7 load(1, XDATA, add(CFA_XSP16, literal(-6)))
        CFI (cfiCond71) ?RET_LOW load(1, XDATA, add(CFA_XSP16, literal(-5)))
        CFI (cfiCond71) ?RET_HIGH load(1, XDATA, add(CFA_XSP16, literal(-4)))
        CFI (cfiCond71) ?BRET_EXT load(1, XDATA, add(CFA_XSP16, literal(-3)))
        CFI (cfiCond71) DPL0 load(1, XDATA, add(CFA_XSP16, literal(-2)))
        CFI (cfiCond71) DPH0 load(1, XDATA, add(CFA_XSP16, literal(-1)))
        CFI (cfiCond71) CFA_SP SP+0
        CFI (cfiCond71) CFA_XSP16 add(XSP16, 37)
        CFI Block cfiCond72 Using cfiCommon0
        CFI (cfiCond72) NoFunction
        CFI (cfiCond72) Conditional ??CrossCallReturnLabel_106, ??CrossCallReturnLabel_67
        CFI (cfiCond72) R6 load(1, XDATA, add(CFA_XSP16, literal(-12)))
        CFI (cfiCond72) VB load(1, XDATA, add(CFA_XSP16, literal(-11)))
        CFI (cfiCond72) V0 load(1, XDATA, add(CFA_XSP16, literal(-10)))
        CFI (cfiCond72) V1 load(1, XDATA, add(CFA_XSP16, literal(-9)))
        CFI (cfiCond72) V2 load(1, XDATA, add(CFA_XSP16, literal(-8)))
        CFI (cfiCond72) V3 load(1, XDATA, add(CFA_XSP16, literal(-7)))
        CFI (cfiCond72) R7 load(1, XDATA, add(CFA_XSP16, literal(-6)))
        CFI (cfiCond72) ?RET_LOW load(1, XDATA, add(CFA_XSP16, literal(-5)))
        CFI (cfiCond72) ?RET_HIGH load(1, XDATA, add(CFA_XSP16, literal(-4)))
        CFI (cfiCond72) ?BRET_EXT load(1, XDATA, add(CFA_XSP16, literal(-3)))
        CFI (cfiCond72) DPL0 load(1, XDATA, add(CFA_XSP16, literal(-2)))
        CFI (cfiCond72) DPH0 load(1, XDATA, add(CFA_XSP16, literal(-1)))
        CFI (cfiCond72) CFA_SP SP+0
        CFI (cfiCond72) CFA_XSP16 add(XSP16, 24)
        CFI Block cfiCond73 Using cfiCommon0
        CFI (cfiCond73) NoFunction
        CFI (cfiCond73) Conditional ??CrossCallReturnLabel_104, ??CrossCallReturnLabel_18
        CFI (cfiCond73) R6 load(1, XDATA, add(CFA_XSP16, literal(-16)))
        CFI (cfiCond73) VB load(1, XDATA, add(CFA_XSP16, literal(-15)))
        CFI (cfiCond73) V0 load(1, XDATA, add(CFA_XSP16, literal(-14)))
        CFI (cfiCond73) V1 load(1, XDATA, add(CFA_XSP16, literal(-13)))
        CFI (cfiCond73) V2 load(1, XDATA, add(CFA_XSP16, literal(-12)))
        CFI (cfiCond73) V3 load(1, XDATA, add(CFA_XSP16, literal(-11)))
        CFI (cfiCond73) V4 load(1, XDATA, add(CFA_XSP16, literal(-10)))
        CFI (cfiCond73) V5 load(1, XDATA, add(CFA_XSP16, literal(-9)))
        CFI (cfiCond73) V6 load(1, XDATA, add(CFA_XSP16, literal(-8)))
        CFI (cfiCond73) V7 load(1, XDATA, add(CFA_XSP16, literal(-7)))
        CFI (cfiCond73) R7 load(1, XDATA, add(CFA_XSP16, literal(-6)))
        CFI (cfiCond73) ?RET_LOW load(1, XDATA, add(CFA_XSP16, literal(-5)))
        CFI (cfiCond73) ?RET_HIGH load(1, XDATA, add(CFA_XSP16, literal(-4)))
        CFI (cfiCond73) ?BRET_EXT load(1, XDATA, add(CFA_XSP16, literal(-3)))
        CFI (cfiCond73) DPL0 load(1, XDATA, add(CFA_XSP16, literal(-2)))
        CFI (cfiCond73) DPH0 load(1, XDATA, add(CFA_XSP16, literal(-1)))
        CFI (cfiCond73) CFA_SP SP+0
        CFI (cfiCond73) CFA_XSP16 add(XSP16, 18)
        CFI Block cfiCond74 Using cfiCommon0
        CFI (cfiCond74) NoFunction
        CFI (cfiCond74) Conditional ??CrossCallReturnLabel_104, ??CrossCallReturnLabel_19
        CFI (cfiCond74) R6 load(1, XDATA, add(CFA_XSP16, literal(-10)))
        CFI (cfiCond74) VB load(1, XDATA, add(CFA_XSP16, literal(-9)))
        CFI (cfiCond74) V0 load(1, XDATA, add(CFA_XSP16, literal(-8)))
        CFI (cfiCond74) V1 load(1, XDATA, add(CFA_XSP16, literal(-7)))
        CFI (cfiCond74) R7 load(1, XDATA, add(CFA_XSP16, literal(-6)))
        CFI (cfiCond74) ?RET_LOW load(1, XDATA, add(CFA_XSP16, literal(-5)))
        CFI (cfiCond74) ?RET_HIGH load(1, XDATA, add(CFA_XSP16, literal(-4)))
        CFI (cfiCond74) ?BRET_EXT load(1, XDATA, add(CFA_XSP16, literal(-3)))
        CFI (cfiCond74) DPL0 load(1, XDATA, add(CFA_XSP16, literal(-2)))
        CFI (cfiCond74) DPH0 load(1, XDATA, add(CFA_XSP16, literal(-1)))
        CFI (cfiCond74) CFA_SP SP+0
        CFI (cfiCond74) CFA_XSP16 add(XSP16, 10)
        CFI Block cfiCond75 Using cfiCommon0
        CFI (cfiCond75) NoFunction
        CFI (cfiCond75) Conditional ??CrossCallReturnLabel_107, ??CrossCallReturnLabel_102
        CFI (cfiCond75) R6 load(1, XDATA, add(CFA_XSP16, literal(-19)))
        CFI (cfiCond75) VB load(1, XDATA, add(CFA_XSP16, literal(-18)))
        CFI (cfiCond75) V0 load(1, XDATA, add(CFA_XSP16, literal(-17)))
        CFI (cfiCond75) V1 load(1, XDATA, add(CFA_XSP16, literal(-16)))
        CFI (cfiCond75) V2 load(1, XDATA, add(CFA_XSP16, literal(-15)))
        CFI (cfiCond75) V3 load(1, XDATA, add(CFA_XSP16, literal(-14)))
        CFI (cfiCond75) V4 load(1, XDATA, add(CFA_XSP16, literal(-13)))
        CFI (cfiCond75) V5 load(1, XDATA, add(CFA_XSP16, literal(-12)))
        CFI (cfiCond75) V6 load(1, XDATA, add(CFA_XSP16, literal(-11)))
        CFI (cfiCond75) V7 load(1, XDATA, add(CFA_XSP16, literal(-10)))
        CFI (cfiCond75) V8 load(1, XDATA, add(CFA_XSP16, literal(-9)))
        CFI (cfiCond75) V9 load(1, XDATA, add(CFA_XSP16, literal(-8)))
        CFI (cfiCond75) V10 load(1, XDATA, add(CFA_XSP16, literal(-7)))
        CFI (cfiCond75) R7 load(1, XDATA, add(CFA_XSP16, literal(-6)))
        CFI (cfiCond75) ?RET_LOW load(1, XDATA, add(CFA_XSP16, literal(-5)))
        CFI (cfiCond75) ?RET_HIGH load(1, XDATA, add(CFA_XSP16, literal(-4)))
        CFI (cfiCond75) ?BRET_EXT load(1, XDATA, add(CFA_XSP16, literal(-3)))
        CFI (cfiCond75) DPL0 load(1, XDATA, add(CFA_XSP16, literal(-2)))
        CFI (cfiCond75) DPH0 load(1, XDATA, add(CFA_XSP16, literal(-1)))
        CFI (cfiCond75) CFA_SP SP+0
        CFI (cfiCond75) CFA_XSP16 add(XSP16, 19)
        CFI Block cfiCond76 Using cfiCommon0
        CFI (cfiCond76) NoFunction
        CFI (cfiCond76) Conditional ??CrossCallReturnLabel_107, ??CrossCallReturnLabel_103
        CFI (cfiCond76) R6 load(1, XDATA, add(CFA_XSP16, literal(-19)))
        CFI (cfiCond76) VB load(1, XDATA, add(CFA_XSP16, literal(-18)))
        CFI (cfiCond76) V0 load(1, XDATA, add(CFA_XSP16, literal(-17)))
        CFI (cfiCond76) V1 load(1, XDATA, add(CFA_XSP16, literal(-16)))
        CFI (cfiCond76) V2 load(1, XDATA, add(CFA_XSP16, literal(-15)))
        CFI (cfiCond76) V3 load(1, XDATA, add(CFA_XSP16, literal(-14)))
        CFI (cfiCond76) V4 load(1, XDATA, add(CFA_XSP16, literal(-13)))
        CFI (cfiCond76) V5 load(1, XDATA, add(CFA_XSP16, literal(-12)))
        CFI (cfiCond76) V6 load(1, XDATA, add(CFA_XSP16, literal(-11)))
        CFI (cfiCond76) V7 load(1, XDATA, add(CFA_XSP16, literal(-10)))
        CFI (cfiCond76) V8 load(1, XDATA, add(CFA_XSP16, literal(-9)))
        CFI (cfiCond76) V9 load(1, XDATA, add(CFA_XSP16, literal(-8)))
        CFI (cfiCond76) V10 load(1, XDATA, add(CFA_XSP16, literal(-7)))
        CFI (cfiCond76) R7 load(1, XDATA, add(CFA_XSP16, literal(-6)))
        CFI (cfiCond76) ?RET_LOW load(1, XDATA, add(CFA_XSP16, literal(-5)))
        CFI (cfiCond76) ?RET_HIGH load(1, XDATA, add(CFA_XSP16, literal(-4)))
        CFI (cfiCond76) ?BRET_EXT load(1, XDATA, add(CFA_XSP16, literal(-3)))
        CFI (cfiCond76) DPL0 load(1, XDATA, add(CFA_XSP16, literal(-2)))
        CFI (cfiCond76) DPH0 load(1, XDATA, add(CFA_XSP16, literal(-1)))
        CFI (cfiCond76) CFA_SP SP+0
        CFI (cfiCond76) CFA_XSP16 add(XSP16, 19)
        CFI Block cfiCond77 Using cfiCommon0
        CFI (cfiCond77) NoFunction
        CFI (cfiCond77) Conditional ??CrossCallReturnLabel_107, ??CrossCallReturnLabel_101
        CFI (cfiCond77) R6 load(1, XDATA, add(CFA_XSP16, literal(-16)))
        CFI (cfiCond77) VB load(1, XDATA, add(CFA_XSP16, literal(-15)))
        CFI (cfiCond77) V0 load(1, XDATA, add(CFA_XSP16, literal(-14)))
        CFI (cfiCond77) V1 load(1, XDATA, add(CFA_XSP16, literal(-13)))
        CFI (cfiCond77) V2 load(1, XDATA, add(CFA_XSP16, literal(-12)))
        CFI (cfiCond77) V3 load(1, XDATA, add(CFA_XSP16, literal(-11)))
        CFI (cfiCond77) V4 load(1, XDATA, add(CFA_XSP16, literal(-10)))
        CFI (cfiCond77) V5 load(1, XDATA, add(CFA_XSP16, literal(-9)))
        CFI (cfiCond77) V6 load(1, XDATA, add(CFA_XSP16, literal(-8)))
        CFI (cfiCond77) V7 load(1, XDATA, add(CFA_XSP16, literal(-7)))
        CFI (cfiCond77) R7 load(1, XDATA, add(CFA_XSP16, literal(-6)))
        CFI (cfiCond77) ?RET_LOW load(1, XDATA, add(CFA_XSP16, literal(-5)))
        CFI (cfiCond77) ?RET_HIGH load(1, XDATA, add(CFA_XSP16, literal(-4)))
        CFI (cfiCond77) ?BRET_EXT load(1, XDATA, add(CFA_XSP16, literal(-3)))
        CFI (cfiCond77) DPL0 load(1, XDATA, add(CFA_XSP16, literal(-2)))
        CFI (cfiCond77) DPH0 load(1, XDATA, add(CFA_XSP16, literal(-1)))
        CFI (cfiCond77) CFA_SP SP+0
        CFI (cfiCond77) CFA_XSP16 add(XSP16, 16)
        CFI Block cfiPicker78 Using cfiCommon1
        CFI (cfiPicker78) NoFunction
        CFI (cfiPicker78) Picker
        MOVX    A,@DPTR
        MOV     R0,A
        INC     DPTR
        MOVX    A,@DPTR
        MOV     R1,A
        RET
        CFI EndBlock cfiCond63
        CFI EndBlock cfiCond64
        CFI EndBlock cfiCond65
        CFI EndBlock cfiCond66
        CFI EndBlock cfiCond67
        CFI EndBlock cfiCond68
        CFI EndBlock cfiCond69
        CFI EndBlock cfiCond70
        CFI EndBlock cfiCond71
        CFI EndBlock cfiCond72
        CFI EndBlock cfiCond73
        CFI EndBlock cfiCond74
        CFI EndBlock cfiCond75
        CFI EndBlock cfiCond76
        CFI EndBlock cfiCond77
        CFI EndBlock cfiPicker78

        RSEG BANKED_CODE:CODE:NOROOT(0)
?Subroutine13:
        CFI Block cfiCond79 Using cfiCommon0
        CFI NoFunction
        CFI Conditional ??CrossCallReturnLabel_70
        CFI R6 load(1, XDATA, add(CFA_XSP16, literal(-24)))
        CFI VB load(1, XDATA, add(CFA_XSP16, literal(-23)))
        CFI V0 load(1, XDATA, add(CFA_XSP16, literal(-22)))
        CFI V1 load(1, XDATA, add(CFA_XSP16, literal(-21)))
        CFI V2 load(1, XDATA, add(CFA_XSP16, literal(-20)))
        CFI V3 load(1, XDATA, add(CFA_XSP16, literal(-19)))
        CFI V4 load(1, XDATA, add(CFA_XSP16, literal(-18)))
        CFI V5 load(1, XDATA, add(CFA_XSP16, literal(-17)))
        CFI V6 load(1, XDATA, add(CFA_XSP16, literal(-16)))
        CFI V7 load(1, XDATA, add(CFA_XSP16, literal(-15)))
        CFI V8 load(1, XDATA, add(CFA_XSP16, literal(-14)))
        CFI V9 load(1, XDATA, add(CFA_XSP16, literal(-13)))
        CFI V10 load(1, XDATA, add(CFA_XSP16, literal(-12)))
        CFI V11 load(1, XDATA, add(CFA_XSP16, literal(-11)))
        CFI V12 load(1, XDATA, add(CFA_XSP16, literal(-10)))
        CFI V13 load(1, XDATA, add(CFA_XSP16, literal(-9)))
        CFI V14 load(1, XDATA, add(CFA_XSP16, literal(-8)))
        CFI V15 load(1, XDATA, add(CFA_XSP16, literal(-7)))
        CFI R7 load(1, XDATA, add(CFA_XSP16, literal(-6)))
        CFI ?RET_LOW load(1, XDATA, add(CFA_XSP16, literal(-5)))
        CFI ?RET_HIGH load(1, XDATA, add(CFA_XSP16, literal(-4)))
        CFI ?BRET_EXT load(1, XDATA, add(CFA_XSP16, literal(-3)))
        CFI DPL0 load(1, XDATA, add(CFA_XSP16, literal(-2)))
        CFI DPH0 load(1, XDATA, add(CFA_XSP16, literal(-1)))
        CFI CFA_SP SP+0
        CFI CFA_XSP16 add(XSP16, 37)
        CFI Block cfiCond80 Using cfiCommon0
        CFI (cfiCond80) NoFunction
        CFI (cfiCond80) Conditional ??CrossCallReturnLabel_71
        CFI (cfiCond80) R6 load(1, XDATA, add(CFA_XSP16, literal(-10)))
        CFI (cfiCond80) VB load(1, XDATA, add(CFA_XSP16, literal(-9)))
        CFI (cfiCond80) V0 load(1, XDATA, add(CFA_XSP16, literal(-8)))
        CFI (cfiCond80) V1 load(1, XDATA, add(CFA_XSP16, literal(-7)))
        CFI (cfiCond80) R7 load(1, XDATA, add(CFA_XSP16, literal(-6)))
        CFI (cfiCond80) ?RET_LOW load(1, XDATA, add(CFA_XSP16, literal(-5)))
        CFI (cfiCond80) ?RET_HIGH load(1, XDATA, add(CFA_XSP16, literal(-4)))
        CFI (cfiCond80) ?BRET_EXT load(1, XDATA, add(CFA_XSP16, literal(-3)))
        CFI (cfiCond80) DPL0 load(1, XDATA, add(CFA_XSP16, literal(-2)))
        CFI (cfiCond80) DPH0 load(1, XDATA, add(CFA_XSP16, literal(-1)))
        CFI (cfiCond80) CFA_SP SP+0
        CFI (cfiCond80) CFA_XSP16 add(XSP16, 10)
        CFI Block cfiPicker81 Using cfiCommon1
        CFI (cfiPicker81) NoFunction
        CFI (cfiPicker81) Picker
        MOV     R2,#0x4
        CFI EndBlock cfiCond79
        CFI EndBlock cfiCond80
        CFI EndBlock cfiPicker81
        REQUIRE ??Subroutine38_0
        ; // Fall through to label ??Subroutine38_0

        RSEG BANKED_CODE:CODE:NOROOT(0)
??Subroutine38_0:
        CFI Block cfiCond82 Using cfiCommon0
        CFI NoFunction
        CFI Conditional ??CrossCallReturnLabel_76
        CFI R6 load(1, XDATA, add(CFA_XSP16, literal(-16)))
        CFI VB load(1, XDATA, add(CFA_XSP16, literal(-15)))
        CFI V0 load(1, XDATA, add(CFA_XSP16, literal(-14)))
        CFI V1 load(1, XDATA, add(CFA_XSP16, literal(-13)))
        CFI V2 load(1, XDATA, add(CFA_XSP16, literal(-12)))
        CFI V3 load(1, XDATA, add(CFA_XSP16, literal(-11)))
        CFI V4 load(1, XDATA, add(CFA_XSP16, literal(-10)))
        CFI V5 load(1, XDATA, add(CFA_XSP16, literal(-9)))
        CFI V6 load(1, XDATA, add(CFA_XSP16, literal(-8)))
        CFI V7 load(1, XDATA, add(CFA_XSP16, literal(-7)))
        CFI R7 load(1, XDATA, add(CFA_XSP16, literal(-6)))
        CFI ?RET_LOW load(1, XDATA, add(CFA_XSP16, literal(-5)))
        CFI ?RET_HIGH load(1, XDATA, add(CFA_XSP16, literal(-4)))
        CFI ?BRET_EXT load(1, XDATA, add(CFA_XSP16, literal(-3)))
        CFI DPL0 load(1, XDATA, add(CFA_XSP16, literal(-2)))
        CFI DPH0 load(1, XDATA, add(CFA_XSP16, literal(-1)))
        CFI CFA_SP SP+0
        CFI CFA_XSP16 add(XSP16, 16)
        CFI Block cfiCond83 Using cfiCommon0
        CFI (cfiCond83) NoFunction
        CFI (cfiCond83) Conditional ??CrossCallReturnLabel_72
        CFI (cfiCond83) R6 load(1, XDATA, add(CFA_XSP16, literal(-16)))
        CFI (cfiCond83) VB load(1, XDATA, add(CFA_XSP16, literal(-15)))
        CFI (cfiCond83) V0 load(1, XDATA, add(CFA_XSP16, literal(-14)))
        CFI (cfiCond83) V1 load(1, XDATA, add(CFA_XSP16, literal(-13)))
        CFI (cfiCond83) V2 load(1, XDATA, add(CFA_XSP16, literal(-12)))
        CFI (cfiCond83) V3 load(1, XDATA, add(CFA_XSP16, literal(-11)))
        CFI (cfiCond83) V4 load(1, XDATA, add(CFA_XSP16, literal(-10)))
        CFI (cfiCond83) V5 load(1, XDATA, add(CFA_XSP16, literal(-9)))
        CFI (cfiCond83) V6 load(1, XDATA, add(CFA_XSP16, literal(-8)))
        CFI (cfiCond83) V7 load(1, XDATA, add(CFA_XSP16, literal(-7)))
        CFI (cfiCond83) R7 load(1, XDATA, add(CFA_XSP16, literal(-6)))
        CFI (cfiCond83) ?RET_LOW load(1, XDATA, add(CFA_XSP16, literal(-5)))
        CFI (cfiCond83) ?RET_HIGH load(1, XDATA, add(CFA_XSP16, literal(-4)))
        CFI (cfiCond83) ?BRET_EXT load(1, XDATA, add(CFA_XSP16, literal(-3)))
        CFI (cfiCond83) DPL0 load(1, XDATA, add(CFA_XSP16, literal(-2)))
        CFI (cfiCond83) DPH0 load(1, XDATA, add(CFA_XSP16, literal(-1)))
        CFI (cfiCond83) CFA_SP SP+0
        CFI (cfiCond83) CFA_XSP16 add(XSP16, 18)
        CFI Block cfiCond84 Using cfiCommon0
        CFI (cfiCond84) NoFunction
        CFI (cfiCond84) Conditional ??CrossCallReturnLabel_73
        CFI (cfiCond84) R6 load(1, XDATA, add(CFA_XSP16, literal(-10)))
        CFI (cfiCond84) VB load(1, XDATA, add(CFA_XSP16, literal(-9)))
        CFI (cfiCond84) V0 load(1, XDATA, add(CFA_XSP16, literal(-8)))
        CFI (cfiCond84) V1 load(1, XDATA, add(CFA_XSP16, literal(-7)))
        CFI (cfiCond84) R7 load(1, XDATA, add(CFA_XSP16, literal(-6)))
        CFI (cfiCond84) ?RET_LOW load(1, XDATA, add(CFA_XSP16, literal(-5)))
        CFI (cfiCond84) ?RET_HIGH load(1, XDATA, add(CFA_XSP16, literal(-4)))
        CFI (cfiCond84) ?BRET_EXT load(1, XDATA, add(CFA_XSP16, literal(-3)))
        CFI (cfiCond84) DPL0 load(1, XDATA, add(CFA_XSP16, literal(-2)))
        CFI (cfiCond84) DPH0 load(1, XDATA, add(CFA_XSP16, literal(-1)))
        CFI (cfiCond84) CFA_SP SP+0
        CFI (cfiCond84) CFA_XSP16 add(XSP16, 10)
        CFI Block cfiCond85 Using cfiCommon0
        CFI (cfiCond85) NoFunction
        CFI (cfiCond85) Conditional ??CrossCallReturnLabel_74
        CFI (cfiCond85) R6 load(1, XDATA, add(CFA_XSP16, literal(-15)))
        CFI (cfiCond85) VB load(1, XDATA, add(CFA_XSP16, literal(-14)))
        CFI (cfiCond85) V0 load(1, XDATA, add(CFA_XSP16, literal(-13)))
        CFI (cfiCond85) V1 load(1, XDATA, add(CFA_XSP16, literal(-12)))
        CFI (cfiCond85) V2 load(1, XDATA, add(CFA_XSP16, literal(-11)))
        CFI (cfiCond85) V3 load(1, XDATA, add(CFA_XSP16, literal(-10)))
        CFI (cfiCond85) V4 load(1, XDATA, add(CFA_XSP16, literal(-9)))
        CFI (cfiCond85) V5 load(1, XDATA, add(CFA_XSP16, literal(-8)))
        CFI (cfiCond85) V6 load(1, XDATA, add(CFA_XSP16, literal(-7)))
        CFI (cfiCond85) R7 load(1, XDATA, add(CFA_XSP16, literal(-6)))
        CFI (cfiCond85) ?RET_LOW load(1, XDATA, add(CFA_XSP16, literal(-5)))
        CFI (cfiCond85) ?RET_HIGH load(1, XDATA, add(CFA_XSP16, literal(-4)))
        CFI (cfiCond85) ?BRET_EXT load(1, XDATA, add(CFA_XSP16, literal(-3)))
        CFI (cfiCond85) DPL0 load(1, XDATA, add(CFA_XSP16, literal(-2)))
        CFI (cfiCond85) DPH0 load(1, XDATA, add(CFA_XSP16, literal(-1)))
        CFI (cfiCond85) CFA_SP SP+0
        CFI (cfiCond85) CFA_XSP16 add(XSP16, 23)
        CFI Block cfiCond86 Using cfiCommon0
        CFI (cfiCond86) NoFunction
        CFI (cfiCond86) Conditional ??CrossCallReturnLabel_70
        CFI (cfiCond86) R6 load(1, XDATA, add(CFA_XSP16, literal(-24)))
        CFI (cfiCond86) VB load(1, XDATA, add(CFA_XSP16, literal(-23)))
        CFI (cfiCond86) V0 load(1, XDATA, add(CFA_XSP16, literal(-22)))
        CFI (cfiCond86) V1 load(1, XDATA, add(CFA_XSP16, literal(-21)))
        CFI (cfiCond86) V2 load(1, XDATA, add(CFA_XSP16, literal(-20)))
        CFI (cfiCond86) V3 load(1, XDATA, add(CFA_XSP16, literal(-19)))
        CFI (cfiCond86) V4 load(1, XDATA, add(CFA_XSP16, literal(-18)))
        CFI (cfiCond86) V5 load(1, XDATA, add(CFA_XSP16, literal(-17)))
        CFI (cfiCond86) V6 load(1, XDATA, add(CFA_XSP16, literal(-16)))
        CFI (cfiCond86) V7 load(1, XDATA, add(CFA_XSP16, literal(-15)))
        CFI (cfiCond86) V8 load(1, XDATA, add(CFA_XSP16, literal(-14)))
        CFI (cfiCond86) V9 load(1, XDATA, add(CFA_XSP16, literal(-13)))
        CFI (cfiCond86) V10 load(1, XDATA, add(CFA_XSP16, literal(-12)))
        CFI (cfiCond86) V11 load(1, XDATA, add(CFA_XSP16, literal(-11)))
        CFI (cfiCond86) V12 load(1, XDATA, add(CFA_XSP16, literal(-10)))
        CFI (cfiCond86) V13 load(1, XDATA, add(CFA_XSP16, literal(-9)))
        CFI (cfiCond86) V14 load(1, XDATA, add(CFA_XSP16, literal(-8)))
        CFI (cfiCond86) V15 load(1, XDATA, add(CFA_XSP16, literal(-7)))
        CFI (cfiCond86) R7 load(1, XDATA, add(CFA_XSP16, literal(-6)))
        CFI (cfiCond86) ?RET_LOW load(1, XDATA, add(CFA_XSP16, literal(-5)))
        CFI (cfiCond86) ?RET_HIGH load(1, XDATA, add(CFA_XSP16, literal(-4)))
        CFI (cfiCond86) ?BRET_EXT load(1, XDATA, add(CFA_XSP16, literal(-3)))
        CFI (cfiCond86) DPL0 load(1, XDATA, add(CFA_XSP16, literal(-2)))
        CFI (cfiCond86) DPH0 load(1, XDATA, add(CFA_XSP16, literal(-1)))
        CFI (cfiCond86) CFA_SP SP+0
        CFI (cfiCond86) CFA_XSP16 add(XSP16, 37)
        CFI Block cfiCond87 Using cfiCommon0
        CFI (cfiCond87) NoFunction
        CFI (cfiCond87) Conditional ??CrossCallReturnLabel_71
        CFI (cfiCond87) R6 load(1, XDATA, add(CFA_XSP16, literal(-10)))
        CFI (cfiCond87) VB load(1, XDATA, add(CFA_XSP16, literal(-9)))
        CFI (cfiCond87) V0 load(1, XDATA, add(CFA_XSP16, literal(-8)))
        CFI (cfiCond87) V1 load(1, XDATA, add(CFA_XSP16, literal(-7)))
        CFI (cfiCond87) R7 load(1, XDATA, add(CFA_XSP16, literal(-6)))
        CFI (cfiCond87) ?RET_LOW load(1, XDATA, add(CFA_XSP16, literal(-5)))
        CFI (cfiCond87) ?RET_HIGH load(1, XDATA, add(CFA_XSP16, literal(-4)))
        CFI (cfiCond87) ?BRET_EXT load(1, XDATA, add(CFA_XSP16, literal(-3)))
        CFI (cfiCond87) DPL0 load(1, XDATA, add(CFA_XSP16, literal(-2)))
        CFI (cfiCond87) DPH0 load(1, XDATA, add(CFA_XSP16, literal(-1)))
        CFI (cfiCond87) CFA_SP SP+0
        CFI (cfiCond87) CFA_XSP16 add(XSP16, 10)
        CFI Block cfiPicker88 Using cfiCommon1
        CFI (cfiPicker88) NoFunction
        CFI (cfiPicker88) Picker
        MOV     R3,#0x0
        CFI EndBlock cfiCond82
        CFI EndBlock cfiCond83
        CFI EndBlock cfiCond84
        CFI EndBlock cfiCond85
        CFI EndBlock cfiCond86
        CFI EndBlock cfiCond87
        CFI EndBlock cfiPicker88
        REQUIRE ??Subroutine39_0
        ; // Fall through to label ??Subroutine39_0

        RSEG BANKED_CODE:CODE:NOROOT(0)
??Subroutine39_0:
        CFI Block cfiCond89 Using cfiCommon0
        CFI NoFunction
        CFI Conditional ??CrossCallReturnLabel_75
        CFI R6 load(1, XDATA, add(CFA_XSP16, literal(-24)))
        CFI VB load(1, XDATA, add(CFA_XSP16, literal(-23)))
        CFI V0 load(1, XDATA, add(CFA_XSP16, literal(-22)))
        CFI V1 load(1, XDATA, add(CFA_XSP16, literal(-21)))
        CFI V2 load(1, XDATA, add(CFA_XSP16, literal(-20)))
        CFI V3 load(1, XDATA, add(CFA_XSP16, literal(-19)))
        CFI V4 load(1, XDATA, add(CFA_XSP16, literal(-18)))
        CFI V5 load(1, XDATA, add(CFA_XSP16, literal(-17)))
        CFI V6 load(1, XDATA, add(CFA_XSP16, literal(-16)))
        CFI V7 load(1, XDATA, add(CFA_XSP16, literal(-15)))
        CFI V8 load(1, XDATA, add(CFA_XSP16, literal(-14)))
        CFI V9 load(1, XDATA, add(CFA_XSP16, literal(-13)))
        CFI V10 load(1, XDATA, add(CFA_XSP16, literal(-12)))
        CFI V11 load(1, XDATA, add(CFA_XSP16, literal(-11)))
        CFI V12 load(1, XDATA, add(CFA_XSP16, literal(-10)))
        CFI V13 load(1, XDATA, add(CFA_XSP16, literal(-9)))
        CFI V14 load(1, XDATA, add(CFA_XSP16, literal(-8)))
        CFI V15 load(1, XDATA, add(CFA_XSP16, literal(-7)))
        CFI R7 load(1, XDATA, add(CFA_XSP16, literal(-6)))
        CFI ?RET_LOW load(1, XDATA, add(CFA_XSP16, literal(-5)))
        CFI ?RET_HIGH load(1, XDATA, add(CFA_XSP16, literal(-4)))
        CFI ?BRET_EXT load(1, XDATA, add(CFA_XSP16, literal(-3)))
        CFI DPL0 load(1, XDATA, add(CFA_XSP16, literal(-2)))
        CFI DPH0 load(1, XDATA, add(CFA_XSP16, literal(-1)))
        CFI CFA_SP SP+0
        CFI CFA_XSP16 add(XSP16, 37)
        CFI Block cfiCond90 Using cfiCommon0
        CFI (cfiCond90) NoFunction
        CFI (cfiCond90) Conditional ??CrossCallReturnLabel_76
        CFI (cfiCond90) R6 load(1, XDATA, add(CFA_XSP16, literal(-16)))
        CFI (cfiCond90) VB load(1, XDATA, add(CFA_XSP16, literal(-15)))
        CFI (cfiCond90) V0 load(1, XDATA, add(CFA_XSP16, literal(-14)))
        CFI (cfiCond90) V1 load(1, XDATA, add(CFA_XSP16, literal(-13)))
        CFI (cfiCond90) V2 load(1, XDATA, add(CFA_XSP16, literal(-12)))
        CFI (cfiCond90) V3 load(1, XDATA, add(CFA_XSP16, literal(-11)))
        CFI (cfiCond90) V4 load(1, XDATA, add(CFA_XSP16, literal(-10)))
        CFI (cfiCond90) V5 load(1, XDATA, add(CFA_XSP16, literal(-9)))
        CFI (cfiCond90) V6 load(1, XDATA, add(CFA_XSP16, literal(-8)))
        CFI (cfiCond90) V7 load(1, XDATA, add(CFA_XSP16, literal(-7)))
        CFI (cfiCond90) R7 load(1, XDATA, add(CFA_XSP16, literal(-6)))
        CFI (cfiCond90) ?RET_LOW load(1, XDATA, add(CFA_XSP16, literal(-5)))
        CFI (cfiCond90) ?RET_HIGH load(1, XDATA, add(CFA_XSP16, literal(-4)))
        CFI (cfiCond90) ?BRET_EXT load(1, XDATA, add(CFA_XSP16, literal(-3)))
        CFI (cfiCond90) DPL0 load(1, XDATA, add(CFA_XSP16, literal(-2)))
        CFI (cfiCond90) DPH0 load(1, XDATA, add(CFA_XSP16, literal(-1)))
        CFI (cfiCond90) CFA_SP SP+0
        CFI (cfiCond90) CFA_XSP16 add(XSP16, 16)
        CFI Block cfiCond91 Using cfiCommon0
        CFI (cfiCond91) NoFunction
        CFI (cfiCond91) Conditional ??CrossCallReturnLabel_72
        CFI (cfiCond91) R6 load(1, XDATA, add(CFA_XSP16, literal(-16)))
        CFI (cfiCond91) VB load(1, XDATA, add(CFA_XSP16, literal(-15)))
        CFI (cfiCond91) V0 load(1, XDATA, add(CFA_XSP16, literal(-14)))
        CFI (cfiCond91) V1 load(1, XDATA, add(CFA_XSP16, literal(-13)))
        CFI (cfiCond91) V2 load(1, XDATA, add(CFA_XSP16, literal(-12)))
        CFI (cfiCond91) V3 load(1, XDATA, add(CFA_XSP16, literal(-11)))
        CFI (cfiCond91) V4 load(1, XDATA, add(CFA_XSP16, literal(-10)))
        CFI (cfiCond91) V5 load(1, XDATA, add(CFA_XSP16, literal(-9)))
        CFI (cfiCond91) V6 load(1, XDATA, add(CFA_XSP16, literal(-8)))
        CFI (cfiCond91) V7 load(1, XDATA, add(CFA_XSP16, literal(-7)))
        CFI (cfiCond91) R7 load(1, XDATA, add(CFA_XSP16, literal(-6)))
        CFI (cfiCond91) ?RET_LOW load(1, XDATA, add(CFA_XSP16, literal(-5)))
        CFI (cfiCond91) ?RET_HIGH load(1, XDATA, add(CFA_XSP16, literal(-4)))
        CFI (cfiCond91) ?BRET_EXT load(1, XDATA, add(CFA_XSP16, literal(-3)))
        CFI (cfiCond91) DPL0 load(1, XDATA, add(CFA_XSP16, literal(-2)))
        CFI (cfiCond91) DPH0 load(1, XDATA, add(CFA_XSP16, literal(-1)))
        CFI (cfiCond91) CFA_SP SP+0
        CFI (cfiCond91) CFA_XSP16 add(XSP16, 18)
        CFI Block cfiCond92 Using cfiCommon0
        CFI (cfiCond92) NoFunction
        CFI (cfiCond92) Conditional ??CrossCallReturnLabel_73
        CFI (cfiCond92) R6 load(1, XDATA, add(CFA_XSP16, literal(-10)))
        CFI (cfiCond92) VB load(1, XDATA, add(CFA_XSP16, literal(-9)))
        CFI (cfiCond92) V0 load(1, XDATA, add(CFA_XSP16, literal(-8)))
        CFI (cfiCond92) V1 load(1, XDATA, add(CFA_XSP16, literal(-7)))
        CFI (cfiCond92) R7 load(1, XDATA, add(CFA_XSP16, literal(-6)))
        CFI (cfiCond92) ?RET_LOW load(1, XDATA, add(CFA_XSP16, literal(-5)))
        CFI (cfiCond92) ?RET_HIGH load(1, XDATA, add(CFA_XSP16, literal(-4)))
        CFI (cfiCond92) ?BRET_EXT load(1, XDATA, add(CFA_XSP16, literal(-3)))
        CFI (cfiCond92) DPL0 load(1, XDATA, add(CFA_XSP16, literal(-2)))
        CFI (cfiCond92) DPH0 load(1, XDATA, add(CFA_XSP16, literal(-1)))
        CFI (cfiCond92) CFA_SP SP+0
        CFI (cfiCond92) CFA_XSP16 add(XSP16, 10)
        CFI Block cfiCond93 Using cfiCommon0
        CFI (cfiCond93) NoFunction
        CFI (cfiCond93) Conditional ??CrossCallReturnLabel_74
        CFI (cfiCond93) R6 load(1, XDATA, add(CFA_XSP16, literal(-15)))
        CFI (cfiCond93) VB load(1, XDATA, add(CFA_XSP16, literal(-14)))
        CFI (cfiCond93) V0 load(1, XDATA, add(CFA_XSP16, literal(-13)))
        CFI (cfiCond93) V1 load(1, XDATA, add(CFA_XSP16, literal(-12)))
        CFI (cfiCond93) V2 load(1, XDATA, add(CFA_XSP16, literal(-11)))
        CFI (cfiCond93) V3 load(1, XDATA, add(CFA_XSP16, literal(-10)))
        CFI (cfiCond93) V4 load(1, XDATA, add(CFA_XSP16, literal(-9)))
        CFI (cfiCond93) V5 load(1, XDATA, add(CFA_XSP16, literal(-8)))
        CFI (cfiCond93) V6 load(1, XDATA, add(CFA_XSP16, literal(-7)))
        CFI (cfiCond93) R7 load(1, XDATA, add(CFA_XSP16, literal(-6)))
        CFI (cfiCond93) ?RET_LOW load(1, XDATA, add(CFA_XSP16, literal(-5)))
        CFI (cfiCond93) ?RET_HIGH load(1, XDATA, add(CFA_XSP16, literal(-4)))
        CFI (cfiCond93) ?BRET_EXT load(1, XDATA, add(CFA_XSP16, literal(-3)))
        CFI (cfiCond93) DPL0 load(1, XDATA, add(CFA_XSP16, literal(-2)))
        CFI (cfiCond93) DPH0 load(1, XDATA, add(CFA_XSP16, literal(-1)))
        CFI (cfiCond93) CFA_SP SP+0
        CFI (cfiCond93) CFA_XSP16 add(XSP16, 23)
        CFI Block cfiCond94 Using cfiCommon0
        CFI (cfiCond94) NoFunction
        CFI (cfiCond94) Conditional ??CrossCallReturnLabel_70
        CFI (cfiCond94) R6 load(1, XDATA, add(CFA_XSP16, literal(-24)))
        CFI (cfiCond94) VB load(1, XDATA, add(CFA_XSP16, literal(-23)))
        CFI (cfiCond94) V0 load(1, XDATA, add(CFA_XSP16, literal(-22)))
        CFI (cfiCond94) V1 load(1, XDATA, add(CFA_XSP16, literal(-21)))
        CFI (cfiCond94) V2 load(1, XDATA, add(CFA_XSP16, literal(-20)))
        CFI (cfiCond94) V3 load(1, XDATA, add(CFA_XSP16, literal(-19)))
        CFI (cfiCond94) V4 load(1, XDATA, add(CFA_XSP16, literal(-18)))
        CFI (cfiCond94) V5 load(1, XDATA, add(CFA_XSP16, literal(-17)))
        CFI (cfiCond94) V6 load(1, XDATA, add(CFA_XSP16, literal(-16)))
        CFI (cfiCond94) V7 load(1, XDATA, add(CFA_XSP16, literal(-15)))
        CFI (cfiCond94) V8 load(1, XDATA, add(CFA_XSP16, literal(-14)))
        CFI (cfiCond94) V9 load(1, XDATA, add(CFA_XSP16, literal(-13)))
        CFI (cfiCond94) V10 load(1, XDATA, add(CFA_XSP16, literal(-12)))
        CFI (cfiCond94) V11 load(1, XDATA, add(CFA_XSP16, literal(-11)))
        CFI (cfiCond94) V12 load(1, XDATA, add(CFA_XSP16, literal(-10)))
        CFI (cfiCond94) V13 load(1, XDATA, add(CFA_XSP16, literal(-9)))
        CFI (cfiCond94) V14 load(1, XDATA, add(CFA_XSP16, literal(-8)))
        CFI (cfiCond94) V15 load(1, XDATA, add(CFA_XSP16, literal(-7)))
        CFI (cfiCond94) R7 load(1, XDATA, add(CFA_XSP16, literal(-6)))
        CFI (cfiCond94) ?RET_LOW load(1, XDATA, add(CFA_XSP16, literal(-5)))
        CFI (cfiCond94) ?RET_HIGH load(1, XDATA, add(CFA_XSP16, literal(-4)))
        CFI (cfiCond94) ?BRET_EXT load(1, XDATA, add(CFA_XSP16, literal(-3)))
        CFI (cfiCond94) DPL0 load(1, XDATA, add(CFA_XSP16, literal(-2)))
        CFI (cfiCond94) DPH0 load(1, XDATA, add(CFA_XSP16, literal(-1)))
        CFI (cfiCond94) CFA_SP SP+0
        CFI (cfiCond94) CFA_XSP16 add(XSP16, 37)
        CFI Block cfiCond95 Using cfiCommon0
        CFI (cfiCond95) NoFunction
        CFI (cfiCond95) Conditional ??CrossCallReturnLabel_71
        CFI (cfiCond95) R6 load(1, XDATA, add(CFA_XSP16, literal(-10)))
        CFI (cfiCond95) VB load(1, XDATA, add(CFA_XSP16, literal(-9)))
        CFI (cfiCond95) V0 load(1, XDATA, add(CFA_XSP16, literal(-8)))
        CFI (cfiCond95) V1 load(1, XDATA, add(CFA_XSP16, literal(-7)))
        CFI (cfiCond95) R7 load(1, XDATA, add(CFA_XSP16, literal(-6)))
        CFI (cfiCond95) ?RET_LOW load(1, XDATA, add(CFA_XSP16, literal(-5)))
        CFI (cfiCond95) ?RET_HIGH load(1, XDATA, add(CFA_XSP16, literal(-4)))
        CFI (cfiCond95) ?BRET_EXT load(1, XDATA, add(CFA_XSP16, literal(-3)))
        CFI (cfiCond95) DPL0 load(1, XDATA, add(CFA_XSP16, literal(-2)))
        CFI (cfiCond95) DPH0 load(1, XDATA, add(CFA_XSP16, literal(-1)))
        CFI (cfiCond95) CFA_SP SP+0
        CFI (cfiCond95) CFA_XSP16 add(XSP16, 10)
        CFI Block cfiPicker96 Using cfiCommon1
        CFI (cfiPicker96) NoFunction
        CFI (cfiPicker96) Picker
        MOV     DPTR,#oad_app_taskId
        MOVX    A,@DPTR
        MOV     R1,A
        LCALL   ??osal_set_event?relay
        RET
        CFI EndBlock cfiCond89
        CFI EndBlock cfiCond90
        CFI EndBlock cfiCond91
        CFI EndBlock cfiCond92
        CFI EndBlock cfiCond93
        CFI EndBlock cfiCond94
        CFI EndBlock cfiCond95
        CFI EndBlock cfiPicker96

        RSEG BANKED_CODE:CODE:NOROOT(0)
?Subroutine10:
        CFI Block cfiCond97 Using cfiCommon0
        CFI NoFunction
        CFI Conditional ??CrossCallReturnLabel_77
        CFI R6 load(1, XDATA, add(CFA_XSP16, literal(-16)))
        CFI VB load(1, XDATA, add(CFA_XSP16, literal(-15)))
        CFI V0 load(1, XDATA, add(CFA_XSP16, literal(-14)))
        CFI V1 load(1, XDATA, add(CFA_XSP16, literal(-13)))
        CFI V2 load(1, XDATA, add(CFA_XSP16, literal(-12)))
        CFI V3 load(1, XDATA, add(CFA_XSP16, literal(-11)))
        CFI V4 load(1, XDATA, add(CFA_XSP16, literal(-10)))
        CFI V5 load(1, XDATA, add(CFA_XSP16, literal(-9)))
        CFI V6 load(1, XDATA, add(CFA_XSP16, literal(-8)))
        CFI V7 load(1, XDATA, add(CFA_XSP16, literal(-7)))
        CFI R7 load(1, XDATA, add(CFA_XSP16, literal(-6)))
        CFI ?RET_LOW load(1, XDATA, add(CFA_XSP16, literal(-5)))
        CFI ?RET_HIGH load(1, XDATA, add(CFA_XSP16, literal(-4)))
        CFI ?BRET_EXT load(1, XDATA, add(CFA_XSP16, literal(-3)))
        CFI DPL0 load(1, XDATA, add(CFA_XSP16, literal(-2)))
        CFI DPH0 load(1, XDATA, add(CFA_XSP16, literal(-1)))
        CFI CFA_SP SP+0
        CFI CFA_XSP16 add(XSP16, 18)
        CFI Block cfiCond98 Using cfiCommon0
        CFI (cfiCond98) NoFunction
        CFI (cfiCond98) Conditional ??CrossCallReturnLabel_78
        CFI (cfiCond98) R6 load(1, XDATA, add(CFA_XSP16, literal(-16)))
        CFI (cfiCond98) VB load(1, XDATA, add(CFA_XSP16, literal(-15)))
        CFI (cfiCond98) V0 load(1, XDATA, add(CFA_XSP16, literal(-14)))
        CFI (cfiCond98) V1 load(1, XDATA, add(CFA_XSP16, literal(-13)))
        CFI (cfiCond98) V2 load(1, XDATA, add(CFA_XSP16, literal(-12)))
        CFI (cfiCond98) V3 load(1, XDATA, add(CFA_XSP16, literal(-11)))
        CFI (cfiCond98) V4 load(1, XDATA, add(CFA_XSP16, literal(-10)))
        CFI (cfiCond98) V5 load(1, XDATA, add(CFA_XSP16, literal(-9)))
        CFI (cfiCond98) V6 load(1, XDATA, add(CFA_XSP16, literal(-8)))
        CFI (cfiCond98) V7 load(1, XDATA, add(CFA_XSP16, literal(-7)))
        CFI (cfiCond98) R7 load(1, XDATA, add(CFA_XSP16, literal(-6)))
        CFI (cfiCond98) ?RET_LOW load(1, XDATA, add(CFA_XSP16, literal(-5)))
        CFI (cfiCond98) ?RET_HIGH load(1, XDATA, add(CFA_XSP16, literal(-4)))
        CFI (cfiCond98) ?BRET_EXT load(1, XDATA, add(CFA_XSP16, literal(-3)))
        CFI (cfiCond98) DPL0 load(1, XDATA, add(CFA_XSP16, literal(-2)))
        CFI (cfiCond98) DPH0 load(1, XDATA, add(CFA_XSP16, literal(-1)))
        CFI (cfiCond98) CFA_SP SP+0
        CFI (cfiCond98) CFA_XSP16 add(XSP16, 18)
        CFI Block cfiCond99 Using cfiCommon0
        CFI (cfiCond99) NoFunction
        CFI (cfiCond99) Conditional ??CrossCallReturnLabel_79
        CFI (cfiCond99) R6 load(1, XDATA, add(CFA_XSP16, literal(-16)))
        CFI (cfiCond99) VB load(1, XDATA, add(CFA_XSP16, literal(-15)))
        CFI (cfiCond99) V0 load(1, XDATA, add(CFA_XSP16, literal(-14)))
        CFI (cfiCond99) V1 load(1, XDATA, add(CFA_XSP16, literal(-13)))
        CFI (cfiCond99) V2 load(1, XDATA, add(CFA_XSP16, literal(-12)))
        CFI (cfiCond99) V3 load(1, XDATA, add(CFA_XSP16, literal(-11)))
        CFI (cfiCond99) V4 load(1, XDATA, add(CFA_XSP16, literal(-10)))
        CFI (cfiCond99) V5 load(1, XDATA, add(CFA_XSP16, literal(-9)))
        CFI (cfiCond99) V6 load(1, XDATA, add(CFA_XSP16, literal(-8)))
        CFI (cfiCond99) V7 load(1, XDATA, add(CFA_XSP16, literal(-7)))
        CFI (cfiCond99) R7 load(1, XDATA, add(CFA_XSP16, literal(-6)))
        CFI (cfiCond99) ?RET_LOW load(1, XDATA, add(CFA_XSP16, literal(-5)))
        CFI (cfiCond99) ?RET_HIGH load(1, XDATA, add(CFA_XSP16, literal(-4)))
        CFI (cfiCond99) ?BRET_EXT load(1, XDATA, add(CFA_XSP16, literal(-3)))
        CFI (cfiCond99) DPL0 load(1, XDATA, add(CFA_XSP16, literal(-2)))
        CFI (cfiCond99) DPH0 load(1, XDATA, add(CFA_XSP16, literal(-1)))
        CFI (cfiCond99) CFA_SP SP+0
        CFI (cfiCond99) CFA_XSP16 add(XSP16, 18)
        CFI Block cfiPicker100 Using cfiCommon1
        CFI (cfiPicker100) NoFunction
        CFI (cfiPicker100) Picker
        MOV     DPTR,#s_PTClientInfo + 20
        CFI EndBlock cfiCond97
        CFI EndBlock cfiCond98
        CFI EndBlock cfiCond99
        CFI EndBlock cfiPicker100
        REQUIRE ??Subroutine40_0
        ; // Fall through to label ??Subroutine40_0

        RSEG BANKED_CODE:CODE:NOROOT(0)
??Subroutine40_0:
        CFI Block cfiCond101 Using cfiCommon0
        CFI NoFunction
        CFI Conditional ??CrossCallReturnLabel_80
        CFI R6 load(1, XDATA, add(CFA_XSP16, literal(-24)))
        CFI VB load(1, XDATA, add(CFA_XSP16, literal(-23)))
        CFI V0 load(1, XDATA, add(CFA_XSP16, literal(-22)))
        CFI V1 load(1, XDATA, add(CFA_XSP16, literal(-21)))
        CFI V2 load(1, XDATA, add(CFA_XSP16, literal(-20)))
        CFI V3 load(1, XDATA, add(CFA_XSP16, literal(-19)))
        CFI V4 load(1, XDATA, add(CFA_XSP16, literal(-18)))
        CFI V5 load(1, XDATA, add(CFA_XSP16, literal(-17)))
        CFI V6 load(1, XDATA, add(CFA_XSP16, literal(-16)))
        CFI V7 load(1, XDATA, add(CFA_XSP16, literal(-15)))
        CFI V8 load(1, XDATA, add(CFA_XSP16, literal(-14)))
        CFI V9 load(1, XDATA, add(CFA_XSP16, literal(-13)))
        CFI V10 load(1, XDATA, add(CFA_XSP16, literal(-12)))
        CFI V11 load(1, XDATA, add(CFA_XSP16, literal(-11)))
        CFI V12 load(1, XDATA, add(CFA_XSP16, literal(-10)))
        CFI V13 load(1, XDATA, add(CFA_XSP16, literal(-9)))
        CFI V14 load(1, XDATA, add(CFA_XSP16, literal(-8)))
        CFI V15 load(1, XDATA, add(CFA_XSP16, literal(-7)))
        CFI R7 load(1, XDATA, add(CFA_XSP16, literal(-6)))
        CFI ?RET_LOW load(1, XDATA, add(CFA_XSP16, literal(-5)))
        CFI ?RET_HIGH load(1, XDATA, add(CFA_XSP16, literal(-4)))
        CFI ?BRET_EXT load(1, XDATA, add(CFA_XSP16, literal(-3)))
        CFI DPL0 load(1, XDATA, add(CFA_XSP16, literal(-2)))
        CFI DPH0 load(1, XDATA, add(CFA_XSP16, literal(-1)))
        CFI CFA_SP SP+0
        CFI CFA_XSP16 add(XSP16, 37)
        CFI Block cfiCond102 Using cfiCommon0
        CFI (cfiCond102) NoFunction
        CFI (cfiCond102) Conditional ??CrossCallReturnLabel_77
        CFI (cfiCond102) R6 load(1, XDATA, add(CFA_XSP16, literal(-16)))
        CFI (cfiCond102) VB load(1, XDATA, add(CFA_XSP16, literal(-15)))
        CFI (cfiCond102) V0 load(1, XDATA, add(CFA_XSP16, literal(-14)))
        CFI (cfiCond102) V1 load(1, XDATA, add(CFA_XSP16, literal(-13)))
        CFI (cfiCond102) V2 load(1, XDATA, add(CFA_XSP16, literal(-12)))
        CFI (cfiCond102) V3 load(1, XDATA, add(CFA_XSP16, literal(-11)))
        CFI (cfiCond102) V4 load(1, XDATA, add(CFA_XSP16, literal(-10)))
        CFI (cfiCond102) V5 load(1, XDATA, add(CFA_XSP16, literal(-9)))
        CFI (cfiCond102) V6 load(1, XDATA, add(CFA_XSP16, literal(-8)))
        CFI (cfiCond102) V7 load(1, XDATA, add(CFA_XSP16, literal(-7)))
        CFI (cfiCond102) R7 load(1, XDATA, add(CFA_XSP16, literal(-6)))
        CFI (cfiCond102) ?RET_LOW load(1, XDATA, add(CFA_XSP16, literal(-5)))
        CFI (cfiCond102) ?RET_HIGH load(1, XDATA, add(CFA_XSP16, literal(-4)))
        CFI (cfiCond102) ?BRET_EXT load(1, XDATA, add(CFA_XSP16, literal(-3)))
        CFI (cfiCond102) DPL0 load(1, XDATA, add(CFA_XSP16, literal(-2)))
        CFI (cfiCond102) DPH0 load(1, XDATA, add(CFA_XSP16, literal(-1)))
        CFI (cfiCond102) CFA_SP SP+0
        CFI (cfiCond102) CFA_XSP16 add(XSP16, 18)
        CFI Block cfiCond103 Using cfiCommon0
        CFI (cfiCond103) NoFunction
        CFI (cfiCond103) Conditional ??CrossCallReturnLabel_78
        CFI (cfiCond103) R6 load(1, XDATA, add(CFA_XSP16, literal(-16)))
        CFI (cfiCond103) VB load(1, XDATA, add(CFA_XSP16, literal(-15)))
        CFI (cfiCond103) V0 load(1, XDATA, add(CFA_XSP16, literal(-14)))
        CFI (cfiCond103) V1 load(1, XDATA, add(CFA_XSP16, literal(-13)))
        CFI (cfiCond103) V2 load(1, XDATA, add(CFA_XSP16, literal(-12)))
        CFI (cfiCond103) V3 load(1, XDATA, add(CFA_XSP16, literal(-11)))
        CFI (cfiCond103) V4 load(1, XDATA, add(CFA_XSP16, literal(-10)))
        CFI (cfiCond103) V5 load(1, XDATA, add(CFA_XSP16, literal(-9)))
        CFI (cfiCond103) V6 load(1, XDATA, add(CFA_XSP16, literal(-8)))
        CFI (cfiCond103) V7 load(1, XDATA, add(CFA_XSP16, literal(-7)))
        CFI (cfiCond103) R7 load(1, XDATA, add(CFA_XSP16, literal(-6)))
        CFI (cfiCond103) ?RET_LOW load(1, XDATA, add(CFA_XSP16, literal(-5)))
        CFI (cfiCond103) ?RET_HIGH load(1, XDATA, add(CFA_XSP16, literal(-4)))
        CFI (cfiCond103) ?BRET_EXT load(1, XDATA, add(CFA_XSP16, literal(-3)))
        CFI (cfiCond103) DPL0 load(1, XDATA, add(CFA_XSP16, literal(-2)))
        CFI (cfiCond103) DPH0 load(1, XDATA, add(CFA_XSP16, literal(-1)))
        CFI (cfiCond103) CFA_SP SP+0
        CFI (cfiCond103) CFA_XSP16 add(XSP16, 18)
        CFI Block cfiCond104 Using cfiCommon0
        CFI (cfiCond104) NoFunction
        CFI (cfiCond104) Conditional ??CrossCallReturnLabel_79
        CFI (cfiCond104) R6 load(1, XDATA, add(CFA_XSP16, literal(-16)))
        CFI (cfiCond104) VB load(1, XDATA, add(CFA_XSP16, literal(-15)))
        CFI (cfiCond104) V0 load(1, XDATA, add(CFA_XSP16, literal(-14)))
        CFI (cfiCond104) V1 load(1, XDATA, add(CFA_XSP16, literal(-13)))
        CFI (cfiCond104) V2 load(1, XDATA, add(CFA_XSP16, literal(-12)))
        CFI (cfiCond104) V3 load(1, XDATA, add(CFA_XSP16, literal(-11)))
        CFI (cfiCond104) V4 load(1, XDATA, add(CFA_XSP16, literal(-10)))
        CFI (cfiCond104) V5 load(1, XDATA, add(CFA_XSP16, literal(-9)))
        CFI (cfiCond104) V6 load(1, XDATA, add(CFA_XSP16, literal(-8)))
        CFI (cfiCond104) V7 load(1, XDATA, add(CFA_XSP16, literal(-7)))
        CFI (cfiCond104) R7 load(1, XDATA, add(CFA_XSP16, literal(-6)))
        CFI (cfiCond104) ?RET_LOW load(1, XDATA, add(CFA_XSP16, literal(-5)))
        CFI (cfiCond104) ?RET_HIGH load(1, XDATA, add(CFA_XSP16, literal(-4)))
        CFI (cfiCond104) ?BRET_EXT load(1, XDATA, add(CFA_XSP16, literal(-3)))
        CFI (cfiCond104) DPL0 load(1, XDATA, add(CFA_XSP16, literal(-2)))
        CFI (cfiCond104) DPH0 load(1, XDATA, add(CFA_XSP16, literal(-1)))
        CFI (cfiCond104) CFA_SP SP+0
        CFI (cfiCond104) CFA_XSP16 add(XSP16, 18)
        CFI Block cfiPicker105 Using cfiCommon1
        CFI (cfiPicker105) NoFunction
        CFI (cfiPicker105) Picker
        MOVX    A,@DPTR
        MOV     R1,A
        LCALL   ??afFindEndPointDesc?relay
        MOV     ?V0 + 0,R2
        MOV     ?V0 + 1,R3
        MOV     R4,?V0 + 0
        MOV     R5,?V0 + 1
        ; Setup parameters for call to function AF_DataRequest
        ; Setup parameters for call to function AF_DataRequest
        ; Setup parameters for call to function AF_DataRequest
        ; Setup parameters for call to function AF_DataRequest
        MOV     ?V0 + 0,#0x1e
        MOV     R0,#?V0 + 0
        RET
        CFI EndBlock cfiCond101
        CFI EndBlock cfiCond102
        CFI EndBlock cfiCond103
        CFI EndBlock cfiCond104
        CFI EndBlock cfiPicker105
// 1259 
// 1260 /**********************************************************************************
// 1261  * @fn      zlProcessSDR
// 1262  *
// 1263  * @brief   Process the Send Data Reply as Client
// 1264  *
// 1265  * @param   input
// 1266  *            sdr  pointer to received Send Data Reply
// 1267  *
// 1268  * @return  none
// 1269  */
// 1270 static void zlProcessSDR(zlsdR_t *sdr)
// 1271 {
// 1272   uint16 tmp;
// 1273   osal_memcpy(&tmp, &sdr->zlsdR_pktNum, sizeof(uint16));
// 1274 
// 1275   // is this the right packet?
// 1276   if (s_NextPacket > tmp)
// 1277   {
// 1278     return;  // we've already seen this one. ignore it
// 1279   }
// 1280   else if (s_NextPacket < tmp)  {
// 1281     // uh oh. we've missed one. kill session...
// 1282     osal_set_event(oad_app_taskId, ZLOAD_XFER_DONE_EVT);
// 1283     return;
// 1284   }
// 1285   else if (sdr->zlsdR_errorCode)  {
// 1286     // there are no data here. just ignaore the packet. if things
// 1287     // are relly screwed up the timer will expire and we'll quit.
// 1288     return;
// 1289   }
// 1290 
// 1291   // Store the data in Xtra-NV.
// 1292   HalOADWrite((uint32)s_NextPacket * s_blkSize, sdr->zlsdR_data, s_blkSize, HAL_OAD_DL);
// 1293   s_NextPacket++;  // OK to increment next packet number now.
// 1294   zlRequestNextDataPacket();  // ask for next packet
// 1295 }
// 1296 
// 1297 /**********************************************************************************
// 1298  * @fn      zlRequestNextDataPacket
// 1299  *
// 1300  * @brief   Set up the next data packet request. Takes care of knowing when
// 1301  *          transfer is done. Takes care of retry timer.
// 1302  *
// 1303  * @param   none
// 1304  *
// 1305  * @return  none
// 1306  */

        RSEG BANKED_CODE:CODE:NOROOT(0)
// 1307 static void zlRequestNextDataPacket()
zlRequestNextDataPacket:
        CFI Block cfiBlock106 Using cfiCommon0
        CFI Function zlRequestNextDataPacket
        CODE
// 1308 {
        FUNCALL zlRequestNextDataPacket, osal_set_event
        LOCFRAME ISTACK, 0, STACK
        LOCFRAME PSTACK, 0, STACK
        LOCFRAME XSTACK, 10, STACK
        LOCFRAME IOVERLAY, 0, STATIC
        LOCFRAME DOVERLAY, 0, STATIC
        ARGFRAME ISTACK, 0, STACK
        ARGFRAME PSTACK, 0, STACK
        ARGFRAME XSTACK, 10, STACK
        ARGFRAME IOVERLAY, 0, STATIC
        ARGFRAME DOVERLAY, 0, STATIC
        FUNCALL zlRequestNextDataPacket, osal_stop_timerEx
        LOCFRAME ISTACK, 0, STACK
        LOCFRAME PSTACK, 0, STACK
        LOCFRAME XSTACK, 10, STACK
        LOCFRAME IOVERLAY, 0, STATIC
        LOCFRAME DOVERLAY, 0, STATIC
        ARGFRAME ISTACK, 0, STACK
        ARGFRAME PSTACK, 0, STACK
        ARGFRAME XSTACK, 10, STACK
        ARGFRAME IOVERLAY, 0, STATIC
        ARGFRAME DOVERLAY, 0, STATIC
        FUNCALL zlRequestNextDataPacket, zlBuildInternalInboundSerialMSG
        LOCFRAME ISTACK, 0, STACK
        LOCFRAME PSTACK, 0, STACK
        LOCFRAME XSTACK, 10, STACK
        LOCFRAME IOVERLAY, 0, STATIC
        LOCFRAME DOVERLAY, 0, STATIC
        ARGFRAME ISTACK, 0, STACK
        ARGFRAME PSTACK, 0, STACK
        ARGFRAME XSTACK, 10, STACK
        ARGFRAME IOVERLAY, 0, STATIC
        ARGFRAME DOVERLAY, 0, STATIC
        FUNCALL zlRequestNextDataPacket, zlSendSerial
        LOCFRAME ISTACK, 0, STACK
        LOCFRAME PSTACK, 0, STACK
        LOCFRAME XSTACK, 10, STACK
        LOCFRAME IOVERLAY, 0, STATIC
        LOCFRAME DOVERLAY, 0, STATIC
        ARGFRAME ISTACK, 0, STACK
        ARGFRAME PSTACK, 0, STACK
        ARGFRAME XSTACK, 10, STACK
        ARGFRAME IOVERLAY, 0, STATIC
        ARGFRAME DOVERLAY, 0, STATIC
        FUNCALL zlRequestNextDataPacket, osal_mem_free
        LOCFRAME ISTACK, 0, STACK
        LOCFRAME PSTACK, 0, STACK
        LOCFRAME XSTACK, 10, STACK
        LOCFRAME IOVERLAY, 0, STATIC
        LOCFRAME DOVERLAY, 0, STATIC
        ARGFRAME ISTACK, 0, STACK
        ARGFRAME PSTACK, 0, STACK
        ARGFRAME XSTACK, 10, STACK
        ARGFRAME IOVERLAY, 0, STATIC
        ARGFRAME DOVERLAY, 0, STATIC
        FUNCALL zlRequestNextDataPacket, osal_start_timerEx
        LOCFRAME ISTACK, 0, STACK
        LOCFRAME PSTACK, 0, STACK
        LOCFRAME XSTACK, 10, STACK
        LOCFRAME IOVERLAY, 0, STATIC
        LOCFRAME DOVERLAY, 0, STATIC
        ARGFRAME ISTACK, 0, STACK
        ARGFRAME PSTACK, 0, STACK
        ARGFRAME XSTACK, 10, STACK
        ARGFRAME IOVERLAY, 0, STATIC
        ARGFRAME DOVERLAY, 0, STATIC
        FUNCALL zlRequestNextDataPacket, osal_set_event
        LOCFRAME ISTACK, 0, STACK
        LOCFRAME PSTACK, 0, STACK
        LOCFRAME XSTACK, 10, STACK
        LOCFRAME IOVERLAY, 0, STATIC
        LOCFRAME DOVERLAY, 0, STATIC
        ARGFRAME ISTACK, 0, STACK
        ARGFRAME PSTACK, 0, STACK
        ARGFRAME XSTACK, 10, STACK
        ARGFRAME IOVERLAY, 0, STATIC
        ARGFRAME DOVERLAY, 0, STATIC
        MOV     A,#-0xa
        LCALL   ?BANKED_ENTER_XDATA
        CFI DPH0 load(1, XDATA, add(CFA_XSP16, literal(-1)))
        CFI DPL0 load(1, XDATA, add(CFA_XSP16, literal(-2)))
        CFI ?BRET_EXT load(1, XDATA, add(CFA_XSP16, literal(-3)))
        CFI ?RET_HIGH load(1, XDATA, add(CFA_XSP16, literal(-4)))
        CFI ?RET_LOW load(1, XDATA, add(CFA_XSP16, literal(-5)))
        CFI R7 load(1, XDATA, add(CFA_XSP16, literal(-6)))
        CFI V1 load(1, XDATA, add(CFA_XSP16, literal(-7)))
        CFI V0 load(1, XDATA, add(CFA_XSP16, literal(-8)))
        CFI VB load(1, XDATA, add(CFA_XSP16, literal(-9)))
        CFI R6 load(1, XDATA, add(CFA_XSP16, literal(-10)))
        CFI CFA_SP SP+0
        CFI CFA_XSP16 add(XSP16, 10)
        ; Saved register size: 10
        ; Auto size: 0
// 1309     if (s_NextPacket >= s_NumPktGet)  {
        MOV     DPTR,#s_NumPktGet
        LCALL   ?Subroutine12 & 0xFFFF
??CrossCallReturnLabel_19:
        JC      ??zlRequestNextDataPacket_0
// 1310         osal_set_event(oad_app_taskId, ZLOAD_XFER_DONE_EVT);
        ; Setup parameters for call to function osal_set_event
        LCALL   ?Subroutine13 & 0xFFFF
// 1311         // kill response timeout check
// 1312         osal_stop_timerEx(oad_app_taskId, ZLOAD_SDRTIMER_EVT);
??CrossCallReturnLabel_71:
        ; Setup parameters for call to function osal_stop_timerEx
        MOV     R2,#0x10
        MOV     R3,#0x0
        MOV     DPTR,#oad_app_taskId
        MOVX    A,@DPTR
        MOV     R1,A
        LCALL   ??osal_stop_timerEx?relay
// 1313         return;
        SJMP    ??zlRequestNextDataPacket_1
// 1314     }
// 1315 
// 1316 #if defined ZPORT
// 1317     s_sdcpayload->zlsdC_pktNum = s_NextPacket;
??zlRequestNextDataPacket_0:
        LCALL   ?Subroutine21 & 0xFFFF
??CrossCallReturnLabel_69:
        MOV     DPTR,#s_sdcpayload
        MOVX    A,@DPTR
        MOV     R2,A
        INC     DPTR
        MOVX    A,@DPTR
        MOV     DPH,A
        MOV     DPL,R2
        MOV     A,R0
        MOVX    @DPTR,A
        INC     DPTR
        MOV     A,R1
        MOVX    @DPTR,A
// 1318     s_sdcmd->zlhdr_seqnum      = ++s_lastSeqNum;
        LCALL   ?Subroutine5 & 0xFFFF
??CrossCallReturnLabel_8:
        PUSH    A
        CFI CFA_SP SP+-1
        LCALL   ?Subroutine14 & 0xFFFF
??CrossCallReturnLabel_56:
        POP     A
        CFI CFA_SP SP+0
        LCALL   ?Subroutine2 & 0xFFFF
// 1319 
// 1320     {
// 1321         zahdrin_t *zain = zlBuildInternalInboundSerialMSG((uint8 *)s_sdcmd, sizeof(zlmhdr_t) + sizeof(zlsdC_t));
??CrossCallReturnLabel_0:
        MOV     ?V0 + 0,R2
        MOV     ?V0 + 1,R3
        MOV     R6,?V0 + 0
        MOV     R7,?V0 + 1
// 1322 
// 1323         if (zain)  {
        MOV     A,R6
        ORL     A,R7
        JZ      ??CrossCallReturnLabel_32
// 1324             zlSendSerial((uint8 *)zain, SIZEOF_ZAIN_HDR + sizeof(zlmhdr_t) + sizeof(zlsdC_t));
        ; Setup parameters for call to function zlSendSerial
        MOV     R1,#0xc
        LCALL   ?Subroutine23 & 0xFFFF
// 1325             osal_mem_free(zain);
// 1326         }
// 1327     }
// 1328 #else
// 1329     osal_memcpy(&s_sdcpayload->zlsdC_pktNum, &s_NextPacket, sizeof(uint16));
// 1330     s_sdcmd->zlhdr_seqnum      = ++s_lastTxSeqNum;
// 1331 
// 1332     zlSendCommand(sizeof(zlmhdr_t) + sizeof(zlsdC_t), (uint8 *)s_sdcmd);
// 1333 #endif
// 1334 
// 1335     if (SUCCESS != osal_start_timerEx(oad_app_taskId, ZLOAD_SDRTIMER_EVT, SDR_WAIT_TO))
??CrossCallReturnLabel_32:
        ; Setup parameters for call to function osal_start_timerEx
        LCALL   ?Subroutine17 & 0xFFFF
??CrossCallReturnLabel_51:
        JZ      ??CrossCallReturnLabel_73
// 1336     {
// 1337       osal_set_event(oad_app_taskId, ZLOAD_SDRTIMER_EVT);
        ; Setup parameters for call to function osal_set_event
        MOV     R2,#0x10
        LCALL   ??Subroutine38_0 & 0xFFFF
// 1338     }
// 1339     s_SDCRetryCount = SDC_RETRY_COUNT;
??CrossCallReturnLabel_73:
        MOV     DPTR,#s_SDCRetryCount
        MOV     A,#0xa
        MOVX    @DPTR,A
        INC     DPTR
        CLR     A
        MOVX    @DPTR,A
// 1340 
// 1341     // set timeout timer
// 1342     // need osal timer resource and set event flag and need a method to process timeout event
// 1343     return;
??zlRequestNextDataPacket_1:
        LJMP    ?Subroutine0 & 0xFFFF
        CFI EndBlock cfiBlock106
// 1344 }

        RSEG BANKED_CODE:CODE:NOROOT(0)
?Subroutine23:
        CFI Block cfiCond107 Using cfiCommon0
        CFI NoFunction
        CFI Conditional ??CrossCallReturnLabel_31
        CFI R6 load(1, XDATA, add(CFA_XSP16, literal(-16)))
        CFI VB load(1, XDATA, add(CFA_XSP16, literal(-15)))
        CFI V0 load(1, XDATA, add(CFA_XSP16, literal(-14)))
        CFI V1 load(1, XDATA, add(CFA_XSP16, literal(-13)))
        CFI V2 load(1, XDATA, add(CFA_XSP16, literal(-12)))
        CFI V3 load(1, XDATA, add(CFA_XSP16, literal(-11)))
        CFI V4 load(1, XDATA, add(CFA_XSP16, literal(-10)))
        CFI V5 load(1, XDATA, add(CFA_XSP16, literal(-9)))
        CFI V6 load(1, XDATA, add(CFA_XSP16, literal(-8)))
        CFI V7 load(1, XDATA, add(CFA_XSP16, literal(-7)))
        CFI R7 load(1, XDATA, add(CFA_XSP16, literal(-6)))
        CFI ?RET_LOW load(1, XDATA, add(CFA_XSP16, literal(-5)))
        CFI ?RET_HIGH load(1, XDATA, add(CFA_XSP16, literal(-4)))
        CFI ?BRET_EXT load(1, XDATA, add(CFA_XSP16, literal(-3)))
        CFI DPL0 load(1, XDATA, add(CFA_XSP16, literal(-2)))
        CFI DPH0 load(1, XDATA, add(CFA_XSP16, literal(-1)))
        CFI CFA_SP SP+0
        CFI CFA_XSP16 add(XSP16, 18)
        CFI Block cfiCond108 Using cfiCommon0
        CFI (cfiCond108) NoFunction
        CFI (cfiCond108) Conditional ??CrossCallReturnLabel_32
        CFI (cfiCond108) R6 load(1, XDATA, add(CFA_XSP16, literal(-10)))
        CFI (cfiCond108) VB load(1, XDATA, add(CFA_XSP16, literal(-9)))
        CFI (cfiCond108) V0 load(1, XDATA, add(CFA_XSP16, literal(-8)))
        CFI (cfiCond108) V1 load(1, XDATA, add(CFA_XSP16, literal(-7)))
        CFI (cfiCond108) R7 load(1, XDATA, add(CFA_XSP16, literal(-6)))
        CFI (cfiCond108) ?RET_LOW load(1, XDATA, add(CFA_XSP16, literal(-5)))
        CFI (cfiCond108) ?RET_HIGH load(1, XDATA, add(CFA_XSP16, literal(-4)))
        CFI (cfiCond108) ?BRET_EXT load(1, XDATA, add(CFA_XSP16, literal(-3)))
        CFI (cfiCond108) DPL0 load(1, XDATA, add(CFA_XSP16, literal(-2)))
        CFI (cfiCond108) DPH0 load(1, XDATA, add(CFA_XSP16, literal(-1)))
        CFI (cfiCond108) CFA_SP SP+0
        CFI (cfiCond108) CFA_XSP16 add(XSP16, 10)
        CFI Block cfiPicker109 Using cfiCommon1
        CFI (cfiPicker109) NoFunction
        CFI (cfiPicker109) Picker
        LCALL   ??zlSendSerial?relay
        ; Setup parameters for call to function osal_mem_free
        ; Setup parameters for call to function osal_mem_free
        MOV     A,R6
        MOV     R2,A
        MOV     A,R7
        MOV     R3,A
        LCALL   ??osal_mem_free?relay
        RET
        CFI EndBlock cfiCond107
        CFI EndBlock cfiCond108
        CFI EndBlock cfiPicker109

        RSEG BANKED_CODE:CODE:NOROOT(0)
?Subroutine12:
        CFI Block cfiCond110 Using cfiCommon0
        CFI NoFunction
        CFI Conditional ??CrossCallReturnLabel_18
        CFI R6 load(1, XDATA, add(CFA_XSP16, literal(-16)))
        CFI VB load(1, XDATA, add(CFA_XSP16, literal(-15)))
        CFI V0 load(1, XDATA, add(CFA_XSP16, literal(-14)))
        CFI V1 load(1, XDATA, add(CFA_XSP16, literal(-13)))
        CFI V2 load(1, XDATA, add(CFA_XSP16, literal(-12)))
        CFI V3 load(1, XDATA, add(CFA_XSP16, literal(-11)))
        CFI V4 load(1, XDATA, add(CFA_XSP16, literal(-10)))
        CFI V5 load(1, XDATA, add(CFA_XSP16, literal(-9)))
        CFI V6 load(1, XDATA, add(CFA_XSP16, literal(-8)))
        CFI V7 load(1, XDATA, add(CFA_XSP16, literal(-7)))
        CFI R7 load(1, XDATA, add(CFA_XSP16, literal(-6)))
        CFI ?RET_LOW load(1, XDATA, add(CFA_XSP16, literal(-5)))
        CFI ?RET_HIGH load(1, XDATA, add(CFA_XSP16, literal(-4)))
        CFI ?BRET_EXT load(1, XDATA, add(CFA_XSP16, literal(-3)))
        CFI DPL0 load(1, XDATA, add(CFA_XSP16, literal(-2)))
        CFI DPH0 load(1, XDATA, add(CFA_XSP16, literal(-1)))
        CFI CFA_SP SP+0
        CFI CFA_XSP16 add(XSP16, 18)
        CFI Block cfiCond111 Using cfiCommon0
        CFI (cfiCond111) NoFunction
        CFI (cfiCond111) Conditional ??CrossCallReturnLabel_19
        CFI (cfiCond111) R6 load(1, XDATA, add(CFA_XSP16, literal(-10)))
        CFI (cfiCond111) VB load(1, XDATA, add(CFA_XSP16, literal(-9)))
        CFI (cfiCond111) V0 load(1, XDATA, add(CFA_XSP16, literal(-8)))
        CFI (cfiCond111) V1 load(1, XDATA, add(CFA_XSP16, literal(-7)))
        CFI (cfiCond111) R7 load(1, XDATA, add(CFA_XSP16, literal(-6)))
        CFI (cfiCond111) ?RET_LOW load(1, XDATA, add(CFA_XSP16, literal(-5)))
        CFI (cfiCond111) ?RET_HIGH load(1, XDATA, add(CFA_XSP16, literal(-4)))
        CFI (cfiCond111) ?BRET_EXT load(1, XDATA, add(CFA_XSP16, literal(-3)))
        CFI (cfiCond111) DPL0 load(1, XDATA, add(CFA_XSP16, literal(-2)))
        CFI (cfiCond111) DPH0 load(1, XDATA, add(CFA_XSP16, literal(-1)))
        CFI (cfiCond111) CFA_SP SP+0
        CFI (cfiCond111) CFA_XSP16 add(XSP16, 10)
        CFI Block cfiPicker112 Using cfiCommon1
        CFI (cfiPicker112) NoFunction
        CFI (cfiPicker112) Picker
        LCALL   ?Subroutine32 & 0xFFFF
??CrossCallReturnLabel_104:
        MOV     DPH,#(s_NextPacket >> 8) & 0xff
        MOV     DPL,#s_NextPacket & 0xff
        CLR     C
        MOVX    A,@DPTR
        SUBB    A,R0
        INC     DPTR
        MOVX    A,@DPTR
        SUBB    A,R1
        RET
        CFI EndBlock cfiCond110
        CFI EndBlock cfiCond111
        CFI EndBlock cfiPicker112

        RSEG BANKED_CODE:CODE:NOROOT(0)
?Subroutine5:
        CFI Block cfiCond113 Using cfiCommon0
        CFI NoFunction
        CFI Conditional ??CrossCallReturnLabel_7
        CFI R6 load(1, XDATA, add(CFA_XSP16, literal(-16)))
        CFI VB load(1, XDATA, add(CFA_XSP16, literal(-15)))
        CFI V0 load(1, XDATA, add(CFA_XSP16, literal(-14)))
        CFI V1 load(1, XDATA, add(CFA_XSP16, literal(-13)))
        CFI V2 load(1, XDATA, add(CFA_XSP16, literal(-12)))
        CFI V3 load(1, XDATA, add(CFA_XSP16, literal(-11)))
        CFI V4 load(1, XDATA, add(CFA_XSP16, literal(-10)))
        CFI V5 load(1, XDATA, add(CFA_XSP16, literal(-9)))
        CFI V6 load(1, XDATA, add(CFA_XSP16, literal(-8)))
        CFI V7 load(1, XDATA, add(CFA_XSP16, literal(-7)))
        CFI R7 load(1, XDATA, add(CFA_XSP16, literal(-6)))
        CFI ?RET_LOW load(1, XDATA, add(CFA_XSP16, literal(-5)))
        CFI ?RET_HIGH load(1, XDATA, add(CFA_XSP16, literal(-4)))
        CFI ?BRET_EXT load(1, XDATA, add(CFA_XSP16, literal(-3)))
        CFI DPL0 load(1, XDATA, add(CFA_XSP16, literal(-2)))
        CFI DPH0 load(1, XDATA, add(CFA_XSP16, literal(-1)))
        CFI CFA_SP SP+0
        CFI CFA_XSP16 add(XSP16, 16)
        CFI Block cfiCond114 Using cfiCommon0
        CFI (cfiCond114) NoFunction
        CFI (cfiCond114) Conditional ??CrossCallReturnLabel_8
        CFI (cfiCond114) R6 load(1, XDATA, add(CFA_XSP16, literal(-10)))
        CFI (cfiCond114) VB load(1, XDATA, add(CFA_XSP16, literal(-9)))
        CFI (cfiCond114) V0 load(1, XDATA, add(CFA_XSP16, literal(-8)))
        CFI (cfiCond114) V1 load(1, XDATA, add(CFA_XSP16, literal(-7)))
        CFI (cfiCond114) R7 load(1, XDATA, add(CFA_XSP16, literal(-6)))
        CFI (cfiCond114) ?RET_LOW load(1, XDATA, add(CFA_XSP16, literal(-5)))
        CFI (cfiCond114) ?RET_HIGH load(1, XDATA, add(CFA_XSP16, literal(-4)))
        CFI (cfiCond114) ?BRET_EXT load(1, XDATA, add(CFA_XSP16, literal(-3)))
        CFI (cfiCond114) DPL0 load(1, XDATA, add(CFA_XSP16, literal(-2)))
        CFI (cfiCond114) DPH0 load(1, XDATA, add(CFA_XSP16, literal(-1)))
        CFI (cfiCond114) CFA_SP SP+0
        CFI (cfiCond114) CFA_XSP16 add(XSP16, 10)
        CFI Block cfiPicker115 Using cfiCommon1
        CFI (cfiPicker115) NoFunction
        CFI (cfiPicker115) Picker
        MOV     DPTR,#s_lastSeqNum
        LCALL   ?Subroutine33 & 0xFFFF
??CrossCallReturnLabel_50:
        MOVX    @DPTR,A
        MOV     DPTR,#s_lastSeqNum
        MOVX    A,@DPTR
        RET
        CFI EndBlock cfiCond113
        CFI EndBlock cfiCond114
        CFI EndBlock cfiPicker115

        RSEG BANKED_CODE:CODE:NOROOT(0)
?Subroutine33:
        CFI Block cfiCond116 Using cfiCommon0
        CFI NoFunction
        CFI Conditional ??CrossCallReturnLabel_49
        CFI R6 load(1, XDATA, add(CFA_XSP16, literal(-16)))
        CFI VB load(1, XDATA, add(CFA_XSP16, literal(-15)))
        CFI V0 load(1, XDATA, add(CFA_XSP16, literal(-14)))
        CFI V1 load(1, XDATA, add(CFA_XSP16, literal(-13)))
        CFI V2 load(1, XDATA, add(CFA_XSP16, literal(-12)))
        CFI V3 load(1, XDATA, add(CFA_XSP16, literal(-11)))
        CFI V4 load(1, XDATA, add(CFA_XSP16, literal(-10)))
        CFI V5 load(1, XDATA, add(CFA_XSP16, literal(-9)))
        CFI V6 load(1, XDATA, add(CFA_XSP16, literal(-8)))
        CFI V7 load(1, XDATA, add(CFA_XSP16, literal(-7)))
        CFI R7 load(1, XDATA, add(CFA_XSP16, literal(-6)))
        CFI ?RET_LOW load(1, XDATA, add(CFA_XSP16, literal(-5)))
        CFI ?RET_HIGH load(1, XDATA, add(CFA_XSP16, literal(-4)))
        CFI ?BRET_EXT load(1, XDATA, add(CFA_XSP16, literal(-3)))
        CFI DPL0 load(1, XDATA, add(CFA_XSP16, literal(-2)))
        CFI DPH0 load(1, XDATA, add(CFA_XSP16, literal(-1)))
        CFI CFA_SP SP+0
        CFI CFA_XSP16 add(XSP16, 18)
        CFI Block cfiCond117 Using cfiCommon0
        CFI (cfiCond117) NoFunction
        CFI (cfiCond117) Conditional ??CrossCallReturnLabel_50, ??CrossCallReturnLabel_7
        CFI (cfiCond117) R6 load(1, XDATA, add(CFA_XSP16, literal(-16)))
        CFI (cfiCond117) VB load(1, XDATA, add(CFA_XSP16, literal(-15)))
        CFI (cfiCond117) V0 load(1, XDATA, add(CFA_XSP16, literal(-14)))
        CFI (cfiCond117) V1 load(1, XDATA, add(CFA_XSP16, literal(-13)))
        CFI (cfiCond117) V2 load(1, XDATA, add(CFA_XSP16, literal(-12)))
        CFI (cfiCond117) V3 load(1, XDATA, add(CFA_XSP16, literal(-11)))
        CFI (cfiCond117) V4 load(1, XDATA, add(CFA_XSP16, literal(-10)))
        CFI (cfiCond117) V5 load(1, XDATA, add(CFA_XSP16, literal(-9)))
        CFI (cfiCond117) V6 load(1, XDATA, add(CFA_XSP16, literal(-8)))
        CFI (cfiCond117) V7 load(1, XDATA, add(CFA_XSP16, literal(-7)))
        CFI (cfiCond117) R7 load(1, XDATA, add(CFA_XSP16, literal(-6)))
        CFI (cfiCond117) ?RET_LOW load(1, XDATA, add(CFA_XSP16, literal(-5)))
        CFI (cfiCond117) ?RET_HIGH load(1, XDATA, add(CFA_XSP16, literal(-4)))
        CFI (cfiCond117) ?BRET_EXT load(1, XDATA, add(CFA_XSP16, literal(-3)))
        CFI (cfiCond117) DPL0 load(1, XDATA, add(CFA_XSP16, literal(-2)))
        CFI (cfiCond117) DPH0 load(1, XDATA, add(CFA_XSP16, literal(-1)))
        CFI (cfiCond117) CFA_SP SP+0
        CFI (cfiCond117) CFA_XSP16 add(XSP16, 16)
        CFI Block cfiCond118 Using cfiCommon0
        CFI (cfiCond118) NoFunction
        CFI (cfiCond118) Conditional ??CrossCallReturnLabel_50, ??CrossCallReturnLabel_8
        CFI (cfiCond118) R6 load(1, XDATA, add(CFA_XSP16, literal(-10)))
        CFI (cfiCond118) VB load(1, XDATA, add(CFA_XSP16, literal(-9)))
        CFI (cfiCond118) V0 load(1, XDATA, add(CFA_XSP16, literal(-8)))
        CFI (cfiCond118) V1 load(1, XDATA, add(CFA_XSP16, literal(-7)))
        CFI (cfiCond118) R7 load(1, XDATA, add(CFA_XSP16, literal(-6)))
        CFI (cfiCond118) ?RET_LOW load(1, XDATA, add(CFA_XSP16, literal(-5)))
        CFI (cfiCond118) ?RET_HIGH load(1, XDATA, add(CFA_XSP16, literal(-4)))
        CFI (cfiCond118) ?BRET_EXT load(1, XDATA, add(CFA_XSP16, literal(-3)))
        CFI (cfiCond118) DPL0 load(1, XDATA, add(CFA_XSP16, literal(-2)))
        CFI (cfiCond118) DPH0 load(1, XDATA, add(CFA_XSP16, literal(-1)))
        CFI (cfiCond118) CFA_SP SP+0
        CFI (cfiCond118) CFA_XSP16 add(XSP16, 10)
        CFI Block cfiPicker119 Using cfiCommon1
        CFI (cfiPicker119) NoFunction
        CFI (cfiPicker119) Picker
        MOVX    A,@DPTR
        ADD     A,#0x1
        MOVX    @DPTR,A
        INC     DPTR
        MOVX    A,@DPTR
        ADDC    A,#0x0
        RET
        CFI EndBlock cfiCond116
        CFI EndBlock cfiCond117
        CFI EndBlock cfiCond118
        CFI EndBlock cfiPicker119

        RSEG BANKED_CODE:CODE:NOROOT(0)
?Subroutine2:
        CFI Block cfiCond120 Using cfiCommon0
        CFI NoFunction
        CFI Conditional ??CrossCallReturnLabel_1
        CFI R6 load(1, XDATA, add(CFA_XSP16, literal(-16)))
        CFI VB load(1, XDATA, add(CFA_XSP16, literal(-15)))
        CFI V0 load(1, XDATA, add(CFA_XSP16, literal(-14)))
        CFI V1 load(1, XDATA, add(CFA_XSP16, literal(-13)))
        CFI V2 load(1, XDATA, add(CFA_XSP16, literal(-12)))
        CFI V3 load(1, XDATA, add(CFA_XSP16, literal(-11)))
        CFI V4 load(1, XDATA, add(CFA_XSP16, literal(-10)))
        CFI V5 load(1, XDATA, add(CFA_XSP16, literal(-9)))
        CFI V6 load(1, XDATA, add(CFA_XSP16, literal(-8)))
        CFI V7 load(1, XDATA, add(CFA_XSP16, literal(-7)))
        CFI R7 load(1, XDATA, add(CFA_XSP16, literal(-6)))
        CFI ?RET_LOW load(1, XDATA, add(CFA_XSP16, literal(-5)))
        CFI ?RET_HIGH load(1, XDATA, add(CFA_XSP16, literal(-4)))
        CFI ?BRET_EXT load(1, XDATA, add(CFA_XSP16, literal(-3)))
        CFI DPL0 load(1, XDATA, add(CFA_XSP16, literal(-2)))
        CFI DPH0 load(1, XDATA, add(CFA_XSP16, literal(-1)))
        CFI CFA_SP SP+0
        CFI CFA_XSP16 add(XSP16, 16)
        CFI Block cfiCond121 Using cfiCommon0
        CFI (cfiCond121) NoFunction
        CFI (cfiCond121) Conditional ??CrossCallReturnLabel_0
        CFI (cfiCond121) R6 load(1, XDATA, add(CFA_XSP16, literal(-10)))
        CFI (cfiCond121) VB load(1, XDATA, add(CFA_XSP16, literal(-9)))
        CFI (cfiCond121) V0 load(1, XDATA, add(CFA_XSP16, literal(-8)))
        CFI (cfiCond121) V1 load(1, XDATA, add(CFA_XSP16, literal(-7)))
        CFI (cfiCond121) R7 load(1, XDATA, add(CFA_XSP16, literal(-6)))
        CFI (cfiCond121) ?RET_LOW load(1, XDATA, add(CFA_XSP16, literal(-5)))
        CFI (cfiCond121) ?RET_HIGH load(1, XDATA, add(CFA_XSP16, literal(-4)))
        CFI (cfiCond121) ?BRET_EXT load(1, XDATA, add(CFA_XSP16, literal(-3)))
        CFI (cfiCond121) DPL0 load(1, XDATA, add(CFA_XSP16, literal(-2)))
        CFI (cfiCond121) DPH0 load(1, XDATA, add(CFA_XSP16, literal(-1)))
        CFI (cfiCond121) CFA_SP SP+0
        CFI (cfiCond121) CFA_XSP16 add(XSP16, 10)
        CFI Block cfiPicker122 Using cfiCommon1
        CFI (cfiPicker122) NoFunction
        CFI (cfiPicker122) Picker
        MOVX    @DPTR,A
        ; Setup parameters for call to function zlBuildInternalInboundSerialMSG
        ; Setup parameters for call to function zlBuildInternalInboundSerialMSG
        MOV     R1,#0x6
        MOV     DPTR,#s_sdcmd
        MOVX    A,@DPTR
        MOV     R2,A
        INC     DPTR
        MOVX    A,@DPTR
        MOV     R3,A
        LCALL   ??zlBuildInternalInboundSerialMSG?relay
        RET
        CFI EndBlock cfiCond120
        CFI EndBlock cfiCond121
        CFI EndBlock cfiPicker122
// 1345 
// 1346 /**********************************************************************************
// 1347  * @fn      zlCleanupOnReset
// 1348  *
// 1349  * @brief   ZLOAD reset occurred. Free resources and reset state machine and other
// 1350  *          supporting constructs
// 1351  *
// 1352  * @param   none
// 1353  *
// 1354  * @return  none
// 1355  */
// 1356 static void zlCleanupOnReset()
// 1357 {
// 1358 #if !defined ZPORT
// 1359   if (ZLSTATE_CLIENT == s_State)  {
// 1360     DO_EVENT_CALLBACK(ZLCB_EVENT_OADEND_CLIENT);
// 1361   }
// 1362   else if (ZLSTATE_SERVER == s_State)  {
// 1363     DO_EVENT_CALLBACK(ZLCB_EVENT_OADEND_SERVER);
// 1364   }
// 1365 #endif
// 1366 
// 1367   zlResetState();
// 1368 }
// 1369 
// 1370 /**************************************************************************************
// 1371  * @fn      zlCleanupOnXferDone
// 1372  *
// 1373  * @brief   Data transfer session complete (not necessarily correctly). Free resources
// 1374  *          and reset state machine and other supporting constructs. Send Terminate
// 1375  *          Session command to Server.
// 1376  *
// 1377  * @param   none
// 1378  *
// 1379  * @return  none
// 1380  */
// 1381 static void  zlCleanupOnXferDone()
// 1382 {
// 1383 #if defined ZPORT
// 1384     if (ZLSTATE_PASS_THROUGH == s_State)  {
// 1385       s_State = ZLSTATE_IDLE;
// 1386       return;
// 1387     }
// 1388 #endif
// 1389 
// 1390   // check for flashing last block and send Session Terminate command
// 1391   if (ZLSTATE_CLIENT == s_State)  {
// 1392     zlmhdr_t *hdr = osal_mem_alloc(sizeof(zlmhdr_t) + sizeof(zlendsessC_t));
// 1393 
// 1394     if (hdr)  {
// 1395       zlendsessC_t *cmd = (zlendsessC_t *)((uint8 *)hdr + sizeof(zlmhdr_t));
// 1396 
// 1397       hdr->zlhdr_msgid  = ZLMSGID_SESSION_TERM;
// 1398       hdr->zlhdr_msglen = sizeof(zlendsessC_t);
// 1399 
// 1400       cmd->zlesC_sessionID = s_SessionID;
// 1401       hdr->zlhdr_seqnum    = ++s_lastTxSeqNum;
// 1402 
// 1403 #if defined ZPORT
// 1404             {
// 1405                 zahdrin_t *zain = zlBuildInternalInboundSerialMSG((uint8 *)hdr, sizeof(zlmhdr_t) + sizeof(zlendsessC_t));
// 1406 
// 1407                 if (zain)  {
// 1408                     zlSendSerial((uint8 *)zain, SIZEOF_ZAIN_HDR + sizeof(zlmhdr_t) + sizeof(zlendsessC_t));
// 1409                     osal_mem_free(zain);
// 1410                 }
// 1411             }
// 1412 #else
// 1413       zlSendCommand(sizeof(zlmhdr_t) + sizeof(zlendsessC_t), (uint8 *)hdr);
// 1414 #endif
// 1415 
// 1416       osal_mem_free(hdr);
// 1417     }
// 1418 
// 1419 #if !defined ZPORT
// 1420     DO_EVENT_CALLBACK(ZLCB_EVENT_OADEND_CLIENT);
// 1421 #endif
// 1422   }
// 1423 #if !defined ZPORT
// 1424   else if (ZLSTATE_SERVER == s_State) {
// 1425     DO_EVENT_CALLBACK(ZLCB_EVENT_OADEND_SERVER);
// 1426   }
// 1427 #endif
// 1428 
// 1429   zlResetState();
// 1430 }
// 1431 
// 1432 /**************************************************************************************
// 1433  * @fn      zlStartClientSession
// 1434  *
// 1435  * @brief   We have been commanded to be in the Client role. Set up to start the
// 1436  *          session with the Server by sending the Begin Session command
// 1437  *
// 1438  * @param   none
// 1439  *
// 1440  * @return  none
// 1441  */

        RSEG BANKED_CODE:CODE:NOROOT(0)
// 1442 static void zlStartClientSession()
zlStartClientSession:
        CFI Block cfiBlock123 Using cfiCommon0
        CFI Function zlStartClientSession
        CODE
// 1443 {
        FUNCALL zlStartClientSession, osal_mem_alloc
        LOCFRAME ISTACK, 0, STACK
        LOCFRAME PSTACK, 0, STACK
        LOCFRAME XSTACK, 23, STACK
        LOCFRAME IOVERLAY, 0, STATIC
        LOCFRAME DOVERLAY, 0, STATIC
        ARGFRAME ISTACK, 0, STACK
        ARGFRAME PSTACK, 0, STACK
        ARGFRAME XSTACK, 23, STACK
        ARGFRAME IOVERLAY, 0, STATIC
        ARGFRAME DOVERLAY, 0, STATIC
        FUNCALL zlStartClientSession, ZMacGetReq
        LOCFRAME ISTACK, 0, STACK
        LOCFRAME PSTACK, 0, STACK
        LOCFRAME XSTACK, 23, STACK
        LOCFRAME IOVERLAY, 0, STATIC
        LOCFRAME DOVERLAY, 0, STATIC
        ARGFRAME ISTACK, 0, STACK
        ARGFRAME PSTACK, 0, STACK
        ARGFRAME XSTACK, 23, STACK
        ARGFRAME IOVERLAY, 0, STATIC
        ARGFRAME DOVERLAY, 0, STATIC
        FUNCALL zlStartClientSession, osal_memcpy
        LOCFRAME ISTACK, 0, STACK
        LOCFRAME PSTACK, 0, STACK
        LOCFRAME XSTACK, 26, STACK
        LOCFRAME IOVERLAY, 0, STATIC
        LOCFRAME DOVERLAY, 0, STATIC
        ARGFRAME ISTACK, 0, STACK
        ARGFRAME PSTACK, 0, STACK
        ARGFRAME XSTACK, 26, STACK
        ARGFRAME IOVERLAY, 0, STATIC
        ARGFRAME DOVERLAY, 0, STATIC
        FUNCALL zlStartClientSession, osal_memcpy
        LOCFRAME ISTACK, 0, STACK
        LOCFRAME PSTACK, 0, STACK
        LOCFRAME XSTACK, 26, STACK
        LOCFRAME IOVERLAY, 0, STATIC
        LOCFRAME DOVERLAY, 0, STATIC
        ARGFRAME ISTACK, 0, STACK
        ARGFRAME PSTACK, 0, STACK
        ARGFRAME XSTACK, 26, STACK
        ARGFRAME IOVERLAY, 0, STATIC
        ARGFRAME DOVERLAY, 0, STATIC
        FUNCALL zlStartClientSession, osal_memcpy
        LOCFRAME ISTACK, 0, STACK
        LOCFRAME PSTACK, 0, STACK
        LOCFRAME XSTACK, 26, STACK
        LOCFRAME IOVERLAY, 0, STATIC
        LOCFRAME DOVERLAY, 0, STATIC
        ARGFRAME ISTACK, 0, STACK
        ARGFRAME PSTACK, 0, STACK
        ARGFRAME XSTACK, 26, STACK
        ARGFRAME IOVERLAY, 0, STATIC
        ARGFRAME DOVERLAY, 0, STATIC
        FUNCALL zlStartClientSession, zlBuildInternalInboundSerialMSG
        LOCFRAME ISTACK, 0, STACK
        LOCFRAME PSTACK, 0, STACK
        LOCFRAME XSTACK, 23, STACK
        LOCFRAME IOVERLAY, 0, STATIC
        LOCFRAME DOVERLAY, 0, STATIC
        ARGFRAME ISTACK, 0, STACK
        ARGFRAME PSTACK, 0, STACK
        ARGFRAME XSTACK, 23, STACK
        ARGFRAME IOVERLAY, 0, STATIC
        ARGFRAME DOVERLAY, 0, STATIC
        FUNCALL zlStartClientSession, zlSendSerial
        LOCFRAME ISTACK, 0, STACK
        LOCFRAME PSTACK, 0, STACK
        LOCFRAME XSTACK, 23, STACK
        LOCFRAME IOVERLAY, 0, STATIC
        LOCFRAME DOVERLAY, 0, STATIC
        ARGFRAME ISTACK, 0, STACK
        ARGFRAME PSTACK, 0, STACK
        ARGFRAME XSTACK, 23, STACK
        ARGFRAME IOVERLAY, 0, STATIC
        ARGFRAME DOVERLAY, 0, STATIC
        FUNCALL zlStartClientSession, osal_mem_free
        LOCFRAME ISTACK, 0, STACK
        LOCFRAME PSTACK, 0, STACK
        LOCFRAME XSTACK, 23, STACK
        LOCFRAME IOVERLAY, 0, STATIC
        LOCFRAME DOVERLAY, 0, STATIC
        ARGFRAME ISTACK, 0, STACK
        ARGFRAME PSTACK, 0, STACK
        ARGFRAME XSTACK, 23, STACK
        ARGFRAME IOVERLAY, 0, STATIC
        ARGFRAME DOVERLAY, 0, STATIC
        FUNCALL zlStartClientSession, osal_mem_free
        LOCFRAME ISTACK, 0, STACK
        LOCFRAME PSTACK, 0, STACK
        LOCFRAME XSTACK, 23, STACK
        LOCFRAME IOVERLAY, 0, STATIC
        LOCFRAME DOVERLAY, 0, STATIC
        ARGFRAME ISTACK, 0, STACK
        ARGFRAME PSTACK, 0, STACK
        ARGFRAME XSTACK, 23, STACK
        ARGFRAME IOVERLAY, 0, STATIC
        ARGFRAME DOVERLAY, 0, STATIC
        FUNCALL zlStartClientSession, osal_set_event
        LOCFRAME ISTACK, 0, STACK
        LOCFRAME PSTACK, 0, STACK
        LOCFRAME XSTACK, 23, STACK
        LOCFRAME IOVERLAY, 0, STATIC
        LOCFRAME DOVERLAY, 0, STATIC
        ARGFRAME ISTACK, 0, STACK
        ARGFRAME PSTACK, 0, STACK
        ARGFRAME XSTACK, 23, STACK
        ARGFRAME IOVERLAY, 0, STATIC
        ARGFRAME DOVERLAY, 0, STATIC
        MOV     A,#-0xf
        LCALL   ?BANKED_ENTER_XDATA
        CFI DPH0 load(1, XDATA, add(CFA_XSP16, literal(-1)))
        CFI DPL0 load(1, XDATA, add(CFA_XSP16, literal(-2)))
        CFI ?BRET_EXT load(1, XDATA, add(CFA_XSP16, literal(-3)))
        CFI ?RET_HIGH load(1, XDATA, add(CFA_XSP16, literal(-4)))
        CFI ?RET_LOW load(1, XDATA, add(CFA_XSP16, literal(-5)))
        CFI R7 load(1, XDATA, add(CFA_XSP16, literal(-6)))
        CFI V6 load(1, XDATA, add(CFA_XSP16, literal(-7)))
        CFI V5 load(1, XDATA, add(CFA_XSP16, literal(-8)))
        CFI V4 load(1, XDATA, add(CFA_XSP16, literal(-9)))
        CFI V3 load(1, XDATA, add(CFA_XSP16, literal(-10)))
        CFI V2 load(1, XDATA, add(CFA_XSP16, literal(-11)))
        CFI V1 load(1, XDATA, add(CFA_XSP16, literal(-12)))
        CFI V0 load(1, XDATA, add(CFA_XSP16, literal(-13)))
        CFI VB load(1, XDATA, add(CFA_XSP16, literal(-14)))
        CFI R6 load(1, XDATA, add(CFA_XSP16, literal(-15)))
        CFI CFA_SP SP+0
        CFI CFA_XSP16 add(XSP16, 15)
        ; Saved register size: 15
        ; Auto size: 8
        MOV     A,#-0x8
        LCALL   ?ALLOC_XSTACK8
        CFI CFA_XSP16 add(XSP16, 23)
// 1444     uint8 *buf;
// 1445 
// 1446     // we already have Server info. Contact Server to set up session
// 1447     if (buf=osal_mem_alloc(sizeof(zlmhdr_t) + sizeof(zlbegsessC_t)))  {
        ; Setup parameters for call to function osal_mem_alloc
        MOV     R2,#0xa
        MOV     R3,#0x0
        LCALL   ??osal_mem_alloc?relay
        MOV     ?V0 + 0,R2
        MOV     ?V0 + 1,R3
        MOV     R6,?V0 + 0
        MOV     R7,?V0 + 1
        MOV     A,R6
        ORL     A,R7
        JNZ     $+5
        LJMP    ??zlStartClientSession_0 & 0xFFFF
// 1448         zlmhdr_t     *hdr = (zlmhdr_t *)buf;
// 1449         zlbegsessC_t *cmd = (zlbegsessC_t *)((uint8 *)buf+sizeof(zlmhdr_t));
        MOV     A,R6
        ADD     A,#0x3
        MOV     ?V0 + 0,A
        MOV     A,R7
        ADDC    A,#0x0
        MOV     ?V0 + 1,A
// 1450 
// 1451         // initialize session id as lsb of IEEE address
// 1452         if (!s_SessionID)  {
        MOV     DPTR,#s_SessionID
        MOVX    A,@DPTR
        JNZ     ??zlStartClientSession_1
// 1453             uint8 addr[Z_EXTADDR_LEN];
// 1454 
// 1455             ZMacGetReq(ZMacExtAddr, addr);
        ; Setup parameters for call to function ZMacGetReq
        MOV     DPL,?XSP + 0
        MOV     DPH,?XSP + 1
        MOV     R2,DPL
        MOV     R3,DPH
        MOV     R1,#-0x1e
        LCALL   ??ZMacGetReq?relay
// 1456             s_SessionID = addr[0];
        MOV     DPL,?XSP + 0
        MOV     DPH,?XSP + 1
        MOVX    A,@DPTR
        MOV     DPTR,#s_SessionID
        MOVX    @DPTR,A
// 1457         }
// 1458 
// 1459         s_State = ZLSTATE_CLIENT;
??zlStartClientSession_1:
        MOV     DPTR,#s_State
        MOV     A,#0x2
        MOVX    @DPTR,A
// 1460         s_SessionID++;
        MOV     DPTR,#s_SessionID
        MOVX    A,@DPTR
        INC     A
        LCALL   ?Subroutine30 & 0xFFFF
// 1461 
// 1462         hdr->zlhdr_msgid     = ZLMSGID_SESSION_START;
??CrossCallReturnLabel_46:
        MOV     A,#0x2
        MOVX    @DPTR,A
// 1463         hdr->zlhdr_seqnum    = ++s_lastTxSeqNum;
        MOV     DPTR,#s_lastTxSeqNum
        MOVX    A,@DPTR
        INC     A
        LCALL   ?Subroutine7 & 0xFFFF
??CrossCallReturnLabel_13:
        LCALL   ?Subroutine7 & 0xFFFF
// 1464         hdr->zlhdr_msglen    = sizeof(zlbegsessC_t);
??CrossCallReturnLabel_12:
        INC     DPTR
        MOV     A,#0x7
        MOVX    @DPTR,A
// 1465         osal_memcpy(&cmd->zlbsC_ver, &s_clientInfo->zlclC_ver, sizeof(uint16));
        ; Setup parameters for call to function osal_memcpy
        MOV     DPTR,#s_clientInfo
        MOVX    A,@DPTR
        MOV     ?V0 + 4,A
        INC     DPTR
        MOVX    A,@DPTR
        MOV     ?V0 + 5,A
        MOV     ?V0 + 6,#0x0
        MOV     R0,#?V0 + 4
        LCALL   ?PUSH_XSTACK_I_THREE
        CFI CFA_XSP16 add(XSP16, 26)
        MOV     R4,#0x2
        MOV     R5,#0x0
        MOV     R2,?V0 + 0
        MOV     R3,?V0 + 1
        LCALL   ??Subroutine44_0 & 0xFFFF
??CrossCallReturnLabel_98:
        LCALL   ?DEALLOC_XSTACK8
        CFI CFA_XSP16 add(XSP16, 23)
// 1466         osal_memcpy(&cmd->zlbsC_manu, &s_clientInfo->zlclC_manu, sizeof(uint16));
        ; Setup parameters for call to function osal_memcpy
        MOV     DPTR,#s_clientInfo
        MOVX    A,@DPTR
        ADD     A,#0x2
        MOV     ?V0 + 4,A
        INC     DPTR
        MOVX    A,@DPTR
        ADDC    A,#0x0
        MOV     ?V0 + 5,A
        MOV     R0,#?V0 + 4
        LCALL   ?PUSH_XSTACK_I_THREE
        CFI CFA_XSP16 add(XSP16, 26)
        MOV     R4,#0x2
        MOV     R5,#0x0
        MOV     A,?V0 + 0
        ADD     A,#0x2
        MOV     R2,A
        MOV     A,?V0 + 1
        LCALL   ??Subroutine43_0 & 0xFFFF
??CrossCallReturnLabel_91:
        LCALL   ?DEALLOC_XSTACK8
        CFI CFA_XSP16 add(XSP16, 23)
// 1467         osal_memcpy(&cmd->zlbsC_prod, &s_clientInfo->zlclC_prod, sizeof(uint16));
        ; Setup parameters for call to function osal_memcpy
        MOV     DPTR,#s_clientInfo
        MOVX    A,@DPTR
        ADD     A,#0x4
        MOV     ?V0 + 4,A
        INC     DPTR
        MOVX    A,@DPTR
        ADDC    A,#0x0
        MOV     ?V0 + 5,A
        MOV     R0,#?V0 + 4
        LCALL   ?PUSH_XSTACK_I_THREE
        CFI CFA_XSP16 add(XSP16, 26)
        MOV     R4,#0x2
        MOV     R5,#0x0
        MOV     A,?V0 + 0
        ADD     A,#0x4
        MOV     R2,A
        MOV     A,?V0 + 1
        LCALL   ??Subroutine43_0 & 0xFFFF
??CrossCallReturnLabel_92:
        LCALL   ?DEALLOC_XSTACK8
        CFI CFA_XSP16 add(XSP16, 23)
// 1468         cmd->zlbsC_sessionID = s_SessionID;
        MOV     DPTR,#s_SessionID
        MOVX    A,@DPTR
        MOV     DPL,?V0 + 0
        MOV     DPH,?V0 + 1
        INC     DPTR
        INC     DPTR
        INC     DPTR
        INC     DPTR
        INC     DPTR
        INC     DPTR
        LCALL   ?Subroutine9 & 0xFFFF
// 1469         s_NextPacket         = 0;
// 1470 
// 1471         // populate session ID element in the Send data payload
// 1472         s_sdcpayload->zlsdC_sessionID = s_SessionID;
??CrossCallReturnLabel_16:
        MOV     DPTR,#s_SessionID
        MOVX    A,@DPTR
        PUSH    A
        CFI CFA_SP SP+-1
        MOV     DPTR,#s_sdcpayload
        LCALL   ??Subroutine35_0 & 0xFFFF
??CrossCallReturnLabel_54:
        INC     DPTR
        POP     A
        CFI CFA_SP SP+0
        LCALL   ?Subroutine3 & 0xFFFF
// 1473 
// 1474         // set up SD command header
// 1475         s_sdcmd->zlhdr_msgid  = ZLMSGID_SEND_DATA;
??CrossCallReturnLabel_2:
        MOV     A,#0x6
        LCALL   ?Subroutine3 & 0xFFFF
// 1476         s_sdcmd->zlhdr_msglen = sizeof(zlsdC_t);
??CrossCallReturnLabel_3:
        INC     DPTR
        INC     DPTR
        MOV     A,#0x3
        MOVX    @DPTR,A
// 1477 
// 1478 #if defined ZPORT
// 1479         {
// 1480             zahdrin_t *zain = zlBuildInternalInboundSerialMSG((uint8 *)hdr, sizeof(zlmhdr_t) + sizeof(zlbegsessC_t));
        ; Setup parameters for call to function zlBuildInternalInboundSerialMSG
        MOV     R1,#0xa
        MOV     A,R6
        MOV     R2,A
        MOV     A,R7
        MOV     R3,A
        LCALL   ??zlBuildInternalInboundSerialMSG?relay
        MOV     ?V0 + 0,R2
        MOV     ?V0 + 1,R3
// 1481 
// 1482             if (zain)  {
        MOV     A,R2
        ORL     A,?V0 + 1
        JZ      ??CrossCallReturnLabel_81
// 1483                 zlSendSerial((uint8 *)zain, SIZEOF_ZAIN_HDR + sizeof(zlmhdr_t) + sizeof(zlbegsessC_t));
        ; Setup parameters for call to function zlSendSerial
        LCALL   ?Subroutine22 & 0xFFFF
// 1484                 osal_mem_free(zain);
// 1485             }
// 1486         }
// 1487 #else
// 1488         if (zlSendCommand(sizeof(zlmhdr_t) + sizeof(zlbegsessC_t), buf))
// 1489         {
// 1490         }
// 1491 #endif
// 1492 
// 1493         osal_mem_free(buf);
??CrossCallReturnLabel_81:
        ; Setup parameters for call to function osal_mem_free
        MOV     A,R6
        MOV     R2,A
        MOV     A,R7
        MOV     R3,A
        LCALL   ??osal_mem_free?relay
// 1494         DO_EVENT_CALLBACK(ZLCB_EVENT_OADBEGIN_CLIENT);
        LCALL   ?Subroutine11 & 0xFFFF
??CrossCallReturnLabel_65:
        JZ      ??CrossCallReturnLabel_74
        MOV     DPTR,#s_eventMask
        MOVX    A,@DPTR
        MOV     C,0xE0 /* A   */.0
        JNC     ??CrossCallReturnLabel_74
        ; Setup parameters for indirect call
        MOV     R2,#0x1
        MOV     R3,#0x0
        MOV     DPTR,#s_pCallback + 1
        MOVX    A,@DPTR
        MOV     DPH,A
        MOV     DPL,R0
        LCALL   ?CALL_IND
        SJMP    ??CrossCallReturnLabel_74
// 1495     }
// 1496 	else  {
// 1497 		// we couldn't send the Begin Session command. go back to Idle state.
// 1498         osal_set_event(oad_app_taskId, ZLOAD_RESET_EVT);
??zlStartClientSession_0:
        ; Setup parameters for call to function osal_set_event
        MOV     R2,#0x8
        LCALL   ??Subroutine38_0 & 0xFFFF
// 1499 	}
// 1500 
// 1501     return;
??CrossCallReturnLabel_74:
        MOV     A,#0x8
        LCALL   ?DEALLOC_XSTACK8
        CFI CFA_XSP16 add(XSP16, 15)
        MOV     R7,#0x7
        LJMP    ?BANKED_LEAVE_XDATA
        CFI EndBlock cfiBlock123
// 1502 }

        RSEG BANKED_CODE:CODE:NOROOT(0)
?Subroutine30:
        CFI Block cfiCond124 Using cfiCommon0
        CFI NoFunction
        CFI Conditional ??CrossCallReturnLabel_44
        CFI R6 load(1, XDATA, add(CFA_XSP16, literal(-10)))
        CFI VB load(1, XDATA, add(CFA_XSP16, literal(-9)))
        CFI V0 load(1, XDATA, add(CFA_XSP16, literal(-8)))
        CFI V1 load(1, XDATA, add(CFA_XSP16, literal(-7)))
        CFI R7 load(1, XDATA, add(CFA_XSP16, literal(-6)))
        CFI ?RET_LOW load(1, XDATA, add(CFA_XSP16, literal(-5)))
        CFI ?RET_HIGH load(1, XDATA, add(CFA_XSP16, literal(-4)))
        CFI ?BRET_EXT load(1, XDATA, add(CFA_XSP16, literal(-3)))
        CFI DPL0 load(1, XDATA, add(CFA_XSP16, literal(-2)))
        CFI DPH0 load(1, XDATA, add(CFA_XSP16, literal(-1)))
        CFI CFA_SP SP+0
        CFI CFA_XSP16 add(XSP16, 10)
        CFI Block cfiCond125 Using cfiCommon0
        CFI (cfiCond125) NoFunction
        CFI (cfiCond125) Conditional ??CrossCallReturnLabel_45, ??CrossCallReturnLabel_4
        CFI (cfiCond125) R6 load(1, XDATA, add(CFA_XSP16, literal(-24)))
        CFI (cfiCond125) VB load(1, XDATA, add(CFA_XSP16, literal(-23)))
        CFI (cfiCond125) V0 load(1, XDATA, add(CFA_XSP16, literal(-22)))
        CFI (cfiCond125) V1 load(1, XDATA, add(CFA_XSP16, literal(-21)))
        CFI (cfiCond125) V2 load(1, XDATA, add(CFA_XSP16, literal(-20)))
        CFI (cfiCond125) V3 load(1, XDATA, add(CFA_XSP16, literal(-19)))
        CFI (cfiCond125) V4 load(1, XDATA, add(CFA_XSP16, literal(-18)))
        CFI (cfiCond125) V5 load(1, XDATA, add(CFA_XSP16, literal(-17)))
        CFI (cfiCond125) V6 load(1, XDATA, add(CFA_XSP16, literal(-16)))
        CFI (cfiCond125) V7 load(1, XDATA, add(CFA_XSP16, literal(-15)))
        CFI (cfiCond125) V8 load(1, XDATA, add(CFA_XSP16, literal(-14)))
        CFI (cfiCond125) V9 load(1, XDATA, add(CFA_XSP16, literal(-13)))
        CFI (cfiCond125) V10 load(1, XDATA, add(CFA_XSP16, literal(-12)))
        CFI (cfiCond125) V11 load(1, XDATA, add(CFA_XSP16, literal(-11)))
        CFI (cfiCond125) V12 load(1, XDATA, add(CFA_XSP16, literal(-10)))
        CFI (cfiCond125) V13 load(1, XDATA, add(CFA_XSP16, literal(-9)))
        CFI (cfiCond125) V14 load(1, XDATA, add(CFA_XSP16, literal(-8)))
        CFI (cfiCond125) V15 load(1, XDATA, add(CFA_XSP16, literal(-7)))
        CFI (cfiCond125) R7 load(1, XDATA, add(CFA_XSP16, literal(-6)))
        CFI (cfiCond125) ?RET_LOW load(1, XDATA, add(CFA_XSP16, literal(-5)))
        CFI (cfiCond125) ?RET_HIGH load(1, XDATA, add(CFA_XSP16, literal(-4)))
        CFI (cfiCond125) ?BRET_EXT load(1, XDATA, add(CFA_XSP16, literal(-3)))
        CFI (cfiCond125) DPL0 load(1, XDATA, add(CFA_XSP16, literal(-2)))
        CFI (cfiCond125) DPH0 load(1, XDATA, add(CFA_XSP16, literal(-1)))
        CFI (cfiCond125) CFA_SP SP+0
        CFI (cfiCond125) CFA_XSP16 add(XSP16, 37)
        CFI Block cfiCond126 Using cfiCommon0
        CFI (cfiCond126) NoFunction
        CFI (cfiCond126) Conditional ??CrossCallReturnLabel_45, ??CrossCallReturnLabel_5
        CFI (cfiCond126) R6 load(1, XDATA, add(CFA_XSP16, literal(-24)))
        CFI (cfiCond126) VB load(1, XDATA, add(CFA_XSP16, literal(-23)))
        CFI (cfiCond126) V0 load(1, XDATA, add(CFA_XSP16, literal(-22)))
        CFI (cfiCond126) V1 load(1, XDATA, add(CFA_XSP16, literal(-21)))
        CFI (cfiCond126) V2 load(1, XDATA, add(CFA_XSP16, literal(-20)))
        CFI (cfiCond126) V3 load(1, XDATA, add(CFA_XSP16, literal(-19)))
        CFI (cfiCond126) V4 load(1, XDATA, add(CFA_XSP16, literal(-18)))
        CFI (cfiCond126) V5 load(1, XDATA, add(CFA_XSP16, literal(-17)))
        CFI (cfiCond126) V6 load(1, XDATA, add(CFA_XSP16, literal(-16)))
        CFI (cfiCond126) V7 load(1, XDATA, add(CFA_XSP16, literal(-15)))
        CFI (cfiCond126) V8 load(1, XDATA, add(CFA_XSP16, literal(-14)))
        CFI (cfiCond126) V9 load(1, XDATA, add(CFA_XSP16, literal(-13)))
        CFI (cfiCond126) V10 load(1, XDATA, add(CFA_XSP16, literal(-12)))
        CFI (cfiCond126) V11 load(1, XDATA, add(CFA_XSP16, literal(-11)))
        CFI (cfiCond126) V12 load(1, XDATA, add(CFA_XSP16, literal(-10)))
        CFI (cfiCond126) V13 load(1, XDATA, add(CFA_XSP16, literal(-9)))
        CFI (cfiCond126) V14 load(1, XDATA, add(CFA_XSP16, literal(-8)))
        CFI (cfiCond126) V15 load(1, XDATA, add(CFA_XSP16, literal(-7)))
        CFI (cfiCond126) R7 load(1, XDATA, add(CFA_XSP16, literal(-6)))
        CFI (cfiCond126) ?RET_LOW load(1, XDATA, add(CFA_XSP16, literal(-5)))
        CFI (cfiCond126) ?RET_HIGH load(1, XDATA, add(CFA_XSP16, literal(-4)))
        CFI (cfiCond126) ?BRET_EXT load(1, XDATA, add(CFA_XSP16, literal(-3)))
        CFI (cfiCond126) DPL0 load(1, XDATA, add(CFA_XSP16, literal(-2)))
        CFI (cfiCond126) DPH0 load(1, XDATA, add(CFA_XSP16, literal(-1)))
        CFI (cfiCond126) CFA_SP SP+0
        CFI (cfiCond126) CFA_XSP16 add(XSP16, 37)
        CFI Block cfiCond127 Using cfiCommon0
        CFI (cfiCond127) NoFunction
        CFI (cfiCond127) Conditional ??CrossCallReturnLabel_45, ??CrossCallReturnLabel_6
        CFI (cfiCond127) R6 load(1, XDATA, add(CFA_XSP16, literal(-24)))
        CFI (cfiCond127) VB load(1, XDATA, add(CFA_XSP16, literal(-23)))
        CFI (cfiCond127) V0 load(1, XDATA, add(CFA_XSP16, literal(-22)))
        CFI (cfiCond127) V1 load(1, XDATA, add(CFA_XSP16, literal(-21)))
        CFI (cfiCond127) V2 load(1, XDATA, add(CFA_XSP16, literal(-20)))
        CFI (cfiCond127) V3 load(1, XDATA, add(CFA_XSP16, literal(-19)))
        CFI (cfiCond127) V4 load(1, XDATA, add(CFA_XSP16, literal(-18)))
        CFI (cfiCond127) V5 load(1, XDATA, add(CFA_XSP16, literal(-17)))
        CFI (cfiCond127) V6 load(1, XDATA, add(CFA_XSP16, literal(-16)))
        CFI (cfiCond127) V7 load(1, XDATA, add(CFA_XSP16, literal(-15)))
        CFI (cfiCond127) V8 load(1, XDATA, add(CFA_XSP16, literal(-14)))
        CFI (cfiCond127) V9 load(1, XDATA, add(CFA_XSP16, literal(-13)))
        CFI (cfiCond127) V10 load(1, XDATA, add(CFA_XSP16, literal(-12)))
        CFI (cfiCond127) V11 load(1, XDATA, add(CFA_XSP16, literal(-11)))
        CFI (cfiCond127) V12 load(1, XDATA, add(CFA_XSP16, literal(-10)))
        CFI (cfiCond127) V13 load(1, XDATA, add(CFA_XSP16, literal(-9)))
        CFI (cfiCond127) V14 load(1, XDATA, add(CFA_XSP16, literal(-8)))
        CFI (cfiCond127) V15 load(1, XDATA, add(CFA_XSP16, literal(-7)))
        CFI (cfiCond127) R7 load(1, XDATA, add(CFA_XSP16, literal(-6)))
        CFI (cfiCond127) ?RET_LOW load(1, XDATA, add(CFA_XSP16, literal(-5)))
        CFI (cfiCond127) ?RET_HIGH load(1, XDATA, add(CFA_XSP16, literal(-4)))
        CFI (cfiCond127) ?BRET_EXT load(1, XDATA, add(CFA_XSP16, literal(-3)))
        CFI (cfiCond127) DPL0 load(1, XDATA, add(CFA_XSP16, literal(-2)))
        CFI (cfiCond127) DPH0 load(1, XDATA, add(CFA_XSP16, literal(-1)))
        CFI (cfiCond127) CFA_SP SP+0
        CFI (cfiCond127) CFA_XSP16 add(XSP16, 37)
        CFI Block cfiCond128 Using cfiCommon0
        CFI (cfiCond128) NoFunction
        CFI (cfiCond128) Conditional ??CrossCallReturnLabel_46
        CFI (cfiCond128) R6 load(1, XDATA, add(CFA_XSP16, literal(-15)))
        CFI (cfiCond128) VB load(1, XDATA, add(CFA_XSP16, literal(-14)))
        CFI (cfiCond128) V0 load(1, XDATA, add(CFA_XSP16, literal(-13)))
        CFI (cfiCond128) V1 load(1, XDATA, add(CFA_XSP16, literal(-12)))
        CFI (cfiCond128) V2 load(1, XDATA, add(CFA_XSP16, literal(-11)))
        CFI (cfiCond128) V3 load(1, XDATA, add(CFA_XSP16, literal(-10)))
        CFI (cfiCond128) V4 load(1, XDATA, add(CFA_XSP16, literal(-9)))
        CFI (cfiCond128) V5 load(1, XDATA, add(CFA_XSP16, literal(-8)))
        CFI (cfiCond128) V6 load(1, XDATA, add(CFA_XSP16, literal(-7)))
        CFI (cfiCond128) R7 load(1, XDATA, add(CFA_XSP16, literal(-6)))
        CFI (cfiCond128) ?RET_LOW load(1, XDATA, add(CFA_XSP16, literal(-5)))
        CFI (cfiCond128) ?RET_HIGH load(1, XDATA, add(CFA_XSP16, literal(-4)))
        CFI (cfiCond128) ?BRET_EXT load(1, XDATA, add(CFA_XSP16, literal(-3)))
        CFI (cfiCond128) DPL0 load(1, XDATA, add(CFA_XSP16, literal(-2)))
        CFI (cfiCond128) DPH0 load(1, XDATA, add(CFA_XSP16, literal(-1)))
        CFI (cfiCond128) CFA_SP SP+0
        CFI (cfiCond128) CFA_XSP16 add(XSP16, 23)
        CFI Block cfiCond129 Using cfiCommon0
        CFI (cfiCond129) NoFunction
        CFI (cfiCond129) Conditional ??CrossCallReturnLabel_47, ??CrossCallReturnLabel_11
        CFI (cfiCond129) R6 load(1, XDATA, add(CFA_XSP16, literal(-10)))
        CFI (cfiCond129) VB load(1, XDATA, add(CFA_XSP16, literal(-9)))
        CFI (cfiCond129) V0 load(1, XDATA, add(CFA_XSP16, literal(-8)))
        CFI (cfiCond129) V1 load(1, XDATA, add(CFA_XSP16, literal(-7)))
        CFI (cfiCond129) R7 load(1, XDATA, add(CFA_XSP16, literal(-6)))
        CFI (cfiCond129) ?RET_LOW load(1, XDATA, add(CFA_XSP16, literal(-5)))
        CFI (cfiCond129) ?RET_HIGH load(1, XDATA, add(CFA_XSP16, literal(-4)))
        CFI (cfiCond129) ?BRET_EXT load(1, XDATA, add(CFA_XSP16, literal(-3)))
        CFI (cfiCond129) DPL0 load(1, XDATA, add(CFA_XSP16, literal(-2)))
        CFI (cfiCond129) DPH0 load(1, XDATA, add(CFA_XSP16, literal(-1)))
        CFI (cfiCond129) CFA_SP SP+0
        CFI (cfiCond129) CFA_XSP16 add(XSP16, 10)
        CFI Block cfiCond130 Using cfiCommon0
        CFI (cfiCond130) NoFunction
        CFI (cfiCond130) Conditional ??CrossCallReturnLabel_47, ??CrossCallReturnLabel_13
        CFI (cfiCond130) R6 load(1, XDATA, add(CFA_XSP16, literal(-15)))
        CFI (cfiCond130) VB load(1, XDATA, add(CFA_XSP16, literal(-14)))
        CFI (cfiCond130) V0 load(1, XDATA, add(CFA_XSP16, literal(-13)))
        CFI (cfiCond130) V1 load(1, XDATA, add(CFA_XSP16, literal(-12)))
        CFI (cfiCond130) V2 load(1, XDATA, add(CFA_XSP16, literal(-11)))
        CFI (cfiCond130) V3 load(1, XDATA, add(CFA_XSP16, literal(-10)))
        CFI (cfiCond130) V4 load(1, XDATA, add(CFA_XSP16, literal(-9)))
        CFI (cfiCond130) V5 load(1, XDATA, add(CFA_XSP16, literal(-8)))
        CFI (cfiCond130) V6 load(1, XDATA, add(CFA_XSP16, literal(-7)))
        CFI (cfiCond130) R7 load(1, XDATA, add(CFA_XSP16, literal(-6)))
        CFI (cfiCond130) ?RET_LOW load(1, XDATA, add(CFA_XSP16, literal(-5)))
        CFI (cfiCond130) ?RET_HIGH load(1, XDATA, add(CFA_XSP16, literal(-4)))
        CFI (cfiCond130) ?BRET_EXT load(1, XDATA, add(CFA_XSP16, literal(-3)))
        CFI (cfiCond130) DPL0 load(1, XDATA, add(CFA_XSP16, literal(-2)))
        CFI (cfiCond130) DPH0 load(1, XDATA, add(CFA_XSP16, literal(-1)))
        CFI (cfiCond130) CFA_SP SP+0
        CFI (cfiCond130) CFA_XSP16 add(XSP16, 23)
        CFI Block cfiCond131 Using cfiCommon0
        CFI (cfiCond131) NoFunction
        CFI (cfiCond131) Conditional ??CrossCallReturnLabel_47, ??CrossCallReturnLabel_12
        CFI (cfiCond131) R6 load(1, XDATA, add(CFA_XSP16, literal(-15)))
        CFI (cfiCond131) VB load(1, XDATA, add(CFA_XSP16, literal(-14)))
        CFI (cfiCond131) V0 load(1, XDATA, add(CFA_XSP16, literal(-13)))
        CFI (cfiCond131) V1 load(1, XDATA, add(CFA_XSP16, literal(-12)))
        CFI (cfiCond131) V2 load(1, XDATA, add(CFA_XSP16, literal(-11)))
        CFI (cfiCond131) V3 load(1, XDATA, add(CFA_XSP16, literal(-10)))
        CFI (cfiCond131) V4 load(1, XDATA, add(CFA_XSP16, literal(-9)))
        CFI (cfiCond131) V5 load(1, XDATA, add(CFA_XSP16, literal(-8)))
        CFI (cfiCond131) V6 load(1, XDATA, add(CFA_XSP16, literal(-7)))
        CFI (cfiCond131) R7 load(1, XDATA, add(CFA_XSP16, literal(-6)))
        CFI (cfiCond131) ?RET_LOW load(1, XDATA, add(CFA_XSP16, literal(-5)))
        CFI (cfiCond131) ?RET_HIGH load(1, XDATA, add(CFA_XSP16, literal(-4)))
        CFI (cfiCond131) ?BRET_EXT load(1, XDATA, add(CFA_XSP16, literal(-3)))
        CFI (cfiCond131) DPL0 load(1, XDATA, add(CFA_XSP16, literal(-2)))
        CFI (cfiCond131) DPH0 load(1, XDATA, add(CFA_XSP16, literal(-1)))
        CFI (cfiCond131) CFA_SP SP+0
        CFI (cfiCond131) CFA_XSP16 add(XSP16, 23)
        CFI Block cfiCond132 Using cfiCommon0
        CFI (cfiCond132) NoFunction
        CFI (cfiCond132) Conditional ??CrossCallReturnLabel_48
        CFI (cfiCond132) R6 load(1, XDATA, add(CFA_XSP16, literal(-12)))
        CFI (cfiCond132) VB load(1, XDATA, add(CFA_XSP16, literal(-11)))
        CFI (cfiCond132) V0 load(1, XDATA, add(CFA_XSP16, literal(-10)))
        CFI (cfiCond132) V1 load(1, XDATA, add(CFA_XSP16, literal(-9)))
        CFI (cfiCond132) V2 load(1, XDATA, add(CFA_XSP16, literal(-8)))
        CFI (cfiCond132) V3 load(1, XDATA, add(CFA_XSP16, literal(-7)))
        CFI (cfiCond132) R7 load(1, XDATA, add(CFA_XSP16, literal(-6)))
        CFI (cfiCond132) ?RET_LOW load(1, XDATA, add(CFA_XSP16, literal(-5)))
        CFI (cfiCond132) ?RET_HIGH load(1, XDATA, add(CFA_XSP16, literal(-4)))
        CFI (cfiCond132) ?BRET_EXT load(1, XDATA, add(CFA_XSP16, literal(-3)))
        CFI (cfiCond132) DPL0 load(1, XDATA, add(CFA_XSP16, literal(-2)))
        CFI (cfiCond132) DPH0 load(1, XDATA, add(CFA_XSP16, literal(-1)))
        CFI (cfiCond132) CFA_SP SP+0
        CFI (cfiCond132) CFA_XSP16 add(XSP16, 24)
        CFI Block cfiPicker133 Using cfiCommon1
        CFI (cfiPicker133) NoFunction
        CFI (cfiPicker133) Picker
        MOVX    @DPTR,A
        ; Setup parameters for call to function ZLOADApp_SerialMessageMSGCB
        MOV     DPL,R6
        MOV     DPH,R7
        RET
        CFI EndBlock cfiCond124
        CFI EndBlock cfiCond125
        CFI EndBlock cfiCond126
        CFI EndBlock cfiCond127
        CFI EndBlock cfiCond128
        CFI EndBlock cfiCond129
        CFI EndBlock cfiCond130
        CFI EndBlock cfiCond131
        CFI EndBlock cfiCond132
        CFI EndBlock cfiPicker133

        RSEG BANKED_CODE:CODE:NOROOT(0)
?Subroutine22:
        CFI Block cfiCond134 Using cfiCommon0
        CFI NoFunction
        CFI Conditional ??CrossCallReturnLabel_83
        CFI R6 load(1, XDATA, add(CFA_XSP16, literal(-24)))
        CFI VB load(1, XDATA, add(CFA_XSP16, literal(-23)))
        CFI V0 load(1, XDATA, add(CFA_XSP16, literal(-22)))
        CFI V1 load(1, XDATA, add(CFA_XSP16, literal(-21)))
        CFI V2 load(1, XDATA, add(CFA_XSP16, literal(-20)))
        CFI V3 load(1, XDATA, add(CFA_XSP16, literal(-19)))
        CFI V4 load(1, XDATA, add(CFA_XSP16, literal(-18)))
        CFI V5 load(1, XDATA, add(CFA_XSP16, literal(-17)))
        CFI V6 load(1, XDATA, add(CFA_XSP16, literal(-16)))
        CFI V7 load(1, XDATA, add(CFA_XSP16, literal(-15)))
        CFI V8 load(1, XDATA, add(CFA_XSP16, literal(-14)))
        CFI V9 load(1, XDATA, add(CFA_XSP16, literal(-13)))
        CFI V10 load(1, XDATA, add(CFA_XSP16, literal(-12)))
        CFI V11 load(1, XDATA, add(CFA_XSP16, literal(-11)))
        CFI V12 load(1, XDATA, add(CFA_XSP16, literal(-10)))
        CFI V13 load(1, XDATA, add(CFA_XSP16, literal(-9)))
        CFI V14 load(1, XDATA, add(CFA_XSP16, literal(-8)))
        CFI V15 load(1, XDATA, add(CFA_XSP16, literal(-7)))
        CFI R7 load(1, XDATA, add(CFA_XSP16, literal(-6)))
        CFI ?RET_LOW load(1, XDATA, add(CFA_XSP16, literal(-5)))
        CFI ?RET_HIGH load(1, XDATA, add(CFA_XSP16, literal(-4)))
        CFI ?BRET_EXT load(1, XDATA, add(CFA_XSP16, literal(-3)))
        CFI DPL0 load(1, XDATA, add(CFA_XSP16, literal(-2)))
        CFI DPH0 load(1, XDATA, add(CFA_XSP16, literal(-1)))
        CFI CFA_SP SP+0
        CFI CFA_XSP16 add(XSP16, 37)
        CFI Block cfiCond135 Using cfiCommon0
        CFI (cfiCond135) NoFunction
        CFI (cfiCond135) Conditional ??CrossCallReturnLabel_81
        CFI (cfiCond135) R6 load(1, XDATA, add(CFA_XSP16, literal(-15)))
        CFI (cfiCond135) VB load(1, XDATA, add(CFA_XSP16, literal(-14)))
        CFI (cfiCond135) V0 load(1, XDATA, add(CFA_XSP16, literal(-13)))
        CFI (cfiCond135) V1 load(1, XDATA, add(CFA_XSP16, literal(-12)))
        CFI (cfiCond135) V2 load(1, XDATA, add(CFA_XSP16, literal(-11)))
        CFI (cfiCond135) V3 load(1, XDATA, add(CFA_XSP16, literal(-10)))
        CFI (cfiCond135) V4 load(1, XDATA, add(CFA_XSP16, literal(-9)))
        CFI (cfiCond135) V5 load(1, XDATA, add(CFA_XSP16, literal(-8)))
        CFI (cfiCond135) V6 load(1, XDATA, add(CFA_XSP16, literal(-7)))
        CFI (cfiCond135) R7 load(1, XDATA, add(CFA_XSP16, literal(-6)))
        CFI (cfiCond135) ?RET_LOW load(1, XDATA, add(CFA_XSP16, literal(-5)))
        CFI (cfiCond135) ?RET_HIGH load(1, XDATA, add(CFA_XSP16, literal(-4)))
        CFI (cfiCond135) ?BRET_EXT load(1, XDATA, add(CFA_XSP16, literal(-3)))
        CFI (cfiCond135) DPL0 load(1, XDATA, add(CFA_XSP16, literal(-2)))
        CFI (cfiCond135) DPH0 load(1, XDATA, add(CFA_XSP16, literal(-1)))
        CFI (cfiCond135) CFA_SP SP+0
        CFI (cfiCond135) CFA_XSP16 add(XSP16, 23)
        CFI Block cfiPicker136 Using cfiCommon1
        CFI (cfiPicker136) NoFunction
        CFI (cfiPicker136) Picker
        MOV     R1,#0x10
        CFI EndBlock cfiCond134
        CFI EndBlock cfiCond135
        CFI EndBlock cfiPicker136
        REQUIRE ??Subroutine41_0
        ; // Fall through to label ??Subroutine41_0

        RSEG BANKED_CODE:CODE:NOROOT(0)
??Subroutine41_0:
        CFI Block cfiCond137 Using cfiCommon0
        CFI NoFunction
        CFI Conditional ??CrossCallReturnLabel_82
        CFI R6 load(1, XDATA, add(CFA_XSP16, literal(-24)))
        CFI VB load(1, XDATA, add(CFA_XSP16, literal(-23)))
        CFI V0 load(1, XDATA, add(CFA_XSP16, literal(-22)))
        CFI V1 load(1, XDATA, add(CFA_XSP16, literal(-21)))
        CFI V2 load(1, XDATA, add(CFA_XSP16, literal(-20)))
        CFI V3 load(1, XDATA, add(CFA_XSP16, literal(-19)))
        CFI V4 load(1, XDATA, add(CFA_XSP16, literal(-18)))
        CFI V5 load(1, XDATA, add(CFA_XSP16, literal(-17)))
        CFI V6 load(1, XDATA, add(CFA_XSP16, literal(-16)))
        CFI V7 load(1, XDATA, add(CFA_XSP16, literal(-15)))
        CFI V8 load(1, XDATA, add(CFA_XSP16, literal(-14)))
        CFI V9 load(1, XDATA, add(CFA_XSP16, literal(-13)))
        CFI V10 load(1, XDATA, add(CFA_XSP16, literal(-12)))
        CFI V11 load(1, XDATA, add(CFA_XSP16, literal(-11)))
        CFI V12 load(1, XDATA, add(CFA_XSP16, literal(-10)))
        CFI V13 load(1, XDATA, add(CFA_XSP16, literal(-9)))
        CFI V14 load(1, XDATA, add(CFA_XSP16, literal(-8)))
        CFI V15 load(1, XDATA, add(CFA_XSP16, literal(-7)))
        CFI R7 load(1, XDATA, add(CFA_XSP16, literal(-6)))
        CFI ?RET_LOW load(1, XDATA, add(CFA_XSP16, literal(-5)))
        CFI ?RET_HIGH load(1, XDATA, add(CFA_XSP16, literal(-4)))
        CFI ?BRET_EXT load(1, XDATA, add(CFA_XSP16, literal(-3)))
        CFI DPL0 load(1, XDATA, add(CFA_XSP16, literal(-2)))
        CFI DPH0 load(1, XDATA, add(CFA_XSP16, literal(-1)))
        CFI CFA_SP SP+0
        CFI CFA_XSP16 add(XSP16, 37)
        CFI Block cfiCond138 Using cfiCommon0
        CFI (cfiCond138) NoFunction
        CFI (cfiCond138) Conditional ??CrossCallReturnLabel_83
        CFI (cfiCond138) R6 load(1, XDATA, add(CFA_XSP16, literal(-24)))
        CFI (cfiCond138) VB load(1, XDATA, add(CFA_XSP16, literal(-23)))
        CFI (cfiCond138) V0 load(1, XDATA, add(CFA_XSP16, literal(-22)))
        CFI (cfiCond138) V1 load(1, XDATA, add(CFA_XSP16, literal(-21)))
        CFI (cfiCond138) V2 load(1, XDATA, add(CFA_XSP16, literal(-20)))
        CFI (cfiCond138) V3 load(1, XDATA, add(CFA_XSP16, literal(-19)))
        CFI (cfiCond138) V4 load(1, XDATA, add(CFA_XSP16, literal(-18)))
        CFI (cfiCond138) V5 load(1, XDATA, add(CFA_XSP16, literal(-17)))
        CFI (cfiCond138) V6 load(1, XDATA, add(CFA_XSP16, literal(-16)))
        CFI (cfiCond138) V7 load(1, XDATA, add(CFA_XSP16, literal(-15)))
        CFI (cfiCond138) V8 load(1, XDATA, add(CFA_XSP16, literal(-14)))
        CFI (cfiCond138) V9 load(1, XDATA, add(CFA_XSP16, literal(-13)))
        CFI (cfiCond138) V10 load(1, XDATA, add(CFA_XSP16, literal(-12)))
        CFI (cfiCond138) V11 load(1, XDATA, add(CFA_XSP16, literal(-11)))
        CFI (cfiCond138) V12 load(1, XDATA, add(CFA_XSP16, literal(-10)))
        CFI (cfiCond138) V13 load(1, XDATA, add(CFA_XSP16, literal(-9)))
        CFI (cfiCond138) V14 load(1, XDATA, add(CFA_XSP16, literal(-8)))
        CFI (cfiCond138) V15 load(1, XDATA, add(CFA_XSP16, literal(-7)))
        CFI (cfiCond138) R7 load(1, XDATA, add(CFA_XSP16, literal(-6)))
        CFI (cfiCond138) ?RET_LOW load(1, XDATA, add(CFA_XSP16, literal(-5)))
        CFI (cfiCond138) ?RET_HIGH load(1, XDATA, add(CFA_XSP16, literal(-4)))
        CFI (cfiCond138) ?BRET_EXT load(1, XDATA, add(CFA_XSP16, literal(-3)))
        CFI (cfiCond138) DPL0 load(1, XDATA, add(CFA_XSP16, literal(-2)))
        CFI (cfiCond138) DPH0 load(1, XDATA, add(CFA_XSP16, literal(-1)))
        CFI (cfiCond138) CFA_SP SP+0
        CFI (cfiCond138) CFA_XSP16 add(XSP16, 37)
        CFI Block cfiCond139 Using cfiCommon0
        CFI (cfiCond139) NoFunction
        CFI (cfiCond139) Conditional ??CrossCallReturnLabel_81
        CFI (cfiCond139) R6 load(1, XDATA, add(CFA_XSP16, literal(-15)))
        CFI (cfiCond139) VB load(1, XDATA, add(CFA_XSP16, literal(-14)))
        CFI (cfiCond139) V0 load(1, XDATA, add(CFA_XSP16, literal(-13)))
        CFI (cfiCond139) V1 load(1, XDATA, add(CFA_XSP16, literal(-12)))
        CFI (cfiCond139) V2 load(1, XDATA, add(CFA_XSP16, literal(-11)))
        CFI (cfiCond139) V3 load(1, XDATA, add(CFA_XSP16, literal(-10)))
        CFI (cfiCond139) V4 load(1, XDATA, add(CFA_XSP16, literal(-9)))
        CFI (cfiCond139) V5 load(1, XDATA, add(CFA_XSP16, literal(-8)))
        CFI (cfiCond139) V6 load(1, XDATA, add(CFA_XSP16, literal(-7)))
        CFI (cfiCond139) R7 load(1, XDATA, add(CFA_XSP16, literal(-6)))
        CFI (cfiCond139) ?RET_LOW load(1, XDATA, add(CFA_XSP16, literal(-5)))
        CFI (cfiCond139) ?RET_HIGH load(1, XDATA, add(CFA_XSP16, literal(-4)))
        CFI (cfiCond139) ?BRET_EXT load(1, XDATA, add(CFA_XSP16, literal(-3)))
        CFI (cfiCond139) DPL0 load(1, XDATA, add(CFA_XSP16, literal(-2)))
        CFI (cfiCond139) DPH0 load(1, XDATA, add(CFA_XSP16, literal(-1)))
        CFI (cfiCond139) CFA_SP SP+0
        CFI (cfiCond139) CFA_XSP16 add(XSP16, 23)
        CFI Block cfiPicker140 Using cfiCommon1
        CFI (cfiPicker140) NoFunction
        CFI (cfiPicker140) Picker
        LCALL   ??zlSendSerial?relay
        ; Setup parameters for call to function osal_mem_free
        ; Setup parameters for call to function osal_mem_free
        ; Setup parameters for call to function osal_mem_free
        MOV     R2,?V0 + 0
        MOV     R3,?V0 + 1
        LCALL   ??osal_mem_free?relay
        RET
        CFI EndBlock cfiCond137
        CFI EndBlock cfiCond138
        CFI EndBlock cfiCond139
        CFI EndBlock cfiPicker140

        RSEG BANKED_CODE:CODE:NOROOT(0)
?Subroutine7:
        CFI Block cfiCond141 Using cfiCommon0
        CFI NoFunction
        CFI Conditional ??CrossCallReturnLabel_11
        CFI R6 load(1, XDATA, add(CFA_XSP16, literal(-10)))
        CFI VB load(1, XDATA, add(CFA_XSP16, literal(-9)))
        CFI V0 load(1, XDATA, add(CFA_XSP16, literal(-8)))
        CFI V1 load(1, XDATA, add(CFA_XSP16, literal(-7)))
        CFI R7 load(1, XDATA, add(CFA_XSP16, literal(-6)))
        CFI ?RET_LOW load(1, XDATA, add(CFA_XSP16, literal(-5)))
        CFI ?RET_HIGH load(1, XDATA, add(CFA_XSP16, literal(-4)))
        CFI ?BRET_EXT load(1, XDATA, add(CFA_XSP16, literal(-3)))
        CFI DPL0 load(1, XDATA, add(CFA_XSP16, literal(-2)))
        CFI DPH0 load(1, XDATA, add(CFA_XSP16, literal(-1)))
        CFI CFA_SP SP+0
        CFI CFA_XSP16 add(XSP16, 10)
        CFI Block cfiCond142 Using cfiCommon0
        CFI (cfiCond142) NoFunction
        CFI (cfiCond142) Conditional ??CrossCallReturnLabel_13
        CFI (cfiCond142) R6 load(1, XDATA, add(CFA_XSP16, literal(-15)))
        CFI (cfiCond142) VB load(1, XDATA, add(CFA_XSP16, literal(-14)))
        CFI (cfiCond142) V0 load(1, XDATA, add(CFA_XSP16, literal(-13)))
        CFI (cfiCond142) V1 load(1, XDATA, add(CFA_XSP16, literal(-12)))
        CFI (cfiCond142) V2 load(1, XDATA, add(CFA_XSP16, literal(-11)))
        CFI (cfiCond142) V3 load(1, XDATA, add(CFA_XSP16, literal(-10)))
        CFI (cfiCond142) V4 load(1, XDATA, add(CFA_XSP16, literal(-9)))
        CFI (cfiCond142) V5 load(1, XDATA, add(CFA_XSP16, literal(-8)))
        CFI (cfiCond142) V6 load(1, XDATA, add(CFA_XSP16, literal(-7)))
        CFI (cfiCond142) R7 load(1, XDATA, add(CFA_XSP16, literal(-6)))
        CFI (cfiCond142) ?RET_LOW load(1, XDATA, add(CFA_XSP16, literal(-5)))
        CFI (cfiCond142) ?RET_HIGH load(1, XDATA, add(CFA_XSP16, literal(-4)))
        CFI (cfiCond142) ?BRET_EXT load(1, XDATA, add(CFA_XSP16, literal(-3)))
        CFI (cfiCond142) DPL0 load(1, XDATA, add(CFA_XSP16, literal(-2)))
        CFI (cfiCond142) DPH0 load(1, XDATA, add(CFA_XSP16, literal(-1)))
        CFI (cfiCond142) CFA_SP SP+0
        CFI (cfiCond142) CFA_XSP16 add(XSP16, 23)
        CFI Block cfiCond143 Using cfiCommon0
        CFI (cfiCond143) NoFunction
        CFI (cfiCond143) Conditional ??CrossCallReturnLabel_12
        CFI (cfiCond143) R6 load(1, XDATA, add(CFA_XSP16, literal(-15)))
        CFI (cfiCond143) VB load(1, XDATA, add(CFA_XSP16, literal(-14)))
        CFI (cfiCond143) V0 load(1, XDATA, add(CFA_XSP16, literal(-13)))
        CFI (cfiCond143) V1 load(1, XDATA, add(CFA_XSP16, literal(-12)))
        CFI (cfiCond143) V2 load(1, XDATA, add(CFA_XSP16, literal(-11)))
        CFI (cfiCond143) V3 load(1, XDATA, add(CFA_XSP16, literal(-10)))
        CFI (cfiCond143) V4 load(1, XDATA, add(CFA_XSP16, literal(-9)))
        CFI (cfiCond143) V5 load(1, XDATA, add(CFA_XSP16, literal(-8)))
        CFI (cfiCond143) V6 load(1, XDATA, add(CFA_XSP16, literal(-7)))
        CFI (cfiCond143) R7 load(1, XDATA, add(CFA_XSP16, literal(-6)))
        CFI (cfiCond143) ?RET_LOW load(1, XDATA, add(CFA_XSP16, literal(-5)))
        CFI (cfiCond143) ?RET_HIGH load(1, XDATA, add(CFA_XSP16, literal(-4)))
        CFI (cfiCond143) ?BRET_EXT load(1, XDATA, add(CFA_XSP16, literal(-3)))
        CFI (cfiCond143) DPL0 load(1, XDATA, add(CFA_XSP16, literal(-2)))
        CFI (cfiCond143) DPH0 load(1, XDATA, add(CFA_XSP16, literal(-1)))
        CFI (cfiCond143) CFA_SP SP+0
        CFI (cfiCond143) CFA_XSP16 add(XSP16, 23)
        CFI Block cfiPicker144 Using cfiCommon1
        CFI (cfiPicker144) NoFunction
        CFI (cfiPicker144) Picker
        LCALL   ?Subroutine30 & 0xFFFF
??CrossCallReturnLabel_47:
        INC     DPTR
        RET
        CFI EndBlock cfiCond141
        CFI EndBlock cfiCond142
        CFI EndBlock cfiCond143
        CFI EndBlock cfiPicker144

        RSEG BANKED_CODE:CODE:NOROOT(0)
?Subroutine3:
        CFI Block cfiCond145 Using cfiCommon0
        CFI NoFunction
        CFI Conditional ??CrossCallReturnLabel_2
        CFI R6 load(1, XDATA, add(CFA_XSP16, literal(-15)))
        CFI VB load(1, XDATA, add(CFA_XSP16, literal(-14)))
        CFI V0 load(1, XDATA, add(CFA_XSP16, literal(-13)))
        CFI V1 load(1, XDATA, add(CFA_XSP16, literal(-12)))
        CFI V2 load(1, XDATA, add(CFA_XSP16, literal(-11)))
        CFI V3 load(1, XDATA, add(CFA_XSP16, literal(-10)))
        CFI V4 load(1, XDATA, add(CFA_XSP16, literal(-9)))
        CFI V5 load(1, XDATA, add(CFA_XSP16, literal(-8)))
        CFI V6 load(1, XDATA, add(CFA_XSP16, literal(-7)))
        CFI R7 load(1, XDATA, add(CFA_XSP16, literal(-6)))
        CFI ?RET_LOW load(1, XDATA, add(CFA_XSP16, literal(-5)))
        CFI ?RET_HIGH load(1, XDATA, add(CFA_XSP16, literal(-4)))
        CFI ?BRET_EXT load(1, XDATA, add(CFA_XSP16, literal(-3)))
        CFI DPL0 load(1, XDATA, add(CFA_XSP16, literal(-2)))
        CFI DPH0 load(1, XDATA, add(CFA_XSP16, literal(-1)))
        CFI CFA_SP SP+0
        CFI CFA_XSP16 add(XSP16, 23)
        CFI Block cfiCond146 Using cfiCommon0
        CFI (cfiCond146) NoFunction
        CFI (cfiCond146) Conditional ??CrossCallReturnLabel_3
        CFI (cfiCond146) R6 load(1, XDATA, add(CFA_XSP16, literal(-15)))
        CFI (cfiCond146) VB load(1, XDATA, add(CFA_XSP16, literal(-14)))
        CFI (cfiCond146) V0 load(1, XDATA, add(CFA_XSP16, literal(-13)))
        CFI (cfiCond146) V1 load(1, XDATA, add(CFA_XSP16, literal(-12)))
        CFI (cfiCond146) V2 load(1, XDATA, add(CFA_XSP16, literal(-11)))
        CFI (cfiCond146) V3 load(1, XDATA, add(CFA_XSP16, literal(-10)))
        CFI (cfiCond146) V4 load(1, XDATA, add(CFA_XSP16, literal(-9)))
        CFI (cfiCond146) V5 load(1, XDATA, add(CFA_XSP16, literal(-8)))
        CFI (cfiCond146) V6 load(1, XDATA, add(CFA_XSP16, literal(-7)))
        CFI (cfiCond146) R7 load(1, XDATA, add(CFA_XSP16, literal(-6)))
        CFI (cfiCond146) ?RET_LOW load(1, XDATA, add(CFA_XSP16, literal(-5)))
        CFI (cfiCond146) ?RET_HIGH load(1, XDATA, add(CFA_XSP16, literal(-4)))
        CFI (cfiCond146) ?BRET_EXT load(1, XDATA, add(CFA_XSP16, literal(-3)))
        CFI (cfiCond146) DPL0 load(1, XDATA, add(CFA_XSP16, literal(-2)))
        CFI (cfiCond146) DPH0 load(1, XDATA, add(CFA_XSP16, literal(-1)))
        CFI (cfiCond146) CFA_SP SP+0
        CFI (cfiCond146) CFA_XSP16 add(XSP16, 23)
        CFI Block cfiPicker147 Using cfiCommon1
        CFI (cfiPicker147) NoFunction
        CFI (cfiPicker147) Picker
        MOVX    @DPTR,A
        MOV     DPTR,#s_sdcmd
        LCALL   ?Subroutine31 & 0xFFFF
??CrossCallReturnLabel_58:
        RET
        CFI EndBlock cfiCond145
        CFI EndBlock cfiCond146
        CFI EndBlock cfiPicker147

        RSEG BANKED_CODE:CODE:NOROOT(0)
?Subroutine31:
        CFI Block cfiCond148 Using cfiCommon0
        CFI NoFunction
        CFI Conditional ??CrossCallReturnLabel_59, ??CrossCallReturnLabel_55
        CFI R6 load(1, XDATA, add(CFA_XSP16, literal(-16)))
        CFI VB load(1, XDATA, add(CFA_XSP16, literal(-15)))
        CFI V0 load(1, XDATA, add(CFA_XSP16, literal(-14)))
        CFI V1 load(1, XDATA, add(CFA_XSP16, literal(-13)))
        CFI V2 load(1, XDATA, add(CFA_XSP16, literal(-12)))
        CFI V3 load(1, XDATA, add(CFA_XSP16, literal(-11)))
        CFI V4 load(1, XDATA, add(CFA_XSP16, literal(-10)))
        CFI V5 load(1, XDATA, add(CFA_XSP16, literal(-9)))
        CFI V6 load(1, XDATA, add(CFA_XSP16, literal(-8)))
        CFI V7 load(1, XDATA, add(CFA_XSP16, literal(-7)))
        CFI R7 load(1, XDATA, add(CFA_XSP16, literal(-6)))
        CFI ?RET_LOW load(1, XDATA, add(CFA_XSP16, literal(-5)))
        CFI ?RET_HIGH load(1, XDATA, add(CFA_XSP16, literal(-4)))
        CFI ?BRET_EXT load(1, XDATA, add(CFA_XSP16, literal(-3)))
        CFI DPL0 load(1, XDATA, add(CFA_XSP16, literal(-2)))
        CFI DPH0 load(1, XDATA, add(CFA_XSP16, literal(-1)))
        CFI CFA_SP SP+-1
        CFI CFA_XSP16 add(XSP16, 16)
        CFI Block cfiCond149 Using cfiCommon0
        CFI (cfiCond149) NoFunction
        CFI (cfiCond149) Conditional ??CrossCallReturnLabel_59, ??CrossCallReturnLabel_56
        CFI (cfiCond149) R6 load(1, XDATA, add(CFA_XSP16, literal(-10)))
        CFI (cfiCond149) VB load(1, XDATA, add(CFA_XSP16, literal(-9)))
        CFI (cfiCond149) V0 load(1, XDATA, add(CFA_XSP16, literal(-8)))
        CFI (cfiCond149) V1 load(1, XDATA, add(CFA_XSP16, literal(-7)))
        CFI (cfiCond149) R7 load(1, XDATA, add(CFA_XSP16, literal(-6)))
        CFI (cfiCond149) ?RET_LOW load(1, XDATA, add(CFA_XSP16, literal(-5)))
        CFI (cfiCond149) ?RET_HIGH load(1, XDATA, add(CFA_XSP16, literal(-4)))
        CFI (cfiCond149) ?BRET_EXT load(1, XDATA, add(CFA_XSP16, literal(-3)))
        CFI (cfiCond149) DPL0 load(1, XDATA, add(CFA_XSP16, literal(-2)))
        CFI (cfiCond149) DPH0 load(1, XDATA, add(CFA_XSP16, literal(-1)))
        CFI (cfiCond149) CFA_SP SP+-1
        CFI (cfiCond149) CFA_XSP16 add(XSP16, 10)
        CFI Block cfiCond150 Using cfiCommon0
        CFI (cfiCond150) NoFunction
        CFI (cfiCond150) Conditional ??CrossCallReturnLabel_59, ??CrossCallReturnLabel_54
        CFI (cfiCond150) R6 load(1, XDATA, add(CFA_XSP16, literal(-15)))
        CFI (cfiCond150) VB load(1, XDATA, add(CFA_XSP16, literal(-14)))
        CFI (cfiCond150) V0 load(1, XDATA, add(CFA_XSP16, literal(-13)))
        CFI (cfiCond150) V1 load(1, XDATA, add(CFA_XSP16, literal(-12)))
        CFI (cfiCond150) V2 load(1, XDATA, add(CFA_XSP16, literal(-11)))
        CFI (cfiCond150) V3 load(1, XDATA, add(CFA_XSP16, literal(-10)))
        CFI (cfiCond150) V4 load(1, XDATA, add(CFA_XSP16, literal(-9)))
        CFI (cfiCond150) V5 load(1, XDATA, add(CFA_XSP16, literal(-8)))
        CFI (cfiCond150) V6 load(1, XDATA, add(CFA_XSP16, literal(-7)))
        CFI (cfiCond150) R7 load(1, XDATA, add(CFA_XSP16, literal(-6)))
        CFI (cfiCond150) ?RET_LOW load(1, XDATA, add(CFA_XSP16, literal(-5)))
        CFI (cfiCond150) ?RET_HIGH load(1, XDATA, add(CFA_XSP16, literal(-4)))
        CFI (cfiCond150) ?BRET_EXT load(1, XDATA, add(CFA_XSP16, literal(-3)))
        CFI (cfiCond150) DPL0 load(1, XDATA, add(CFA_XSP16, literal(-2)))
        CFI (cfiCond150) DPH0 load(1, XDATA, add(CFA_XSP16, literal(-1)))
        CFI (cfiCond150) CFA_SP SP+-1
        CFI (cfiCond150) CFA_XSP16 add(XSP16, 23)
        CFI Block cfiCond151 Using cfiCommon0
        CFI (cfiCond151) NoFunction
        CFI (cfiCond151) Conditional ??CrossCallReturnLabel_57
        CFI (cfiCond151) R6 load(1, XDATA, add(CFA_XSP16, literal(-24)))
        CFI (cfiCond151) VB load(1, XDATA, add(CFA_XSP16, literal(-23)))
        CFI (cfiCond151) V0 load(1, XDATA, add(CFA_XSP16, literal(-22)))
        CFI (cfiCond151) V1 load(1, XDATA, add(CFA_XSP16, literal(-21)))
        CFI (cfiCond151) V2 load(1, XDATA, add(CFA_XSP16, literal(-20)))
        CFI (cfiCond151) V3 load(1, XDATA, add(CFA_XSP16, literal(-19)))
        CFI (cfiCond151) V4 load(1, XDATA, add(CFA_XSP16, literal(-18)))
        CFI (cfiCond151) V5 load(1, XDATA, add(CFA_XSP16, literal(-17)))
        CFI (cfiCond151) V6 load(1, XDATA, add(CFA_XSP16, literal(-16)))
        CFI (cfiCond151) V7 load(1, XDATA, add(CFA_XSP16, literal(-15)))
        CFI (cfiCond151) V8 load(1, XDATA, add(CFA_XSP16, literal(-14)))
        CFI (cfiCond151) V9 load(1, XDATA, add(CFA_XSP16, literal(-13)))
        CFI (cfiCond151) V10 load(1, XDATA, add(CFA_XSP16, literal(-12)))
        CFI (cfiCond151) V11 load(1, XDATA, add(CFA_XSP16, literal(-11)))
        CFI (cfiCond151) V12 load(1, XDATA, add(CFA_XSP16, literal(-10)))
        CFI (cfiCond151) V13 load(1, XDATA, add(CFA_XSP16, literal(-9)))
        CFI (cfiCond151) V14 load(1, XDATA, add(CFA_XSP16, literal(-8)))
        CFI (cfiCond151) V15 load(1, XDATA, add(CFA_XSP16, literal(-7)))
        CFI (cfiCond151) R7 load(1, XDATA, add(CFA_XSP16, literal(-6)))
        CFI (cfiCond151) ?RET_LOW load(1, XDATA, add(CFA_XSP16, literal(-5)))
        CFI (cfiCond151) ?RET_HIGH load(1, XDATA, add(CFA_XSP16, literal(-4)))
        CFI (cfiCond151) ?BRET_EXT load(1, XDATA, add(CFA_XSP16, literal(-3)))
        CFI (cfiCond151) DPL0 load(1, XDATA, add(CFA_XSP16, literal(-2)))
        CFI (cfiCond151) DPH0 load(1, XDATA, add(CFA_XSP16, literal(-1)))
        CFI (cfiCond151) CFA_SP SP+0
        CFI (cfiCond151) CFA_XSP16 add(XSP16, 40)
        CFI Block cfiCond152 Using cfiCommon0
        CFI (cfiCond152) NoFunction
        CFI (cfiCond152) Conditional ??CrossCallReturnLabel_58, ??CrossCallReturnLabel_2
        CFI (cfiCond152) R6 load(1, XDATA, add(CFA_XSP16, literal(-15)))
        CFI (cfiCond152) VB load(1, XDATA, add(CFA_XSP16, literal(-14)))
        CFI (cfiCond152) V0 load(1, XDATA, add(CFA_XSP16, literal(-13)))
        CFI (cfiCond152) V1 load(1, XDATA, add(CFA_XSP16, literal(-12)))
        CFI (cfiCond152) V2 load(1, XDATA, add(CFA_XSP16, literal(-11)))
        CFI (cfiCond152) V3 load(1, XDATA, add(CFA_XSP16, literal(-10)))
        CFI (cfiCond152) V4 load(1, XDATA, add(CFA_XSP16, literal(-9)))
        CFI (cfiCond152) V5 load(1, XDATA, add(CFA_XSP16, literal(-8)))
        CFI (cfiCond152) V6 load(1, XDATA, add(CFA_XSP16, literal(-7)))
        CFI (cfiCond152) R7 load(1, XDATA, add(CFA_XSP16, literal(-6)))
        CFI (cfiCond152) ?RET_LOW load(1, XDATA, add(CFA_XSP16, literal(-5)))
        CFI (cfiCond152) ?RET_HIGH load(1, XDATA, add(CFA_XSP16, literal(-4)))
        CFI (cfiCond152) ?BRET_EXT load(1, XDATA, add(CFA_XSP16, literal(-3)))
        CFI (cfiCond152) DPL0 load(1, XDATA, add(CFA_XSP16, literal(-2)))
        CFI (cfiCond152) DPH0 load(1, XDATA, add(CFA_XSP16, literal(-1)))
        CFI (cfiCond152) CFA_SP SP+0
        CFI (cfiCond152) CFA_XSP16 add(XSP16, 23)
        CFI Block cfiCond153 Using cfiCommon0
        CFI (cfiCond153) NoFunction
        CFI (cfiCond153) Conditional ??CrossCallReturnLabel_58, ??CrossCallReturnLabel_3
        CFI (cfiCond153) R6 load(1, XDATA, add(CFA_XSP16, literal(-15)))
        CFI (cfiCond153) VB load(1, XDATA, add(CFA_XSP16, literal(-14)))
        CFI (cfiCond153) V0 load(1, XDATA, add(CFA_XSP16, literal(-13)))
        CFI (cfiCond153) V1 load(1, XDATA, add(CFA_XSP16, literal(-12)))
        CFI (cfiCond153) V2 load(1, XDATA, add(CFA_XSP16, literal(-11)))
        CFI (cfiCond153) V3 load(1, XDATA, add(CFA_XSP16, literal(-10)))
        CFI (cfiCond153) V4 load(1, XDATA, add(CFA_XSP16, literal(-9)))
        CFI (cfiCond153) V5 load(1, XDATA, add(CFA_XSP16, literal(-8)))
        CFI (cfiCond153) V6 load(1, XDATA, add(CFA_XSP16, literal(-7)))
        CFI (cfiCond153) R7 load(1, XDATA, add(CFA_XSP16, literal(-6)))
        CFI (cfiCond153) ?RET_LOW load(1, XDATA, add(CFA_XSP16, literal(-5)))
        CFI (cfiCond153) ?RET_HIGH load(1, XDATA, add(CFA_XSP16, literal(-4)))
        CFI (cfiCond153) ?BRET_EXT load(1, XDATA, add(CFA_XSP16, literal(-3)))
        CFI (cfiCond153) DPL0 load(1, XDATA, add(CFA_XSP16, literal(-2)))
        CFI (cfiCond153) DPH0 load(1, XDATA, add(CFA_XSP16, literal(-1)))
        CFI (cfiCond153) CFA_SP SP+0
        CFI (cfiCond153) CFA_XSP16 add(XSP16, 23)
        CFI Block cfiPicker154 Using cfiCommon1
        CFI (cfiPicker154) NoFunction
        CFI (cfiPicker154) Picker
        MOVX    A,@DPTR
        MOV     R0,A
        INC     DPTR
        MOVX    A,@DPTR
        MOV     DPH,A
        MOV     DPL,R0
        RET
        CFI EndBlock cfiCond148
        CFI EndBlock cfiCond149
        CFI EndBlock cfiCond150
        CFI EndBlock cfiCond151
        CFI EndBlock cfiCond152
        CFI EndBlock cfiCond153
        CFI EndBlock cfiPicker154
// 1503 
// 1504 #if !defined ZPORT
// 1505 /**************************************************************************************
// 1506  * @fn      zlSendCommand
// 1507  *
// 1508  * @brief   Send command to destination. Can be either over air or to the Host. This
// 1509  *          routine takes care of the context.
// 1510  *
// 1511  * @param   input
// 1512  *            length   length of message being sent
// 1513  *            buf      pointer to message
// 1514  *
// 1515  * @return  0: successful send
// 1516  *          1: unseccessful send (return code for AF layer)
// 1517  */
// 1518 static uint8 zlSendCommand(uint8 length, uint8 *buf)
// 1519 {
// 1520     uint8  rc;
// 1521 
// 1522     rc = AF_DataRequest( &dstAddr,
// 1523                           afFindEndPointDesc( OAD_epDesc.endPoint ),
// 1524                           OAD_CLUSTERID_CS,
// 1525                           length, buf,
// 1526                          &transId,
// 1527                           AF_DISCV_ROUTE, DEF_NWK_RADIUS );
// 1528 
// 1529     return rc;
// 1530 }
// 1531 #endif
// 1532 
// 1533 /**************************************************************************************
// 1534  * @fn      zlResendSDC
// 1535  *
// 1536  * @brief   Resend the previous Send Data Command because a repply was not received
// 1537  *          before a timeout.
// 1538  *
// 1539  * @param   none
// 1540  *
// 1541  * @return  none.
// 1542  */
// 1543 static void zlResendSDC()
// 1544 {
// 1545     if (s_State != ZLSTATE_CLIENT)  {
// 1546         // late expiration -- don't care
// 1547         return;
// 1548     }
// 1549 
// 1550     if (--s_SDCRetryCount)  {
// 1551 #if defined ZPORT
// 1552         s_sdcmd->zlhdr_seqnum = ++s_lastSeqNum;
// 1553         {
// 1554             zahdrin_t *zain = zlBuildInternalInboundSerialMSG((uint8 *)s_sdcmd, sizeof(zlmhdr_t) + sizeof(zlsdC_t));
// 1555 
// 1556             if (zain)  {
// 1557                 zlSendSerial((uint8 *)zain, SIZEOF_ZAIN_HDR + sizeof(zlmhdr_t) + sizeof(zlsdC_t));
// 1558                 osal_mem_free(zain);
// 1559             }
// 1560         }
// 1561 #else
// 1562         // the static structure still contains the last packet number to be requested.
// 1563         // the only way the packet number gets bumped is if a reply is received.
// 1564         zlSendCommand(sizeof(zlmhdr_t) + sizeof(zlsdC_t), (uint8 *)s_sdcmd);
// 1565 #endif
// 1566 
// 1567         if (SUCCESS != osal_start_timerEx(oad_app_taskId, ZLOAD_SDRTIMER_EVT, SDR_WAIT_TO))
// 1568         {
// 1569           osal_set_event(oad_app_taskId, ZLOAD_SDRTIMER_EVT);
// 1570         }
// 1571     }
// 1572     else  {
// 1573         // too many retries. abandon session.
// 1574         osal_set_event(oad_app_taskId, ZLOAD_XFER_DONE_EVT);
// 1575     }
// 1576 
// 1577     return;
// 1578 }
// 1579 
// 1580 #if !defined ZPORT
// 1581 /**************************************************************************************
// 1582  * @fn      oadAppRegisterCB
// 1583  *
// 1584  * @brief   Register a callback to be referenced when OAD events occur.
// 1585  *
// 1586  * @param   input
// 1587  *            pCBFunction  pointer to void function with an unsigned short argument.
// 1588  *            eventMask    bit mask of events for which the callback should be invoked.
// 1589  *
// 1590  *    When the callback is invoked its argument will indicate via the bit mask argument
// 1591  *    which event occurred. A null pointer or a null bit mask will have the effect of
// 1592  *    deregistration.
// 1593  *
// 1594  * @return  none.
// 1595  */
// 1596 void oadAppRegisterCB(void (*pCBFunction)(uint16), uint16 eventMask)
// 1597 {
// 1598   s_pCallback = pCBFunction;
// 1599   s_eventMask = eventMask;
// 1600   return;
// 1601 }
// 1602 #endif
// 1603 
// 1604 /**************************************************************************************************
// 1605  * @fn          zlResetState
// 1606  *
// 1607  * @brief       This function frees any memory in use and resets the zl state info.
// 1608  *
// 1609  * input parameters
// 1610  *
// 1611  * None.
// 1612  *
// 1613  * output parameters
// 1614  *
// 1615  * None.
// 1616  *
// 1617  * @return      None.
// 1618  **************************************************************************************************
// 1619  */

        RSEG BANKED_CODE:CODE:NOROOT(0)
// 1620 static void zlResetState(void)
zlResetState:
        CFI Block cfiBlock155 Using cfiCommon0
        CFI Function zlResetState
        CODE
// 1621 {
        FUNCALL zlResetState, osal_stop_timerEx
        LOCFRAME ISTACK, 2, STACK
        LOCFRAME PSTACK, 0, STACK
        LOCFRAME XSTACK, 0, STACK
        LOCFRAME IOVERLAY, 0, STATIC
        LOCFRAME DOVERLAY, 0, STATIC
        ARGFRAME ISTACK, 2, STACK
        ARGFRAME PSTACK, 0, STACK
        ARGFRAME XSTACK, 0, STACK
        ARGFRAME IOVERLAY, 0, STATIC
        ARGFRAME DOVERLAY, 0, STATIC
        FUNCALL zlResetState, osal_mem_free
        LOCFRAME ISTACK, 2, STACK
        LOCFRAME PSTACK, 0, STACK
        LOCFRAME XSTACK, 0, STACK
        LOCFRAME IOVERLAY, 0, STATIC
        LOCFRAME DOVERLAY, 0, STATIC
        ARGFRAME ISTACK, 2, STACK
        ARGFRAME PSTACK, 0, STACK
        ARGFRAME XSTACK, 0, STACK
        ARGFRAME IOVERLAY, 0, STATIC
        ARGFRAME DOVERLAY, 0, STATIC
        FUNCALL zlResetState, osal_mem_free
        LOCFRAME ISTACK, 2, STACK
        LOCFRAME PSTACK, 0, STACK
        LOCFRAME XSTACK, 0, STACK
        LOCFRAME IOVERLAY, 0, STATIC
        LOCFRAME DOVERLAY, 0, STATIC
        ARGFRAME ISTACK, 2, STACK
        ARGFRAME PSTACK, 0, STACK
        ARGFRAME XSTACK, 0, STACK
        ARGFRAME IOVERLAY, 0, STATIC
        ARGFRAME DOVERLAY, 0, STATIC
        PUSH    DPL
        CFI DPL0 Frame(CFA_SP, 4)
        CFI CFA_SP SP+-4
        PUSH    DPH
        CFI DPH0 Frame(CFA_SP, 5)
        CFI CFA_SP SP+-5
        ; Saved register size: 2
        ; Auto size: 0
// 1622   osal_stop_timerEx(oad_app_taskId, ZLOAD_SDRTIMER_EVT);  // kill response timeout check
        ; Setup parameters for call to function osal_stop_timerEx
        MOV     R2,#0x10
        MOV     R3,#0x0
        MOV     DPTR,#oad_app_taskId
        MOVX    A,@DPTR
        MOV     R1,A
        LCALL   ??osal_stop_timerEx?relay
// 1623 
// 1624   if (s_sdreply)
        MOV     DPTR,#s_sdreply
        LCALL   ??Subroutine36_0 & 0xFFFF
??CrossCallReturnLabel_62:
        JZ      ??zlResetState_0
// 1625   {
// 1626     osal_mem_free(s_sdreply);
        ; Setup parameters for call to function osal_mem_free
        MOV     DPTR,#s_sdreply
        LCALL   ?Subroutine19 & 0xFFFF
// 1627     s_sdreply = NULL;
??CrossCallReturnLabel_25:
        MOV     DPTR,#s_sdreply
        CLR     A
        MOVX    @DPTR,A
        INC     DPTR
        MOVX    @DPTR,A
// 1628   }
// 1629 
// 1630   if (s_clientInfo)
??zlResetState_0:
        MOV     DPTR,#s_clientInfo
        LCALL   ??Subroutine36_0 & 0xFFFF
??CrossCallReturnLabel_63:
        JZ      ??zlResetState_1
// 1631   {
// 1632     osal_mem_free(s_clientInfo);
        ; Setup parameters for call to function osal_mem_free
        MOV     DPTR,#s_clientInfo
        LCALL   ?Subroutine19 & 0xFFFF
// 1633     s_clientInfo = NULL;
??CrossCallReturnLabel_26:
        MOV     DPTR,#s_clientInfo
        CLR     A
        MOVX    @DPTR,A
        INC     DPTR
        MOVX    @DPTR,A
// 1634   }
// 1635 
// 1636   s_State = ZLSTATE_IDLE;
??zlResetState_1:
        MOV     DPTR,#s_State
        MOV     A,#0x1
        LCALL   ?Subroutine9 & 0xFFFF
// 1637   s_NextPacket      = 0;
// 1638   s_NumPktGet       = 0;
??CrossCallReturnLabel_17:
        MOV     DPTR,#s_NumPktGet
        MOVX    @DPTR,A
        INC     DPTR
        MOVX    @DPTR,A
// 1639 }
        POP     DPH
        CFI DPH0 SameValue
        CFI CFA_SP SP+-4
        POP     DPL
        CFI DPL0 SameValue
        CFI CFA_SP SP+-3
        LJMP    ?BRET
        CFI EndBlock cfiBlock155

        RSEG BANKED_CODE:CODE:NOROOT(0)
?Subroutine19:
        CFI Block cfiCond156 Using cfiCommon0
        CFI NoFunction
        CFI Conditional ??CrossCallReturnLabel_25
        CFI DPL0 Frame(CFA_SP, 4)
        CFI DPH0 Frame(CFA_SP, 5)
        CFI CFA_SP SP+-5
        CFI Block cfiCond157 Using cfiCommon0
        CFI (cfiCond157) NoFunction
        CFI (cfiCond157) Conditional ??CrossCallReturnLabel_26
        CFI (cfiCond157) DPL0 Frame(CFA_SP, 4)
        CFI (cfiCond157) DPH0 Frame(CFA_SP, 5)
        CFI (cfiCond157) CFA_SP SP+-5
        CFI Block cfiPicker158 Using cfiCommon1
        CFI (cfiPicker158) NoFunction
        CFI (cfiPicker158) Picker
        MOVX    A,@DPTR
        MOV     R2,A
        INC     DPTR
        MOVX    A,@DPTR
        MOV     R3,A
        LCALL   ??osal_mem_free?relay
        RET
        CFI EndBlock cfiCond156
        CFI EndBlock cfiCond157
        CFI EndBlock cfiPicker158

        RSEG BANKED_CODE:CODE:NOROOT(0)
?Subroutine9:
        CFI Block cfiCond159 Using cfiCommon0
        CFI NoFunction
        CFI Conditional ??CrossCallReturnLabel_16
        CFI R6 load(1, XDATA, add(CFA_XSP16, literal(-15)))
        CFI VB load(1, XDATA, add(CFA_XSP16, literal(-14)))
        CFI V0 load(1, XDATA, add(CFA_XSP16, literal(-13)))
        CFI V1 load(1, XDATA, add(CFA_XSP16, literal(-12)))
        CFI V2 load(1, XDATA, add(CFA_XSP16, literal(-11)))
        CFI V3 load(1, XDATA, add(CFA_XSP16, literal(-10)))
        CFI V4 load(1, XDATA, add(CFA_XSP16, literal(-9)))
        CFI V5 load(1, XDATA, add(CFA_XSP16, literal(-8)))
        CFI V6 load(1, XDATA, add(CFA_XSP16, literal(-7)))
        CFI R7 load(1, XDATA, add(CFA_XSP16, literal(-6)))
        CFI ?RET_LOW load(1, XDATA, add(CFA_XSP16, literal(-5)))
        CFI ?RET_HIGH load(1, XDATA, add(CFA_XSP16, literal(-4)))
        CFI ?BRET_EXT load(1, XDATA, add(CFA_XSP16, literal(-3)))
        CFI DPL0 load(1, XDATA, add(CFA_XSP16, literal(-2)))
        CFI DPH0 load(1, XDATA, add(CFA_XSP16, literal(-1)))
        CFI CFA_SP SP+0
        CFI CFA_XSP16 add(XSP16, 23)
        CFI Block cfiCond160 Using cfiCommon0
        CFI (cfiCond160) NoFunction
        CFI (cfiCond160) Conditional ??CrossCallReturnLabel_17
        CFI (cfiCond160) DPL0 Frame(CFA_SP, 4)
        CFI (cfiCond160) DPH0 Frame(CFA_SP, 5)
        CFI (cfiCond160) CFA_SP SP+-5
        CFI Block cfiPicker161 Using cfiCommon1
        CFI (cfiPicker161) NoFunction
        CFI (cfiPicker161) Picker
        MOVX    @DPTR,A
        MOV     DPTR,#s_NextPacket
        CLR     A
        MOVX    @DPTR,A
        INC     DPTR
        MOVX    @DPTR,A
        RET
        CFI EndBlock cfiCond159
        CFI EndBlock cfiCond160
        CFI EndBlock cfiPicker161
// 1640 
// 1641 #if defined ZPORT
// 1642 /*********************************************************************
// 1643  * @fn      ZLOADApp_SerialMSGCB
// 1644  *
// 1645  * @brief   Message from Host application. It's a command, a reply,
// 1646  *          or a proxy command. Send it on appropriately
// 1647  *
// 1648  * @param   input
// 1649  *            inMsg  pointer to incoming message
// 1650  *
// 1651  * @return  none
// 1652  */

        RSEG BANKED_CODE:CODE:NOROOT(0)
// 1653 static void ZLOADApp_SerialMessageMSGCB(zahdrout_t *zaout)
ZLOADApp_SerialMessageMSGCB:
        CFI Block cfiBlock162 Using cfiCommon0
        CFI Function ZLOADApp_SerialMessageMSGCB
        CODE
// 1654 {
        FUNCALL ZLOADApp_SerialMessageMSGCB, ZLOADApp_handleReply
        LOCFRAME ISTACK, 0, STACK
        LOCFRAME PSTACK, 0, STACK
        LOCFRAME XSTACK, 24, STACK
        LOCFRAME IOVERLAY, 0, STATIC
        LOCFRAME DOVERLAY, 0, STATIC
        ARGFRAME ISTACK, 0, STACK
        ARGFRAME PSTACK, 0, STACK
        ARGFRAME XSTACK, 24, STACK
        ARGFRAME IOVERLAY, 0, STATIC
        ARGFRAME DOVERLAY, 0, STATIC
        FUNCALL ZLOADApp_SerialMessageMSGCB, ZLOADApp_handleCommand
        LOCFRAME ISTACK, 0, STACK
        LOCFRAME PSTACK, 0, STACK
        LOCFRAME XSTACK, 24, STACK
        LOCFRAME IOVERLAY, 0, STATIC
        LOCFRAME DOVERLAY, 0, STATIC
        ARGFRAME ISTACK, 0, STACK
        ARGFRAME PSTACK, 0, STACK
        ARGFRAME XSTACK, 24, STACK
        ARGFRAME IOVERLAY, 0, STATIC
        ARGFRAME DOVERLAY, 0, STATIC
        FUNCALL ZLOADApp_SerialMessageMSGCB, afFindEndPointDesc
        LOCFRAME ISTACK, 0, STACK
        LOCFRAME PSTACK, 0, STACK
        LOCFRAME XSTACK, 24, STACK
        LOCFRAME IOVERLAY, 0, STATIC
        LOCFRAME DOVERLAY, 0, STATIC
        ARGFRAME ISTACK, 0, STACK
        ARGFRAME PSTACK, 0, STACK
        ARGFRAME XSTACK, 24, STACK
        ARGFRAME IOVERLAY, 0, STATIC
        ARGFRAME DOVERLAY, 0, STATIC
        FUNCALL ZLOADApp_SerialMessageMSGCB, AF_DataRequest
        LOCFRAME ISTACK, 0, STACK
        LOCFRAME PSTACK, 0, STACK
        LOCFRAME XSTACK, 33, STACK
        LOCFRAME IOVERLAY, 0, STATIC
        LOCFRAME DOVERLAY, 0, STATIC
        ARGFRAME ISTACK, 0, STACK
        ARGFRAME PSTACK, 0, STACK
        ARGFRAME XSTACK, 33, STACK
        ARGFRAME IOVERLAY, 0, STATIC
        ARGFRAME DOVERLAY, 0, STATIC
        MOV     A,#-0xc
        LCALL   ?BANKED_ENTER_XDATA
        CFI DPH0 load(1, XDATA, add(CFA_XSP16, literal(-1)))
        CFI DPL0 load(1, XDATA, add(CFA_XSP16, literal(-2)))
        CFI ?BRET_EXT load(1, XDATA, add(CFA_XSP16, literal(-3)))
        CFI ?RET_HIGH load(1, XDATA, add(CFA_XSP16, literal(-4)))
        CFI ?RET_LOW load(1, XDATA, add(CFA_XSP16, literal(-5)))
        CFI R7 load(1, XDATA, add(CFA_XSP16, literal(-6)))
        CFI V3 load(1, XDATA, add(CFA_XSP16, literal(-7)))
        CFI V2 load(1, XDATA, add(CFA_XSP16, literal(-8)))
        CFI V1 load(1, XDATA, add(CFA_XSP16, literal(-9)))
        CFI V0 load(1, XDATA, add(CFA_XSP16, literal(-10)))
        CFI VB load(1, XDATA, add(CFA_XSP16, literal(-11)))
        CFI R6 load(1, XDATA, add(CFA_XSP16, literal(-12)))
        CFI CFA_SP SP+0
        CFI CFA_XSP16 add(XSP16, 12)
        ; Saved register size: 12
        ; Auto size: 12
        MOV     A,#-0xc
        LCALL   ?ALLOC_XSTACK8
        CFI CFA_XSP16 add(XSP16, 24)
        MOV     A,R2
        MOV     R6,A
        MOV     A,R3
        MOV     R7,A
// 1655     zlmhdr_t *zlhdr = (zlmhdr_t *)zaout->zaproxy_payload;
        MOV     A,R6
        ADD     A,#0x6
        MOV     ?V0 + 0,A
        MOV     A,R7
        ADDC    A,#0x0
        MOV     ?V0 + 1,A
        MOV     R4,?V0 + 0
        MOV     R5,A
// 1656 
// 1657     // is this for me?
// 1658     if (zaout->zaproxy_nwkAddr == s_myNwkAddr)  {
        MOV     DPL,R6
        MOV     DPH,R7
        LCALL   ??Subroutine37_0 & 0xFFFF
??CrossCallReturnLabel_67:
        MOV     DPTR,#s_myNwkAddr
        MOVX    A,@DPTR
        XRL     A,R0
        JNZ     ??ZLOADApp_SerialMessageMSGCB_0
        INC     DPTR
        MOVX    A,@DPTR
        XRL     A,R1
??ZLOADApp_SerialMessageMSGCB_0:
        JNZ     ??ZLOADApp_SerialMessageMSGCB_1
// 1659       // is this a reply?
// 1660       if (zlhdr->zlhdr_msgid & ZLMSGID_REPLY_BIT)  {
        MOV     DPL,R4
        MOV     DPH,R5
        MOVX    A,@DPTR
        MOV     C,0xE0 /* A   */.7
        MOV     R2,#0x0
        MOV     R3,#0x0
        JNC     ??ZLOADApp_SerialMessageMSGCB_2
// 1661           ZLOADApp_handleReply(NULL, zlhdr);
        ; Setup parameters for call to function ZLOADApp_handleReply
        LCALL   ??ZLOADApp_handleReply?relay
        LJMP    ??ZLOADApp_SerialMessageMSGCB_3 & 0xFFFF
// 1662       }
// 1663       else  {
// 1664           ZLOADApp_handleCommand(NULL, zlhdr);
??ZLOADApp_SerialMessageMSGCB_2:
        ; Setup parameters for call to function ZLOADApp_handleCommand
        LCALL   ??ZLOADApp_handleCommand?relay
        LJMP    ??ZLOADApp_SerialMessageMSGCB_3 & 0xFFFF
// 1665       }
// 1666     }
// 1667     else  {
// 1668         // it's a proxy command
// 1669         zlZArchitectProxyMsg(zaout);
??ZLOADApp_SerialMessageMSGCB_1:
        MOV     DPL,R6
        MOV     DPH,R7
        INC     DPTR
        INC     DPTR
        INC     DPTR
        INC     DPTR
        INC     DPTR
        INC     DPTR
        MOVX    A,@DPTR
        ADD     A,#-0x2
        JNZ     $+5
        LJMP    ??ZLOADApp_SerialMessageMSGCB_3 & 0xFFFF
        DEC     A
        JNZ     $+5
        LJMP    ??ZLOADApp_SerialMessageMSGCB_3 & 0xFFFF
        ADD     A,#-0x3
        JNZ     $+5
        LJMP    ??ZLOADApp_SerialMessageMSGCB_3 & 0xFFFF
        MOV     A,#0x8
        LCALL   ?XSTACK_DISP0_8
        MOV     A,#0x2
        MOVX    @DPTR,A
        MOV     A,R6
        ADD     A,#0x2
        MOV     R0,A
        MOV     A,R7
        ADDC    A,#0x0
        MOV     R1,A
        MOV     DPL,R0
        MOV     DPH,R1
        MOVX    A,@DPTR
        PUSH    A
        CFI CFA_SP SP+-1
        MOV     A,#0x9
        LCALL   ?XSTACK_DISP0_8
        POP     A
        CFI CFA_SP SP+0
        LCALL   ?Subroutine30 & 0xFFFF
// 1670     }
??CrossCallReturnLabel_48:
        LCALL   ?Subroutine20 & 0xFFFF
??CrossCallReturnLabel_30:
        MOV     DPL,?XSP + 0
        MOV     DPH,?XSP + 1
        MOV     A,R2
        MOVX    @DPTR,A
        INC     DPTR
        MOV     A,R3
        MOVX    @DPTR,A
        ; Setup parameters for call to function afFindEndPointDesc
        MOV     DPL,R0
        MOV     DPH,R1
        MOVX    A,@DPTR
        MOV     R1,A
        LCALL   ??afFindEndPointDesc?relay
        MOV     ?V0 + 2,R2
        MOV     ?V0 + 3,R3
        MOV     R4,?V0 + 2
        MOV     R5,?V0 + 3
        ; Setup parameters for call to function AF_DataRequest
        MOV     ?V0 + 2,#0x1e
        MOV     R0,#?V0 + 2
        LCALL   ?PUSH_XSTACK_I_ONE
        CFI CFA_XSP16 add(XSP16, 25)
        MOV     ?V0 + 2,#transId & 0xff
        MOV     ?V0 + 3,#(transId >> 8) & 0xff
        MOV     R0,#?V0 + 2
        LCALL   ?PUSH_XSTACK_I_TWO
        CFI CFA_XSP16 add(XSP16, 27)
        MOV     R0,#?V0 + 0
        LCALL   ?PUSH_XSTACK_I_TWO
        CFI CFA_XSP16 add(XSP16, 29)
        MOV     DPL,R6
        MOV     DPH,R7
        INC     DPTR
        INC     DPTR
        INC     DPTR
        INC     DPTR
        INC     DPTR
        MOVX    A,@DPTR
        MOV     ?V0 + 0,A
        MOV     ?V0 + 1,#0x0
        MOV     R0,#?V0 + 0
        LCALL   ?PUSH_XSTACK_I_TWO
        CFI CFA_XSP16 add(XSP16, 31)
        MOV     DPL,R6
        MOV     DPH,R7
        INC     DPTR
        INC     DPTR
        INC     DPTR
        LCALL   ?PUSH_XSTACK8_X_TWO
        CFI CFA_XSP16 add(XSP16, 33)
        MOV     R1,#0x0
        MOV     A,#0x9
        LCALL   ?XSTACK_DISP0_8
        MOV     R2,DPL
        MOV     R3,DPH
        LCALL   ??Subroutine42_0 & 0xFFFF
??CrossCallReturnLabel_87:
        LCALL   ?DEALLOC_XSTACK8
        CFI CFA_XSP16 add(XSP16, 24)
// 1671     return;
??ZLOADApp_SerialMessageMSGCB_3:
        MOV     A,#0xc
        LCALL   ?DEALLOC_XSTACK8
        CFI CFA_XSP16 add(XSP16, 12)
        MOV     R7,#0x4
        LJMP    ?BANKED_LEAVE_XDATA
        CFI EndBlock cfiBlock162
// 1672 }

        RSEG BANKED_CODE:CODE:NOROOT(0)
?Subroutine28:
        CFI Block cfiCond163 Using cfiCommon0
        CFI NoFunction
        CFI Conditional ??CrossCallReturnLabel_84
        CFI R6 load(1, XDATA, add(CFA_XSP16, literal(-16)))
        CFI VB load(1, XDATA, add(CFA_XSP16, literal(-15)))
        CFI V0 load(1, XDATA, add(CFA_XSP16, literal(-14)))
        CFI V1 load(1, XDATA, add(CFA_XSP16, literal(-13)))
        CFI V2 load(1, XDATA, add(CFA_XSP16, literal(-12)))
        CFI V3 load(1, XDATA, add(CFA_XSP16, literal(-11)))
        CFI V4 load(1, XDATA, add(CFA_XSP16, literal(-10)))
        CFI V5 load(1, XDATA, add(CFA_XSP16, literal(-9)))
        CFI V6 load(1, XDATA, add(CFA_XSP16, literal(-8)))
        CFI V7 load(1, XDATA, add(CFA_XSP16, literal(-7)))
        CFI R7 load(1, XDATA, add(CFA_XSP16, literal(-6)))
        CFI ?RET_LOW load(1, XDATA, add(CFA_XSP16, literal(-5)))
        CFI ?RET_HIGH load(1, XDATA, add(CFA_XSP16, literal(-4)))
        CFI ?BRET_EXT load(1, XDATA, add(CFA_XSP16, literal(-3)))
        CFI DPL0 load(1, XDATA, add(CFA_XSP16, literal(-2)))
        CFI DPH0 load(1, XDATA, add(CFA_XSP16, literal(-1)))
        CFI CFA_SP SP+0
        CFI CFA_XSP16 add(XSP16, 27)
        CFI Block cfiCond164 Using cfiCommon0
        CFI (cfiCond164) NoFunction
        CFI (cfiCond164) Conditional ??CrossCallReturnLabel_85
        CFI (cfiCond164) R6 load(1, XDATA, add(CFA_XSP16, literal(-16)))
        CFI (cfiCond164) VB load(1, XDATA, add(CFA_XSP16, literal(-15)))
        CFI (cfiCond164) V0 load(1, XDATA, add(CFA_XSP16, literal(-14)))
        CFI (cfiCond164) V1 load(1, XDATA, add(CFA_XSP16, literal(-13)))
        CFI (cfiCond164) V2 load(1, XDATA, add(CFA_XSP16, literal(-12)))
        CFI (cfiCond164) V3 load(1, XDATA, add(CFA_XSP16, literal(-11)))
        CFI (cfiCond164) V4 load(1, XDATA, add(CFA_XSP16, literal(-10)))
        CFI (cfiCond164) V5 load(1, XDATA, add(CFA_XSP16, literal(-9)))
        CFI (cfiCond164) V6 load(1, XDATA, add(CFA_XSP16, literal(-8)))
        CFI (cfiCond164) V7 load(1, XDATA, add(CFA_XSP16, literal(-7)))
        CFI (cfiCond164) R7 load(1, XDATA, add(CFA_XSP16, literal(-6)))
        CFI (cfiCond164) ?RET_LOW load(1, XDATA, add(CFA_XSP16, literal(-5)))
        CFI (cfiCond164) ?RET_HIGH load(1, XDATA, add(CFA_XSP16, literal(-4)))
        CFI (cfiCond164) ?BRET_EXT load(1, XDATA, add(CFA_XSP16, literal(-3)))
        CFI (cfiCond164) DPL0 load(1, XDATA, add(CFA_XSP16, literal(-2)))
        CFI (cfiCond164) DPH0 load(1, XDATA, add(CFA_XSP16, literal(-1)))
        CFI (cfiCond164) CFA_SP SP+0
        CFI (cfiCond164) CFA_XSP16 add(XSP16, 27)
        CFI Block cfiPicker165 Using cfiCommon1
        CFI (cfiPicker165) NoFunction
        CFI (cfiPicker165) Picker
        MOV     R1,#0x0
        MOV     R2,#(s_PTClientInfo + 6) & 0xff
        MOV     R3,#((s_PTClientInfo + 6) >> 8) & 0xff
        CFI EndBlock cfiCond163
        CFI EndBlock cfiCond164
        CFI EndBlock cfiPicker165
        REQUIRE ??Subroutine42_0
        ; // Fall through to label ??Subroutine42_0

        RSEG BANKED_CODE:CODE:NOROOT(0)
??Subroutine42_0:
        CFI Block cfiCond166 Using cfiCommon0
        CFI NoFunction
        CFI Conditional ??CrossCallReturnLabel_86
        CFI R6 load(1, XDATA, add(CFA_XSP16, literal(-24)))
        CFI VB load(1, XDATA, add(CFA_XSP16, literal(-23)))
        CFI V0 load(1, XDATA, add(CFA_XSP16, literal(-22)))
        CFI V1 load(1, XDATA, add(CFA_XSP16, literal(-21)))
        CFI V2 load(1, XDATA, add(CFA_XSP16, literal(-20)))
        CFI V3 load(1, XDATA, add(CFA_XSP16, literal(-19)))
        CFI V4 load(1, XDATA, add(CFA_XSP16, literal(-18)))
        CFI V5 load(1, XDATA, add(CFA_XSP16, literal(-17)))
        CFI V6 load(1, XDATA, add(CFA_XSP16, literal(-16)))
        CFI V7 load(1, XDATA, add(CFA_XSP16, literal(-15)))
        CFI V8 load(1, XDATA, add(CFA_XSP16, literal(-14)))
        CFI V9 load(1, XDATA, add(CFA_XSP16, literal(-13)))
        CFI V10 load(1, XDATA, add(CFA_XSP16, literal(-12)))
        CFI V11 load(1, XDATA, add(CFA_XSP16, literal(-11)))
        CFI V12 load(1, XDATA, add(CFA_XSP16, literal(-10)))
        CFI V13 load(1, XDATA, add(CFA_XSP16, literal(-9)))
        CFI V14 load(1, XDATA, add(CFA_XSP16, literal(-8)))
        CFI V15 load(1, XDATA, add(CFA_XSP16, literal(-7)))
        CFI R7 load(1, XDATA, add(CFA_XSP16, literal(-6)))
        CFI ?RET_LOW load(1, XDATA, add(CFA_XSP16, literal(-5)))
        CFI ?RET_HIGH load(1, XDATA, add(CFA_XSP16, literal(-4)))
        CFI ?BRET_EXT load(1, XDATA, add(CFA_XSP16, literal(-3)))
        CFI DPL0 load(1, XDATA, add(CFA_XSP16, literal(-2)))
        CFI DPH0 load(1, XDATA, add(CFA_XSP16, literal(-1)))
        CFI CFA_SP SP+0
        CFI CFA_XSP16 add(XSP16, 46)
        CFI Block cfiCond167 Using cfiCommon0
        CFI (cfiCond167) NoFunction
        CFI (cfiCond167) Conditional ??CrossCallReturnLabel_87
        CFI (cfiCond167) R6 load(1, XDATA, add(CFA_XSP16, literal(-12)))
        CFI (cfiCond167) VB load(1, XDATA, add(CFA_XSP16, literal(-11)))
        CFI (cfiCond167) V0 load(1, XDATA, add(CFA_XSP16, literal(-10)))
        CFI (cfiCond167) V1 load(1, XDATA, add(CFA_XSP16, literal(-9)))
        CFI (cfiCond167) V2 load(1, XDATA, add(CFA_XSP16, literal(-8)))
        CFI (cfiCond167) V3 load(1, XDATA, add(CFA_XSP16, literal(-7)))
        CFI (cfiCond167) R7 load(1, XDATA, add(CFA_XSP16, literal(-6)))
        CFI (cfiCond167) ?RET_LOW load(1, XDATA, add(CFA_XSP16, literal(-5)))
        CFI (cfiCond167) ?RET_HIGH load(1, XDATA, add(CFA_XSP16, literal(-4)))
        CFI (cfiCond167) ?BRET_EXT load(1, XDATA, add(CFA_XSP16, literal(-3)))
        CFI (cfiCond167) DPL0 load(1, XDATA, add(CFA_XSP16, literal(-2)))
        CFI (cfiCond167) DPH0 load(1, XDATA, add(CFA_XSP16, literal(-1)))
        CFI (cfiCond167) CFA_SP SP+0
        CFI (cfiCond167) CFA_XSP16 add(XSP16, 33)
        CFI Block cfiCond168 Using cfiCommon0
        CFI (cfiCond168) NoFunction
        CFI (cfiCond168) Conditional ??CrossCallReturnLabel_84
        CFI (cfiCond168) R6 load(1, XDATA, add(CFA_XSP16, literal(-16)))
        CFI (cfiCond168) VB load(1, XDATA, add(CFA_XSP16, literal(-15)))
        CFI (cfiCond168) V0 load(1, XDATA, add(CFA_XSP16, literal(-14)))
        CFI (cfiCond168) V1 load(1, XDATA, add(CFA_XSP16, literal(-13)))
        CFI (cfiCond168) V2 load(1, XDATA, add(CFA_XSP16, literal(-12)))
        CFI (cfiCond168) V3 load(1, XDATA, add(CFA_XSP16, literal(-11)))
        CFI (cfiCond168) V4 load(1, XDATA, add(CFA_XSP16, literal(-10)))
        CFI (cfiCond168) V5 load(1, XDATA, add(CFA_XSP16, literal(-9)))
        CFI (cfiCond168) V6 load(1, XDATA, add(CFA_XSP16, literal(-8)))
        CFI (cfiCond168) V7 load(1, XDATA, add(CFA_XSP16, literal(-7)))
        CFI (cfiCond168) R7 load(1, XDATA, add(CFA_XSP16, literal(-6)))
        CFI (cfiCond168) ?RET_LOW load(1, XDATA, add(CFA_XSP16, literal(-5)))
        CFI (cfiCond168) ?RET_HIGH load(1, XDATA, add(CFA_XSP16, literal(-4)))
        CFI (cfiCond168) ?BRET_EXT load(1, XDATA, add(CFA_XSP16, literal(-3)))
        CFI (cfiCond168) DPL0 load(1, XDATA, add(CFA_XSP16, literal(-2)))
        CFI (cfiCond168) DPH0 load(1, XDATA, add(CFA_XSP16, literal(-1)))
        CFI (cfiCond168) CFA_SP SP+0
        CFI (cfiCond168) CFA_XSP16 add(XSP16, 27)
        CFI Block cfiCond169 Using cfiCommon0
        CFI (cfiCond169) NoFunction
        CFI (cfiCond169) Conditional ??CrossCallReturnLabel_85
        CFI (cfiCond169) R6 load(1, XDATA, add(CFA_XSP16, literal(-16)))
        CFI (cfiCond169) VB load(1, XDATA, add(CFA_XSP16, literal(-15)))
        CFI (cfiCond169) V0 load(1, XDATA, add(CFA_XSP16, literal(-14)))
        CFI (cfiCond169) V1 load(1, XDATA, add(CFA_XSP16, literal(-13)))
        CFI (cfiCond169) V2 load(1, XDATA, add(CFA_XSP16, literal(-12)))
        CFI (cfiCond169) V3 load(1, XDATA, add(CFA_XSP16, literal(-11)))
        CFI (cfiCond169) V4 load(1, XDATA, add(CFA_XSP16, literal(-10)))
        CFI (cfiCond169) V5 load(1, XDATA, add(CFA_XSP16, literal(-9)))
        CFI (cfiCond169) V6 load(1, XDATA, add(CFA_XSP16, literal(-8)))
        CFI (cfiCond169) V7 load(1, XDATA, add(CFA_XSP16, literal(-7)))
        CFI (cfiCond169) R7 load(1, XDATA, add(CFA_XSP16, literal(-6)))
        CFI (cfiCond169) ?RET_LOW load(1, XDATA, add(CFA_XSP16, literal(-5)))
        CFI (cfiCond169) ?RET_HIGH load(1, XDATA, add(CFA_XSP16, literal(-4)))
        CFI (cfiCond169) ?BRET_EXT load(1, XDATA, add(CFA_XSP16, literal(-3)))
        CFI (cfiCond169) DPL0 load(1, XDATA, add(CFA_XSP16, literal(-2)))
        CFI (cfiCond169) DPH0 load(1, XDATA, add(CFA_XSP16, literal(-1)))
        CFI (cfiCond169) CFA_SP SP+0
        CFI (cfiCond169) CFA_XSP16 add(XSP16, 27)
        CFI Block cfiPicker170 Using cfiCommon1
        CFI (cfiPicker170) NoFunction
        CFI (cfiPicker170) Picker
        LCALL   ??AF_DataRequest?relay
        MOV     A,#0x9
        RET
        CFI EndBlock cfiCond166
        CFI EndBlock cfiCond167
        CFI EndBlock cfiCond168
        CFI EndBlock cfiCond169
        CFI EndBlock cfiPicker170
// 1673 
// 1674 /*********************************************************************
// 1675  * @fn      zlSendSerial
// 1676  *
// 1677  * @brief   Prepare message outgoing over serial port.
// 1678  *          malloc and copy to add serial encapsulation.
// 1679  *
// 1680  * @param   input
// 1681  *            buf  pointer to ougoing message buffer
// 1682  *            len  length of message
// 1683  *
// 1684  * @return  none
// 1685  */

        RSEG BANKED_CODE:CODE:NOROOT(0)
// 1686 static void zlSendSerial(uint8 *buf, uint8 len)
zlSendSerial:
        CFI Block cfiBlock171 Using cfiCommon0
        CFI Function zlSendSerial
        CODE
// 1687 {
        FUNCALL zlSendSerial, osal_mem_alloc
        LOCFRAME ISTACK, 0, STACK
        LOCFRAME PSTACK, 0, STACK
        LOCFRAME XSTACK, 13, STACK
        LOCFRAME IOVERLAY, 0, STATIC
        LOCFRAME DOVERLAY, 0, STATIC
        ARGFRAME ISTACK, 0, STACK
        ARGFRAME PSTACK, 0, STACK
        ARGFRAME XSTACK, 13, STACK
        ARGFRAME IOVERLAY, 0, STATIC
        ARGFRAME DOVERLAY, 0, STATIC
        FUNCALL zlSendSerial, osal_memcpy
        LOCFRAME ISTACK, 0, STACK
        LOCFRAME PSTACK, 0, STACK
        LOCFRAME XSTACK, 16, STACK
        LOCFRAME IOVERLAY, 0, STATIC
        LOCFRAME DOVERLAY, 0, STATIC
        ARGFRAME ISTACK, 0, STACK
        ARGFRAME PSTACK, 0, STACK
        ARGFRAME XSTACK, 16, STACK
        ARGFRAME IOVERLAY, 0, STATIC
        ARGFRAME DOVERLAY, 0, STATIC
        FUNCALL zlSendSerial, MTProcessAppRspMsg
        LOCFRAME ISTACK, 0, STACK
        LOCFRAME PSTACK, 0, STACK
        LOCFRAME XSTACK, 13, STACK
        LOCFRAME IOVERLAY, 0, STATIC
        LOCFRAME DOVERLAY, 0, STATIC
        ARGFRAME ISTACK, 0, STACK
        ARGFRAME PSTACK, 0, STACK
        ARGFRAME XSTACK, 13, STACK
        ARGFRAME IOVERLAY, 0, STATIC
        ARGFRAME DOVERLAY, 0, STATIC
        FUNCALL zlSendSerial, osal_mem_free
        LOCFRAME ISTACK, 0, STACK
        LOCFRAME PSTACK, 0, STACK
        LOCFRAME XSTACK, 13, STACK
        LOCFRAME IOVERLAY, 0, STATIC
        LOCFRAME DOVERLAY, 0, STATIC
        ARGFRAME ISTACK, 0, STACK
        ARGFRAME PSTACK, 0, STACK
        ARGFRAME XSTACK, 13, STACK
        ARGFRAME IOVERLAY, 0, STATIC
        ARGFRAME DOVERLAY, 0, STATIC
        MOV     A,#-0xd
        LCALL   ?BANKED_ENTER_XDATA
        CFI DPH0 load(1, XDATA, add(CFA_XSP16, literal(-1)))
        CFI DPL0 load(1, XDATA, add(CFA_XSP16, literal(-2)))
        CFI ?BRET_EXT load(1, XDATA, add(CFA_XSP16, literal(-3)))
        CFI ?RET_HIGH load(1, XDATA, add(CFA_XSP16, literal(-4)))
        CFI ?RET_LOW load(1, XDATA, add(CFA_XSP16, literal(-5)))
        CFI R7 load(1, XDATA, add(CFA_XSP16, literal(-6)))
        CFI V4 load(1, XDATA, add(CFA_XSP16, literal(-7)))
        CFI V3 load(1, XDATA, add(CFA_XSP16, literal(-8)))
        CFI V2 load(1, XDATA, add(CFA_XSP16, literal(-9)))
        CFI V1 load(1, XDATA, add(CFA_XSP16, literal(-10)))
        CFI V0 load(1, XDATA, add(CFA_XSP16, literal(-11)))
        CFI VB load(1, XDATA, add(CFA_XSP16, literal(-12)))
        CFI R6 load(1, XDATA, add(CFA_XSP16, literal(-13)))
        CFI CFA_SP SP+0
        CFI CFA_XSP16 add(XSP16, 13)
        ; Saved register size: 13
        ; Auto size: 0
        MOV     ?V0 + 0,R2
        MOV     ?V0 + 1,R3
        MOV     ?V0 + 4,R1
// 1688     uint8 *nbuf;
// 1689 
// 1690     if ((nbuf=osal_mem_alloc(len+1)))  {
        ; Setup parameters for call to function osal_mem_alloc
        MOV     A,R1
        ADD     A,#0x1
        MOV     R2,A
        CLR     A
        ADDC    A,#0x0
        MOV     R3,A
        LCALL   ??osal_mem_alloc?relay
        MOV     ?V0 + 2,R2
        MOV     ?V0 + 3,R3
        MOV     R6,?V0 + 2
        MOV     R7,?V0 + 3
        MOV     A,R6
        ORL     A,R7
        JZ      ??zlSendSerial_0
// 1691         osal_memcpy(nbuf+1, buf, len);
        ; Setup parameters for call to function osal_memcpy
        MOV     ?V0 + 2,#0x0
        MOV     R0,#?V0 + 0
        LCALL   ?PUSH_XSTACK_I_THREE
        CFI CFA_XSP16 add(XSP16, 16)
        MOV     ?V0 + 0,?V0 + 4
        MOV     R4,?V0 + 0
        MOV     R5,#0x0
        MOV     DPL,R6
        MOV     DPH,R7
        INC     DPTR
        MOV     R2,DPL
        MOV     R3,DPH
        LCALL   ??Subroutine44_0 & 0xFFFF
??CrossCallReturnLabel_99:
        LCALL   ?DEALLOC_XSTACK8
        CFI CFA_XSP16 add(XSP16, 13)
// 1692         *nbuf = OAD_ENDPOINT;
        MOV     DPL,R6
        MOV     DPH,R7
        MOV     A,#-0x38
        MOVX    @DPTR,A
// 1693 #if !defined(ZTOOL_SUPPORT)
// 1694         MTProcessAppRspMsg(nbuf, len + 1);
        ; Setup parameters for call to function MTProcessAppRspMsg
        MOV     A,#0x1
        ADD     A,?V0 + 4
        MOV     R1,A
        MOV     A,R6
        MOV     R2,A
        MOV     A,R7
        MOV     R3,A
        LCALL   ??MTProcessAppRspMsg?relay
// 1695 #else
// 1696         // ZTool expects an 81 byte message
// 1697         MTProcessAppRspMsg(nbuf, 81);
// 1698 #endif
// 1699         osal_mem_free(nbuf);
        ; Setup parameters for call to function osal_mem_free
        MOV     A,R6
        MOV     R2,A
        MOV     A,R7
        MOV     R3,A
        LCALL   ??osal_mem_free?relay
// 1700     }
// 1701     return;
??zlSendSerial_0:
        MOV     R7,#0x5
        LJMP    ?BANKED_LEAVE_XDATA
        CFI EndBlock cfiBlock171
// 1702 }
// 1703 
// 1704 /****************************************************************************
// 1705  * @fn      zlZArchitectProxyCommand
// 1706  *
// 1707  * @brief   Send command to target device on behalf of ZArchitect Host App
// 1708  *
// 1709  * @param   input
// 1710  *            info  pointer to ZArchitect proxy message
// 1711  *
// 1712  * @return  none
// 1713  */
// 1714 static void zlZArchitectProxyMsg(zahdrout_t *info)
// 1715 {
// 1716     afAddrType_t taddr;
// 1717     zlmhdr_t     *zlhdr = (zlmhdr_t *)info->zaproxy_payload;
// 1718 
// 1719     // only certain outgoing messages are valid proxy commands
// 1720     switch (zlhdr->zlhdr_msgid)  {
// 1721         case ZLMSGID_SESSION_START:
// 1722         case ZLMSGID_SESSION_TERM:
// 1723         case ZLMSGID_SEND_DATA:
// 1724             return;
// 1725     }
// 1726 
// 1727     // fill in address info
// 1728     taddr.addrMode       = afAddr16Bit;
// 1729     taddr.endPoint       = info->zaproxy_endp;
// 1730     taddr.addr.shortAddr = info->zaproxy_nwkAddr;
// 1731 
// 1732     AF_DataRequest( &taddr,
// 1733                      afFindEndPointDesc( info->zaproxy_endp ),
// 1734                      info->zaproxy_ClusterID,
// 1735                      info->zaproxy_msglen, info->zaproxy_payload,
// 1736                     &transId,
// 1737                      AF_TX_OPTIONS_NONE, DEF_NWK_RADIUS );
// 1738 }
// 1739 
// 1740 // start a session with the host on behalf of the client from which
// 1741 // the start session was received. do this by sending self a client
// 1742 // command using the start session parameters. ZLOAD will think it
// 1743 // is a client message coming from the host asking it to come get
// 1744 // the image being requested by the real client.
// 1745 static uint8 zlPassOnStartSessionOK(uint8 *msg)
// 1746 {
// 1747     zahdrin_t *zamsgin;
// 1748 
// 1749     // forward the Begin Session command
// 1750     zamsgin = zlBuildExternalInboundSerialMSG(&s_PTClientInfo, msg, sizeof(zlmhdr_t) + sizeof(zlbegsessC_t));
// 1751 
// 1752     if (!zamsgin)  {
// 1753       return 0;
// 1754     }
// 1755 
// 1756     zlSendSerial((uint8 *)zamsgin, SIZEOF_ZAIN_HDR + sizeof(zlmhdr_t) + sizeof(zlbegsessC_t));
// 1757 
// 1758     osal_mem_free(zamsgin);
// 1759 
// 1760     return 1;
// 1761 }
// 1762 
// 1763 // inbound messages can be built from address information gleaned from the client
// 1764 // during a pass-through session setup. but there can also be inbound messages
// 1765 // such as status replies that are not part of any ongoing client session. in this
// 1766 // case the address information comes from the AF message. in either case this
// 1767 // information is requried to populate the header for for the host.

        RSEG BANKED_CODE:CODE:NOROOT(0)
?Subroutine25:
        CFI Block cfiCond172 Using cfiCommon0
        CFI NoFunction
        CFI Conditional ??CrossCallReturnLabel_88
        CFI R6 load(1, XDATA, add(CFA_XSP16, literal(-19)))
        CFI VB load(1, XDATA, add(CFA_XSP16, literal(-18)))
        CFI V0 load(1, XDATA, add(CFA_XSP16, literal(-17)))
        CFI V1 load(1, XDATA, add(CFA_XSP16, literal(-16)))
        CFI V2 load(1, XDATA, add(CFA_XSP16, literal(-15)))
        CFI V3 load(1, XDATA, add(CFA_XSP16, literal(-14)))
        CFI V4 load(1, XDATA, add(CFA_XSP16, literal(-13)))
        CFI V5 load(1, XDATA, add(CFA_XSP16, literal(-12)))
        CFI V6 load(1, XDATA, add(CFA_XSP16, literal(-11)))
        CFI V7 load(1, XDATA, add(CFA_XSP16, literal(-10)))
        CFI V8 load(1, XDATA, add(CFA_XSP16, literal(-9)))
        CFI V9 load(1, XDATA, add(CFA_XSP16, literal(-8)))
        CFI V10 load(1, XDATA, add(CFA_XSP16, literal(-7)))
        CFI R7 load(1, XDATA, add(CFA_XSP16, literal(-6)))
        CFI ?RET_LOW load(1, XDATA, add(CFA_XSP16, literal(-5)))
        CFI ?RET_HIGH load(1, XDATA, add(CFA_XSP16, literal(-4)))
        CFI ?BRET_EXT load(1, XDATA, add(CFA_XSP16, literal(-3)))
        CFI DPL0 load(1, XDATA, add(CFA_XSP16, literal(-2)))
        CFI DPH0 load(1, XDATA, add(CFA_XSP16, literal(-1)))
        CFI CFA_SP SP+0
        CFI CFA_XSP16 add(XSP16, 22)
        CFI Block cfiCond173 Using cfiCommon0
        CFI (cfiCond173) NoFunction
        CFI (cfiCond173) Conditional ??CrossCallReturnLabel_89
        CFI (cfiCond173) R6 load(1, XDATA, add(CFA_XSP16, literal(-16)))
        CFI (cfiCond173) VB load(1, XDATA, add(CFA_XSP16, literal(-15)))
        CFI (cfiCond173) V0 load(1, XDATA, add(CFA_XSP16, literal(-14)))
        CFI (cfiCond173) V1 load(1, XDATA, add(CFA_XSP16, literal(-13)))
        CFI (cfiCond173) V2 load(1, XDATA, add(CFA_XSP16, literal(-12)))
        CFI (cfiCond173) V3 load(1, XDATA, add(CFA_XSP16, literal(-11)))
        CFI (cfiCond173) V4 load(1, XDATA, add(CFA_XSP16, literal(-10)))
        CFI (cfiCond173) V5 load(1, XDATA, add(CFA_XSP16, literal(-9)))
        CFI (cfiCond173) V6 load(1, XDATA, add(CFA_XSP16, literal(-8)))
        CFI (cfiCond173) V7 load(1, XDATA, add(CFA_XSP16, literal(-7)))
        CFI (cfiCond173) R7 load(1, XDATA, add(CFA_XSP16, literal(-6)))
        CFI (cfiCond173) ?RET_LOW load(1, XDATA, add(CFA_XSP16, literal(-5)))
        CFI (cfiCond173) ?RET_HIGH load(1, XDATA, add(CFA_XSP16, literal(-4)))
        CFI (cfiCond173) ?BRET_EXT load(1, XDATA, add(CFA_XSP16, literal(-3)))
        CFI (cfiCond173) DPL0 load(1, XDATA, add(CFA_XSP16, literal(-2)))
        CFI (cfiCond173) DPH0 load(1, XDATA, add(CFA_XSP16, literal(-1)))
        CFI (cfiCond173) CFA_SP SP+0
        CFI (cfiCond173) CFA_XSP16 add(XSP16, 19)
        CFI Block cfiPicker174 Using cfiCommon1
        CFI (cfiPicker174) NoFunction
        CFI (cfiPicker174) Picker
        MOV     R5,#0x0
        MOV     A,R2
        ADD     A,#0x6
        MOV     R2,A
        MOV     A,R3
        CFI EndBlock cfiCond172
        CFI EndBlock cfiCond173
        CFI EndBlock cfiPicker174
        REQUIRE ??Subroutine43_0
        ; // Fall through to label ??Subroutine43_0

        RSEG BANKED_CODE:CODE:NOROOT(0)
??Subroutine43_0:
        CFI Block cfiCond175 Using cfiCommon0
        CFI NoFunction
        CFI Conditional ??CrossCallReturnLabel_90
        CFI R6 load(1, XDATA, add(CFA_XSP16, literal(-24)))
        CFI VB load(1, XDATA, add(CFA_XSP16, literal(-23)))
        CFI V0 load(1, XDATA, add(CFA_XSP16, literal(-22)))
        CFI V1 load(1, XDATA, add(CFA_XSP16, literal(-21)))
        CFI V2 load(1, XDATA, add(CFA_XSP16, literal(-20)))
        CFI V3 load(1, XDATA, add(CFA_XSP16, literal(-19)))
        CFI V4 load(1, XDATA, add(CFA_XSP16, literal(-18)))
        CFI V5 load(1, XDATA, add(CFA_XSP16, literal(-17)))
        CFI V6 load(1, XDATA, add(CFA_XSP16, literal(-16)))
        CFI V7 load(1, XDATA, add(CFA_XSP16, literal(-15)))
        CFI V8 load(1, XDATA, add(CFA_XSP16, literal(-14)))
        CFI V9 load(1, XDATA, add(CFA_XSP16, literal(-13)))
        CFI V10 load(1, XDATA, add(CFA_XSP16, literal(-12)))
        CFI V11 load(1, XDATA, add(CFA_XSP16, literal(-11)))
        CFI V12 load(1, XDATA, add(CFA_XSP16, literal(-10)))
        CFI V13 load(1, XDATA, add(CFA_XSP16, literal(-9)))
        CFI V14 load(1, XDATA, add(CFA_XSP16, literal(-8)))
        CFI V15 load(1, XDATA, add(CFA_XSP16, literal(-7)))
        CFI R7 load(1, XDATA, add(CFA_XSP16, literal(-6)))
        CFI ?RET_LOW load(1, XDATA, add(CFA_XSP16, literal(-5)))
        CFI ?RET_HIGH load(1, XDATA, add(CFA_XSP16, literal(-4)))
        CFI ?BRET_EXT load(1, XDATA, add(CFA_XSP16, literal(-3)))
        CFI DPL0 load(1, XDATA, add(CFA_XSP16, literal(-2)))
        CFI DPH0 load(1, XDATA, add(CFA_XSP16, literal(-1)))
        CFI CFA_SP SP+0
        CFI CFA_XSP16 add(XSP16, 40)
        CFI Block cfiCond176 Using cfiCommon0
        CFI (cfiCond176) NoFunction
        CFI (cfiCond176) Conditional ??CrossCallReturnLabel_91
        CFI (cfiCond176) R6 load(1, XDATA, add(CFA_XSP16, literal(-15)))
        CFI (cfiCond176) VB load(1, XDATA, add(CFA_XSP16, literal(-14)))
        CFI (cfiCond176) V0 load(1, XDATA, add(CFA_XSP16, literal(-13)))
        CFI (cfiCond176) V1 load(1, XDATA, add(CFA_XSP16, literal(-12)))
        CFI (cfiCond176) V2 load(1, XDATA, add(CFA_XSP16, literal(-11)))
        CFI (cfiCond176) V3 load(1, XDATA, add(CFA_XSP16, literal(-10)))
        CFI (cfiCond176) V4 load(1, XDATA, add(CFA_XSP16, literal(-9)))
        CFI (cfiCond176) V5 load(1, XDATA, add(CFA_XSP16, literal(-8)))
        CFI (cfiCond176) V6 load(1, XDATA, add(CFA_XSP16, literal(-7)))
        CFI (cfiCond176) R7 load(1, XDATA, add(CFA_XSP16, literal(-6)))
        CFI (cfiCond176) ?RET_LOW load(1, XDATA, add(CFA_XSP16, literal(-5)))
        CFI (cfiCond176) ?RET_HIGH load(1, XDATA, add(CFA_XSP16, literal(-4)))
        CFI (cfiCond176) ?BRET_EXT load(1, XDATA, add(CFA_XSP16, literal(-3)))
        CFI (cfiCond176) DPL0 load(1, XDATA, add(CFA_XSP16, literal(-2)))
        CFI (cfiCond176) DPH0 load(1, XDATA, add(CFA_XSP16, literal(-1)))
        CFI (cfiCond176) CFA_SP SP+0
        CFI (cfiCond176) CFA_XSP16 add(XSP16, 26)
        CFI Block cfiCond177 Using cfiCommon0
        CFI (cfiCond177) NoFunction
        CFI (cfiCond177) Conditional ??CrossCallReturnLabel_92
        CFI (cfiCond177) R6 load(1, XDATA, add(CFA_XSP16, literal(-15)))
        CFI (cfiCond177) VB load(1, XDATA, add(CFA_XSP16, literal(-14)))
        CFI (cfiCond177) V0 load(1, XDATA, add(CFA_XSP16, literal(-13)))
        CFI (cfiCond177) V1 load(1, XDATA, add(CFA_XSP16, literal(-12)))
        CFI (cfiCond177) V2 load(1, XDATA, add(CFA_XSP16, literal(-11)))
        CFI (cfiCond177) V3 load(1, XDATA, add(CFA_XSP16, literal(-10)))
        CFI (cfiCond177) V4 load(1, XDATA, add(CFA_XSP16, literal(-9)))
        CFI (cfiCond177) V5 load(1, XDATA, add(CFA_XSP16, literal(-8)))
        CFI (cfiCond177) V6 load(1, XDATA, add(CFA_XSP16, literal(-7)))
        CFI (cfiCond177) R7 load(1, XDATA, add(CFA_XSP16, literal(-6)))
        CFI (cfiCond177) ?RET_LOW load(1, XDATA, add(CFA_XSP16, literal(-5)))
        CFI (cfiCond177) ?RET_HIGH load(1, XDATA, add(CFA_XSP16, literal(-4)))
        CFI (cfiCond177) ?BRET_EXT load(1, XDATA, add(CFA_XSP16, literal(-3)))
        CFI (cfiCond177) DPL0 load(1, XDATA, add(CFA_XSP16, literal(-2)))
        CFI (cfiCond177) DPH0 load(1, XDATA, add(CFA_XSP16, literal(-1)))
        CFI (cfiCond177) CFA_SP SP+0
        CFI (cfiCond177) CFA_XSP16 add(XSP16, 26)
        CFI Block cfiCond178 Using cfiCommon0
        CFI (cfiCond178) NoFunction
        CFI (cfiCond178) Conditional ??CrossCallReturnLabel_88
        CFI (cfiCond178) R6 load(1, XDATA, add(CFA_XSP16, literal(-19)))
        CFI (cfiCond178) VB load(1, XDATA, add(CFA_XSP16, literal(-18)))
        CFI (cfiCond178) V0 load(1, XDATA, add(CFA_XSP16, literal(-17)))
        CFI (cfiCond178) V1 load(1, XDATA, add(CFA_XSP16, literal(-16)))
        CFI (cfiCond178) V2 load(1, XDATA, add(CFA_XSP16, literal(-15)))
        CFI (cfiCond178) V3 load(1, XDATA, add(CFA_XSP16, literal(-14)))
        CFI (cfiCond178) V4 load(1, XDATA, add(CFA_XSP16, literal(-13)))
        CFI (cfiCond178) V5 load(1, XDATA, add(CFA_XSP16, literal(-12)))
        CFI (cfiCond178) V6 load(1, XDATA, add(CFA_XSP16, literal(-11)))
        CFI (cfiCond178) V7 load(1, XDATA, add(CFA_XSP16, literal(-10)))
        CFI (cfiCond178) V8 load(1, XDATA, add(CFA_XSP16, literal(-9)))
        CFI (cfiCond178) V9 load(1, XDATA, add(CFA_XSP16, literal(-8)))
        CFI (cfiCond178) V10 load(1, XDATA, add(CFA_XSP16, literal(-7)))
        CFI (cfiCond178) R7 load(1, XDATA, add(CFA_XSP16, literal(-6)))
        CFI (cfiCond178) ?RET_LOW load(1, XDATA, add(CFA_XSP16, literal(-5)))
        CFI (cfiCond178) ?RET_HIGH load(1, XDATA, add(CFA_XSP16, literal(-4)))
        CFI (cfiCond178) ?BRET_EXT load(1, XDATA, add(CFA_XSP16, literal(-3)))
        CFI (cfiCond178) DPL0 load(1, XDATA, add(CFA_XSP16, literal(-2)))
        CFI (cfiCond178) DPH0 load(1, XDATA, add(CFA_XSP16, literal(-1)))
        CFI (cfiCond178) CFA_SP SP+0
        CFI (cfiCond178) CFA_XSP16 add(XSP16, 22)
        CFI Block cfiCond179 Using cfiCommon0
        CFI (cfiCond179) NoFunction
        CFI (cfiCond179) Conditional ??CrossCallReturnLabel_89
        CFI (cfiCond179) R6 load(1, XDATA, add(CFA_XSP16, literal(-16)))
        CFI (cfiCond179) VB load(1, XDATA, add(CFA_XSP16, literal(-15)))
        CFI (cfiCond179) V0 load(1, XDATA, add(CFA_XSP16, literal(-14)))
        CFI (cfiCond179) V1 load(1, XDATA, add(CFA_XSP16, literal(-13)))
        CFI (cfiCond179) V2 load(1, XDATA, add(CFA_XSP16, literal(-12)))
        CFI (cfiCond179) V3 load(1, XDATA, add(CFA_XSP16, literal(-11)))
        CFI (cfiCond179) V4 load(1, XDATA, add(CFA_XSP16, literal(-10)))
        CFI (cfiCond179) V5 load(1, XDATA, add(CFA_XSP16, literal(-9)))
        CFI (cfiCond179) V6 load(1, XDATA, add(CFA_XSP16, literal(-8)))
        CFI (cfiCond179) V7 load(1, XDATA, add(CFA_XSP16, literal(-7)))
        CFI (cfiCond179) R7 load(1, XDATA, add(CFA_XSP16, literal(-6)))
        CFI (cfiCond179) ?RET_LOW load(1, XDATA, add(CFA_XSP16, literal(-5)))
        CFI (cfiCond179) ?RET_HIGH load(1, XDATA, add(CFA_XSP16, literal(-4)))
        CFI (cfiCond179) ?BRET_EXT load(1, XDATA, add(CFA_XSP16, literal(-3)))
        CFI (cfiCond179) DPL0 load(1, XDATA, add(CFA_XSP16, literal(-2)))
        CFI (cfiCond179) DPH0 load(1, XDATA, add(CFA_XSP16, literal(-1)))
        CFI (cfiCond179) CFA_SP SP+0
        CFI (cfiCond179) CFA_XSP16 add(XSP16, 19)
        CFI Block cfiPicker180 Using cfiCommon1
        CFI (cfiPicker180) NoFunction
        CFI (cfiPicker180) Picker
        ADDC    A,#0x0
        MOV     R3,A
        CFI EndBlock cfiCond175
        CFI EndBlock cfiCond176
        CFI EndBlock cfiCond177
        CFI EndBlock cfiCond178
        CFI EndBlock cfiCond179
        CFI EndBlock cfiPicker180
        REQUIRE ??Subroutine44_0
        ; // Fall through to label ??Subroutine44_0

        RSEG BANKED_CODE:CODE:NOROOT(0)
??Subroutine44_0:
        CFI Block cfiCond181 Using cfiCommon0
        CFI NoFunction
        CFI Conditional ??CrossCallReturnLabel_93
        CFI R6 load(1, XDATA, add(CFA_XSP16, literal(-24)))
        CFI VB load(1, XDATA, add(CFA_XSP16, literal(-23)))
        CFI V0 load(1, XDATA, add(CFA_XSP16, literal(-22)))
        CFI V1 load(1, XDATA, add(CFA_XSP16, literal(-21)))
        CFI V2 load(1, XDATA, add(CFA_XSP16, literal(-20)))
        CFI V3 load(1, XDATA, add(CFA_XSP16, literal(-19)))
        CFI V4 load(1, XDATA, add(CFA_XSP16, literal(-18)))
        CFI V5 load(1, XDATA, add(CFA_XSP16, literal(-17)))
        CFI V6 load(1, XDATA, add(CFA_XSP16, literal(-16)))
        CFI V7 load(1, XDATA, add(CFA_XSP16, literal(-15)))
        CFI V8 load(1, XDATA, add(CFA_XSP16, literal(-14)))
        CFI V9 load(1, XDATA, add(CFA_XSP16, literal(-13)))
        CFI V10 load(1, XDATA, add(CFA_XSP16, literal(-12)))
        CFI V11 load(1, XDATA, add(CFA_XSP16, literal(-11)))
        CFI V12 load(1, XDATA, add(CFA_XSP16, literal(-10)))
        CFI V13 load(1, XDATA, add(CFA_XSP16, literal(-9)))
        CFI V14 load(1, XDATA, add(CFA_XSP16, literal(-8)))
        CFI V15 load(1, XDATA, add(CFA_XSP16, literal(-7)))
        CFI R7 load(1, XDATA, add(CFA_XSP16, literal(-6)))
        CFI ?RET_LOW load(1, XDATA, add(CFA_XSP16, literal(-5)))
        CFI ?RET_HIGH load(1, XDATA, add(CFA_XSP16, literal(-4)))
        CFI ?BRET_EXT load(1, XDATA, add(CFA_XSP16, literal(-3)))
        CFI DPL0 load(1, XDATA, add(CFA_XSP16, literal(-2)))
        CFI DPH0 load(1, XDATA, add(CFA_XSP16, literal(-1)))
        CFI CFA_SP SP+0
        CFI CFA_XSP16 add(XSP16, 40)
        CFI Block cfiCond182 Using cfiCommon0
        CFI (cfiCond182) NoFunction
        CFI (cfiCond182) Conditional ??CrossCallReturnLabel_94
        CFI (cfiCond182) R6 load(1, XDATA, add(CFA_XSP16, literal(-24)))
        CFI (cfiCond182) VB load(1, XDATA, add(CFA_XSP16, literal(-23)))
        CFI (cfiCond182) V0 load(1, XDATA, add(CFA_XSP16, literal(-22)))
        CFI (cfiCond182) V1 load(1, XDATA, add(CFA_XSP16, literal(-21)))
        CFI (cfiCond182) V2 load(1, XDATA, add(CFA_XSP16, literal(-20)))
        CFI (cfiCond182) V3 load(1, XDATA, add(CFA_XSP16, literal(-19)))
        CFI (cfiCond182) V4 load(1, XDATA, add(CFA_XSP16, literal(-18)))
        CFI (cfiCond182) V5 load(1, XDATA, add(CFA_XSP16, literal(-17)))
        CFI (cfiCond182) V6 load(1, XDATA, add(CFA_XSP16, literal(-16)))
        CFI (cfiCond182) V7 load(1, XDATA, add(CFA_XSP16, literal(-15)))
        CFI (cfiCond182) V8 load(1, XDATA, add(CFA_XSP16, literal(-14)))
        CFI (cfiCond182) V9 load(1, XDATA, add(CFA_XSP16, literal(-13)))
        CFI (cfiCond182) V10 load(1, XDATA, add(CFA_XSP16, literal(-12)))
        CFI (cfiCond182) V11 load(1, XDATA, add(CFA_XSP16, literal(-11)))
        CFI (cfiCond182) V12 load(1, XDATA, add(CFA_XSP16, literal(-10)))
        CFI (cfiCond182) V13 load(1, XDATA, add(CFA_XSP16, literal(-9)))
        CFI (cfiCond182) V14 load(1, XDATA, add(CFA_XSP16, literal(-8)))
        CFI (cfiCond182) V15 load(1, XDATA, add(CFA_XSP16, literal(-7)))
        CFI (cfiCond182) R7 load(1, XDATA, add(CFA_XSP16, literal(-6)))
        CFI (cfiCond182) ?RET_LOW load(1, XDATA, add(CFA_XSP16, literal(-5)))
        CFI (cfiCond182) ?RET_HIGH load(1, XDATA, add(CFA_XSP16, literal(-4)))
        CFI (cfiCond182) ?BRET_EXT load(1, XDATA, add(CFA_XSP16, literal(-3)))
        CFI (cfiCond182) DPL0 load(1, XDATA, add(CFA_XSP16, literal(-2)))
        CFI (cfiCond182) DPH0 load(1, XDATA, add(CFA_XSP16, literal(-1)))
        CFI (cfiCond182) CFA_SP SP+0
        CFI (cfiCond182) CFA_XSP16 add(XSP16, 43)
        CFI Block cfiCond183 Using cfiCommon0
        CFI (cfiCond183) NoFunction
        CFI (cfiCond183) Conditional ??CrossCallReturnLabel_95
        CFI (cfiCond183) R6 load(1, XDATA, add(CFA_XSP16, literal(-24)))
        CFI (cfiCond183) VB load(1, XDATA, add(CFA_XSP16, literal(-23)))
        CFI (cfiCond183) V0 load(1, XDATA, add(CFA_XSP16, literal(-22)))
        CFI (cfiCond183) V1 load(1, XDATA, add(CFA_XSP16, literal(-21)))
        CFI (cfiCond183) V2 load(1, XDATA, add(CFA_XSP16, literal(-20)))
        CFI (cfiCond183) V3 load(1, XDATA, add(CFA_XSP16, literal(-19)))
        CFI (cfiCond183) V4 load(1, XDATA, add(CFA_XSP16, literal(-18)))
        CFI (cfiCond183) V5 load(1, XDATA, add(CFA_XSP16, literal(-17)))
        CFI (cfiCond183) V6 load(1, XDATA, add(CFA_XSP16, literal(-16)))
        CFI (cfiCond183) V7 load(1, XDATA, add(CFA_XSP16, literal(-15)))
        CFI (cfiCond183) V8 load(1, XDATA, add(CFA_XSP16, literal(-14)))
        CFI (cfiCond183) V9 load(1, XDATA, add(CFA_XSP16, literal(-13)))
        CFI (cfiCond183) V10 load(1, XDATA, add(CFA_XSP16, literal(-12)))
        CFI (cfiCond183) V11 load(1, XDATA, add(CFA_XSP16, literal(-11)))
        CFI (cfiCond183) V12 load(1, XDATA, add(CFA_XSP16, literal(-10)))
        CFI (cfiCond183) V13 load(1, XDATA, add(CFA_XSP16, literal(-9)))
        CFI (cfiCond183) V14 load(1, XDATA, add(CFA_XSP16, literal(-8)))
        CFI (cfiCond183) V15 load(1, XDATA, add(CFA_XSP16, literal(-7)))
        CFI (cfiCond183) R7 load(1, XDATA, add(CFA_XSP16, literal(-6)))
        CFI (cfiCond183) ?RET_LOW load(1, XDATA, add(CFA_XSP16, literal(-5)))
        CFI (cfiCond183) ?RET_HIGH load(1, XDATA, add(CFA_XSP16, literal(-4)))
        CFI (cfiCond183) ?BRET_EXT load(1, XDATA, add(CFA_XSP16, literal(-3)))
        CFI (cfiCond183) DPL0 load(1, XDATA, add(CFA_XSP16, literal(-2)))
        CFI (cfiCond183) DPH0 load(1, XDATA, add(CFA_XSP16, literal(-1)))
        CFI (cfiCond183) CFA_SP SP+0
        CFI (cfiCond183) CFA_XSP16 add(XSP16, 40)
        CFI Block cfiCond184 Using cfiCommon0
        CFI (cfiCond184) NoFunction
        CFI (cfiCond184) Conditional ??CrossCallReturnLabel_96
        CFI (cfiCond184) R6 load(1, XDATA, add(CFA_XSP16, literal(-24)))
        CFI (cfiCond184) VB load(1, XDATA, add(CFA_XSP16, literal(-23)))
        CFI (cfiCond184) V0 load(1, XDATA, add(CFA_XSP16, literal(-22)))
        CFI (cfiCond184) V1 load(1, XDATA, add(CFA_XSP16, literal(-21)))
        CFI (cfiCond184) V2 load(1, XDATA, add(CFA_XSP16, literal(-20)))
        CFI (cfiCond184) V3 load(1, XDATA, add(CFA_XSP16, literal(-19)))
        CFI (cfiCond184) V4 load(1, XDATA, add(CFA_XSP16, literal(-18)))
        CFI (cfiCond184) V5 load(1, XDATA, add(CFA_XSP16, literal(-17)))
        CFI (cfiCond184) V6 load(1, XDATA, add(CFA_XSP16, literal(-16)))
        CFI (cfiCond184) V7 load(1, XDATA, add(CFA_XSP16, literal(-15)))
        CFI (cfiCond184) V8 load(1, XDATA, add(CFA_XSP16, literal(-14)))
        CFI (cfiCond184) V9 load(1, XDATA, add(CFA_XSP16, literal(-13)))
        CFI (cfiCond184) V10 load(1, XDATA, add(CFA_XSP16, literal(-12)))
        CFI (cfiCond184) V11 load(1, XDATA, add(CFA_XSP16, literal(-11)))
        CFI (cfiCond184) V12 load(1, XDATA, add(CFA_XSP16, literal(-10)))
        CFI (cfiCond184) V13 load(1, XDATA, add(CFA_XSP16, literal(-9)))
        CFI (cfiCond184) V14 load(1, XDATA, add(CFA_XSP16, literal(-8)))
        CFI (cfiCond184) V15 load(1, XDATA, add(CFA_XSP16, literal(-7)))
        CFI (cfiCond184) R7 load(1, XDATA, add(CFA_XSP16, literal(-6)))
        CFI (cfiCond184) ?RET_LOW load(1, XDATA, add(CFA_XSP16, literal(-5)))
        CFI (cfiCond184) ?RET_HIGH load(1, XDATA, add(CFA_XSP16, literal(-4)))
        CFI (cfiCond184) ?BRET_EXT load(1, XDATA, add(CFA_XSP16, literal(-3)))
        CFI (cfiCond184) DPL0 load(1, XDATA, add(CFA_XSP16, literal(-2)))
        CFI (cfiCond184) DPH0 load(1, XDATA, add(CFA_XSP16, literal(-1)))
        CFI (cfiCond184) CFA_SP SP+0
        CFI (cfiCond184) CFA_XSP16 add(XSP16, 40)
        CFI Block cfiCond185 Using cfiCommon0
        CFI (cfiCond185) NoFunction
        CFI (cfiCond185) Conditional ??CrossCallReturnLabel_97
        CFI (cfiCond185) R6 load(1, XDATA, add(CFA_XSP16, literal(-24)))
        CFI (cfiCond185) VB load(1, XDATA, add(CFA_XSP16, literal(-23)))
        CFI (cfiCond185) V0 load(1, XDATA, add(CFA_XSP16, literal(-22)))
        CFI (cfiCond185) V1 load(1, XDATA, add(CFA_XSP16, literal(-21)))
        CFI (cfiCond185) V2 load(1, XDATA, add(CFA_XSP16, literal(-20)))
        CFI (cfiCond185) V3 load(1, XDATA, add(CFA_XSP16, literal(-19)))
        CFI (cfiCond185) V4 load(1, XDATA, add(CFA_XSP16, literal(-18)))
        CFI (cfiCond185) V5 load(1, XDATA, add(CFA_XSP16, literal(-17)))
        CFI (cfiCond185) V6 load(1, XDATA, add(CFA_XSP16, literal(-16)))
        CFI (cfiCond185) V7 load(1, XDATA, add(CFA_XSP16, literal(-15)))
        CFI (cfiCond185) V8 load(1, XDATA, add(CFA_XSP16, literal(-14)))
        CFI (cfiCond185) V9 load(1, XDATA, add(CFA_XSP16, literal(-13)))
        CFI (cfiCond185) V10 load(1, XDATA, add(CFA_XSP16, literal(-12)))
        CFI (cfiCond185) V11 load(1, XDATA, add(CFA_XSP16, literal(-11)))
        CFI (cfiCond185) V12 load(1, XDATA, add(CFA_XSP16, literal(-10)))
        CFI (cfiCond185) V13 load(1, XDATA, add(CFA_XSP16, literal(-9)))
        CFI (cfiCond185) V14 load(1, XDATA, add(CFA_XSP16, literal(-8)))
        CFI (cfiCond185) V15 load(1, XDATA, add(CFA_XSP16, literal(-7)))
        CFI (cfiCond185) R7 load(1, XDATA, add(CFA_XSP16, literal(-6)))
        CFI (cfiCond185) ?RET_LOW load(1, XDATA, add(CFA_XSP16, literal(-5)))
        CFI (cfiCond185) ?RET_HIGH load(1, XDATA, add(CFA_XSP16, literal(-4)))
        CFI (cfiCond185) ?BRET_EXT load(1, XDATA, add(CFA_XSP16, literal(-3)))
        CFI (cfiCond185) DPL0 load(1, XDATA, add(CFA_XSP16, literal(-2)))
        CFI (cfiCond185) DPH0 load(1, XDATA, add(CFA_XSP16, literal(-1)))
        CFI (cfiCond185) CFA_SP SP+0
        CFI (cfiCond185) CFA_XSP16 add(XSP16, 40)
        CFI Block cfiCond186 Using cfiCommon0
        CFI (cfiCond186) NoFunction
        CFI (cfiCond186) Conditional ??CrossCallReturnLabel_100
        CFI (cfiCond186) R6 load(1, XDATA, add(CFA_XSP16, literal(-16)))
        CFI (cfiCond186) VB load(1, XDATA, add(CFA_XSP16, literal(-15)))
        CFI (cfiCond186) V0 load(1, XDATA, add(CFA_XSP16, literal(-14)))
        CFI (cfiCond186) V1 load(1, XDATA, add(CFA_XSP16, literal(-13)))
        CFI (cfiCond186) V2 load(1, XDATA, add(CFA_XSP16, literal(-12)))
        CFI (cfiCond186) V3 load(1, XDATA, add(CFA_XSP16, literal(-11)))
        CFI (cfiCond186) V4 load(1, XDATA, add(CFA_XSP16, literal(-10)))
        CFI (cfiCond186) V5 load(1, XDATA, add(CFA_XSP16, literal(-9)))
        CFI (cfiCond186) V6 load(1, XDATA, add(CFA_XSP16, literal(-8)))
        CFI (cfiCond186) V7 load(1, XDATA, add(CFA_XSP16, literal(-7)))
        CFI (cfiCond186) R7 load(1, XDATA, add(CFA_XSP16, literal(-6)))
        CFI (cfiCond186) ?RET_LOW load(1, XDATA, add(CFA_XSP16, literal(-5)))
        CFI (cfiCond186) ?RET_HIGH load(1, XDATA, add(CFA_XSP16, literal(-4)))
        CFI (cfiCond186) ?BRET_EXT load(1, XDATA, add(CFA_XSP16, literal(-3)))
        CFI (cfiCond186) DPL0 load(1, XDATA, add(CFA_XSP16, literal(-2)))
        CFI (cfiCond186) DPH0 load(1, XDATA, add(CFA_XSP16, literal(-1)))
        CFI (cfiCond186) CFA_SP SP+0
        CFI (cfiCond186) CFA_XSP16 add(XSP16, 21)
        CFI Block cfiCond187 Using cfiCommon0
        CFI (cfiCond187) NoFunction
        CFI (cfiCond187) Conditional ??CrossCallReturnLabel_98
        CFI (cfiCond187) R6 load(1, XDATA, add(CFA_XSP16, literal(-15)))
        CFI (cfiCond187) VB load(1, XDATA, add(CFA_XSP16, literal(-14)))
        CFI (cfiCond187) V0 load(1, XDATA, add(CFA_XSP16, literal(-13)))
        CFI (cfiCond187) V1 load(1, XDATA, add(CFA_XSP16, literal(-12)))
        CFI (cfiCond187) V2 load(1, XDATA, add(CFA_XSP16, literal(-11)))
        CFI (cfiCond187) V3 load(1, XDATA, add(CFA_XSP16, literal(-10)))
        CFI (cfiCond187) V4 load(1, XDATA, add(CFA_XSP16, literal(-9)))
        CFI (cfiCond187) V5 load(1, XDATA, add(CFA_XSP16, literal(-8)))
        CFI (cfiCond187) V6 load(1, XDATA, add(CFA_XSP16, literal(-7)))
        CFI (cfiCond187) R7 load(1, XDATA, add(CFA_XSP16, literal(-6)))
        CFI (cfiCond187) ?RET_LOW load(1, XDATA, add(CFA_XSP16, literal(-5)))
        CFI (cfiCond187) ?RET_HIGH load(1, XDATA, add(CFA_XSP16, literal(-4)))
        CFI (cfiCond187) ?BRET_EXT load(1, XDATA, add(CFA_XSP16, literal(-3)))
        CFI (cfiCond187) DPL0 load(1, XDATA, add(CFA_XSP16, literal(-2)))
        CFI (cfiCond187) DPH0 load(1, XDATA, add(CFA_XSP16, literal(-1)))
        CFI (cfiCond187) CFA_SP SP+0
        CFI (cfiCond187) CFA_XSP16 add(XSP16, 26)
        CFI Block cfiCond188 Using cfiCommon0
        CFI (cfiCond188) NoFunction
        CFI (cfiCond188) Conditional ??CrossCallReturnLabel_99
        CFI (cfiCond188) R6 load(1, XDATA, add(CFA_XSP16, literal(-13)))
        CFI (cfiCond188) VB load(1, XDATA, add(CFA_XSP16, literal(-12)))
        CFI (cfiCond188) V0 load(1, XDATA, add(CFA_XSP16, literal(-11)))
        CFI (cfiCond188) V1 load(1, XDATA, add(CFA_XSP16, literal(-10)))
        CFI (cfiCond188) V2 load(1, XDATA, add(CFA_XSP16, literal(-9)))
        CFI (cfiCond188) V3 load(1, XDATA, add(CFA_XSP16, literal(-8)))
        CFI (cfiCond188) V4 load(1, XDATA, add(CFA_XSP16, literal(-7)))
        CFI (cfiCond188) R7 load(1, XDATA, add(CFA_XSP16, literal(-6)))
        CFI (cfiCond188) ?RET_LOW load(1, XDATA, add(CFA_XSP16, literal(-5)))
        CFI (cfiCond188) ?RET_HIGH load(1, XDATA, add(CFA_XSP16, literal(-4)))
        CFI (cfiCond188) ?BRET_EXT load(1, XDATA, add(CFA_XSP16, literal(-3)))
        CFI (cfiCond188) DPL0 load(1, XDATA, add(CFA_XSP16, literal(-2)))
        CFI (cfiCond188) DPH0 load(1, XDATA, add(CFA_XSP16, literal(-1)))
        CFI (cfiCond188) CFA_SP SP+0
        CFI (cfiCond188) CFA_XSP16 add(XSP16, 16)
        CFI Block cfiCond189 Using cfiCommon0
        CFI (cfiCond189) NoFunction
        CFI (cfiCond189) Conditional ??CrossCallReturnLabel_90
        CFI (cfiCond189) R6 load(1, XDATA, add(CFA_XSP16, literal(-24)))
        CFI (cfiCond189) VB load(1, XDATA, add(CFA_XSP16, literal(-23)))
        CFI (cfiCond189) V0 load(1, XDATA, add(CFA_XSP16, literal(-22)))
        CFI (cfiCond189) V1 load(1, XDATA, add(CFA_XSP16, literal(-21)))
        CFI (cfiCond189) V2 load(1, XDATA, add(CFA_XSP16, literal(-20)))
        CFI (cfiCond189) V3 load(1, XDATA, add(CFA_XSP16, literal(-19)))
        CFI (cfiCond189) V4 load(1, XDATA, add(CFA_XSP16, literal(-18)))
        CFI (cfiCond189) V5 load(1, XDATA, add(CFA_XSP16, literal(-17)))
        CFI (cfiCond189) V6 load(1, XDATA, add(CFA_XSP16, literal(-16)))
        CFI (cfiCond189) V7 load(1, XDATA, add(CFA_XSP16, literal(-15)))
        CFI (cfiCond189) V8 load(1, XDATA, add(CFA_XSP16, literal(-14)))
        CFI (cfiCond189) V9 load(1, XDATA, add(CFA_XSP16, literal(-13)))
        CFI (cfiCond189) V10 load(1, XDATA, add(CFA_XSP16, literal(-12)))
        CFI (cfiCond189) V11 load(1, XDATA, add(CFA_XSP16, literal(-11)))
        CFI (cfiCond189) V12 load(1, XDATA, add(CFA_XSP16, literal(-10)))
        CFI (cfiCond189) V13 load(1, XDATA, add(CFA_XSP16, literal(-9)))
        CFI (cfiCond189) V14 load(1, XDATA, add(CFA_XSP16, literal(-8)))
        CFI (cfiCond189) V15 load(1, XDATA, add(CFA_XSP16, literal(-7)))
        CFI (cfiCond189) R7 load(1, XDATA, add(CFA_XSP16, literal(-6)))
        CFI (cfiCond189) ?RET_LOW load(1, XDATA, add(CFA_XSP16, literal(-5)))
        CFI (cfiCond189) ?RET_HIGH load(1, XDATA, add(CFA_XSP16, literal(-4)))
        CFI (cfiCond189) ?BRET_EXT load(1, XDATA, add(CFA_XSP16, literal(-3)))
        CFI (cfiCond189) DPL0 load(1, XDATA, add(CFA_XSP16, literal(-2)))
        CFI (cfiCond189) DPH0 load(1, XDATA, add(CFA_XSP16, literal(-1)))
        CFI (cfiCond189) CFA_SP SP+0
        CFI (cfiCond189) CFA_XSP16 add(XSP16, 40)
        CFI Block cfiCond190 Using cfiCommon0
        CFI (cfiCond190) NoFunction
        CFI (cfiCond190) Conditional ??CrossCallReturnLabel_91
        CFI (cfiCond190) R6 load(1, XDATA, add(CFA_XSP16, literal(-15)))
        CFI (cfiCond190) VB load(1, XDATA, add(CFA_XSP16, literal(-14)))
        CFI (cfiCond190) V0 load(1, XDATA, add(CFA_XSP16, literal(-13)))
        CFI (cfiCond190) V1 load(1, XDATA, add(CFA_XSP16, literal(-12)))
        CFI (cfiCond190) V2 load(1, XDATA, add(CFA_XSP16, literal(-11)))
        CFI (cfiCond190) V3 load(1, XDATA, add(CFA_XSP16, literal(-10)))
        CFI (cfiCond190) V4 load(1, XDATA, add(CFA_XSP16, literal(-9)))
        CFI (cfiCond190) V5 load(1, XDATA, add(CFA_XSP16, literal(-8)))
        CFI (cfiCond190) V6 load(1, XDATA, add(CFA_XSP16, literal(-7)))
        CFI (cfiCond190) R7 load(1, XDATA, add(CFA_XSP16, literal(-6)))
        CFI (cfiCond190) ?RET_LOW load(1, XDATA, add(CFA_XSP16, literal(-5)))
        CFI (cfiCond190) ?RET_HIGH load(1, XDATA, add(CFA_XSP16, literal(-4)))
        CFI (cfiCond190) ?BRET_EXT load(1, XDATA, add(CFA_XSP16, literal(-3)))
        CFI (cfiCond190) DPL0 load(1, XDATA, add(CFA_XSP16, literal(-2)))
        CFI (cfiCond190) DPH0 load(1, XDATA, add(CFA_XSP16, literal(-1)))
        CFI (cfiCond190) CFA_SP SP+0
        CFI (cfiCond190) CFA_XSP16 add(XSP16, 26)
        CFI Block cfiCond191 Using cfiCommon0
        CFI (cfiCond191) NoFunction
        CFI (cfiCond191) Conditional ??CrossCallReturnLabel_92
        CFI (cfiCond191) R6 load(1, XDATA, add(CFA_XSP16, literal(-15)))
        CFI (cfiCond191) VB load(1, XDATA, add(CFA_XSP16, literal(-14)))
        CFI (cfiCond191) V0 load(1, XDATA, add(CFA_XSP16, literal(-13)))
        CFI (cfiCond191) V1 load(1, XDATA, add(CFA_XSP16, literal(-12)))
        CFI (cfiCond191) V2 load(1, XDATA, add(CFA_XSP16, literal(-11)))
        CFI (cfiCond191) V3 load(1, XDATA, add(CFA_XSP16, literal(-10)))
        CFI (cfiCond191) V4 load(1, XDATA, add(CFA_XSP16, literal(-9)))
        CFI (cfiCond191) V5 load(1, XDATA, add(CFA_XSP16, literal(-8)))
        CFI (cfiCond191) V6 load(1, XDATA, add(CFA_XSP16, literal(-7)))
        CFI (cfiCond191) R7 load(1, XDATA, add(CFA_XSP16, literal(-6)))
        CFI (cfiCond191) ?RET_LOW load(1, XDATA, add(CFA_XSP16, literal(-5)))
        CFI (cfiCond191) ?RET_HIGH load(1, XDATA, add(CFA_XSP16, literal(-4)))
        CFI (cfiCond191) ?BRET_EXT load(1, XDATA, add(CFA_XSP16, literal(-3)))
        CFI (cfiCond191) DPL0 load(1, XDATA, add(CFA_XSP16, literal(-2)))
        CFI (cfiCond191) DPH0 load(1, XDATA, add(CFA_XSP16, literal(-1)))
        CFI (cfiCond191) CFA_SP SP+0
        CFI (cfiCond191) CFA_XSP16 add(XSP16, 26)
        CFI Block cfiCond192 Using cfiCommon0
        CFI (cfiCond192) NoFunction
        CFI (cfiCond192) Conditional ??CrossCallReturnLabel_88
        CFI (cfiCond192) R6 load(1, XDATA, add(CFA_XSP16, literal(-19)))
        CFI (cfiCond192) VB load(1, XDATA, add(CFA_XSP16, literal(-18)))
        CFI (cfiCond192) V0 load(1, XDATA, add(CFA_XSP16, literal(-17)))
        CFI (cfiCond192) V1 load(1, XDATA, add(CFA_XSP16, literal(-16)))
        CFI (cfiCond192) V2 load(1, XDATA, add(CFA_XSP16, literal(-15)))
        CFI (cfiCond192) V3 load(1, XDATA, add(CFA_XSP16, literal(-14)))
        CFI (cfiCond192) V4 load(1, XDATA, add(CFA_XSP16, literal(-13)))
        CFI (cfiCond192) V5 load(1, XDATA, add(CFA_XSP16, literal(-12)))
        CFI (cfiCond192) V6 load(1, XDATA, add(CFA_XSP16, literal(-11)))
        CFI (cfiCond192) V7 load(1, XDATA, add(CFA_XSP16, literal(-10)))
        CFI (cfiCond192) V8 load(1, XDATA, add(CFA_XSP16, literal(-9)))
        CFI (cfiCond192) V9 load(1, XDATA, add(CFA_XSP16, literal(-8)))
        CFI (cfiCond192) V10 load(1, XDATA, add(CFA_XSP16, literal(-7)))
        CFI (cfiCond192) R7 load(1, XDATA, add(CFA_XSP16, literal(-6)))
        CFI (cfiCond192) ?RET_LOW load(1, XDATA, add(CFA_XSP16, literal(-5)))
        CFI (cfiCond192) ?RET_HIGH load(1, XDATA, add(CFA_XSP16, literal(-4)))
        CFI (cfiCond192) ?BRET_EXT load(1, XDATA, add(CFA_XSP16, literal(-3)))
        CFI (cfiCond192) DPL0 load(1, XDATA, add(CFA_XSP16, literal(-2)))
        CFI (cfiCond192) DPH0 load(1, XDATA, add(CFA_XSP16, literal(-1)))
        CFI (cfiCond192) CFA_SP SP+0
        CFI (cfiCond192) CFA_XSP16 add(XSP16, 22)
        CFI Block cfiCond193 Using cfiCommon0
        CFI (cfiCond193) NoFunction
        CFI (cfiCond193) Conditional ??CrossCallReturnLabel_89
        CFI (cfiCond193) R6 load(1, XDATA, add(CFA_XSP16, literal(-16)))
        CFI (cfiCond193) VB load(1, XDATA, add(CFA_XSP16, literal(-15)))
        CFI (cfiCond193) V0 load(1, XDATA, add(CFA_XSP16, literal(-14)))
        CFI (cfiCond193) V1 load(1, XDATA, add(CFA_XSP16, literal(-13)))
        CFI (cfiCond193) V2 load(1, XDATA, add(CFA_XSP16, literal(-12)))
        CFI (cfiCond193) V3 load(1, XDATA, add(CFA_XSP16, literal(-11)))
        CFI (cfiCond193) V4 load(1, XDATA, add(CFA_XSP16, literal(-10)))
        CFI (cfiCond193) V5 load(1, XDATA, add(CFA_XSP16, literal(-9)))
        CFI (cfiCond193) V6 load(1, XDATA, add(CFA_XSP16, literal(-8)))
        CFI (cfiCond193) V7 load(1, XDATA, add(CFA_XSP16, literal(-7)))
        CFI (cfiCond193) R7 load(1, XDATA, add(CFA_XSP16, literal(-6)))
        CFI (cfiCond193) ?RET_LOW load(1, XDATA, add(CFA_XSP16, literal(-5)))
        CFI (cfiCond193) ?RET_HIGH load(1, XDATA, add(CFA_XSP16, literal(-4)))
        CFI (cfiCond193) ?BRET_EXT load(1, XDATA, add(CFA_XSP16, literal(-3)))
        CFI (cfiCond193) DPL0 load(1, XDATA, add(CFA_XSP16, literal(-2)))
        CFI (cfiCond193) DPH0 load(1, XDATA, add(CFA_XSP16, literal(-1)))
        CFI (cfiCond193) CFA_SP SP+0
        CFI (cfiCond193) CFA_XSP16 add(XSP16, 19)
        CFI Block cfiPicker194 Using cfiCommon1
        CFI (cfiPicker194) NoFunction
        CFI (cfiPicker194) Picker
        LCALL   ??osal_memcpy?relay
        MOV     A,#0x3
        RET
        CFI EndBlock cfiCond181
        CFI EndBlock cfiCond182
        CFI EndBlock cfiCond183
        CFI EndBlock cfiCond184
        CFI EndBlock cfiCond185
        CFI EndBlock cfiCond186
        CFI EndBlock cfiCond187
        CFI EndBlock cfiCond188
        CFI EndBlock cfiCond189
        CFI EndBlock cfiCond190
        CFI EndBlock cfiCond191
        CFI EndBlock cfiCond192
        CFI EndBlock cfiCond193
        CFI EndBlock cfiPicker194

        RSEG BANKED_CODE:CODE:NOROOT(0)
// 1768 static zahdrin_t *zlBuildExternalInboundSerialMSG(afIncomingMSGPacket_t *addressInfo, uint8 *zlmsg, uint8 len)
zlBuildExternalInboundSerialMSG:
        CFI Block cfiBlock195 Using cfiCommon0
        CFI Function zlBuildExternalInboundSerialMSG
        CODE
// 1769 {
        FUNCALL zlBuildExternalInboundSerialMSG, osal_mem_alloc
        LOCFRAME ISTACK, 0, STACK
        LOCFRAME PSTACK, 0, STACK
        LOCFRAME XSTACK, 19, STACK
        LOCFRAME IOVERLAY, 0, STATIC
        LOCFRAME DOVERLAY, 0, STATIC
        ARGFRAME ISTACK, 0, STACK
        ARGFRAME PSTACK, 0, STACK
        ARGFRAME XSTACK, 19, STACK
        ARGFRAME IOVERLAY, 0, STATIC
        ARGFRAME DOVERLAY, 0, STATIC
        FUNCALL zlBuildExternalInboundSerialMSG, osal_memcpy
        LOCFRAME ISTACK, 0, STACK
        LOCFRAME PSTACK, 0, STACK
        LOCFRAME XSTACK, 22, STACK
        LOCFRAME IOVERLAY, 0, STATIC
        LOCFRAME DOVERLAY, 0, STATIC
        ARGFRAME ISTACK, 0, STACK
        ARGFRAME PSTACK, 0, STACK
        ARGFRAME XSTACK, 22, STACK
        ARGFRAME IOVERLAY, 0, STATIC
        ARGFRAME DOVERLAY, 0, STATIC
        MOV     A,#-0x13
        LCALL   ?BANKED_ENTER_XDATA
        CFI DPH0 load(1, XDATA, add(CFA_XSP16, literal(-1)))
        CFI DPL0 load(1, XDATA, add(CFA_XSP16, literal(-2)))
        CFI ?BRET_EXT load(1, XDATA, add(CFA_XSP16, literal(-3)))
        CFI ?RET_HIGH load(1, XDATA, add(CFA_XSP16, literal(-4)))
        CFI ?RET_LOW load(1, XDATA, add(CFA_XSP16, literal(-5)))
        CFI R7 load(1, XDATA, add(CFA_XSP16, literal(-6)))
        CFI V10 load(1, XDATA, add(CFA_XSP16, literal(-7)))
        CFI V9 load(1, XDATA, add(CFA_XSP16, literal(-8)))
        CFI V8 load(1, XDATA, add(CFA_XSP16, literal(-9)))
        CFI V7 load(1, XDATA, add(CFA_XSP16, literal(-10)))
        CFI V6 load(1, XDATA, add(CFA_XSP16, literal(-11)))
        CFI V5 load(1, XDATA, add(CFA_XSP16, literal(-12)))
        CFI V4 load(1, XDATA, add(CFA_XSP16, literal(-13)))
        CFI V3 load(1, XDATA, add(CFA_XSP16, literal(-14)))
        CFI V2 load(1, XDATA, add(CFA_XSP16, literal(-15)))
        CFI V1 load(1, XDATA, add(CFA_XSP16, literal(-16)))
        CFI V0 load(1, XDATA, add(CFA_XSP16, literal(-17)))
        CFI VB load(1, XDATA, add(CFA_XSP16, literal(-18)))
        CFI R6 load(1, XDATA, add(CFA_XSP16, literal(-19)))
        CFI CFA_SP SP+0
        CFI CFA_XSP16 add(XSP16, 19)
        ; Saved register size: 19
        ; Auto size: 0
        MOV     ?V0 + 2,R2
        MOV     ?V0 + 3,R3
        MOV     A,R4
        MOV     R6,A
        MOV     A,R5
        MOV     R7,A
        MOV     ?V0 + 6,R1
// 1770     zahdrin_t *zamsgin;
// 1771 
// 1772     // build message
// 1773     zamsgin = (zahdrin_t *)osal_mem_alloc(SIZEOF_ZAIN_HDR + len);
        MOV     DPL,R1
        MOV     ?V0 + 4,DPL
        ; Setup parameters for call to function osal_mem_alloc
        LCALL   ?Subroutine24 & 0xFFFF
// 1774 
// 1775     if (!zamsgin)  {
??CrossCallReturnLabel_33:
        JNZ     ??zlBuildExternalInboundSerialMSG_0
// 1776       return 0;
        MOV     R2,#0x0
        MOV     R3,#0x0
        SJMP    ??zlBuildExternalInboundSerialMSG_1
// 1777     }
// 1778 
// 1779     zamsgin->zaproxy_nwkAddr   = addressInfo->srcAddr.addr.shortAddr;
??zlBuildExternalInboundSerialMSG_0:
        MOV     DPL,?V0 + 2
        MOV     DPH,?V0 + 3
        INC     DPTR
        INC     DPTR
        LCALL   ?Subroutine15 & 0xFFFF
??CrossCallReturnLabel_102:
        MOV     A,R0
        MOVX    @DPTR,A
        INC     DPTR
        MOV     A,R1
        MOVX    @DPTR,A
// 1780     zamsgin->zaproxy_endp      = addressInfo->endPoint;
        MOV     A,?V0 + 2
        ADD     A,#0x14
        MOV     DPL,A
        MOV     A,?V0 + 3
        ADDC    A,#0x0
        MOV     DPH,A
        LCALL   ?Subroutine18 & 0xFFFF
??CrossCallReturnLabel_24:
        INC     DPTR
        MOVX    @DPTR,A
// 1781     zamsgin->zaproxy_ClusterID = addressInfo->clusterId;
        MOV     DPL,?V0 + 2
        MOV     DPH,?V0 + 3
        LCALL   ?Subroutine15 & 0xFFFF
??CrossCallReturnLabel_103:
        INC     DPTR
        INC     DPTR
        INC     DPTR
        LCALL   ?Subroutine6 & 0xFFFF
// 1782     zamsgin->zaproxy_msglen    = len;
??CrossCallReturnLabel_9:
        INC     DPTR
        INC     DPTR
        INC     DPTR
        MOV     A,?V0 + 6
        MOVX    @DPTR,A
// 1783 
// 1784     osal_memcpy(zamsgin->zaproxy_payload, zlmsg, len);
        ; Setup parameters for call to function osal_memcpy
        MOV     ?V0 + 8,R6
        MOV     ?V0 + 9,R7
        MOV     ?V0 + 10,#0x0
        MOV     R0,#?V0 + 8
        LCALL   ?PUSH_XSTACK_I_THREE
        CFI CFA_XSP16 add(XSP16, 22)
        MOV     R4,?V0 + 4
        LCALL   ?Subroutine25 & 0xFFFF
??CrossCallReturnLabel_88:
        LCALL   ?DEALLOC_XSTACK8
        CFI CFA_XSP16 add(XSP16, 19)
// 1785 
// 1786     return zamsgin;
        MOV     R2,?V0 + 0
        MOV     R3,?V0 + 1
??zlBuildExternalInboundSerialMSG_1:
        MOV     R7,#0xb
        LJMP    ?BANKED_LEAVE_XDATA
        CFI EndBlock cfiBlock195
// 1787 }

        RSEG BANKED_CODE:CODE:NOROOT(0)
?Subroutine15:
        CFI Block cfiCond196 Using cfiCommon0
        CFI NoFunction
        CFI Conditional ??CrossCallReturnLabel_102
        CFI R6 load(1, XDATA, add(CFA_XSP16, literal(-19)))
        CFI VB load(1, XDATA, add(CFA_XSP16, literal(-18)))
        CFI V0 load(1, XDATA, add(CFA_XSP16, literal(-17)))
        CFI V1 load(1, XDATA, add(CFA_XSP16, literal(-16)))
        CFI V2 load(1, XDATA, add(CFA_XSP16, literal(-15)))
        CFI V3 load(1, XDATA, add(CFA_XSP16, literal(-14)))
        CFI V4 load(1, XDATA, add(CFA_XSP16, literal(-13)))
        CFI V5 load(1, XDATA, add(CFA_XSP16, literal(-12)))
        CFI V6 load(1, XDATA, add(CFA_XSP16, literal(-11)))
        CFI V7 load(1, XDATA, add(CFA_XSP16, literal(-10)))
        CFI V8 load(1, XDATA, add(CFA_XSP16, literal(-9)))
        CFI V9 load(1, XDATA, add(CFA_XSP16, literal(-8)))
        CFI V10 load(1, XDATA, add(CFA_XSP16, literal(-7)))
        CFI R7 load(1, XDATA, add(CFA_XSP16, literal(-6)))
        CFI ?RET_LOW load(1, XDATA, add(CFA_XSP16, literal(-5)))
        CFI ?RET_HIGH load(1, XDATA, add(CFA_XSP16, literal(-4)))
        CFI ?BRET_EXT load(1, XDATA, add(CFA_XSP16, literal(-3)))
        CFI DPL0 load(1, XDATA, add(CFA_XSP16, literal(-2)))
        CFI DPH0 load(1, XDATA, add(CFA_XSP16, literal(-1)))
        CFI CFA_SP SP+0
        CFI CFA_XSP16 add(XSP16, 19)
        CFI Block cfiCond197 Using cfiCommon0
        CFI (cfiCond197) NoFunction
        CFI (cfiCond197) Conditional ??CrossCallReturnLabel_103
        CFI (cfiCond197) R6 load(1, XDATA, add(CFA_XSP16, literal(-19)))
        CFI (cfiCond197) VB load(1, XDATA, add(CFA_XSP16, literal(-18)))
        CFI (cfiCond197) V0 load(1, XDATA, add(CFA_XSP16, literal(-17)))
        CFI (cfiCond197) V1 load(1, XDATA, add(CFA_XSP16, literal(-16)))
        CFI (cfiCond197) V2 load(1, XDATA, add(CFA_XSP16, literal(-15)))
        CFI (cfiCond197) V3 load(1, XDATA, add(CFA_XSP16, literal(-14)))
        CFI (cfiCond197) V4 load(1, XDATA, add(CFA_XSP16, literal(-13)))
        CFI (cfiCond197) V5 load(1, XDATA, add(CFA_XSP16, literal(-12)))
        CFI (cfiCond197) V6 load(1, XDATA, add(CFA_XSP16, literal(-11)))
        CFI (cfiCond197) V7 load(1, XDATA, add(CFA_XSP16, literal(-10)))
        CFI (cfiCond197) V8 load(1, XDATA, add(CFA_XSP16, literal(-9)))
        CFI (cfiCond197) V9 load(1, XDATA, add(CFA_XSP16, literal(-8)))
        CFI (cfiCond197) V10 load(1, XDATA, add(CFA_XSP16, literal(-7)))
        CFI (cfiCond197) R7 load(1, XDATA, add(CFA_XSP16, literal(-6)))
        CFI (cfiCond197) ?RET_LOW load(1, XDATA, add(CFA_XSP16, literal(-5)))
        CFI (cfiCond197) ?RET_HIGH load(1, XDATA, add(CFA_XSP16, literal(-4)))
        CFI (cfiCond197) ?BRET_EXT load(1, XDATA, add(CFA_XSP16, literal(-3)))
        CFI (cfiCond197) DPL0 load(1, XDATA, add(CFA_XSP16, literal(-2)))
        CFI (cfiCond197) DPH0 load(1, XDATA, add(CFA_XSP16, literal(-1)))
        CFI (cfiCond197) CFA_SP SP+0
        CFI (cfiCond197) CFA_XSP16 add(XSP16, 19)
        CFI Block cfiPicker198 Using cfiCommon1
        CFI (cfiPicker198) NoFunction
        CFI (cfiPicker198) Picker
        INC     DPTR
        INC     DPTR
        INC     DPTR
        INC     DPTR
        CFI EndBlock cfiCond196
        CFI EndBlock cfiCond197
        CFI EndBlock cfiPicker198
        REQUIRE ??Subroutine45_0
        ; // Fall through to label ??Subroutine45_0

        RSEG BANKED_CODE:CODE:NOROOT(0)
??Subroutine45_0:
        CFI Block cfiCond199 Using cfiCommon0
        CFI NoFunction
        CFI Conditional ??CrossCallReturnLabel_101
        CFI R6 load(1, XDATA, add(CFA_XSP16, literal(-16)))
        CFI VB load(1, XDATA, add(CFA_XSP16, literal(-15)))
        CFI V0 load(1, XDATA, add(CFA_XSP16, literal(-14)))
        CFI V1 load(1, XDATA, add(CFA_XSP16, literal(-13)))
        CFI V2 load(1, XDATA, add(CFA_XSP16, literal(-12)))
        CFI V3 load(1, XDATA, add(CFA_XSP16, literal(-11)))
        CFI V4 load(1, XDATA, add(CFA_XSP16, literal(-10)))
        CFI V5 load(1, XDATA, add(CFA_XSP16, literal(-9)))
        CFI V6 load(1, XDATA, add(CFA_XSP16, literal(-8)))
        CFI V7 load(1, XDATA, add(CFA_XSP16, literal(-7)))
        CFI R7 load(1, XDATA, add(CFA_XSP16, literal(-6)))
        CFI ?RET_LOW load(1, XDATA, add(CFA_XSP16, literal(-5)))
        CFI ?RET_HIGH load(1, XDATA, add(CFA_XSP16, literal(-4)))
        CFI ?BRET_EXT load(1, XDATA, add(CFA_XSP16, literal(-3)))
        CFI DPL0 load(1, XDATA, add(CFA_XSP16, literal(-2)))
        CFI DPH0 load(1, XDATA, add(CFA_XSP16, literal(-1)))
        CFI CFA_SP SP+0
        CFI CFA_XSP16 add(XSP16, 16)
        CFI Block cfiCond200 Using cfiCommon0
        CFI (cfiCond200) NoFunction
        CFI (cfiCond200) Conditional ??CrossCallReturnLabel_102
        CFI (cfiCond200) R6 load(1, XDATA, add(CFA_XSP16, literal(-19)))
        CFI (cfiCond200) VB load(1, XDATA, add(CFA_XSP16, literal(-18)))
        CFI (cfiCond200) V0 load(1, XDATA, add(CFA_XSP16, literal(-17)))
        CFI (cfiCond200) V1 load(1, XDATA, add(CFA_XSP16, literal(-16)))
        CFI (cfiCond200) V2 load(1, XDATA, add(CFA_XSP16, literal(-15)))
        CFI (cfiCond200) V3 load(1, XDATA, add(CFA_XSP16, literal(-14)))
        CFI (cfiCond200) V4 load(1, XDATA, add(CFA_XSP16, literal(-13)))
        CFI (cfiCond200) V5 load(1, XDATA, add(CFA_XSP16, literal(-12)))
        CFI (cfiCond200) V6 load(1, XDATA, add(CFA_XSP16, literal(-11)))
        CFI (cfiCond200) V7 load(1, XDATA, add(CFA_XSP16, literal(-10)))
        CFI (cfiCond200) V8 load(1, XDATA, add(CFA_XSP16, literal(-9)))
        CFI (cfiCond200) V9 load(1, XDATA, add(CFA_XSP16, literal(-8)))
        CFI (cfiCond200) V10 load(1, XDATA, add(CFA_XSP16, literal(-7)))
        CFI (cfiCond200) R7 load(1, XDATA, add(CFA_XSP16, literal(-6)))
        CFI (cfiCond200) ?RET_LOW load(1, XDATA, add(CFA_XSP16, literal(-5)))
        CFI (cfiCond200) ?RET_HIGH load(1, XDATA, add(CFA_XSP16, literal(-4)))
        CFI (cfiCond200) ?BRET_EXT load(1, XDATA, add(CFA_XSP16, literal(-3)))
        CFI (cfiCond200) DPL0 load(1, XDATA, add(CFA_XSP16, literal(-2)))
        CFI (cfiCond200) DPH0 load(1, XDATA, add(CFA_XSP16, literal(-1)))
        CFI (cfiCond200) CFA_SP SP+0
        CFI (cfiCond200) CFA_XSP16 add(XSP16, 19)
        CFI Block cfiCond201 Using cfiCommon0
        CFI (cfiCond201) NoFunction
        CFI (cfiCond201) Conditional ??CrossCallReturnLabel_103
        CFI (cfiCond201) R6 load(1, XDATA, add(CFA_XSP16, literal(-19)))
        CFI (cfiCond201) VB load(1, XDATA, add(CFA_XSP16, literal(-18)))
        CFI (cfiCond201) V0 load(1, XDATA, add(CFA_XSP16, literal(-17)))
        CFI (cfiCond201) V1 load(1, XDATA, add(CFA_XSP16, literal(-16)))
        CFI (cfiCond201) V2 load(1, XDATA, add(CFA_XSP16, literal(-15)))
        CFI (cfiCond201) V3 load(1, XDATA, add(CFA_XSP16, literal(-14)))
        CFI (cfiCond201) V4 load(1, XDATA, add(CFA_XSP16, literal(-13)))
        CFI (cfiCond201) V5 load(1, XDATA, add(CFA_XSP16, literal(-12)))
        CFI (cfiCond201) V6 load(1, XDATA, add(CFA_XSP16, literal(-11)))
        CFI (cfiCond201) V7 load(1, XDATA, add(CFA_XSP16, literal(-10)))
        CFI (cfiCond201) V8 load(1, XDATA, add(CFA_XSP16, literal(-9)))
        CFI (cfiCond201) V9 load(1, XDATA, add(CFA_XSP16, literal(-8)))
        CFI (cfiCond201) V10 load(1, XDATA, add(CFA_XSP16, literal(-7)))
        CFI (cfiCond201) R7 load(1, XDATA, add(CFA_XSP16, literal(-6)))
        CFI (cfiCond201) ?RET_LOW load(1, XDATA, add(CFA_XSP16, literal(-5)))
        CFI (cfiCond201) ?RET_HIGH load(1, XDATA, add(CFA_XSP16, literal(-4)))
        CFI (cfiCond201) ?BRET_EXT load(1, XDATA, add(CFA_XSP16, literal(-3)))
        CFI (cfiCond201) DPL0 load(1, XDATA, add(CFA_XSP16, literal(-2)))
        CFI (cfiCond201) DPH0 load(1, XDATA, add(CFA_XSP16, literal(-1)))
        CFI (cfiCond201) CFA_SP SP+0
        CFI (cfiCond201) CFA_XSP16 add(XSP16, 19)
        CFI Block cfiPicker202 Using cfiCommon1
        CFI (cfiPicker202) NoFunction
        CFI (cfiPicker202) Picker
        LCALL   ?Subroutine32 & 0xFFFF
??CrossCallReturnLabel_107:
        MOV     DPL,R2
        MOV     DPH,R3
        RET
        CFI EndBlock cfiCond199
        CFI EndBlock cfiCond200
        CFI EndBlock cfiCond201
        CFI EndBlock cfiPicker202
// 1788 

        RSEG BANKED_CODE:CODE:NOROOT(0)
// 1789 static zahdrin_t *zlBuildInternalInboundSerialMSG(uint8 *zlmsg, uint8 len)
zlBuildInternalInboundSerialMSG:
        CFI Block cfiBlock203 Using cfiCommon0
        CFI Function zlBuildInternalInboundSerialMSG
        CODE
// 1790 {
        FUNCALL zlBuildInternalInboundSerialMSG, osal_mem_alloc
        LOCFRAME ISTACK, 0, STACK
        LOCFRAME PSTACK, 0, STACK
        LOCFRAME XSTACK, 16, STACK
        LOCFRAME IOVERLAY, 0, STATIC
        LOCFRAME DOVERLAY, 0, STATIC
        ARGFRAME ISTACK, 0, STACK
        ARGFRAME PSTACK, 0, STACK
        ARGFRAME XSTACK, 16, STACK
        ARGFRAME IOVERLAY, 0, STATIC
        ARGFRAME DOVERLAY, 0, STATIC
        FUNCALL zlBuildInternalInboundSerialMSG, osal_memcpy
        LOCFRAME ISTACK, 0, STACK
        LOCFRAME PSTACK, 0, STACK
        LOCFRAME XSTACK, 19, STACK
        LOCFRAME IOVERLAY, 0, STATIC
        LOCFRAME DOVERLAY, 0, STATIC
        ARGFRAME ISTACK, 0, STACK
        ARGFRAME PSTACK, 0, STACK
        ARGFRAME XSTACK, 19, STACK
        ARGFRAME IOVERLAY, 0, STATIC
        ARGFRAME DOVERLAY, 0, STATIC
        MOV     A,#-0x10
        LCALL   ?BANKED_ENTER_XDATA
        CFI DPH0 load(1, XDATA, add(CFA_XSP16, literal(-1)))
        CFI DPL0 load(1, XDATA, add(CFA_XSP16, literal(-2)))
        CFI ?BRET_EXT load(1, XDATA, add(CFA_XSP16, literal(-3)))
        CFI ?RET_HIGH load(1, XDATA, add(CFA_XSP16, literal(-4)))
        CFI ?RET_LOW load(1, XDATA, add(CFA_XSP16, literal(-5)))
        CFI R7 load(1, XDATA, add(CFA_XSP16, literal(-6)))
        CFI V7 load(1, XDATA, add(CFA_XSP16, literal(-7)))
        CFI V6 load(1, XDATA, add(CFA_XSP16, literal(-8)))
        CFI V5 load(1, XDATA, add(CFA_XSP16, literal(-9)))
        CFI V4 load(1, XDATA, add(CFA_XSP16, literal(-10)))
        CFI V3 load(1, XDATA, add(CFA_XSP16, literal(-11)))
        CFI V2 load(1, XDATA, add(CFA_XSP16, literal(-12)))
        CFI V1 load(1, XDATA, add(CFA_XSP16, literal(-13)))
        CFI V0 load(1, XDATA, add(CFA_XSP16, literal(-14)))
        CFI VB load(1, XDATA, add(CFA_XSP16, literal(-15)))
        CFI R6 load(1, XDATA, add(CFA_XSP16, literal(-16)))
        CFI CFA_SP SP+0
        CFI CFA_XSP16 add(XSP16, 16)
        ; Saved register size: 16
        ; Auto size: 0
        MOV     A,R2
        MOV     R6,A
        MOV     A,R3
        MOV     R7,A
        MOV     ?V0 + 7,R1
// 1791     zahdrin_t *zamsgin;
// 1792 
// 1793     // build message
// 1794     zamsgin = (zahdrin_t *)osal_mem_alloc(SIZEOF_ZAIN_HDR + len);
        MOV     DPL,R1
        MOV     ?V0 + 2,DPL
        ; Setup parameters for call to function osal_mem_alloc
        LCALL   ?Subroutine24 & 0xFFFF
// 1795 
// 1796     if (!zamsgin)  {
??CrossCallReturnLabel_34:
        JNZ     ??zlBuildInternalInboundSerialMSG_0
// 1797       return 0;
        MOV     R2,#0x0
        MOV     R3,#0x0
        SJMP    ??zlBuildInternalInboundSerialMSG_1
// 1798     }
// 1799 
// 1800     zamsgin->zaproxy_nwkAddr   = s_myNwkAddr;
??zlBuildInternalInboundSerialMSG_0:
        MOV     DPTR,#s_myNwkAddr
        LCALL   ??Subroutine45_0 & 0xFFFF
??CrossCallReturnLabel_101:
        LCALL   ?Subroutine6 & 0xFFFF
// 1801     zamsgin->zaproxy_endp      = OAD_ENDPOINT;
??CrossCallReturnLabel_10:
        MOV     A,#-0x38
        LCALL   ?Subroutine8 & 0xFFFF
// 1802     zamsgin->zaproxy_ClusterID = OAD_CLUSTERID_CS;
??CrossCallReturnLabel_14:
        MOV     A,#0x1
        MOVX    @DPTR,A
        INC     DPTR
        CLR     A
        LCALL   ?Subroutine8 & 0xFFFF
// 1803     zamsgin->zaproxy_msglen    = len;
??CrossCallReturnLabel_15:
        INC     DPTR
        INC     DPTR
        MOV     A,?V0 + 7
        MOVX    @DPTR,A
// 1804 
// 1805     osal_memcpy(zamsgin->zaproxy_payload, zlmsg, len);
        ; Setup parameters for call to function osal_memcpy
        MOV     ?V0 + 4,R6
        MOV     ?V0 + 5,R7
        MOV     ?V0 + 6,#0x0
        MOV     R0,#?V0 + 4
        LCALL   ?PUSH_XSTACK_I_THREE
        CFI CFA_XSP16 add(XSP16, 19)
        MOV     R4,?V0 + 2
        LCALL   ?Subroutine25 & 0xFFFF
??CrossCallReturnLabel_89:
        LCALL   ?DEALLOC_XSTACK8
        CFI CFA_XSP16 add(XSP16, 16)
// 1806 
// 1807     return zamsgin;
        MOV     R2,?V0 + 0
        MOV     R3,?V0 + 1
??zlBuildInternalInboundSerialMSG_1:
        LJMP    ?Subroutine1 & 0xFFFF
        CFI EndBlock cfiBlock203
// 1808 }

        RSEG BANKED_CODE:CODE:NOROOT(0)
?Subroutine24:
        CFI Block cfiCond204 Using cfiCommon0
        CFI NoFunction
        CFI Conditional ??CrossCallReturnLabel_33
        CFI R6 load(1, XDATA, add(CFA_XSP16, literal(-19)))
        CFI VB load(1, XDATA, add(CFA_XSP16, literal(-18)))
        CFI V0 load(1, XDATA, add(CFA_XSP16, literal(-17)))
        CFI V1 load(1, XDATA, add(CFA_XSP16, literal(-16)))
        CFI V2 load(1, XDATA, add(CFA_XSP16, literal(-15)))
        CFI V3 load(1, XDATA, add(CFA_XSP16, literal(-14)))
        CFI V4 load(1, XDATA, add(CFA_XSP16, literal(-13)))
        CFI V5 load(1, XDATA, add(CFA_XSP16, literal(-12)))
        CFI V6 load(1, XDATA, add(CFA_XSP16, literal(-11)))
        CFI V7 load(1, XDATA, add(CFA_XSP16, literal(-10)))
        CFI V8 load(1, XDATA, add(CFA_XSP16, literal(-9)))
        CFI V9 load(1, XDATA, add(CFA_XSP16, literal(-8)))
        CFI V10 load(1, XDATA, add(CFA_XSP16, literal(-7)))
        CFI R7 load(1, XDATA, add(CFA_XSP16, literal(-6)))
        CFI ?RET_LOW load(1, XDATA, add(CFA_XSP16, literal(-5)))
        CFI ?RET_HIGH load(1, XDATA, add(CFA_XSP16, literal(-4)))
        CFI ?BRET_EXT load(1, XDATA, add(CFA_XSP16, literal(-3)))
        CFI DPL0 load(1, XDATA, add(CFA_XSP16, literal(-2)))
        CFI DPH0 load(1, XDATA, add(CFA_XSP16, literal(-1)))
        CFI CFA_SP SP+0
        CFI CFA_XSP16 add(XSP16, 19)
        CFI Block cfiCond205 Using cfiCommon0
        CFI (cfiCond205) NoFunction
        CFI (cfiCond205) Conditional ??CrossCallReturnLabel_34
        CFI (cfiCond205) R6 load(1, XDATA, add(CFA_XSP16, literal(-16)))
        CFI (cfiCond205) VB load(1, XDATA, add(CFA_XSP16, literal(-15)))
        CFI (cfiCond205) V0 load(1, XDATA, add(CFA_XSP16, literal(-14)))
        CFI (cfiCond205) V1 load(1, XDATA, add(CFA_XSP16, literal(-13)))
        CFI (cfiCond205) V2 load(1, XDATA, add(CFA_XSP16, literal(-12)))
        CFI (cfiCond205) V3 load(1, XDATA, add(CFA_XSP16, literal(-11)))
        CFI (cfiCond205) V4 load(1, XDATA, add(CFA_XSP16, literal(-10)))
        CFI (cfiCond205) V5 load(1, XDATA, add(CFA_XSP16, literal(-9)))
        CFI (cfiCond205) V6 load(1, XDATA, add(CFA_XSP16, literal(-8)))
        CFI (cfiCond205) V7 load(1, XDATA, add(CFA_XSP16, literal(-7)))
        CFI (cfiCond205) R7 load(1, XDATA, add(CFA_XSP16, literal(-6)))
        CFI (cfiCond205) ?RET_LOW load(1, XDATA, add(CFA_XSP16, literal(-5)))
        CFI (cfiCond205) ?RET_HIGH load(1, XDATA, add(CFA_XSP16, literal(-4)))
        CFI (cfiCond205) ?BRET_EXT load(1, XDATA, add(CFA_XSP16, literal(-3)))
        CFI (cfiCond205) DPL0 load(1, XDATA, add(CFA_XSP16, literal(-2)))
        CFI (cfiCond205) DPH0 load(1, XDATA, add(CFA_XSP16, literal(-1)))
        CFI (cfiCond205) CFA_SP SP+0
        CFI (cfiCond205) CFA_XSP16 add(XSP16, 16)
        CFI Block cfiPicker206 Using cfiCommon1
        CFI (cfiPicker206) NoFunction
        CFI (cfiPicker206) Picker
        MOV     A,R1
        ADD     A,#0x6
        MOV     R2,A
        CLR     A
        ADDC    A,#0x0
        MOV     R3,A
        LCALL   ??osal_mem_alloc?relay
        MOV     ?V0 + 0,R2
        MOV     ?V0 + 1,R3
        MOV     A,R2
        ORL     A,?V0 + 1
        RET
        CFI EndBlock cfiCond204
        CFI EndBlock cfiCond205
        CFI EndBlock cfiPicker206

        RSEG BANKED_CODE:CODE:NOROOT(0)
?Subroutine8:
        CFI Block cfiCond207 Using cfiCommon0
        CFI NoFunction
        CFI Conditional ??CrossCallReturnLabel_14
        CFI R6 load(1, XDATA, add(CFA_XSP16, literal(-16)))
        CFI VB load(1, XDATA, add(CFA_XSP16, literal(-15)))
        CFI V0 load(1, XDATA, add(CFA_XSP16, literal(-14)))
        CFI V1 load(1, XDATA, add(CFA_XSP16, literal(-13)))
        CFI V2 load(1, XDATA, add(CFA_XSP16, literal(-12)))
        CFI V3 load(1, XDATA, add(CFA_XSP16, literal(-11)))
        CFI V4 load(1, XDATA, add(CFA_XSP16, literal(-10)))
        CFI V5 load(1, XDATA, add(CFA_XSP16, literal(-9)))
        CFI V6 load(1, XDATA, add(CFA_XSP16, literal(-8)))
        CFI V7 load(1, XDATA, add(CFA_XSP16, literal(-7)))
        CFI R7 load(1, XDATA, add(CFA_XSP16, literal(-6)))
        CFI ?RET_LOW load(1, XDATA, add(CFA_XSP16, literal(-5)))
        CFI ?RET_HIGH load(1, XDATA, add(CFA_XSP16, literal(-4)))
        CFI ?BRET_EXT load(1, XDATA, add(CFA_XSP16, literal(-3)))
        CFI DPL0 load(1, XDATA, add(CFA_XSP16, literal(-2)))
        CFI DPH0 load(1, XDATA, add(CFA_XSP16, literal(-1)))
        CFI CFA_SP SP+0
        CFI CFA_XSP16 add(XSP16, 16)
        CFI Block cfiCond208 Using cfiCommon0
        CFI (cfiCond208) NoFunction
        CFI (cfiCond208) Conditional ??CrossCallReturnLabel_15
        CFI (cfiCond208) R6 load(1, XDATA, add(CFA_XSP16, literal(-16)))
        CFI (cfiCond208) VB load(1, XDATA, add(CFA_XSP16, literal(-15)))
        CFI (cfiCond208) V0 load(1, XDATA, add(CFA_XSP16, literal(-14)))
        CFI (cfiCond208) V1 load(1, XDATA, add(CFA_XSP16, literal(-13)))
        CFI (cfiCond208) V2 load(1, XDATA, add(CFA_XSP16, literal(-12)))
        CFI (cfiCond208) V3 load(1, XDATA, add(CFA_XSP16, literal(-11)))
        CFI (cfiCond208) V4 load(1, XDATA, add(CFA_XSP16, literal(-10)))
        CFI (cfiCond208) V5 load(1, XDATA, add(CFA_XSP16, literal(-9)))
        CFI (cfiCond208) V6 load(1, XDATA, add(CFA_XSP16, literal(-8)))
        CFI (cfiCond208) V7 load(1, XDATA, add(CFA_XSP16, literal(-7)))
        CFI (cfiCond208) R7 load(1, XDATA, add(CFA_XSP16, literal(-6)))
        CFI (cfiCond208) ?RET_LOW load(1, XDATA, add(CFA_XSP16, literal(-5)))
        CFI (cfiCond208) ?RET_HIGH load(1, XDATA, add(CFA_XSP16, literal(-4)))
        CFI (cfiCond208) ?BRET_EXT load(1, XDATA, add(CFA_XSP16, literal(-3)))
        CFI (cfiCond208) DPL0 load(1, XDATA, add(CFA_XSP16, literal(-2)))
        CFI (cfiCond208) DPH0 load(1, XDATA, add(CFA_XSP16, literal(-1)))
        CFI (cfiCond208) CFA_SP SP+0
        CFI (cfiCond208) CFA_XSP16 add(XSP16, 16)
        CFI Block cfiPicker209 Using cfiCommon1
        CFI (cfiPicker209) NoFunction
        CFI (cfiPicker209) Picker
        LCALL   ?Subroutine29 & 0xFFFF
??CrossCallReturnLabel_42:
        INC     DPTR
        RET
        CFI EndBlock cfiCond207
        CFI EndBlock cfiCond208
        CFI EndBlock cfiPicker209

        RSEG BANKED_CODE:CODE:NOROOT(0)
?Subroutine6:
        CFI Block cfiCond210 Using cfiCommon0
        CFI NoFunction
        CFI Conditional ??CrossCallReturnLabel_9
        CFI R6 load(1, XDATA, add(CFA_XSP16, literal(-19)))
        CFI VB load(1, XDATA, add(CFA_XSP16, literal(-18)))
        CFI V0 load(1, XDATA, add(CFA_XSP16, literal(-17)))
        CFI V1 load(1, XDATA, add(CFA_XSP16, literal(-16)))
        CFI V2 load(1, XDATA, add(CFA_XSP16, literal(-15)))
        CFI V3 load(1, XDATA, add(CFA_XSP16, literal(-14)))
        CFI V4 load(1, XDATA, add(CFA_XSP16, literal(-13)))
        CFI V5 load(1, XDATA, add(CFA_XSP16, literal(-12)))
        CFI V6 load(1, XDATA, add(CFA_XSP16, literal(-11)))
        CFI V7 load(1, XDATA, add(CFA_XSP16, literal(-10)))
        CFI V8 load(1, XDATA, add(CFA_XSP16, literal(-9)))
        CFI V9 load(1, XDATA, add(CFA_XSP16, literal(-8)))
        CFI V10 load(1, XDATA, add(CFA_XSP16, literal(-7)))
        CFI R7 load(1, XDATA, add(CFA_XSP16, literal(-6)))
        CFI ?RET_LOW load(1, XDATA, add(CFA_XSP16, literal(-5)))
        CFI ?RET_HIGH load(1, XDATA, add(CFA_XSP16, literal(-4)))
        CFI ?BRET_EXT load(1, XDATA, add(CFA_XSP16, literal(-3)))
        CFI DPL0 load(1, XDATA, add(CFA_XSP16, literal(-2)))
        CFI DPH0 load(1, XDATA, add(CFA_XSP16, literal(-1)))
        CFI CFA_SP SP+0
        CFI CFA_XSP16 add(XSP16, 19)
        CFI Block cfiCond211 Using cfiCommon0
        CFI (cfiCond211) NoFunction
        CFI (cfiCond211) Conditional ??CrossCallReturnLabel_10
        CFI (cfiCond211) R6 load(1, XDATA, add(CFA_XSP16, literal(-16)))
        CFI (cfiCond211) VB load(1, XDATA, add(CFA_XSP16, literal(-15)))
        CFI (cfiCond211) V0 load(1, XDATA, add(CFA_XSP16, literal(-14)))
        CFI (cfiCond211) V1 load(1, XDATA, add(CFA_XSP16, literal(-13)))
        CFI (cfiCond211) V2 load(1, XDATA, add(CFA_XSP16, literal(-12)))
        CFI (cfiCond211) V3 load(1, XDATA, add(CFA_XSP16, literal(-11)))
        CFI (cfiCond211) V4 load(1, XDATA, add(CFA_XSP16, literal(-10)))
        CFI (cfiCond211) V5 load(1, XDATA, add(CFA_XSP16, literal(-9)))
        CFI (cfiCond211) V6 load(1, XDATA, add(CFA_XSP16, literal(-8)))
        CFI (cfiCond211) V7 load(1, XDATA, add(CFA_XSP16, literal(-7)))
        CFI (cfiCond211) R7 load(1, XDATA, add(CFA_XSP16, literal(-6)))
        CFI (cfiCond211) ?RET_LOW load(1, XDATA, add(CFA_XSP16, literal(-5)))
        CFI (cfiCond211) ?RET_HIGH load(1, XDATA, add(CFA_XSP16, literal(-4)))
        CFI (cfiCond211) ?BRET_EXT load(1, XDATA, add(CFA_XSP16, literal(-3)))
        CFI (cfiCond211) DPL0 load(1, XDATA, add(CFA_XSP16, literal(-2)))
        CFI (cfiCond211) DPH0 load(1, XDATA, add(CFA_XSP16, literal(-1)))
        CFI (cfiCond211) CFA_SP SP+0
        CFI (cfiCond211) CFA_XSP16 add(XSP16, 16)
        CFI Block cfiPicker212 Using cfiCommon1
        CFI (cfiPicker212) NoFunction
        CFI (cfiPicker212) Picker
        MOV     A,R0
        MOVX    @DPTR,A
        INC     DPTR
        MOV     A,R1
        LCALL   ?Subroutine29 & 0xFFFF
??CrossCallReturnLabel_43:
        RET
        CFI EndBlock cfiCond210
        CFI EndBlock cfiCond211
        CFI EndBlock cfiPicker212

        RSEG BANKED_CODE:CODE:NOROOT(0)
?Subroutine29:
        CFI Block cfiCond213 Using cfiCommon0
        CFI NoFunction
        CFI Conditional ??CrossCallReturnLabel_41
        CFI R6 load(1, XDATA, add(CFA_XSP16, literal(-24)))
        CFI VB load(1, XDATA, add(CFA_XSP16, literal(-23)))
        CFI V0 load(1, XDATA, add(CFA_XSP16, literal(-22)))
        CFI V1 load(1, XDATA, add(CFA_XSP16, literal(-21)))
        CFI V2 load(1, XDATA, add(CFA_XSP16, literal(-20)))
        CFI V3 load(1, XDATA, add(CFA_XSP16, literal(-19)))
        CFI V4 load(1, XDATA, add(CFA_XSP16, literal(-18)))
        CFI V5 load(1, XDATA, add(CFA_XSP16, literal(-17)))
        CFI V6 load(1, XDATA, add(CFA_XSP16, literal(-16)))
        CFI V7 load(1, XDATA, add(CFA_XSP16, literal(-15)))
        CFI V8 load(1, XDATA, add(CFA_XSP16, literal(-14)))
        CFI V9 load(1, XDATA, add(CFA_XSP16, literal(-13)))
        CFI V10 load(1, XDATA, add(CFA_XSP16, literal(-12)))
        CFI V11 load(1, XDATA, add(CFA_XSP16, literal(-11)))
        CFI V12 load(1, XDATA, add(CFA_XSP16, literal(-10)))
        CFI V13 load(1, XDATA, add(CFA_XSP16, literal(-9)))
        CFI V14 load(1, XDATA, add(CFA_XSP16, literal(-8)))
        CFI V15 load(1, XDATA, add(CFA_XSP16, literal(-7)))
        CFI R7 load(1, XDATA, add(CFA_XSP16, literal(-6)))
        CFI ?RET_LOW load(1, XDATA, add(CFA_XSP16, literal(-5)))
        CFI ?RET_HIGH load(1, XDATA, add(CFA_XSP16, literal(-4)))
        CFI ?BRET_EXT load(1, XDATA, add(CFA_XSP16, literal(-3)))
        CFI DPL0 load(1, XDATA, add(CFA_XSP16, literal(-2)))
        CFI DPH0 load(1, XDATA, add(CFA_XSP16, literal(-1)))
        CFI CFA_SP SP+0
        CFI CFA_XSP16 add(XSP16, 37)
        CFI Block cfiCond214 Using cfiCommon0
        CFI (cfiCond214) NoFunction
        CFI (cfiCond214) Conditional ??CrossCallReturnLabel_42, ??CrossCallReturnLabel_14
        CFI (cfiCond214) R6 load(1, XDATA, add(CFA_XSP16, literal(-16)))
        CFI (cfiCond214) VB load(1, XDATA, add(CFA_XSP16, literal(-15)))
        CFI (cfiCond214) V0 load(1, XDATA, add(CFA_XSP16, literal(-14)))
        CFI (cfiCond214) V1 load(1, XDATA, add(CFA_XSP16, literal(-13)))
        CFI (cfiCond214) V2 load(1, XDATA, add(CFA_XSP16, literal(-12)))
        CFI (cfiCond214) V3 load(1, XDATA, add(CFA_XSP16, literal(-11)))
        CFI (cfiCond214) V4 load(1, XDATA, add(CFA_XSP16, literal(-10)))
        CFI (cfiCond214) V5 load(1, XDATA, add(CFA_XSP16, literal(-9)))
        CFI (cfiCond214) V6 load(1, XDATA, add(CFA_XSP16, literal(-8)))
        CFI (cfiCond214) V7 load(1, XDATA, add(CFA_XSP16, literal(-7)))
        CFI (cfiCond214) R7 load(1, XDATA, add(CFA_XSP16, literal(-6)))
        CFI (cfiCond214) ?RET_LOW load(1, XDATA, add(CFA_XSP16, literal(-5)))
        CFI (cfiCond214) ?RET_HIGH load(1, XDATA, add(CFA_XSP16, literal(-4)))
        CFI (cfiCond214) ?BRET_EXT load(1, XDATA, add(CFA_XSP16, literal(-3)))
        CFI (cfiCond214) DPL0 load(1, XDATA, add(CFA_XSP16, literal(-2)))
        CFI (cfiCond214) DPH0 load(1, XDATA, add(CFA_XSP16, literal(-1)))
        CFI (cfiCond214) CFA_SP SP+0
        CFI (cfiCond214) CFA_XSP16 add(XSP16, 16)
        CFI Block cfiCond215 Using cfiCommon0
        CFI (cfiCond215) NoFunction
        CFI (cfiCond215) Conditional ??CrossCallReturnLabel_42, ??CrossCallReturnLabel_15
        CFI (cfiCond215) R6 load(1, XDATA, add(CFA_XSP16, literal(-16)))
        CFI (cfiCond215) VB load(1, XDATA, add(CFA_XSP16, literal(-15)))
        CFI (cfiCond215) V0 load(1, XDATA, add(CFA_XSP16, literal(-14)))
        CFI (cfiCond215) V1 load(1, XDATA, add(CFA_XSP16, literal(-13)))
        CFI (cfiCond215) V2 load(1, XDATA, add(CFA_XSP16, literal(-12)))
        CFI (cfiCond215) V3 load(1, XDATA, add(CFA_XSP16, literal(-11)))
        CFI (cfiCond215) V4 load(1, XDATA, add(CFA_XSP16, literal(-10)))
        CFI (cfiCond215) V5 load(1, XDATA, add(CFA_XSP16, literal(-9)))
        CFI (cfiCond215) V6 load(1, XDATA, add(CFA_XSP16, literal(-8)))
        CFI (cfiCond215) V7 load(1, XDATA, add(CFA_XSP16, literal(-7)))
        CFI (cfiCond215) R7 load(1, XDATA, add(CFA_XSP16, literal(-6)))
        CFI (cfiCond215) ?RET_LOW load(1, XDATA, add(CFA_XSP16, literal(-5)))
        CFI (cfiCond215) ?RET_HIGH load(1, XDATA, add(CFA_XSP16, literal(-4)))
        CFI (cfiCond215) ?BRET_EXT load(1, XDATA, add(CFA_XSP16, literal(-3)))
        CFI (cfiCond215) DPL0 load(1, XDATA, add(CFA_XSP16, literal(-2)))
        CFI (cfiCond215) DPH0 load(1, XDATA, add(CFA_XSP16, literal(-1)))
        CFI (cfiCond215) CFA_SP SP+0
        CFI (cfiCond215) CFA_XSP16 add(XSP16, 16)
        CFI Block cfiCond216 Using cfiCommon0
        CFI (cfiCond216) NoFunction
        CFI (cfiCond216) Conditional ??CrossCallReturnLabel_43, ??CrossCallReturnLabel_9
        CFI (cfiCond216) R6 load(1, XDATA, add(CFA_XSP16, literal(-19)))
        CFI (cfiCond216) VB load(1, XDATA, add(CFA_XSP16, literal(-18)))
        CFI (cfiCond216) V0 load(1, XDATA, add(CFA_XSP16, literal(-17)))
        CFI (cfiCond216) V1 load(1, XDATA, add(CFA_XSP16, literal(-16)))
        CFI (cfiCond216) V2 load(1, XDATA, add(CFA_XSP16, literal(-15)))
        CFI (cfiCond216) V3 load(1, XDATA, add(CFA_XSP16, literal(-14)))
        CFI (cfiCond216) V4 load(1, XDATA, add(CFA_XSP16, literal(-13)))
        CFI (cfiCond216) V5 load(1, XDATA, add(CFA_XSP16, literal(-12)))
        CFI (cfiCond216) V6 load(1, XDATA, add(CFA_XSP16, literal(-11)))
        CFI (cfiCond216) V7 load(1, XDATA, add(CFA_XSP16, literal(-10)))
        CFI (cfiCond216) V8 load(1, XDATA, add(CFA_XSP16, literal(-9)))
        CFI (cfiCond216) V9 load(1, XDATA, add(CFA_XSP16, literal(-8)))
        CFI (cfiCond216) V10 load(1, XDATA, add(CFA_XSP16, literal(-7)))
        CFI (cfiCond216) R7 load(1, XDATA, add(CFA_XSP16, literal(-6)))
        CFI (cfiCond216) ?RET_LOW load(1, XDATA, add(CFA_XSP16, literal(-5)))
        CFI (cfiCond216) ?RET_HIGH load(1, XDATA, add(CFA_XSP16, literal(-4)))
        CFI (cfiCond216) ?BRET_EXT load(1, XDATA, add(CFA_XSP16, literal(-3)))
        CFI (cfiCond216) DPL0 load(1, XDATA, add(CFA_XSP16, literal(-2)))
        CFI (cfiCond216) DPH0 load(1, XDATA, add(CFA_XSP16, literal(-1)))
        CFI (cfiCond216) CFA_SP SP+0
        CFI (cfiCond216) CFA_XSP16 add(XSP16, 19)
        CFI Block cfiCond217 Using cfiCommon0
        CFI (cfiCond217) NoFunction
        CFI (cfiCond217) Conditional ??CrossCallReturnLabel_43, ??CrossCallReturnLabel_10
        CFI (cfiCond217) R6 load(1, XDATA, add(CFA_XSP16, literal(-16)))
        CFI (cfiCond217) VB load(1, XDATA, add(CFA_XSP16, literal(-15)))
        CFI (cfiCond217) V0 load(1, XDATA, add(CFA_XSP16, literal(-14)))
        CFI (cfiCond217) V1 load(1, XDATA, add(CFA_XSP16, literal(-13)))
        CFI (cfiCond217) V2 load(1, XDATA, add(CFA_XSP16, literal(-12)))
        CFI (cfiCond217) V3 load(1, XDATA, add(CFA_XSP16, literal(-11)))
        CFI (cfiCond217) V4 load(1, XDATA, add(CFA_XSP16, literal(-10)))
        CFI (cfiCond217) V5 load(1, XDATA, add(CFA_XSP16, literal(-9)))
        CFI (cfiCond217) V6 load(1, XDATA, add(CFA_XSP16, literal(-8)))
        CFI (cfiCond217) V7 load(1, XDATA, add(CFA_XSP16, literal(-7)))
        CFI (cfiCond217) R7 load(1, XDATA, add(CFA_XSP16, literal(-6)))
        CFI (cfiCond217) ?RET_LOW load(1, XDATA, add(CFA_XSP16, literal(-5)))
        CFI (cfiCond217) ?RET_HIGH load(1, XDATA, add(CFA_XSP16, literal(-4)))
        CFI (cfiCond217) ?BRET_EXT load(1, XDATA, add(CFA_XSP16, literal(-3)))
        CFI (cfiCond217) DPL0 load(1, XDATA, add(CFA_XSP16, literal(-2)))
        CFI (cfiCond217) DPH0 load(1, XDATA, add(CFA_XSP16, literal(-1)))
        CFI (cfiCond217) CFA_SP SP+0
        CFI (cfiCond217) CFA_XSP16 add(XSP16, 16)
        CFI Block cfiPicker218 Using cfiCommon1
        CFI (cfiPicker218) NoFunction
        CFI (cfiPicker218) Picker
        MOVX    @DPTR,A
        MOV     DPL,R2
        MOV     DPH,R3
        INC     DPTR
        INC     DPTR
        RET
        CFI EndBlock cfiCond213
        CFI EndBlock cfiCond214
        CFI EndBlock cfiCond215
        CFI EndBlock cfiCond216
        CFI EndBlock cfiCond217
        CFI EndBlock cfiPicker218

        RSEG XDATA_ID:CODE:NOROOT(0)
`?<Initializer for s_myNwkAddr>`:
        DATA16
        DW 65534

        RSEG XDATA_ROM_C:CONST:REORDER:NOROOT(0)
        DATA32
__Constant_3a801:
        DD 239617

        RSEG BANK_RELAYS:CODE:REORDER:NOROOT(0)
??oadAppInit?relay:
        LCALL   ?BDISPATCH
        DATA
        DC24    oadAppInit

        RSEG BANK_RELAYS:CODE:REORDER:NOROOT(0)
??oadAppEvt?relay:
        LCALL   ?BDISPATCH
        DATA
        DC24    oadAppEvt

        RSEG BANK_RELAYS:CODE:REORDER:NOROOT(0)
??procSysEvtMsg?relay:
        LCALL   ?BDISPATCH
        DATA
        DC24    procSysEvtMsg

        RSEG BANK_RELAYS:CODE:REORDER:NOROOT(0)
??ZLOADApp_handleCommand?relay:
        LCALL   ?BDISPATCH
        DATA
        DC24    ZLOADApp_handleCommand

        RSEG BANK_RELAYS:CODE:REORDER:NOROOT(0)
??ZLOADApp_handleReply?relay:
        LCALL   ?BDISPATCH
        DATA
        DC24    ZLOADApp_handleReply

        RSEG BANK_RELAYS:CODE:REORDER:NOROOT(0)
??zlRequestNextDataPacket?relay:
        LCALL   ?BDISPATCH
        DATA
        DC24    zlRequestNextDataPacket

        RSEG BANK_RELAYS:CODE:REORDER:NOROOT(0)
??zlStartClientSession?relay:
        LCALL   ?BDISPATCH
        DATA
        DC24    zlStartClientSession

        RSEG BANK_RELAYS:CODE:REORDER:NOROOT(0)
??zlResetState?relay:
        LCALL   ?BDISPATCH
        DATA
        DC24    zlResetState

        RSEG BANK_RELAYS:CODE:REORDER:NOROOT(0)
??ZLOADApp_SerialMessageMSGCB?relay:
        LCALL   ?BDISPATCH
        DATA
        DC24    ZLOADApp_SerialMessageMSGCB

        RSEG BANK_RELAYS:CODE:REORDER:NOROOT(0)
??zlSendSerial?relay:
        LCALL   ?BDISPATCH
        DATA
        DC24    zlSendSerial

        RSEG BANK_RELAYS:CODE:REORDER:NOROOT(0)
??zlBuildExternalInboundSerialMSG?relay:
        LCALL   ?BDISPATCH
        DATA
        DC24    zlBuildExternalInboundSerialMSG

        RSEG BANK_RELAYS:CODE:REORDER:NOROOT(0)
??zlBuildInternalInboundSerialMSG?relay:
        LCALL   ?BDISPATCH
        DATA
        DC24    zlBuildInternalInboundSerialMSG

        END
// 1809 
// 1810 /*********************************************************************
// 1811  * @fn      zlHandleKeys
// 1812  *
// 1813  * @brief   Handles all key events for this device.
// 1814  *
// 1815  * @param   shift - true if in shift/alt.
// 1816  * @param   keys - bit field for key events. Valid entries:
// 1817  *                 EVAL_SW4
// 1818  *                 EVAL_SW3
// 1819  *                 EVAL_SW2
// 1820  *                 EVAL_SW1
// 1821  *
// 1822  * @return  none
// 1823  */
// 1824 static void zlHandleKeys(uint8 shift, uint8 keys)
// 1825 {
// 1826   // Shift is used to make each button/switch dual purpose.
// 1827   if ( shift )
// 1828   {
// 1829     if ( keys & HAL_KEY_SW_1 )
// 1830     {
// 1831     }
// 1832     if ( keys & HAL_KEY_SW_2 )
// 1833     {
// 1834     }
// 1835     if ( keys & HAL_KEY_SW_3 )
// 1836     {
// 1837     }
// 1838     if ( keys & HAL_KEY_SW_4 )
// 1839     {
// 1840     }
// 1841   }
// 1842   else
// 1843   {
// 1844     if ( keys & HAL_KEY_SW_1 )
// 1845     {
// 1846       mtxMode = TRUE;
// 1847     }
// 1848     if ( keys & HAL_KEY_SW_2 )
// 1849     {
// 1850     }
// 1851     if ( keys & HAL_KEY_SW_3 )
// 1852     {
// 1853       mtxMode = FALSE;
// 1854     }
// 1855     if ( keys & HAL_KEY_SW_4 )
// 1856     {
// 1857     }
// 1858   }
// 1859 }
// 1860 #else
// 1861 #if (HAL_OAD_XNV_IS_INT && ((HAL_OAD_DL_OSET % HAL_FLASH_PAGE_SIZE) != 0))
// 1862 // Bug 2946 - HalXNVWrite() only triggers a page erase when the first byte of a page
// 1863 // boundary is written, so when dividing the available internal flash in half results in a
// 1864 // page being split in half, this remedial measure is necessary.
// 1865 static Status_t zlEraseHalfPage(void)
// 1866 {
// 1867   const uint16 hPgSz = HAL_FLASH_PAGE_SIZE / 2;
// 1868   // HalXNVRead/Write routines add HAL_OAD_DL_OSET to the 'addr' parameter, so pass in a 'negative'.
// 1869   const uint32 addr = 0L - hPgSz;
// 1870   uint8 *pBuf = osal_mem_alloc(hPgSz);
// 1871 
// 1872   if (NULL == pBuf)
// 1873   {
// 1874     return FAILURE;
// 1875   }
// 1876 
// 1877   HalXNVRead(addr, pBuf, hPgSz);
// 1878   // This triggers the full page erase and restores the lower half.
// 1879   HalXNVWrite(addr, pBuf, hPgSz);
// 1880   osal_mem_free(pBuf);
// 1881   return SUCCESS;
// 1882 }
// 1883 #endif
// 1884 #endif
// 1885 #pragma diag_default=Pa039
// 
// 3 861 bytes in segment BANKED_CODE
//    72 bytes in segment BANK_RELAYS
//     2 bytes in segment SFR_AN
//     2 bytes in segment XDATA_I
//     2 bytes in segment XDATA_ID
//    26 bytes in segment XDATA_ROM_C
//    77 bytes in segment XDATA_Z
// 
// 3 935 bytes of CODE  memory
//    22 bytes of CONST memory (+ 4 bytes shared)
//     0 bytes of DATA  memory (+ 2 bytes shared)
//    79 bytes of XDATA memory
//
//Errors: none
//Warnings: none
