///////////////////////////////////////////////////////////////////////////////
//                                                                            /
// IAR C/C++ Compiler V8.10.4.40412/W32 for 8051        13/Aug/2016  11:58:47 /
// Copyright 2004-2011 IAR Systems AB.                                        /
//                                                                            /
//    Core               =  plain                                             /
//    Code model         =  banked                                            /
//    Data model         =  large                                             /
//    Calling convention =  xdata reentrant                                   /
//    Constant location  =  data                                              /
//    Dptr setup         =  1,16                                              /
//    Source file        =  C:\Users\freeman\Documents\work\NBK\Canon\Nbk600E /
//                          X - RF\Components\mac\low_level\srf04\mac_rf.c    /
//    Command line       =  -f "C:\Users\freeman\Documents\work\NBK\Canon\Nbk /
//                          600EX - RF\Projects\zstack\Samples\SampleApp      /
//                          com\CC2530DB\..\..\..\Tools\CC2530DB\f8wCoord.cfg /
//                          " (-DCPU32MHZ -DROOT=__near_func                  /
//                          -DMAC_CFG_APP_PENDING_QUEUE=TRUE                  /
//                          -DZDO_COORDINATOR -DRTR_NWK -DBLINK_LEDS) -f      /
//                          "C:\Users\freeman\Documents\work\NBK\Canon\Nbk600 /
//                          EX - RF\Projects\zstack\Samples\SampleApp         /
//                          com\CC2530DB\..\..\..\Tools\CC2530DB\f8wConfig.cf /
//                          g" (-DSECURE=0 -DZG_SECURE_DYNAMIC=0 -DREFLECTOR  /
//                          -DDEFAULT_CHANLIST=0x00000800                     /
//                          -DZDAPP_CONFIG_PAN_ID=0xFFF0                      /
//                          -DNWK_START_DELAY=100 -DEXTENDED_JOINING_RANDOM_M /
//                          ASK=0x007F -DBEACON_REQUEST_DELAY=100             /
//                          -DBEACON_REQ_DELAY_MASK=0x00FF                    /
//                          -DROUTE_EXPIRY_TIME=30 -DAPSC_ACK_WAIT_DURATION_P /
//                          OLLED=3000 -DNWK_INDIRECT_MSG_TIMEOUT=7           /
//                          -DMAX_RREQ_ENTRIES=8 -DAPSC_MAX_FRAME_RETRIES=3   /
//                          -DNWK_MAX_DATA_RETRIES=2                          /
//                          -DMAX_POLL_FAILURE_RETRIES=2 -DMAX_BCAST=9        /
//                          -DAPS_MAX_GROUPS=16 -DMAX_RTG_ENTRIES=40          /
//                          -DNWK_MAX_BINDING_ENTRIES=4                       /
//                          -DMAX_BINDING_CLUSTER_IDS=4                       /
//                          "-DDEFAULT_KEY={0x01, 0x03, 0x05, 0x07, 0x09,     /
//                          0x0B, 0x0D, 0x0F, 0x00, 0x02, 0x04, 0x06, 0x08,   /
//                          0x0A, 0x0C, 0x0D}" -DMAC_MAX_FRAME_SIZE=116       /
//                          "-DCONST=const __code" -DGENERIC=__generic        /
//                          -DRFD_RCVC_ALWAYS_ON=FALSE -DPOLL_RATE=1000       /
//                          -DQUEUED_POLL_RATE=100 -DRESPONSE_POLL_RATE=100)  /
//                          -DREJOIN_POLL_RATE=440 "C:\Users\freeman\Document /
//                          s\work\NBK\Canon\Nbk600EX -                       /
//                          RF\Components\mac\low_level\srf04\mac_rf.c" -D    /
//                          ZIGBEEPRO -D ZTOOL_P1 -lC                         /
//                          "C:\Users\freeman\Documents\work\NBK\Canon\Nbk600 /
//                          EX - RF\Projects\zstack\Samples\SampleApp         /
//                          com\CC2530DB\CoordinatorEB\List\" -lA             /
//                          "C:\Users\freeman\Documents\work\NBK\Canon\Nbk600 /
//                          EX - RF\Projects\zstack\Samples\SampleApp         /
//                          com\CC2530DB\CoordinatorEB\List\"                 /
//                          --diag_suppress Pe001,Pa010 -o                    /
//                          "C:\Users\freeman\Documents\work\NBK\Canon\Nbk600 /
//                          EX - RF\Projects\zstack\Samples\SampleApp         /
//                          com\CC2530DB\CoordinatorEB\Obj\" -e --debug       /
//                          --core=plain --dptr=16,1 --data_model=large       /
//                          --code_model=banked --calling_convention=xdata_re /
//                          entrant --place_constants=data --nr_virtual_regs  /
//                          16 -I "C:\Users\freeman\Documents\work\NBK\Canon\ /
//                          Nbk600EX - RF\Projects\zstack\Samples\SampleApp   /
//                          com\CC2530DB\" -I "C:\Users\freeman\Documents\wor /
//                          k\NBK\Canon\Nbk600EX - RF\Projects\zstack\Samples /
//                          \SampleApp com\CC2530DB\..\SOURCE\" -I            /
//                          "C:\Users\freeman\Documents\work\NBK\Canon\Nbk600 /
//                          EX - RF\Projects\zstack\Samples\SampleApp         /
//                          com\CC2530DB\..\..\..\ZMAIN\TI2530DB\" -I         /
//                          "C:\Users\freeman\Documents\work\NBK\Canon\Nbk600 /
//                          EX - RF\Projects\zstack\Samples\SampleApp         /
//                          com\CC2530DB\..\..\..\..\..\COMPONENTS\MT\" -I    /
//                          "C:\Users\freeman\Documents\work\NBK\Canon\Nbk600 /
//                          EX - RF\Projects\zstack\Samples\SampleApp         /
//                          com\CC2530DB\..\..\..\..\..\COMPONENTS\HAL\INCLUD /
//                          E\" -I "C:\Users\freeman\Documents\work\NBK\Canon /
//                          \Nbk600EX - RF\Projects\zstack\Samples\SampleApp  /
//                          com\CC2530DB\..\..\..\..\..\COMPONENTS\HAL\TARGET /
//                          \CC2530EB\" -I "C:\Users\freeman\Documents\work\N /
//                          BK\Canon\Nbk600EX - RF\Projects\zstack\Samples\Sa /
//                          mpleApp com\CC2530DB\..\..\..\..\..\COMPONENTS\OS /
//                          AL\MCU\CCSOC\" -I "C:\Users\freeman\Documents\wor /
//                          k\NBK\Canon\Nbk600EX - RF\Projects\zstack\Samples /
//                          \SampleApp com\CC2530DB\..\..\..\..\..\COMPONENTS /
//                          \OSAL\INCLUDE\" -I "C:\Users\freeman\Documents\wo /
//                          rk\NBK\Canon\Nbk600EX -                           /
//                          RF\Projects\zstack\Samples\SampleApp              /
//                          com\CC2530DB\..\..\..\..\..\COMPONENTS\STACK\AF\" /
//                           -I "C:\Users\freeman\Documents\work\NBK\Canon\Nb /
//                          k600EX - RF\Projects\zstack\Samples\SampleApp     /
//                          com\CC2530DB\..\..\..\..\..\COMPONENTS\STACK\NWK\ /
//                          " -I "C:\Users\freeman\Documents\work\NBK\Canon\N /
//                          bk600EX - RF\Projects\zstack\Samples\SampleApp    /
//                          com\CC2530DB\..\..\..\..\..\COMPONENTS\STACK\SEC\ /
//                          " -I "C:\Users\freeman\Documents\work\NBK\Canon\N /
//                          bk600EX - RF\Projects\zstack\Samples\SampleApp    /
//                          com\CC2530DB\..\..\..\..\..\COMPONENTS\STACK\SAPI /
//                          \" -I "C:\Users\freeman\Documents\work\NBK\Canon\ /
//                          Nbk600EX - RF\Projects\zstack\Samples\SampleApp   /
//                          com\CC2530DB\..\..\..\..\..\COMPONENTS\STACK\SYS\ /
//                          " -I "C:\Users\freeman\Documents\work\NBK\Canon\N /
//                          bk600EX - RF\Projects\zstack\Samples\SampleApp    /
//                          com\CC2530DB\..\..\..\..\..\COMPONENTS\STACK\ZDO\ /
//                          " -I "C:\Users\freeman\Documents\work\NBK\Canon\N /
//                          bk600EX - RF\Projects\zstack\Samples\SampleApp    /
//                          com\CC2530DB\..\..\..\..\..\COMPONENTS\ZMAC\F8W\" /
//                           -I "C:\Users\freeman\Documents\work\NBK\Canon\Nb /
//                          k600EX - RF\Projects\zstack\Samples\SampleApp     /
//                          com\CC2530DB\..\..\..\..\..\COMPONENTS\ZMAC\" -I  /
//                          "C:\Users\freeman\Documents\work\NBK\Canon\Nbk600 /
//                          EX - RF\Projects\zstack\Samples\SampleApp         /
//                          com\CC2530DB\..\..\..\..\..\COMPONENTS\SERVICES\S /
//                          ADDR\" -I "C:\Users\freeman\Documents\work\NBK\Ca /
//                          non\Nbk600EX - RF\Projects\zstack\Samples\SampleA /
//                          pp com\CC2530DB\..\..\..\..\..\COMPONENTS\SERVICE /
//                          S\SDATA\" -I "C:\Users\freeman\Documents\work\NBK /
//                          \Canon\Nbk600EX - RF\Projects\zstack\Samples\Samp /
//                          leApp com\CC2530DB\..\..\..\..\..\COMPONENTS\MAC\ /
//                          INCLUDE\" -I "C:\Users\freeman\Documents\work\NBK /
//                          \Canon\Nbk600EX - RF\Projects\zstack\Samples\Samp /
//                          leApp com\CC2530DB\..\..\..\..\..\COMPONENTS\MAC\ /
//                          HIGH_LEVEL\" -I "C:\Users\freeman\Documents\work\ /
//                          NBK\Canon\Nbk600EX - RF\Projects\zstack\Samples\S /
//                          ampleApp com\CC2530DB\..\..\..\..\..\COMPONENTS\M /
//                          AC\LOW_LEVEL\srf04\" -I                           /
//                          "C:\Users\freeman\Documents\work\NBK\Canon\Nbk600 /
//                          EX - RF\Projects\zstack\Samples\SampleApp         /
//                          com\CC2530DB\..\..\..\..\..\COMPONENTS\MAC\LOW_LE /
//                          VEL\srf04\SINGLE_CHIP\" -Ohz --require_prototypes /
//    List file          =  C:\Users\freeman\Documents\work\NBK\Canon\Nbk600E /
//                          X - RF\Projects\zstack\Samples\SampleApp          /
//                          com\CC2530DB\CoordinatorEB\List\mac_rf.s51        /
//                                                                            /
//                                                                            /
///////////////////////////////////////////////////////////////////////////////

        NAME mac_rf

        RTMODEL "__SystemLibrary", "CLib"
        RTMODEL "__calling_convention", "xdata_reentrant"
        RTMODEL "__code_model", "banked"
        RTMODEL "__core", "plain"
        RTMODEL "__data_model", "large"
        RTMODEL "__dptr_size", "16"
        RTMODEL "__extended_stack", "disabled"
        RTMODEL "__location_for_constants", "data"
        RTMODEL "__number_of_dptrs", "1"
        RTMODEL "__rt_version", "1"

        RSEG DOVERLAY:DATA:NOROOT(0)
        RSEG IOVERLAY:IDATA:NOROOT(0)
        RSEG ISTACK:IDATA:NOROOT(0)
        RSEG PSTACK:XDATA:NOROOT(0)
        RSEG XSTACK:XDATA:NOROOT(0)

        EXTERN ?ALLOC_XSTACK8
        EXTERN ?BANKED_ENTER_XDATA
        EXTERN ?BANKED_LEAVE_XDATA
        EXTERN ?BDISPATCH
        EXTERN ?BRET
        EXTERN ?CALL_IND
        EXTERN ?DEALLOC_XSTACK8
        EXTERN ?INTERRUPT_ENTER_XSP
        EXTERN ?INTERRUPT_LEAVE_XSP
        EXTERN ?MOVE_LONG8_XDATA_XDATA
        EXTERN ?PUSH_XSTACK_I_ONE
        EXTERN ?PUSH_XSTACK_I_THREE
        EXTERN ?PUSH_XSTACK_I_TWO
        EXTERN ?SS_SHR
        EXTERN ?S_SHL
        EXTERN ?US_SHR
        EXTERN ?US_SWITCH_SPARSE
        EXTERN ?V0
        EXTERN ?XLOAD_R2345
        EXTERN ?XSP
        EXTERN ?XSTACK_DISP0_8
        EXTERN ?XSTORE_R2345
        EXTERN __INIT_XDATA_I
        EXTERN __INIT_XDATA_Z

        FUNCTION ??BridgedMstReadyRes?relay,0203H
        PUBLIC ??BuildFlashInfoData?relay
        FUNCTION ??BuildFlashInfoData?relay,0203H
        PUBLIC ??BuildPilotInfoData?relay
        FUNCTION ??BuildPilotInfoData?relay,0203H
        PUBLIC ??BuildPreFlashInfoData?relay
        FUNCTION ??BuildPreFlashInfoData?relay,0203H
        FUNCTION ??CalcEachRssi?relay,0203H
        FUNCTION ??CalcSum?relay,0203H
        PUBLIC ??ChanScan?relay
        FUNCTION ??ChanScan?relay,0203H
        FUNCTION ??CheckEachDeviceAlloc?relay,0203H
        PUBLIC ??CmdModeSwitch?relay
        FUNCTION ??CmdModeSwitch?relay,0203H
        PUBLIC ??CmdModeSwitchEx?relay
        FUNCTION ??CmdModeSwitchEx?relay,0203H
        PUBLIC ??CountDown?relay
        FUNCTION ??CountDown?relay,0203H
        FUNCTION ??DevParsInfo?relay,0203H
        PUBLIC ??DevShotRel?relay
        FUNCTION ??DevShotRel?relay,0203H
        FUNCTION ??DeviceReadyRespond?relay,0203H
        FUNCTION ??ExitAndSetChan_exit?relay,0203H
        FUNCTION ??ExitAndSetChan_setCh?relay,0203H
        FUNCTION ??ExitAndSetRfId?relay,0203H
        PUBLIC ??FlashConfirm?relay
        FUNCTION ??FlashConfirm?relay,0203H
        PUBLIC ??InqureConfirm?relay
        FUNCTION ??InqureConfirm?relay,0203H
        PUBLIC ??LinkedShotRel?relay
        FUNCTION ??LinkedShotRel?relay,0203H
        FUNCTION ??LinkedShotShut?relay,0203H
        PUBLIC ??LoadGrPara?relay
        FUNCTION ??LoadGrPara?relay,0203H
        FUNCTION ??MstBridgeHandle?relay,0203H
        PUBLIC ??MstBridgeInfoInqure?relay
        FUNCTION ??MstBridgeInfoInqure?relay,0203H
        FUNCTION ??MstDevInfoSend?relay,0203H
        FUNCTION ??MstDevInfoSendEx?relay,0203H
        FUNCTION ??MstVerifyProc?relay,0203H
        FUNCTION ??MultiInfoPars?relay,0203H
        FUNCTION ??NoneUsedShortAddrSearch?relay,0203H
        PUBLIC ??Pilot?relay
        FUNCTION ??Pilot?relay,0203H
        PUBLIC ??PreFlashInfo?relay
        FUNCTION ??PreFlashInfo?relay,0203H
        PUBLIC ??ReConfirm?relay
        FUNCTION ??ReConfirm?relay,0203H
        PUBLIC ??ReadyInfo?relay
        FUNCTION ??ReadyInfo?relay,0203H
        FUNCTION ??RemoveDevice?relay,0203H
        PUBLIC ??RfMcodeCovert?relay
        FUNCTION ??RfMcodeCovert?relay,0203H
        PUBLIC ??RfMcodeInvert?relay
        FUNCTION ??RfMcodeInvert?relay,0203H
        FUNCTION ??RfModCheck?relay,0203H
        FUNCTION ??RfMstExit?relay,0203H
        PUBLIC ??RflsStart?relay
        FUNCTION ??RflsStart?relay,0203H
        FUNCTION ??SearchForDevice?relay,0203H
        PUBLIC ??SetSleepMode?relay
        FUNCTION ??SetSleepMode?relay,0203H
        FUNCTION ??TrigerUartSend?relay,0203H
        FUNCTION ??UartBulkSend?relay,0203H
        FUNCTION ??UartSctSend?relay,0203H
        FUNCTION ??VerfiInqure?relay,0203H
        FUNCTION ??VeriAndAllocID?relay,0203H
        FUNCTION ??VeriKeyInitial?relay,0203H
        FUNCTION ??devChangeGroup?relay,0203H
        FUNCTION ??devJoinNetProc?relay,0203H
        FUNCTION ??halAesEncrDecr?relay,0203H
        FUNCTION ??halAesLoadKeyOrInitVector?relay,0203H
        PUBWEAK `??halKeyPort0Isr??INTVEC 107`
        FUNCTION ??macBuildMpdu?relay,0203H
        FUNCTION ??macDelay?relay,0203H
        FUNCTION ??macDeleteAllDevice?relay,0203H
        PUBLIC ??macEventLoopEx?relay
        FUNCTION ??macEventLoopEx?relay,0203H
        FUNCTION ??macExRxDisable?relay,0203H
        FUNCTION ??macExRxEnable?relay,0203H
        PUBLIC ??macExTxAckDoneCallback?relay
        FUNCTION ??macExTxAckDoneCallback?relay,0203H
        PUBLIC ??macExTxDoneCallback?relay
        FUNCTION ??macExTxDoneCallback?relay,0203H
        FUNCTION ??macExUartInit?relay,0203H
        FUNCTION ??macExUartRcvHandle?relay,0203H
        FUNCTION ??macEx_UartProcessData?relay,0203H
        FUNCTION ??macMallocNewDev?relay,0203H
        FUNCTION ??macNetCheck?relay,0203H
        FUNCTION ??macParameterSet?relay,0203H
        PUBLIC ??macRfSendPacket?relay
        FUNCTION ??macRfSendPacket?relay,0203H
        FUNCTION ??macRollPolingProc?relay,0203H
        PUBLIC ??macRxCompleteCallbackEx?relay
        FUNCTION ??macRxCompleteCallbackEx?relay,0203H
        PUBLIC ??macTaskInitEx?relay
        FUNCTION ??macTaskInitEx?relay,0203H
        PUBLIC ??znpTestRF?relay
        FUNCTION ??znpTestRF?relay,0203H
        FUNCTION BridgedMstReadyRes,021603H
        ARGFRAME XSTACK, 0, STACK
        LOCFRAME XSTACK, 14, STACK
        PUBLIC BuildFlashInfoData
        FUNCTION BuildFlashInfoData,021203H
        ARGFRAME XSTACK, 10, STACK
        ARGFRAME IOVERLAY, 0, STATIC
        ARGFRAME DOVERLAY, 0, STATIC
        LOCFRAME ISTACK, 1, STACK
        LOCFRAME XSTACK, 25, STACK
        PUBLIC BuildPilotInfoData
        FUNCTION BuildPilotInfoData,021203H
        ARGFRAME XSTACK, 10, STACK
        ARGFRAME IOVERLAY, 0, STATIC
        ARGFRAME DOVERLAY, 0, STATIC
        LOCFRAME ISTACK, 1, STACK
        LOCFRAME XSTACK, 18, STACK
        PUBLIC BuildPreFlashInfoData
        FUNCTION BuildPreFlashInfoData,021203H
        ARGFRAME XSTACK, 11, STACK
        ARGFRAME IOVERLAY, 0, STATIC
        ARGFRAME DOVERLAY, 0, STATIC
        LOCFRAME ISTACK, 1, STACK
        LOCFRAME XSTACK, 18, STACK
        FUNCTION CalcEachRssi,021203H
        ARGFRAME XSTACK, 29, STACK
        ARGFRAME IOVERLAY, 0, STATIC
        ARGFRAME DOVERLAY, 0, STATIC
        LOCFRAME ISTACK, 1, STACK
        LOCFRAME XSTACK, 20, STACK
        FUNCTION CalcSum,0203H
        ARGFRAME XSTACK, 115, STACK
        ARGFRAME IOVERLAY, 0, STATIC
        ARGFRAME DOVERLAY, 0, STATIC
        LOCFRAME XSTACK, 10, STACK
        PUBLIC ChanScan
        FUNCTION ChanScan,021603H
        ARGFRAME XSTACK, 0, STACK
        LOCFRAME XSTACK, 30, STACK
        FUNCTION CheckEachDeviceAlloc,021603H
        ARGFRAME XSTACK, 0, STACK
        LOCFRAME XSTACK, 16, STACK
        PUBLIC CmdModeSwitch
        FUNCTION CmdModeSwitch,021603H
        ARGFRAME XSTACK, 0, STACK
        LOCFRAME XSTACK, 14, STACK
        PUBLIC CmdModeSwitchEx
        FUNCTION CmdModeSwitchEx,021603H
        ARGFRAME XSTACK, 0, STACK
        LOCFRAME ISTACK, 2, STACK
        PUBLIC CountDown
        FUNCTION CountDown,021603H
        ARGFRAME XSTACK, 17, STACK
        ARGFRAME IOVERLAY, 0, STATIC
        ARGFRAME DOVERLAY, 0, STATIC
        LOCFRAME XSTACK, 14, STACK
        FUNCTION DevParsInfo,021203H
        ARGFRAME XSTACK, 10, STACK
        ARGFRAME IOVERLAY, 0, STATIC
        ARGFRAME DOVERLAY, 0, STATIC
        LOCFRAME ISTACK, 2, STACK
        LOCFRAME XSTACK, 115, STACK
        PUBLIC DevShotRel
        FUNCTION DevShotRel,021603H
        ARGFRAME XSTACK, 0, STACK
        LOCFRAME XSTACK, 14, STACK
        FUNCTION DeviceReadyRespond,021603H
        ARGFRAME XSTACK, 0, STACK
        LOCFRAME ISTACK, 1, STACK
        LOCFRAME XSTACK, 14, STACK
        PUBWEAK ENCCS
        PUBWEAK ENCDI
        PUBWEAK ENCDO
        FUNCTION ExitAndSetChan_exit,021603H
        ARGFRAME XSTACK, 0, STACK
        LOCFRAME XSTACK, 14, STACK
        FUNCTION ExitAndSetChan_setCh,021603H
        ARGFRAME XSTACK, 0, STACK
        LOCFRAME ISTACK, 3, STACK
        FUNCTION ExitAndSetRfId,021603H
        ARGFRAME XSTACK, 0, STACK
        LOCFRAME XSTACK, 14, STACK
        PUBLIC FlashConfirm
        FUNCTION FlashConfirm,021603H
        ARGFRAME XSTACK, 0, STACK
        LOCFRAME XSTACK, 14, STACK
        PUBWEAK IEN2
        PUBLIC InqureConfirm
        FUNCTION InqureConfirm,021603H
        ARGFRAME XSTACK, 0, STACK
        LOCFRAME XSTACK, 14, STACK
        PUBLIC LinkedShotRel
        FUNCTION LinkedShotRel,021603H
        ARGFRAME XSTACK, 0, STACK
        LOCFRAME XSTACK, 14, STACK
        FUNCTION LinkedShotShut,021603H
        ARGFRAME XSTACK, 0, STACK
        LOCFRAME XSTACK, 10, STACK
        PUBLIC LoadGrPara
        FUNCTION LoadGrPara,0203H
        ARGFRAME XSTACK, 17, STACK
        ARGFRAME IOVERLAY, 0, STATIC
        ARGFRAME DOVERLAY, 0, STATIC
        LOCFRAME ISTACK, 3, STACK
        FUNCTION MstBridgeHandle,021203H
        ARGFRAME XSTACK, 12, STACK
        ARGFRAME IOVERLAY, 0, STATIC
        ARGFRAME DOVERLAY, 0, STATIC
        LOCFRAME ISTACK, 1, STACK
        LOCFRAME XSTACK, 11, STACK
        PUBLIC MstBridgeInfoInqure
        FUNCTION MstBridgeInfoInqure,021603H
        ARGFRAME XSTACK, 0, STACK
        LOCFRAME XSTACK, 14, STACK
        FUNCTION MstDevInfoSend,021203H
        ARGFRAME XSTACK, 16, STACK
        ARGFRAME IOVERLAY, 0, STATIC
        ARGFRAME DOVERLAY, 0, STATIC
        LOCFRAME ISTACK, 4, STACK
        LOCFRAME XSTACK, 20, STACK
        FUNCTION MstDevInfoSendEx,021203H
        ARGFRAME XSTACK, 16, STACK
        ARGFRAME IOVERLAY, 0, STATIC
        ARGFRAME DOVERLAY, 0, STATIC
        LOCFRAME ISTACK, 2, STACK
        LOCFRAME XSTACK, 29, STACK
        FUNCTION MstVerifyProc,0a1203H
        ARGFRAME XSTACK, 12, STACK
        ARGFRAME IOVERLAY, 0, STATIC
        ARGFRAME DOVERLAY, 0, STATIC
        LOCFRAME ISTACK, 1, STACK
        LOCFRAME XSTACK, 16, STACK
        FUNCTION MultiInfoPars,021203H
        ARGFRAME XSTACK, 10, STACK
        ARGFRAME IOVERLAY, 0, STATIC
        ARGFRAME DOVERLAY, 0, STATIC
        LOCFRAME ISTACK, 1, STACK
        LOCFRAME XSTACK, 31, STACK
        FUNCTION NoneUsedShortAddrSearch,021203H
        ARGFRAME XSTACK, 16, STACK
        ARGFRAME IOVERLAY, 0, STATIC
        ARGFRAME DOVERLAY, 0, STATIC
        LOCFRAME XSTACK, 9, STACK
        PUBWEAK P0DIR
        PUBWEAK P0IEN
        PUBWEAK P0IFG
        PUBWEAK P0INP
        PUBWEAK P0SEL
        PUBWEAK PICTL
        PUBLIC Pilot
        FUNCTION Pilot,021603H
        ARGFRAME XSTACK, 0, STACK
        LOCFRAME XSTACK, 14, STACK
        PUBLIC PreFlashInfo
        FUNCTION PreFlashInfo,021603H
        ARGFRAME XSTACK, 0, STACK
        LOCFRAME XSTACK, 15, STACK
        PUBWEAK RFIRQF1
        PUBWEAK RFST
        PUBLIC ReConfirm
        FUNCTION ReConfirm,021603H
        ARGFRAME XSTACK, 0, STACK
        LOCFRAME XSTACK, 14, STACK
        PUBLIC ReadyInfo
        FUNCTION ReadyInfo,021603H
        ARGFRAME XSTACK, 0, STACK
        LOCFRAME XSTACK, 14, STACK
        FUNCTION RemoveDevice,021203H
        ARGFRAME XSTACK, 16, STACK
        ARGFRAME IOVERLAY, 0, STATIC
        ARGFRAME DOVERLAY, 0, STATIC
        LOCFRAME XSTACK, 10, STACK
        PUBLIC RfMcodeCovert
        FUNCTION RfMcodeCovert,0203H
        ARGFRAME XSTACK, 22, STACK
        ARGFRAME IOVERLAY, 0, STATIC
        ARGFRAME DOVERLAY, 0, STATIC
        PUBLIC RfMcodeInvert
        FUNCTION RfMcodeInvert,0203H
        ARGFRAME XSTACK, 0, STACK
        FUNCTION RfModCheck,021203H
        ARGFRAME XSTACK, 17, STACK
        ARGFRAME IOVERLAY, 0, STATIC
        ARGFRAME DOVERLAY, 0, STATIC
        LOCFRAME XSTACK, 9, STACK
        FUNCTION RfMstExit,021603H
        ARGFRAME XSTACK, 0, STACK
        LOCFRAME XSTACK, 14, STACK
        PUBLIC RflsStart
        FUNCTION RflsStart,021203H
        ARGFRAME XSTACK, 10, STACK
        ARGFRAME IOVERLAY, 0, STATIC
        ARGFRAME DOVERLAY, 0, STATIC
        LOCFRAME XSTACK, 14, STACK
        FUNCTION SearchForDevice,0203H
        ARGFRAME XSTACK, 16, STACK
        ARGFRAME IOVERLAY, 0, STATIC
        ARGFRAME DOVERLAY, 0, STATIC
        LOCFRAME ISTACK, 2, STACK
        PUBLIC SetSleepMode
        FUNCTION SetSleepMode,0a1603H
        ARGFRAME XSTACK, 0, STACK
        LOCFRAME ISTACK, 2, STACK
        FUNCTION TrigerUartSend,021203H
        ARGFRAME XSTACK, 27, STACK
        ARGFRAME IOVERLAY, 0, STATIC
        ARGFRAME DOVERLAY, 0, STATIC
        LOCFRAME ISTACK, 1, STACK
        LOCFRAME XSTACK, 10, STACK
        FUNCTION UartBulkSend,021203H
        ARGFRAME XSTACK, 115, STACK
        ARGFRAME IOVERLAY, 0, STATIC
        ARGFRAME DOVERLAY, 0, STATIC
        LOCFRAME XSTACK, 10, STACK
        FUNCTION UartSctSend,021203H
        ARGFRAME XSTACK, 26, STACK
        ARGFRAME IOVERLAY, 0, STATIC
        ARGFRAME DOVERLAY, 0, STATIC
        LOCFRAME ISTACK, 1, STACK
        LOCFRAME XSTACK, 9, STACK
        FUNCTION VerfiInqure,021603H
        ARGFRAME XSTACK, 0, STACK
        LOCFRAME XSTACK, 14, STACK
        FUNCTION VeriAndAllocID,021603H
        ARGFRAME XSTACK, 0, STACK
        LOCFRAME ISTACK, 1, STACK
        LOCFRAME XSTACK, 16, STACK
        FUNCTION VeriKeyInitial,021203H
        ARGFRAME XSTACK, 26, STACK
        ARGFRAME IOVERLAY, 0, STATIC
        ARGFRAME DOVERLAY, 0, STATIC
        LOCFRAME ISTACK, 1, STACK
        LOCFRAME XSTACK, 34, STACK
        PUBWEAK _A_IEN0
        PUBWEAK _A_IEN1
        PUBWEAK _A_IRCON
        PUBWEAK _A_P0
        PUBWEAK _A_P1
        PUBWEAK __Constant_0
        PUBLIC callbackPara
        PUBLIC cpuIdKey
        PUBLIC cpuIdRst
        FUNCTION devChangeGroup,021603H
        ARGFRAME XSTACK, 0, STACK
        LOCFRAME XSTACK, 14, STACK
        FUNCTION devJoinNetProc,0a1203H
        ARGFRAME XSTACK, 12, STACK
        ARGFRAME IOVERLAY, 0, STATIC
        ARGFRAME DOVERLAY, 0, STATIC
        LOCFRAME XSTACK, 10, STACK
        PUBLIC gBUartBuf
        PUBLIC gBUartLen
        PUBLIC gBUartTotalByte
        PUBLIC g_devCheck
        PUBLIC g_devCmd
        PUBLIC g_devLinkFlag
        PUBLIC g_flaStatus
        PUBLIC g_grInfo
        PUBLIC g_hpFlag
        PUBLIC g_initCheck
        PUBLIC g_isMaster
        PUBLIC g_modelingStyle
        PUBLIC g_msTick
        PUBLIC g_mstHold
        PUBLIC g_netStart
        PUBLIC g_quireFlag
        PUBLIC g_sendLen
        PUBLIC g_slaLinkSta
        PUBLIC g_swMode
        PUBLIC g_swRfChan
        PUBLIC g_swRfId
        FUNCTION halAesEncrDecr,0203H
        ARGFRAME XSTACK, 33, STACK
        ARGFRAME IOVERLAY, 0, STATIC
        ARGFRAME DOVERLAY, 0, STATIC
        LOCFRAME ISTACK, 1, STACK
        LOCFRAME XSTACK, 18, STACK
        FUNCTION halAesLoadKeyOrInitVector,0203H
        ARGFRAME XSTACK, 31, STACK
        ARGFRAME IOVERLAY, 0, STATIC
        ARGFRAME DOVERLAY, 0, STATIC
        LOCFRAME XSTACK, 10, STACK
        PUBLIC halKeyPort0Isr
        FUNCTION halKeyPort0Isr,021233H
        ARGFRAME XSTACK, 0, STACK
        LOCFRAME XSTACK, 14, STACK
        PUBLIC ipRsv
        FUNCTION macBuildMpdu,021203H
        ARGFRAME XSTACK, 15, STACK
        ARGFRAME IOVERLAY, 0, STATIC
        ARGFRAME DOVERLAY, 0, STATIC
        LOCFRAME ISTACK, 1, STACK
        LOCFRAME XSTACK, 18, STACK
        FUNCTION macDelay,0203H
        ARGFRAME XSTACK, 10, STACK
        ARGFRAME IOVERLAY, 0, STATIC
        ARGFRAME DOVERLAY, 0, STATIC
        FUNCTION macDeleteAllDevice,021203H
        ARGFRAME XSTACK, 17, STACK
        ARGFRAME IOVERLAY, 0, STATIC
        ARGFRAME DOVERLAY, 0, STATIC
        LOCFRAME XSTACK, 9, STACK
        PUBLIC macEventLoopEx
        FUNCTION macEventLoopEx,021203H
        ARGFRAME XSTACK, 0, STACK
        LOCFRAME XSTACK, 12, STACK
        FUNCTION macExRxDisable,021203H
        ARGFRAME XSTACK, 20, STACK
        ARGFRAME IOVERLAY, 0, STATIC
        ARGFRAME DOVERLAY, 0, STATIC
        LOCFRAME ISTACK, 2, STACK
        FUNCTION macExRxEnable,021203H
        ARGFRAME XSTACK, 20, STACK
        ARGFRAME IOVERLAY, 0, STATIC
        ARGFRAME DOVERLAY, 0, STATIC
        LOCFRAME ISTACK, 2, STACK
        PUBLIC macExTxAckDoneCallback
        FUNCTION macExTxAckDoneCallback,0203H
        ARGFRAME XSTACK, 0, STACK
        LOCFRAME ISTACK, 2, STACK
        PUBLIC macExTxDoneCallback
        FUNCTION macExTxDoneCallback,0203H
        ARGFRAME XSTACK, 0, STACK
        LOCFRAME ISTACK, 2, STACK
        FUNCTION macExUartInit,021203H
        ARGFRAME XSTACK, 26, STACK
        ARGFRAME IOVERLAY, 0, STATIC
        ARGFRAME DOVERLAY, 0, STATIC
        LOCFRAME ISTACK, 2, STACK
        LOCFRAME XSTACK, 29, STACK
        FUNCTION macExUartRcvHandle,021203H
        ARGFRAME XSTACK, 12, STACK
        ARGFRAME IOVERLAY, 0, STATIC
        ARGFRAME DOVERLAY, 0, STATIC
        LOCFRAME ISTACK, 1, STACK
        LOCFRAME XSTACK, 17, STACK
        FUNCTION macEx_UartProcessData,021603H
        ARGFRAME XSTACK, 0, STACK
        LOCFRAME XSTACK, 12, STACK
        PUBLIC macEx_taskId
        FUNCTION macMallocNewDev,021203H
        ARGFRAME XSTACK, 16, STACK
        ARGFRAME IOVERLAY, 0, STATIC
        ARGFRAME DOVERLAY, 0, STATIC
        LOCFRAME XSTACK, 11, STACK
        FUNCTION macNetCheck,021603H
        ARGFRAME XSTACK, 26, STACK
        ARGFRAME IOVERLAY, 0, STATIC
        ARGFRAME DOVERLAY, 0, STATIC
        LOCFRAME ISTACK, 1, STACK
        LOCFRAME XSTACK, 15, STACK
        FUNCTION macParameterSet,0203H
        ARGFRAME XSTACK, 26, STACK
        ARGFRAME IOVERLAY, 0, STATIC
        ARGFRAME DOVERLAY, 0, STATIC
        LOCFRAME ISTACK, 2, STACK
        PUBLIC macRfSendPacket
        FUNCTION macRfSendPacket,021203H
        ARGFRAME XSTACK, 16, STACK
        ARGFRAME IOVERLAY, 0, STATIC
        ARGFRAME DOVERLAY, 0, STATIC
        LOCFRAME XSTACK, 15, STACK
        FUNCTION macRollPolingProc,021603H
        ARGFRAME XSTACK, 0, STACK
        LOCFRAME ISTACK, 1, STACK
        LOCFRAME XSTACK, 14, STACK
        PUBLIC macRxCompleteCallbackEx
        FUNCTION macRxCompleteCallbackEx,021203H
        ARGFRAME XSTACK, 0, STACK
        LOCFRAME XSTACK, 10, STACK
        PUBLIC macTaskInitEx
        FUNCTION macTaskInitEx,021203H
        ARGFRAME XSTACK, 0, STACK
        LOCFRAME XSTACK, 28, STACK
        PUBLIC multiCmd
        PUBLIC pConfig
        PUBLIC pCurrentDev
        PUBLIC preCmdBuf
        PUBLIC radioSet
        PUBLIC rcvBuf
        PUBLIC rxi
        PUBLIC uart_tran_flag
        PUBLIC znpTestRF
        FUNCTION znpTestRF,0203H
        ARGFRAME XSTACK, 17, STACK
        ARGFRAME IOVERLAY, 0, STATIC
        ARGFRAME DOVERLAY, 0, STATIC
        LOCFRAME ISTACK, 4, STACK
        LOCFRAME XSTACK, 4, STACK
        
        CFI Names cfiNames0
        CFI StackFrame CFA_SP SP IDATA
        CFI StackFrame CFA_PSP16 PSP16 XDATA
        CFI StackFrame CFA_XSP16 XSP16 XDATA
        CFI StaticOverlayFrame CFA_IOVERLAY IOVERLAY
        CFI StaticOverlayFrame CFA_DOVERLAY DOVERLAY
        CFI Resource `PSW.CY`:1, `B.BR0`:1, `B.BR1`:1, `B.BR2`:1, `B.BR3`:1
        CFI Resource `B.BR4`:1, `B.BR5`:1, `B.BR6`:1, `B.BR7`:1, `VB.BR8`:1
        CFI Resource `VB.BR9`:1, `VB.BR10`:1, `VB.BR11`:1, `VB.BR12`:1
        CFI Resource `VB.BR13`:1, `VB.BR14`:1, `VB.BR15`:1, VB:8, B:8, A:8
        CFI Resource PSW:8, DPL0:8, DPH0:8, R0:8, R1:8, R2:8, R3:8, R4:8, R5:8
        CFI Resource R6:8, R7:8, V0:8, V1:8, V2:8, V3:8, V4:8, V5:8, V6:8, V7:8
        CFI Resource V8:8, V9:8, V10:8, V11:8, V12:8, V13:8, V14:8, V15:8, SP:8
        CFI Resource PSPH:8, PSPL:8, PSP16:16, XSPH:8, XSPL:8, XSP16:16
        CFI VirtualResource ?RET:24
        CFI Resource ?BRET_EXT:8
        CFI VirtualResource ?RET_HIGH:8, ?RET_LOW:8
        CFI ResourceParts PSP16 PSPH, PSPL
        CFI ResourceParts XSP16 XSPH, XSPL
        CFI ResourceParts ?RET ?BRET_EXT, ?RET_HIGH, ?RET_LOW
        CFI EndNames cfiNames0
        
        CFI Common cfiCommon0 Using cfiNames0
        CFI CodeAlign 1
        CFI DataAlign -1
        CFI ReturnAddress ?RET CODE
        CFI CFA_DOVERLAY Used
        CFI CFA_IOVERLAY Used
        CFI CFA_SP SP+-3
        CFI CFA_PSP16 PSP16+0
        CFI CFA_XSP16 XSP16+0
        CFI `PSW.CY` SameValue
        CFI `B.BR0` SameValue
        CFI `B.BR1` SameValue
        CFI `B.BR2` SameValue
        CFI `B.BR3` SameValue
        CFI `B.BR4` SameValue
        CFI `B.BR5` SameValue
        CFI `B.BR6` SameValue
        CFI `B.BR7` SameValue
        CFI `VB.BR8` SameValue
        CFI `VB.BR9` SameValue
        CFI `VB.BR10` SameValue
        CFI `VB.BR11` SameValue
        CFI `VB.BR12` SameValue
        CFI `VB.BR13` SameValue
        CFI `VB.BR14` SameValue
        CFI `VB.BR15` SameValue
        CFI VB SameValue
        CFI B Undefined
        CFI A Undefined
        CFI PSW SameValue
        CFI DPL0 SameValue
        CFI DPH0 SameValue
        CFI R0 Undefined
        CFI R1 Undefined
        CFI R2 Undefined
        CFI R3 Undefined
        CFI R4 Undefined
        CFI R5 Undefined
        CFI R6 SameValue
        CFI R7 SameValue
        CFI V0 SameValue
        CFI V1 SameValue
        CFI V2 SameValue
        CFI V3 SameValue
        CFI V4 SameValue
        CFI V5 SameValue
        CFI V6 SameValue
        CFI V7 SameValue
        CFI V8 SameValue
        CFI V9 SameValue
        CFI V10 SameValue
        CFI V11 SameValue
        CFI V12 SameValue
        CFI V13 SameValue
        CFI V14 SameValue
        CFI V15 SameValue
        CFI PSPH Undefined
        CFI PSPL Undefined
        CFI XSPH Undefined
        CFI XSPL Undefined
        CFI ?RET Concat
        CFI ?BRET_EXT Frame(CFA_SP, 3)
        CFI ?RET_HIGH Frame(CFA_SP, 2)
        CFI ?RET_LOW Frame(CFA_SP, 1)
        CFI EndCommon cfiCommon0
        
        
        CFI Common cfiCommon1 Using cfiNames0
        CFI CodeAlign 1
        CFI DataAlign -1
        CFI ReturnAddress ?RET CODE
        CFI CFA_DOVERLAY Used
        CFI CFA_IOVERLAY Used
        CFI CFA_SP SP+-2
        CFI CFA_PSP16 PSP16+0
        CFI CFA_XSP16 XSP16+0
        CFI `PSW.CY` SameValue
        CFI `B.BR0` SameValue
        CFI `B.BR1` SameValue
        CFI `B.BR2` SameValue
        CFI `B.BR3` SameValue
        CFI `B.BR4` SameValue
        CFI `B.BR5` SameValue
        CFI `B.BR6` SameValue
        CFI `B.BR7` SameValue
        CFI `VB.BR8` SameValue
        CFI `VB.BR9` SameValue
        CFI `VB.BR10` SameValue
        CFI `VB.BR11` SameValue
        CFI `VB.BR12` SameValue
        CFI `VB.BR13` SameValue
        CFI `VB.BR14` SameValue
        CFI `VB.BR15` SameValue
        CFI VB SameValue
        CFI B SameValue
        CFI A SameValue
        CFI PSW SameValue
        CFI DPL0 SameValue
        CFI DPH0 SameValue
        CFI R0 SameValue
        CFI R1 SameValue
        CFI R2 SameValue
        CFI R3 SameValue
        CFI R4 SameValue
        CFI R5 SameValue
        CFI R6 SameValue
        CFI R7 SameValue
        CFI V0 SameValue
        CFI V1 SameValue
        CFI V2 SameValue
        CFI V3 SameValue
        CFI V4 SameValue
        CFI V5 SameValue
        CFI V6 SameValue
        CFI V7 SameValue
        CFI V8 SameValue
        CFI V9 SameValue
        CFI V10 SameValue
        CFI V11 SameValue
        CFI V12 SameValue
        CFI V13 SameValue
        CFI V14 SameValue
        CFI V15 SameValue
        CFI PSPH Undefined
        CFI PSPL Undefined
        CFI XSPH Undefined
        CFI XSPL Undefined
        CFI ?RET Concat
        CFI ?BRET_EXT SameValue
        CFI ?RET_HIGH Frame(CFA_SP, 2)
        CFI ?RET_LOW Frame(CFA_SP, 1)
        CFI EndCommon cfiCommon1
        
osal_memset         SYMBOL "osal_memset"
halAssertHandler    SYMBOL "halAssertHandler"
osal_memcpy         SYMBOL "osal_memcpy"
macMemWriteTxFifo   SYMBOL "macMemWriteTxFifo"
osal_rand           SYMBOL "osal_rand"
osal_start_timerEx  SYMBOL "osal_start_timerEx"
sAddrExtCpy         SYMBOL "sAddrExtCpy"
macRxEnable         SYMBOL "macRxEnable"
macRxDisable        SYMBOL "macRxDisable"
HalFlashRead        SYMBOL "HalFlashRead"
macLowLevelInit     SYMBOL "macLowLevelInit"
macRadioSetTxPower  SYMBOL "macRadioSetTxPower"
macMemReadRam       SYMBOL "macMemReadRam"
macMemWriteRam      SYMBOL "macMemWriteRam"
sAddrExtCmp         SYMBOL "sAddrExtCmp"
osal_stop_timerEx   SYMBOL "osal_stop_timerEx"
osal_msg_allocate   SYMBOL "osal_msg_allocate"
osal_msg_send       SYMBOL "osal_msg_send"
halSleep            SYMBOL "halSleep"
macRxHardDisable    SYMBOL "macRxHardDisable"
Hal_UART_RxBufLen   SYMBOL "Hal_UART_RxBufLen"
HalUARTRead         SYMBOL "HalUARTRead"
HalUARTOpen         SYMBOL "HalUARTOpen"
HalUARTWrite        SYMBOL "HalUARTWrite"
UartDMAIntSend      SYMBOL "UartDMAIntSend"
osal_memcmp         SYMBOL "osal_memcmp"
macRadioEnergyDetectStart SYMBOL "macRadioEnergyDetectStart"
macRadioEnergyDetectStop SYMBOL "macRadioEnergyDetectStop"
osal_msg_receive    SYMBOL "osal_msg_receive"
osal_msg_deallocate SYMBOL "osal_msg_deallocate"
UartDMAIntRcv       SYMBOL "UartDMAIntRcv"
??HalFlashRead?relay SYMBOL "?relay", HalFlashRead
??HalUARTOpen?relay SYMBOL "?relay", HalUARTOpen
??HalUARTRead?relay SYMBOL "?relay", HalUARTRead
??HalUARTWrite?relay SYMBOL "?relay", HalUARTWrite
??Hal_UART_RxBufLen?relay SYMBOL "?relay", Hal_UART_RxBufLen
??UartDMAIntRcv?relay SYMBOL "?relay", UartDMAIntRcv
??UartDMAIntSend?relay SYMBOL "?relay", UartDMAIntSend
??halAssertHandler?relay SYMBOL "?relay", halAssertHandler
??halSleep?relay    SYMBOL "?relay", halSleep
??macLowLevelInit?relay SYMBOL "?relay", macLowLevelInit
??macMemReadRam?relay SYMBOL "?relay", macMemReadRam
??macMemWriteRam?relay SYMBOL "?relay", macMemWriteRam
??macMemWriteTxFifo?relay SYMBOL "?relay", macMemWriteTxFifo
??macRadioEnergyDetectStart?relay SYMBOL "?relay", macRadioEnergyDetectStart
??macRadioEnergyDetectStop?relay SYMBOL "?relay", macRadioEnergyDetectStop
??macRadioSetTxPower?relay SYMBOL "?relay", macRadioSetTxPower
??macRxDisable?relay SYMBOL "?relay", macRxDisable
??macRxEnable?relay SYMBOL "?relay", macRxEnable
??macRxHardDisable?relay SYMBOL "?relay", macRxHardDisable
??osal_memcmp?relay SYMBOL "?relay", osal_memcmp
??osal_memcpy?relay SYMBOL "?relay", osal_memcpy
??osal_memset?relay SYMBOL "?relay", osal_memset
??osal_msg_allocate?relay SYMBOL "?relay", osal_msg_allocate
??osal_msg_deallocate?relay SYMBOL "?relay", osal_msg_deallocate
??osal_msg_receive?relay SYMBOL "?relay", osal_msg_receive
??osal_msg_send?relay SYMBOL "?relay", osal_msg_send
??osal_rand?relay   SYMBOL "?relay", osal_rand
??osal_start_timerEx?relay SYMBOL "?relay", osal_start_timerEx
??osal_stop_timerEx?relay SYMBOL "?relay", osal_stop_timerEx
??sAddrExtCmp?relay SYMBOL "?relay", sAddrExtCmp
??sAddrExtCpy?relay SYMBOL "?relay", sAddrExtCpy
BuildFlashInfoData  SYMBOL "BuildFlashInfoData"
??BuildFlashInfoData?relay SYMBOL "?relay", BuildFlashInfoData
BuildPilotInfoData  SYMBOL "BuildPilotInfoData"
??BuildPilotInfoData?relay SYMBOL "?relay", BuildPilotInfoData
BuildPreFlashInfoData SYMBOL "BuildPreFlashInfoData"
??BuildPreFlashInfoData?relay SYMBOL "?relay", BuildPreFlashInfoData
ChanScan            SYMBOL "ChanScan"
??ChanScan?relay    SYMBOL "?relay", ChanScan
CmdModeSwitch       SYMBOL "CmdModeSwitch"
??CmdModeSwitch?relay SYMBOL "?relay", CmdModeSwitch
CmdModeSwitchEx     SYMBOL "CmdModeSwitchEx"
??CmdModeSwitchEx?relay SYMBOL "?relay", CmdModeSwitchEx
CountDown           SYMBOL "CountDown"
??CountDown?relay   SYMBOL "?relay", CountDown
DevShotRel          SYMBOL "DevShotRel"
??DevShotRel?relay  SYMBOL "?relay", DevShotRel
FlashConfirm        SYMBOL "FlashConfirm"
??FlashConfirm?relay SYMBOL "?relay", FlashConfirm
InqureConfirm       SYMBOL "InqureConfirm"
??InqureConfirm?relay SYMBOL "?relay", InqureConfirm
LinkedShotRel       SYMBOL "LinkedShotRel"
??LinkedShotRel?relay SYMBOL "?relay", LinkedShotRel
LoadGrPara          SYMBOL "LoadGrPara"
??LoadGrPara?relay  SYMBOL "?relay", LoadGrPara
MstBridgeInfoInqure SYMBOL "MstBridgeInfoInqure"
??MstBridgeInfoInqure?relay SYMBOL "?relay", MstBridgeInfoInqure
Pilot               SYMBOL "Pilot"
??Pilot?relay       SYMBOL "?relay", Pilot
PreFlashInfo        SYMBOL "PreFlashInfo"
??PreFlashInfo?relay SYMBOL "?relay", PreFlashInfo
ReConfirm           SYMBOL "ReConfirm"
??ReConfirm?relay   SYMBOL "?relay", ReConfirm
ReadyInfo           SYMBOL "ReadyInfo"
??ReadyInfo?relay   SYMBOL "?relay", ReadyInfo
RfMcodeCovert       SYMBOL "RfMcodeCovert"
??RfMcodeCovert?relay SYMBOL "?relay", RfMcodeCovert
RfMcodeInvert       SYMBOL "RfMcodeInvert"
??RfMcodeInvert?relay SYMBOL "?relay", RfMcodeInvert
RflsStart           SYMBOL "RflsStart"
??RflsStart?relay   SYMBOL "?relay", RflsStart
SetSleepMode        SYMBOL "SetSleepMode"
??SetSleepMode?relay SYMBOL "?relay", SetSleepMode
halKeyPort0Isr      SYMBOL "halKeyPort0Isr"
`??halKeyPort0Isr??INTVEC 107` SYMBOL "??INTVEC 107", halKeyPort0Isr
macEventLoopEx      SYMBOL "macEventLoopEx"
??macEventLoopEx?relay SYMBOL "?relay", macEventLoopEx
macExTxAckDoneCallback SYMBOL "macExTxAckDoneCallback"
??macExTxAckDoneCallback?relay SYMBOL "?relay", macExTxAckDoneCallback
macExTxDoneCallback SYMBOL "macExTxDoneCallback"
??macExTxDoneCallback?relay SYMBOL "?relay", macExTxDoneCallback
macRfSendPacket     SYMBOL "macRfSendPacket"
??macRfSendPacket?relay SYMBOL "?relay", macRfSendPacket
macRxCompleteCallbackEx SYMBOL "macRxCompleteCallbackEx"
??macRxCompleteCallbackEx?relay SYMBOL "?relay", macRxCompleteCallbackEx
macTaskInitEx       SYMBOL "macTaskInitEx"
??macTaskInitEx?relay SYMBOL "?relay", macTaskInitEx
znpTestRF           SYMBOL "znpTestRF"
??znpTestRF?relay   SYMBOL "?relay", znpTestRF

        EXTERN osal_memset
        FUNCTION osal_memset,0202H
        ARGFRAME ISTACK, 0, STACK
        ARGFRAME PSTACK, 0, STACK
        ARGFRAME XSTACK, 26, STACK
        ARGFRAME IOVERLAY, 0, STATIC
        ARGFRAME DOVERLAY, 0, STATIC
        EXTERN halAssertHandler
        FUNCTION halAssertHandler,0202H
        ARGFRAME ISTACK, 0, STACK
        ARGFRAME PSTACK, 0, STACK
        ARGFRAME XSTACK, 9, STACK
        ARGFRAME IOVERLAY, 0, STATIC
        ARGFRAME DOVERLAY, 0, STATIC
        EXTERN osal_memcpy
        FUNCTION osal_memcpy,0202H
        ARGFRAME ISTACK, 0, STACK
        ARGFRAME PSTACK, 0, STACK
        ARGFRAME XSTACK, 34, STACK
        ARGFRAME IOVERLAY, 0, STATIC
        ARGFRAME DOVERLAY, 0, STATIC
        EXTERN macMemWriteTxFifo
        FUNCTION macMemWriteTxFifo,0202H
        ARGFRAME ISTACK, 0, STACK
        ARGFRAME PSTACK, 0, STACK
        ARGFRAME XSTACK, 11, STACK
        ARGFRAME IOVERLAY, 0, STATIC
        ARGFRAME DOVERLAY, 0, STATIC
        EXTERN osal_rand
        FUNCTION osal_rand,0202H
        ARGFRAME ISTACK, 0, STACK
        ARGFRAME PSTACK, 0, STACK
        ARGFRAME XSTACK, 17, STACK
        ARGFRAME IOVERLAY, 0, STATIC
        ARGFRAME DOVERLAY, 0, STATIC
        EXTERN osal_start_timerEx
        FUNCTION osal_start_timerEx,0202H
        ARGFRAME ISTACK, 2, STACK
        ARGFRAME PSTACK, 0, STACK
        ARGFRAME XSTACK, 27, STACK
        ARGFRAME IOVERLAY, 0, STATIC
        ARGFRAME DOVERLAY, 0, STATIC
        EXTERN sAddrExtCpy
        FUNCTION sAddrExtCpy,0202H
        ARGFRAME ISTACK, 0, STACK
        ARGFRAME PSTACK, 0, STACK
        ARGFRAME XSTACK, 11, STACK
        ARGFRAME IOVERLAY, 0, STATIC
        ARGFRAME DOVERLAY, 0, STATIC
        EXTERN macRxEnable
        FUNCTION macRxEnable,0202H
        ARGFRAME ISTACK, 2, STACK
        ARGFRAME PSTACK, 0, STACK
        ARGFRAME XSTACK, 0, STACK
        ARGFRAME IOVERLAY, 0, STATIC
        ARGFRAME DOVERLAY, 0, STATIC
        EXTERN macRxDisable
        FUNCTION macRxDisable,0202H
        ARGFRAME ISTACK, 2, STACK
        ARGFRAME PSTACK, 0, STACK
        ARGFRAME XSTACK, 0, STACK
        ARGFRAME IOVERLAY, 0, STATIC
        ARGFRAME DOVERLAY, 0, STATIC
        EXTERN HalFlashRead
        FUNCTION HalFlashRead,0202H
        ARGFRAME ISTACK, 0, STACK
        ARGFRAME PSTACK, 0, STACK
        ARGFRAME XSTACK, 33, STACK
        ARGFRAME IOVERLAY, 0, STATIC
        ARGFRAME DOVERLAY, 0, STATIC
        EXTERN macLowLevelInit
        FUNCTION macLowLevelInit,0202H
        ARGFRAME ISTACK, 0, STACK
        ARGFRAME PSTACK, 0, STACK
        ARGFRAME XSTACK, 26, STACK
        ARGFRAME IOVERLAY, 0, STATIC
        ARGFRAME DOVERLAY, 0, STATIC
        EXTERN macRadioSetTxPower
        FUNCTION macRadioSetTxPower,0202H
        ARGFRAME ISTACK, 0, STACK
        ARGFRAME PSTACK, 0, STACK
        ARGFRAME XSTACK, 26, STACK
        ARGFRAME IOVERLAY, 0, STATIC
        ARGFRAME DOVERLAY, 0, STATIC
        EXTERN macMemReadRam
        FUNCTION macMemReadRam,0202H
        ARGFRAME ISTACK, 0, STACK
        ARGFRAME PSTACK, 0, STACK
        ARGFRAME XSTACK, 26, STACK
        ARGFRAME IOVERLAY, 0, STATIC
        ARGFRAME DOVERLAY, 0, STATIC
        EXTERN macMemWriteRam
        FUNCTION macMemWriteRam,0202H
        ARGFRAME ISTACK, 0, STACK
        ARGFRAME PSTACK, 0, STACK
        ARGFRAME XSTACK, 26, STACK
        ARGFRAME IOVERLAY, 0, STATIC
        ARGFRAME DOVERLAY, 0, STATIC
        EXTERN sAddrExtCmp
        FUNCTION sAddrExtCmp,0202H
        ARGFRAME ISTACK, 0, STACK
        ARGFRAME PSTACK, 0, STACK
        ARGFRAME XSTACK, 16, STACK
        ARGFRAME IOVERLAY, 0, STATIC
        ARGFRAME DOVERLAY, 0, STATIC
        EXTERN osal_stop_timerEx
        FUNCTION osal_stop_timerEx,0202H
        ARGFRAME ISTACK, 0, STACK
        ARGFRAME PSTACK, 0, STACK
        ARGFRAME XSTACK, 10, STACK
        ARGFRAME IOVERLAY, 0, STATIC
        ARGFRAME DOVERLAY, 0, STATIC
        EXTERN osal_msg_allocate
        FUNCTION osal_msg_allocate,0202H
        ARGFRAME ISTACK, 0, STACK
        ARGFRAME PSTACK, 0, STACK
        ARGFRAME XSTACK, 10, STACK
        ARGFRAME IOVERLAY, 0, STATIC
        ARGFRAME DOVERLAY, 0, STATIC
        EXTERN osal_msg_send
        FUNCTION osal_msg_send,0202H
        ARGFRAME ISTACK, 0, STACK
        ARGFRAME PSTACK, 0, STACK
        ARGFRAME XSTACK, 10, STACK
        ARGFRAME IOVERLAY, 0, STATIC
        ARGFRAME DOVERLAY, 0, STATIC
        EXTERN halSleep
        FUNCTION halSleep,0202H
        ARGFRAME ISTACK, 2, STACK
        ARGFRAME PSTACK, 0, STACK
        ARGFRAME XSTACK, 0, STACK
        ARGFRAME IOVERLAY, 0, STATIC
        ARGFRAME DOVERLAY, 0, STATIC
        EXTERN macRxHardDisable
        FUNCTION macRxHardDisable,0202H
        ARGFRAME ISTACK, 0, STACK
        ARGFRAME PSTACK, 0, STACK
        ARGFRAME XSTACK, 17, STACK
        ARGFRAME IOVERLAY, 0, STATIC
        ARGFRAME DOVERLAY, 0, STATIC
        EXTERN Hal_UART_RxBufLen
        FUNCTION Hal_UART_RxBufLen,0202H
        ARGFRAME ISTACK, 0, STACK
        ARGFRAME PSTACK, 0, STACK
        ARGFRAME XSTACK, 12, STACK
        ARGFRAME IOVERLAY, 0, STATIC
        ARGFRAME DOVERLAY, 0, STATIC
        EXTERN HalUARTRead
        FUNCTION HalUARTRead,0202H
        ARGFRAME ISTACK, 0, STACK
        ARGFRAME PSTACK, 0, STACK
        ARGFRAME XSTACK, 12, STACK
        ARGFRAME IOVERLAY, 0, STATIC
        ARGFRAME DOVERLAY, 0, STATIC
        EXTERN HalUARTOpen
        FUNCTION HalUARTOpen,0202H
        ARGFRAME ISTACK, 2, STACK
        ARGFRAME PSTACK, 0, STACK
        ARGFRAME XSTACK, 29, STACK
        ARGFRAME IOVERLAY, 0, STATIC
        ARGFRAME DOVERLAY, 0, STATIC
        EXTERN HalUARTWrite
        FUNCTION HalUARTWrite,0202H
        ARGFRAME ISTACK, 2, STACK
        ARGFRAME PSTACK, 0, STACK
        ARGFRAME XSTACK, 29, STACK
        ARGFRAME IOVERLAY, 0, STATIC
        ARGFRAME DOVERLAY, 0, STATIC
        EXTERN UartDMAIntSend
        FUNCTION UartDMAIntSend,0202H
        ARGFRAME ISTACK, 2, STACK
        ARGFRAME PSTACK, 0, STACK
        ARGFRAME XSTACK, 29, STACK
        ARGFRAME IOVERLAY, 0, STATIC
        ARGFRAME DOVERLAY, 0, STATIC
        EXTERN osal_memcmp
        FUNCTION osal_memcmp,0202H
        ARGFRAME ISTACK, 0, STACK
        ARGFRAME PSTACK, 0, STACK
        ARGFRAME XSTACK, 14, STACK
        ARGFRAME IOVERLAY, 0, STATIC
        ARGFRAME DOVERLAY, 0, STATIC
        EXTERN macRadioEnergyDetectStart
        FUNCTION macRadioEnergyDetectStart,0202H
        ARGFRAME ISTACK, 0, STACK
        ARGFRAME PSTACK, 0, STACK
        ARGFRAME XSTACK, 20, STACK
        ARGFRAME IOVERLAY, 0, STATIC
        ARGFRAME DOVERLAY, 0, STATIC
        EXTERN macRadioEnergyDetectStop
        FUNCTION macRadioEnergyDetectStop,0202H
        ARGFRAME ISTACK, 0, STACK
        ARGFRAME PSTACK, 0, STACK
        ARGFRAME XSTACK, 20, STACK
        ARGFRAME IOVERLAY, 0, STATIC
        ARGFRAME DOVERLAY, 0, STATIC
        EXTERN osal_msg_receive
        FUNCTION osal_msg_receive,0202H
        ARGFRAME ISTACK, 0, STACK
        ARGFRAME PSTACK, 0, STACK
        ARGFRAME XSTACK, 12, STACK
        ARGFRAME IOVERLAY, 0, STATIC
        ARGFRAME DOVERLAY, 0, STATIC
        EXTERN osal_msg_deallocate
        FUNCTION osal_msg_deallocate,0202H
        ARGFRAME ISTACK, 0, STACK
        ARGFRAME PSTACK, 0, STACK
        ARGFRAME XSTACK, 12, STACK
        ARGFRAME IOVERLAY, 0, STATIC
        ARGFRAME DOVERLAY, 0, STATIC
        EXTERN UartDMAIntRcv
        FUNCTION UartDMAIntRcv,0202H
        ARGFRAME ISTACK, 0, STACK
        ARGFRAME PSTACK, 0, STACK
        ARGFRAME XSTACK, 14, STACK
        ARGFRAME IOVERLAY, 0, STATIC
        ARGFRAME DOVERLAY, 0, STATIC
        EXTERN ??HalFlashRead?relay
        FUNCTION ??HalFlashRead?relay,00H
        EXTERN ??HalUARTOpen?relay
        FUNCTION ??HalUARTOpen?relay,00H
        EXTERN ??HalUARTRead?relay
        FUNCTION ??HalUARTRead?relay,00H
        EXTERN ??HalUARTWrite?relay
        FUNCTION ??HalUARTWrite?relay,00H
        EXTERN ??Hal_UART_RxBufLen?relay
        FUNCTION ??Hal_UART_RxBufLen?relay,00H
        EXTERN ??UartDMAIntRcv?relay
        FUNCTION ??UartDMAIntRcv?relay,00H
        EXTERN ??UartDMAIntSend?relay
        FUNCTION ??UartDMAIntSend?relay,00H
        EXTERN ??halAssertHandler?relay
        FUNCTION ??halAssertHandler?relay,00H
        EXTERN ??halSleep?relay
        FUNCTION ??halSleep?relay,00H
        EXTERN ??macLowLevelInit?relay
        FUNCTION ??macLowLevelInit?relay,00H
        EXTERN ??macMemReadRam?relay
        FUNCTION ??macMemReadRam?relay,00H
        EXTERN ??macMemWriteRam?relay
        FUNCTION ??macMemWriteRam?relay,00H
        EXTERN ??macMemWriteTxFifo?relay
        FUNCTION ??macMemWriteTxFifo?relay,00H
        EXTERN ??macRadioEnergyDetectStart?relay
        FUNCTION ??macRadioEnergyDetectStart?relay,00H
        EXTERN ??macRadioEnergyDetectStop?relay
        FUNCTION ??macRadioEnergyDetectStop?relay,00H
        EXTERN ??macRadioSetTxPower?relay
        FUNCTION ??macRadioSetTxPower?relay,00H
        EXTERN ??macRxDisable?relay
        FUNCTION ??macRxDisable?relay,00H
        EXTERN ??macRxEnable?relay
        FUNCTION ??macRxEnable?relay,00H
        EXTERN ??macRxHardDisable?relay
        FUNCTION ??macRxHardDisable?relay,00H
        EXTERN ??osal_memcmp?relay
        FUNCTION ??osal_memcmp?relay,00H
        EXTERN ??osal_memcpy?relay
        FUNCTION ??osal_memcpy?relay,00H
        EXTERN ??osal_memset?relay
        FUNCTION ??osal_memset?relay,00H
        EXTERN ??osal_msg_allocate?relay
        FUNCTION ??osal_msg_allocate?relay,00H
        EXTERN ??osal_msg_deallocate?relay
        FUNCTION ??osal_msg_deallocate?relay,00H
        EXTERN ??osal_msg_receive?relay
        FUNCTION ??osal_msg_receive?relay,00H
        EXTERN ??osal_msg_send?relay
        FUNCTION ??osal_msg_send?relay,00H
        EXTERN ??osal_rand?relay
        FUNCTION ??osal_rand?relay,00H
        EXTERN ??osal_start_timerEx?relay
        FUNCTION ??osal_start_timerEx?relay,00H
        EXTERN ??osal_stop_timerEx?relay
        FUNCTION ??osal_stop_timerEx?relay,00H
        EXTERN ??sAddrExtCmp?relay
        FUNCTION ??sAddrExtCmp?relay,00H
        EXTERN ??sAddrExtCpy?relay
        FUNCTION ??sAddrExtCpy?relay,00H

// C:\Users\freeman\Documents\work\NBK\Canon\Nbk600EX - RF\Components\mac\low_level\srf04\mac_rf.c
//    1 #include "mac_api.h"
//    2 #include "mac_rf.h"
//    3 #include "mac_radio_defs.h"

        ASEGN SFR_AN:DATA:NOROOT,080H
// union <unnamed> volatile __sfr _A_P0
_A_P0:
        DATA8
        DS 1

        ASEGN SFR_AN:DATA:NOROOT,089H
// unsigned char volatile __sfr P0IFG
P0IFG:
        DATA8
        DS 1

        ASEGN SFR_AN:DATA:NOROOT,08cH
// unsigned char volatile __sfr PICTL
PICTL:
        DATA8
        DS 1

        ASEGN SFR_AN:DATA:NOROOT,08fH
// unsigned char volatile __sfr P0INP
P0INP:
        DATA8
        DS 1

        ASEGN SFR_AN:DATA:NOROOT,090H
// union <unnamed> volatile __sfr _A_P1
_A_P1:
        DATA8
        DS 1

        ASEGN SFR_AN:DATA:NOROOT,091H
// unsigned char volatile __sfr RFIRQF1
RFIRQF1:
        DATA8
        DS 1

        ASEGN SFR_AN:DATA:NOROOT,09aH
// unsigned char volatile __sfr IEN2
IEN2:
        DATA8
        DS 1

        ASEGN SFR_AN:DATA:NOROOT,0a8H
// union <unnamed> volatile __sfr _A_IEN0
_A_IEN0:
        DATA8
        DS 1

        ASEGN SFR_AN:DATA:NOROOT,0abH
// unsigned char volatile __sfr P0IEN
P0IEN:
        DATA8
        DS 1

        ASEGN SFR_AN:DATA:NOROOT,0b1H
// unsigned char volatile __sfr ENCDI
ENCDI:
        DATA8
        DS 1

        ASEGN SFR_AN:DATA:NOROOT,0b2H
// unsigned char volatile __sfr ENCDO
ENCDO:
        DATA8
        DS 1

        ASEGN SFR_AN:DATA:NOROOT,0b3H
// unsigned char volatile __sfr ENCCS
ENCCS:
        DATA8
        DS 1

        ASEGN SFR_AN:DATA:NOROOT,0b8H
// union <unnamed> volatile __sfr _A_IEN1
_A_IEN1:
        DATA8
        DS 1

        ASEGN SFR_AN:DATA:NOROOT,0c0H
// union <unnamed> volatile __sfr _A_IRCON
_A_IRCON:
        DATA8
        DS 1

        ASEGN SFR_AN:DATA:NOROOT,0e1H
// unsigned char volatile __sfr RFST
RFST:
        DATA8
        DS 1

        ASEGN SFR_AN:DATA:NOROOT,0f3H
// unsigned char volatile __sfr P0SEL
P0SEL:
        DATA8
        DS 1

        ASEGN SFR_AN:DATA:NOROOT,0fdH
// unsigned char volatile __sfr P0DIR
P0DIR:
        DATA8
        DS 1

        RSEG XDATA_Z:XDATA:NOROOT(0)
        DATA8
`?<Constant {0}>`:
        DS 20
        REQUIRE __INIT_XDATA_Z

        RSEG XDATA_Z:XDATA:NOROOT(0)
        DATA8
`?<Constant {0}>_1`:
        DS 20
        REQUIRE __INIT_XDATA_Z

        RSEG XDATA_Z:XDATA:NOROOT(0)
        DATA8
`?<Constant {0}>_2`:
        DS 100
        REQUIRE __INIT_XDATA_Z
//    4 #include "mac_mem.h"
//    5 #include "comdef.h"
//    6 #include "osal.h"
//    7 #include "hal_types.h"
//    8 #include "AF.h"
//    9 #include "mac_low_level.h"
//   10 #include "mac_rx_onoff.h"
//   11 #include "hal_uart.h"
//   12 #include "mac_rx.h"
//   13 #include <stdio.h>
//   14 #include "OSAL_Nv.h"
//   15 #include "hal_flash.h"
//   16 
//   17 #ifdef IO_INDEX_TEST
//   18 #include "ioCC2531.h"
//   19 #endif
//   20 
//   21 extern void osal_sleep_timers(void);
//   22 extern void halSleep( uint16 osal_timeout );
//   23 extern void macTxDoneCallback(void);
//   24 //-C $PROJ_DIR$\..\..\..\Libraries\TI2530DB\bin\Security.lib
//   25 //-f $PROJ_DIR$\..\..\..\Tools\CC2530DB\f8wConfig.cfg
//   26 #define MODELING_STYLE_APERT 	0
//   27 #define MODELING_STYLE_STEX	1
//   28 #define MODELING_STYLE_BOTH	2
//   29 #define MODELING_STYLE_OFF		3
//   30 
//   31 #define	MAX_UART_DATA_LEN	64
//   32 
//   33 #define DEVICE_ATTRIBUTE_SLAVE		0
//   34 #define DEVICE_ATTRIBUTE_MAST 		1
//   35 #define DEVICE_ATTRIBUTE_LINKSHOT	2
//   36 
//   37 #define TI_EXTADDR  PXREG( 0x780C )  /* Pointer to Start of Flash Information Page          */
//   38 #define MACEX_READ_IEEE_ADDR(p)                macMemReadRam((macRam_t *) &TI_EXTADDR, p, 8)

        RSEG XDATA_Z:XDATA:NOROOT(0)
        DATA8
//   39 static uint8 txMpdu[BASIC_RF_MAX_PAYLOAD_SIZE+BASIC_RF_PACKET_OVERHEAD_SIZE+1];
txMpdu:
        DS 115
        REQUIRE __INIT_XDATA_Z

        RSEG XDATA_Z:XDATA:NOROOT(0)
        DATA8
//   40 static uint8 g_extAddr[8];// = {0x38,0x15,0xC6,0xFE,0xFF,0x17,0x87,0x88};
g_extAddr:
        DS 8
        REQUIRE __INIT_XDATA_Z

        RSEG XDATA_Z:XDATA:NOROOT(0)
        DATA8
//   41 static uint8 g_extAddrSrc[8];
g_extAddrSrc:
        DS 8
        REQUIRE __INIT_XDATA_Z

        RSEG XDATA_Z:XDATA:NOROOT(0)
        DATA8
//   42 static uint8 g_extAddrVef[8];
g_extAddrVef:
        DS 8
        REQUIRE __INIT_XDATA_Z

        RSEG XDATA_I:XDATA:NOROOT(0)
        DATA8
`?<Constant "MakeTomorrowBest">`:
        DS 17
        REQUIRE `?<Initializer for <Constant "MakeTomorrowBest"`
        REQUIRE __INIT_XDATA_I

        RSEG XDATA_I:XDATA:NOROOT(0)
        DATA8
`?<Constant "2015/11/13 OK\\r\\n">`:
        DS 16
        REQUIRE `?<Initializer for <Constant "2015/11/13 OK\\r\\n`
        REQUIRE __INIT_XDATA_I

        RSEG XDATA_I:XDATA:NOROOT(0)
        DATA32
`?<Constant {2, 11, 245, 85}>`:
        DS 4
        REQUIRE `?<Initializer for <Constant {2, 11, 245, 85}>>`
        REQUIRE __INIT_XDATA_I

        RSEG XDATA_I:XDATA:NOROOT(0)
//   43 uint8 g_modelingStyle = 1;
g_modelingStyle:
        DATA8
        DS 1
        REQUIRE `?<Initializer for g_modelingStyle>`
        REQUIRE __INIT_XDATA_I
//   44 //static uint8 pilotCommand[] = {0x17,0x00,0xFF,0x47,0x00,0x00,0x48,0x0A,0x06,0x98,0x07,0x06,0x98,0x07,0x06,0x98,0x07,0x06,0x98,0x07,0x06,0x98,0x07};

        RSEG XDATA_I:XDATA:NOROOT(0)
        DATA32
//   45 const uint8 preCmdBuf[] = 	{0x17,0x00,0xFF,0x47};//0x75,0x30,0x60,0x04,0x01,0xA0,0x04,0x01,0xA0,0x04,0x01,0xA0,0x04,0x01,0x00,0x00,0x01,0x00,0x00};
preCmdBuf:
        DS 4
        REQUIRE `?<Initializer for preCmdBuf>`
        REQUIRE __INIT_XDATA_I
//   46 //uint8 flashCmd[] = 	{0x17,0x00,0xFF,0x47,0x75,0x30,0x60,0x04,0x01,0x9E,0x03,0x01,0x9E,0x03,0x01,0x9E,0x03,0x01,0x00,0x00,0x01,0x00,0x00};

        RSEG XDATA_I:XDATA:NOROOT(0)
        DATA32
//   47 const uint8 multiCmd[] = {0x0F,0x00,0xFF,0x48};
multiCmd:
        DS 4
        REQUIRE `?<Initializer for multiCmd>`
        REQUIRE __INIT_XDATA_I

        RSEG XDATA_Z:XDATA:NOROOT(0)
        DATA8
//   48 unsigned char rcvBuf[UART_RCVBUF_LEN];
rcvBuf:
        DS 80
        REQUIRE __INIT_XDATA_Z

        RSEG XDATA_Z:XDATA:NOROOT(0)
        DATA16
//   49 basicRfCfg_t* pConfig;
pConfig:
        DS 2
        REQUIRE __INIT_XDATA_Z

        RSEG XDATA_Z:XDATA:NOROOT(0)
        DATA8
//   50 static basicRfCfg_t basicRfConfig;
basicRfConfig:
        DS 296
        REQUIRE __INIT_XDATA_Z

        RSEG XDATA_Z:XDATA:NOROOT(0)
        DATA8
//   51 static basicRfTxState_t txState=  { 0x00 }; // initialised and distinct
txState:
        DS 8
        REQUIRE __INIT_XDATA_Z

        RSEG XDATA_Z:XDATA:NOROOT(0)
        DATA8
//   52 uint8 macEx_taskId;
macEx_taskId:
        DS 1
        REQUIRE __INIT_XDATA_Z

        RSEG XDATA_Z:XDATA:NOROOT(0)
        DATA8
//   53 uint8 g_quireFlag=0;
g_quireFlag:
        DS 1
        REQUIRE __INIT_XDATA_Z
//   54 //uint8 g_linkedMode = 0;
//   55 //uint8 g_isMaster = CMD_MODE_RF_MST;
//   56 //uint8 g_isMaster = MSTDEV_MODE_DEV;

        RSEG XDATA_Z:XDATA:NOROOT(0)
        DATA8
//   57 uint8 g_isMaster = CMD_MODE_OFF;
g_isMaster:
        DS 1
        REQUIRE __INIT_XDATA_Z
//   58 //uint8 g_isMaster = CMD_MODE_RF_SLA;
//   59 //uint8 g_isMaster = CMD_MODE_RFLS_SLA;

        RSEG XDATA_Z:XDATA:NOROOT(0)
        DATA8
//   60 uint8 g_mstHold = 0;				
g_mstHold:
        DS 1
        REQUIRE __INIT_XDATA_Z
//   61 //DeviceInfo deviceInfo[128];

        RSEG XDATA_I:XDATA:NOROOT(0)
//   62 basicRfRxInfo_t  rxi={ 0xFF };
rxi:
        DATA8
        DS 12
        REQUIRE `?<Initializer for rxi>`
        REQUIRE __INIT_XDATA_I

        RSEG XDATA_Z:XDATA:NOROOT(0)
        DATA8
//   63 uint8 g_sendLen = 0;
g_sendLen:
        DS 1
        REQUIRE __INIT_XDATA_Z
//   64 //static uint8 g_netCheckFlag=0;

        RSEG XDATA_Z:XDATA:NOROOT(0)
        DATA16
//   65 DeviceInfo * pCurrentDev=NULL;
pCurrentDev:
        DS 2
        REQUIRE __INIT_XDATA_Z

        RSEG XDATA_Z:XDATA:NOROOT(0)
        DATA16
//   66 int16 g_msTick=0;
g_msTick:
        DS 2
        REQUIRE __INIT_XDATA_Z

        RSEG XDATA_Z:XDATA:NOROOT(0)
        DATA8
//   67 uint8 g_slaLinkSta=0;
g_slaLinkSta:
        DS 1
        REQUIRE __INIT_XDATA_Z

        RSEG XDATA_Z:XDATA:NOROOT(0)
        DATA8
//   68 static int8 s_rxFlag=0;
s_rxFlag:
        DS 1
        REQUIRE __INIT_XDATA_Z

        RSEG XDATA_Z:XDATA:NOROOT(0)
        DATA8
//   69 static int8 s_ready=0; 
s_ready:
        DS 1
        REQUIRE __INIT_XDATA_Z

        RSEG XDATA_Z:XDATA:NOROOT(0)
        DATA8
//   70 uint8 g_netStart=0;
g_netStart:
        DS 1
        REQUIRE __INIT_XDATA_Z
//   71 //uint8 g_expireCounter = 0;

        RSEG XDATA_Z:XDATA:NOROOT(0)
        DATA8
//   72 uint8 g_initCheck=0;
g_initCheck:
        DS 1
        REQUIRE __INIT_XDATA_Z

        RSEG XDATA_Z:XDATA:NOROOT(0)
        DATA8
//   73 uint8 g_swMode=0;
g_swMode:
        DS 1
        REQUIRE __INIT_XDATA_Z

        RSEG XDATA_Z:XDATA:NOROOT(0)
        DATA8
//   74 uint8 g_swRfChan=0;
g_swRfChan:
        DS 1
        REQUIRE __INIT_XDATA_Z

        RSEG XDATA_Z:XDATA:NOROOT(0)
        DATA16
//   75 uint16 g_swRfId=0;
g_swRfId:
        DS 2
        REQUIRE __INIT_XDATA_Z

        RSEG XDATA_Z:XDATA:NOROOT(0)
        DATA8
//   76 uint8 g_grInfo = 0;
g_grInfo:
        DS 1
        REQUIRE __INIT_XDATA_Z

        RSEG XDATA_I:XDATA:NOROOT(0)
//   77 IpReserve ipRsv={0x0E,0x00};
ipRsv:
        DATA32
        DS 4
        REQUIRE `?<Initializer for ipRsv>`
        REQUIRE __INIT_XDATA_I

        RSEG XDATA_Z:XDATA:NOROOT(0)
        DATA8
//   78 uint8 g_devLinkFlag=0;
g_devLinkFlag:
        DS 1
        REQUIRE __INIT_XDATA_Z

        RSEG XDATA_Z:XDATA:NOROOT(0)
        DATA8
//   79 uint8 g_flaStatus=0;
g_flaStatus:
        DS 1
        REQUIRE __INIT_XDATA_Z

        RSEG XDATA_Z:XDATA:NOROOT(0)
        DATA8
//   80 uint8 g_hpFlag=0;
g_hpFlag:
        DS 1
        REQUIRE __INIT_XDATA_Z

        RSEG XDATA_Z:XDATA:NOROOT(0)
        DATA8
//   81 uint8 g_devCmd=0;
g_devCmd:
        DS 1
        REQUIRE __INIT_XDATA_Z
//   82 

        RSEG XDATA_Z:XDATA:NOROOT(0)
        DATA8
//   83 unsigned char gBUartTotalByte=0;
gBUartTotalByte:
        DS 1
        REQUIRE __INIT_XDATA_Z

        RSEG XDATA_Z:XDATA:NOROOT(0)
        DATA8
//   84 unsigned char   gBUartLen=0;
gBUartLen:
        DS 1
        REQUIRE __INIT_XDATA_Z

        RSEG XDATA_Z:XDATA:NOROOT(0)
        DATA8
//   85 unsigned char	gBUartBuf[MAX_UART_DATA_LEN];
gBUartBuf:
        DS 64
        REQUIRE __INIT_XDATA_Z

        RSEG XDATA_Z:XDATA:NOROOT(0)
        DATA8
//   86 unsigned char uart_tran_flag=0;
uart_tran_flag:
        DS 1
        REQUIRE __INIT_XDATA_Z
//   87 
//   88 //static uint8 pRxData[APP_PAYLOAD_LENGTH];

        RSEG XDATA_Z:XDATA:NOROOT(0)
        DATA8
//   89 static uint8 pTxData[APP_PAYLOAD_LENGTH]={0};
pTxData:
        DS 127
        REQUIRE __INIT_XDATA_Z
//   90 //void (*veriPckSendCallback)();

        RSEG XDATA_Z:XDATA:NOROOT(0)
        DATA16
//   91 static void    (* veriPckSendCallback)(macRx_t*);
veriPckSendCallback:
        DS 2
        REQUIRE __INIT_XDATA_Z

        RSEG XDATA_Z:XDATA:NOROOT(0)
        DATA16
//   92 macRx_t  *callbackPara;
callbackPara:
        DS 2
        REQUIRE __INIT_XDATA_Z

        RSEG XDATA_Z:XDATA:NOROOT(0)
        DATA8
//   93 DevCheck g_devCheck={0};
g_devCheck:
        DS 3
        REQUIRE __INIT_XDATA_Z

        RSEG XDATA_Z:XDATA:NOROOT(0)
        DATA8
//   94 RadioSet radioSet={0};
radioSet:
        DS 37
        REQUIRE __INIT_XDATA_Z
//   95 //int32 g_slvPwrDnTmr=0;
//   96 
//   97 //****************************************************************
//   98 // relative with AES
//   99 //****************************************************************
//  100 #define DELAY 0x0F
//  101 // _mode_ is one of
//  102 #define CBC         0x00
//  103 #define CFB         0x10
//  104 #define OFB         0x20
//  105 #define CTR         0x30
//  106 #define ECB         0x40
//  107 #define CBC_MAC     0x50
//  108 
//  109 #define AES_BUSY    0x08
//  110 #define ENCRYPT     0x00
//  111 #define DECRYPT     0x01
//  112 
//  113 // Where _mode_ is one of
//  114 #define AES_ENCRYPT     0x00;
//  115 #define AES_DECRYPT     0x02;
//  116 #define AES_LOAD_KEY    0x04;
//  117 #define AES_LOAD_IV     0x06;
//  118 
//  119 // Macro for starting or stopping encryption or decryption
//  120 #define AES_SET_ENCR_DECR_KEY_IV(mode) \ 
//  121    do {                                \ 
//  122     ENCCS = (ENCCS & ~0x07) | mode     \ 
//  123    } while(0)
//  124 
//  125 // Macro for setting the mode of the AES operation
//  126 #define AES_SETMODE(mode) do { ENCCS &= ~0x70; ENCCS |= mode; } while (0)
//  127 
//  128 // Macro for starting the AES module for either encryption, decryption,
//  129 // key or initialisation vector loading.
//  130 #define AES_START()     ENCCS |= 0x01
//  131 
//  132 //****************************************************************
//  133 // END
//  134 //****************************************************************
//  135 

        RSEG XDATA_I:XDATA:NOROOT(0)
        DATA8
//  136 const char cpuIdKey[16] = {0x24,0x98,0xb7,0xA0,0xCB,0xDF,0xE6,0x5D,0xD1,0x4B,0xF7,0x51,0xA6,0x01,0x98,0x22};
cpuIdKey:
        DS 16
        REQUIRE `?<Initializer for cpuIdKey>`
        REQUIRE __INIT_XDATA_I
//  137   //char cpuIdRst[16] = {0xE8,0xF7,0x0C,0x78,0xCB,0xDF,0xE6,0x5D,0xD1,0x4B,0xF7,0x51,0xA6,0x01,0x98,0x22};

        RSEG XDATA_I:XDATA:NOROOT(0)
//  138 char cpuIdRst[16]  = {0x3f,0xdd,0xfb,0xb7,0x20,0xb1,0x95,0x89,0x75,0xd6,0x6e,0x92,0x3f,0xf7,0xf0,0xad};
cpuIdRst:
        DATA8
        DS 16
        REQUIRE `?<Initializer for cpuIdRst>`
        REQUIRE __INIT_XDATA_I

        RSEG XDATA_I:XDATA:NOROOT(0)
        DATA32
__Constant_0:
        DS 4
        REQUIRE `?<Initializer for __Constant_0>`
        REQUIRE __INIT_XDATA_I
//  139 
//  140 #ifdef DEBUG_TRACE
//  141 macTx_t macDataTx;
//  142 #endif
//  143 
//  144 #ifdef SEND_OBEY_ZSTACK
//  145 macTx_t macDataTx;
//  146 #endif
//  147 
//  148 MAC_DATAREQ_API static void macRollPolingProc(macRx_t* pck);
//  149 #ifndef SEND_UNIFIED
//  150 MAC_DATAREQ_API static void VeriResponse(macRx_t* pck);
//  151 MAC_DATAREQ_API static void LinkedModeShortAddrAlloc(macRx_t* pck);
//  152 MAC_DATAREQ_API static void LinkedModeRollPoling(macRx_t* pck);
//  153 #endif
//  154 MAC_DATAREQ_API void PreFlashInfo(macRx_t* pck);
//  155 MAC_DATAREQ_API void CountDown(macRx_t* pck);
//  156 MAC_DATAREQ_API void FlashConfirm(macRx_t* pck);
//  157 MAC_DATAREQ_API void InqureConfirm(macRx_t* pck);
//  158 MAC_DATAREQ_API void ReConfirm(macRx_t* pck);
//  159 MAC_DATAREQ_API void ReadyInfo(macRx_t* pck);
//  160 MAC_DATAREQ_API void Pilot(macRx_t* pck);
//  161 MAC_DATAREQ_API void LinkedShotRel(macRx_t* pck);
//  162 MAC_INTERNAL_API void SetSleepMode(macRx_t *pMsg);
//  163 MAC_DATAREQ_API void ChanScan(macRx_t* pck);
//  164 MAC_DATAREQ_API void RflsStart(macRx_t* pck);
//  165 MAC_DATAREQ_API static void VeriAndAllocID(macRx_t* pck);
//  166 MAC_DATAREQ_API void CmdModeSwitch(macRx_t* pck);
//  167 MAC_DATAREQ_API void CmdModeSwitchEx(macRx_t* pck);
//  168 MAC_DATAREQ_API static void RfMstExit(macRx_t* pck);
//  169 MAC_DATAREQ_API static void ExitAndSetChan_exit(macRx_t* pck);
//  170 MAC_DATAREQ_API static void ExitAndSetChan_setCh(macRx_t* pck);
//  171 MAC_DATAREQ_API static void ExitAndSetRfId(macRx_t* pck);
//  172 MAC_DATAREQ_API void MstBridgeInfoInqure(macRx_t* pck);
//  173 MAC_DATAREQ_API static void BridgedMstReadyRes(macRx_t* pck);
//  174 MAC_DATAREQ_API static void devChangeGroup(macRx_t* pck);
//  175 MAC_DATAREQ_API void DevShotRel(macRx_t* pck);
//  176 LINKMODE_DEFINE void linkedNoneCoordinatorProc(macRx_t *payload);
//  177 void BuildPilotInfoData(uint8 * buf, uint8 * len);
//  178 static uint8 UartSctSend(unsigned char id, unsigned char pa1, unsigned char pa2);
//  179 static uint16 NoneUsedShortAddrSearch(uint8 attr);
//  180 static uint8 LoadUartSendBuf(unsigned char id, unsigned char pa1, unsigned char pa2);
//  181 static void TrigerUartSend(void);
//  182 
//  183 static void macExRxEnable(void);
//  184 static void macExRxDisable(void);
//  185 static void CalcEachRssi(int8 *valBuf, uint16 tms, uint16 dly);
//  186 
//  187 static uint8 UartBulkSend(uint8 *sBuf, uint8 len);
//  188 static void UartSendByte(char aByte);
//  189 
//  190 static void macExUartInit (void);
//  191 static void macExUartRcvHandle(uint8 *rcv, uint8 len);
//  192 static void RfModCheck(uint8 mod);
//  193 
//  194 static void macExUartIntSet(void);
//  195 
//  196 extern void macWaitSendOk(void);
//  197 static void macDelay(unsigned int de);
//  198 static void macPreDelay(uint16 microSecs);
//  199 
//  200 extern void UartDMAIntRcv(void);
//  201 extern void UartDMAIntSend(void);
//  202 
//  203 static unsigned char CalcSum(uint8 *rcv, uint8 len);
//  204 
//  205 unsigned char RfMcodeInvert(unsigned char src, uint8 hpMod);
//  206 static void macExUartIntOutSet(void);
//  207 static uint8 MstDevInfoSend(void);
//  208 static uint8 MstDevInfoSendEx(uint8 gr, uint8 isReady);
//  209 
//  210 static void halAesLoadKeyOrInitVector(BYTE* pData, BOOL key);
//  211 static void halAesEncrDecr(BYTE *pDataIn, UINT16 length, BYTE *pDataOut, /*BYTE *pInitVector, */BOOL decr);
//  212 static void MemReadRam(macRam_t * pRam, uint8 * pData, uint8 len);
//  213 
//  214 void znpTestRF(void);
//  215 
//  216 
//  217 #ifdef DEBUG_TRACE
//  218 void DeviceInfoPrint(void);
//  219 void BufferPrint(uint8* buf, uint16 size);
//  220 int Printf(const char *fmt, ...);
//  221 #endif
//  222 
//  223 //CurrentVeriDev currentVeriDev;
//  224 #define NOP()  asm("NOP")
//  225 
//  226 
//  227 static void halRfReceiveOn(void)
//  228 {
//  229 	MAC_ISFLUSHRX();     // Making sure that the TX FIFO is empty.
//  230 	MAC_ISRXON();
//  231 }
//  232 
//  233 
//  234 /*
//  235 static DeviceInfo* SearchForDevice(uint16 shortAddr)
//  236 {
//  237 	DeviceInfo *pDev;
//  238 	for(pDev=pConfig->devHead;pDev!=NULL;pDev=pDev->pNext)
//  239 	{
//  240 		if(pDev->shortAddr==shortAddr)
//  241 		{
//  242 			return pDev;
//  243 		}
//  244 	}
//  245 	return NULL;
//  246 }
//  247 */

        RSEG BANKED_CODE:CODE:NOROOT(0)
//  248 static uint8 SearchForDevice(uint16 shortAddr)
SearchForDevice:
        CFI Block cfiBlock0 Using cfiCommon0
        CFI Function SearchForDevice
        CODE
//  249 {
        PUSH    DPL
        CFI DPL0 Frame(CFA_SP, 4)
        CFI CFA_SP SP+-4
        PUSH    DPH
        CFI DPH0 Frame(CFA_SP, 5)
        CFI CFA_SP SP+-5
        ; Saved register size: 2
        ; Auto size: 0
//  250 	uint8 pDev;
//  251 	for(pDev=0;pDev<DEVICE_TOTAL;pDev++)
        MOV     R1,#0x0
//  252 	{
//  253 		if((shortAddr==pConfig->devHead[pDev].shortAddr)
//  254 			&&(DEVICE_VERIFIED==pConfig->devHead[pDev].veriFlag))
??SearchForDevice_0:
        MOV     A,R1
        MOV     B,#0xf
        MUL     AB
        MOV     R4,A
        MOV     R5,B
        MOV     DPTR,#pConfig
        MOVX    A,@DPTR
        ADD     A,R4
        MOV     R4,A
        INC     DPTR
        MOVX    A,@DPTR
        ADDC    A,R5
        MOV     R5,A
        MOV     A,R4
        ADD     A,#0xe
        MOV     DPL,A
        MOV     A,R5
        LCALL   ??Subroutine331_0 & 0xFFFF
??CrossCallReturnLabel_750:
        XRL     A,R2
        JNZ     ??SearchForDevice_1
        INC     DPTR
        MOVX    A,@DPTR
        XRL     A,R3
??SearchForDevice_1:
        JNZ     ??SearchForDevice_2
        MOV     A,R4
        LCALL   ?Subroutine131 & 0xFFFF
??CrossCallReturnLabel_225:
        MOV     A,R5
        LCALL   ??Subroutine331_0 & 0xFFFF
??CrossCallReturnLabel_751:
        XRL     A,#0x4
        JZ      ??SearchForDevice_3
//  255 		{
//  256 			return pDev;
//  257 		}
//  258 	}
??SearchForDevice_2:
        INC     R1
        MOV     A,R1
        CLR     C
        SUBB    A,#0xf
        JC      ??SearchForDevice_0
//  259 
//  260 	return DEVICE_TOTAL;
        MOV     R1,#0xf
??SearchForDevice_3:
        LJMP    ??Subroutine299_0 & 0xFFFF
        CFI EndBlock cfiBlock0
//  261 }
//  262 
//  263 /*
//  264 static uint8 RemoveCurrent(void)
//  265 {
//  266 	DeviceInfo *tmpDev;
//  267 	tmpDev = pCurrentDev;
//  268 	pCurrentDev = pCurrentDev->pFront;
//  269 	osal_mem_free(tmpDev);	
//  270 }
//  271 */
//  272 
//  273 

        RSEG BANKED_CODE:CODE:NOROOT(0)
//  274 static uint8 RemoveDevice(uint16 shortAddr)
RemoveDevice:
        CFI Block cfiBlock1 Using cfiCommon0
        CFI Function RemoveDevice
        CODE
//  275 {
        FUNCALL RemoveDevice, SearchForDevice
        LOCFRAME ISTACK, 0, STACK
        LOCFRAME PSTACK, 0, STACK
        LOCFRAME XSTACK, 10, STACK
        LOCFRAME IOVERLAY, 0, STATIC
        LOCFRAME DOVERLAY, 0, STATIC
        ARGFRAME ISTACK, 0, STACK
        ARGFRAME PSTACK, 0, STACK
        ARGFRAME XSTACK, 10, STACK
        ARGFRAME IOVERLAY, 0, STATIC
        ARGFRAME DOVERLAY, 0, STATIC
        FUNCALL RemoveDevice, MstDevInfoSend
        LOCFRAME ISTACK, 0, STACK
        LOCFRAME PSTACK, 0, STACK
        LOCFRAME XSTACK, 10, STACK
        LOCFRAME IOVERLAY, 0, STATIC
        LOCFRAME DOVERLAY, 0, STATIC
        ARGFRAME ISTACK, 0, STACK
        ARGFRAME PSTACK, 0, STACK
        ARGFRAME XSTACK, 10, STACK
        ARGFRAME IOVERLAY, 0, STATIC
        ARGFRAME DOVERLAY, 0, STATIC
        FUNCALL RemoveDevice, osal_memset
        LOCFRAME ISTACK, 0, STACK
        LOCFRAME PSTACK, 0, STACK
        LOCFRAME XSTACK, 10, STACK
        LOCFRAME IOVERLAY, 0, STATIC
        LOCFRAME DOVERLAY, 0, STATIC
        ARGFRAME ISTACK, 0, STACK
        ARGFRAME PSTACK, 0, STACK
        ARGFRAME XSTACK, 10, STACK
        ARGFRAME IOVERLAY, 0, STATIC
        ARGFRAME DOVERLAY, 0, STATIC
        MOV     A,#-0xa
        LCALL   ?BANKED_ENTER_XDATA
        CFI DPH0 load(1, XDATA, add(CFA_XSP16, literal(-1)))
        CFI DPL0 load(1, XDATA, add(CFA_XSP16, literal(-2)))
        CFI ?BRET_EXT load(1, XDATA, add(CFA_XSP16, literal(-3)))
        CFI ?RET_HIGH load(1, XDATA, add(CFA_XSP16, literal(-4)))
        CFI ?RET_LOW load(1, XDATA, add(CFA_XSP16, literal(-5)))
        CFI R7 load(1, XDATA, add(CFA_XSP16, literal(-6)))
        CFI V1 load(1, XDATA, add(CFA_XSP16, literal(-7)))
        CFI V0 load(1, XDATA, add(CFA_XSP16, literal(-8)))
        CFI VB load(1, XDATA, add(CFA_XSP16, literal(-9)))
        CFI R6 load(1, XDATA, add(CFA_XSP16, literal(-10)))
        CFI CFA_SP SP+0
        CFI CFA_XSP16 add(XSP16, 10)
        ; Saved register size: 10
        ; Auto size: 0
        MOV     A,R2
        MOV     R6,A
        MOV     A,R3
        MOV     R7,A
//  276 	uint8 pDev;
//  277 #ifdef DEBUG_TRACE
//  278 	Printf("RmDev: %x\r\n", shortAddr);
//  279 #endif
//  280 	pDev = SearchForDevice(shortAddr);
        ; Setup parameters for call to function SearchForDevice
        LCALL   ??SearchForDevice?relay
        MOV     A,R1
        MOV     R2,A
//  281 	if(pDev>=DEVICE_TOTAL)
        CLR     C
        SUBB    A,#0xf
        JC      ??RemoveDevice_0
//  282 	{
//  283 		return DEVICE_TOTAL;
        MOV     R1,#0xf
        LJMP    ??RemoveDevice_1 & 0xFFFF
//  284 	}
//  285 	
//  286 	if(pConfig->totalDev>0)
??RemoveDevice_0:
        LCALL   ??Subroutine353_0 & 0xFFFF
??CrossCallReturnLabel_910:
        JZ      ??RemoveDevice_2
//  287 	{
//  288 		pConfig->totalDev--;
        DEC     A
        MOVX    @DPTR,A
//  289 	}
//  290 	if(DEVICE_ATTRIBUTE_MAST==pConfig->devHead[pDev].attribute)
??RemoveDevice_2:
        MOV     A,R2
        LCALL   ?Subroutine57 & 0xFFFF
??CrossCallReturnLabel_493:
        ADD     A,#0x1a
        LCALL   ??Subroutine330_0 & 0xFFFF
??CrossCallReturnLabel_762:
        XRL     A,#0x1
        JNZ     ??RemoveDevice_3
//  291 	{
//  292 		if(pConfig->mstRcd>0)
        MOV     DPTR,#pConfig
        MOVX    A,@DPTR
        ADD     A,#0x0
        LCALL   ??Subroutine298_0 & 0xFFFF
??CrossCallReturnLabel_550:
        JZ      ??RemoveDevice_4
//  293 		{
//  294 			pConfig->mstRcd--;
        DEC     A
        MOVX    @DPTR,A
//  295 		}
//  296 		if(shortAddr>ipRsv.mst)
??RemoveDevice_4:
        MOV     DPTR,#ipRsv
        CLR     C
        MOVX    A,@DPTR
        SUBB    A,R6
        INC     DPTR
        MOVX    A,@DPTR
        SUBB    A,R7
        JNC     ??RemoveDevice_5
//  297 		{
//  298 			ipRsv.mst = shortAddr;
        MOV     DPTR,#ipRsv
        SJMP    ??RemoveDevice_6
//  299 		}
//  300 	}else
//  301 	{
//  302 #ifdef DEBUG_TRACE
//  303 		Printf("remove a device\r\n");
//  304 #endif
//  305 		if(pConfig->arrCnt[pConfig->devHead[pDev].group]>0)
??RemoveDevice_3:
        MOV     A,R0
        ADD     A,#0x18
        MOV     R0,A
        LCALL   ?Subroutine124 & 0xFFFF
??CrossCallReturnLabel_437:
        LCALL   ??Subroutine316_0 & 0xFFFF
??CrossCallReturnLabel_657:
        JZ      ??RemoveDevice_7
//  306 		{
//  307 			pConfig->arrCnt[pConfig->devHead[pDev].group]--;
        MOV     DPL,R0
        MOV     DPH,R1
        LCALL   ?Subroutine31 & 0xFFFF
//  308 		}
??CrossCallReturnLabel_41:
        DEC     A
        MOVX    @DPTR,A
//  309 		//UartSctSend(UART_CC_DEV,pConfig->devHead[pDev].group,pConfig->arrCnt[pConfig->devHead[pDev].group]);
//  310 		MstDevInfoSend();
??RemoveDevice_7:
        ; Setup parameters for call to function MstDevInfoSend
        LCALL   ??MstDevInfoSend?relay
//  311 #ifdef DEBUG_TRACE
//  312 		Printf("slave %d\r\n",pConfig->slvRcd);
//  313 #endif
//  314 		if(pConfig->slvRcd>0)
        MOV     DPTR,#pConfig
        MOVX    A,@DPTR
        ADD     A,#0x1
        LCALL   ??Subroutine298_0 & 0xFFFF
??CrossCallReturnLabel_551:
        JZ      ??RemoveDevice_8
//  315 		{
//  316 			pConfig->slvRcd--;
        DEC     A
        MOVX    @DPTR,A
//  317 		}
//  318 		if(shortAddr<ipRsv.sla)
??RemoveDevice_8:
        MOV     DPTR,#ipRsv + 2
        LCALL   ?Subroutine94 & 0xFFFF
??CrossCallReturnLabel_151:
        CLR     C
        MOV     A,R6
        SUBB    A,R0
        MOV     A,R7
        SUBB    A,R1
        JNC     ??RemoveDevice_5
//  319 		{
//  320 			ipRsv.sla = shortAddr;
        MOV     DPTR,#ipRsv + 2
??RemoveDevice_6:
        MOV     A,R6
        MOVX    @DPTR,A
        INC     DPTR
        MOV     A,R7
        MOVX    @DPTR,A
//  321 		}
//  322 	}
//  323 
//  324 	pConfig->devHead[pDev].veriFlag = DEVICE_UNVERIFIED;
??RemoveDevice_5:
        LCALL   ?Subroutine56 & 0xFFFF
??CrossCallReturnLabel_85:
        CLR     A
        MOVX    @DPTR,A
//  325 	pConfig->devHead[pDev].group = 0x0F;
        LCALL   ??Subroutine287_0 & 0xFFFF
??CrossCallReturnLabel_490:
        ADD     A,#0x18
        MOV     DPL,A
        MOV     A,R1
        LCALL   ??Subroutine312_0 & 0xFFFF
??CrossCallReturnLabel_613:
        MOV     A,#0xf
        MOVX    @DPTR,A
//  326 	pConfig->devHead[pDev].info = 0;
        LCALL   ??Subroutine287_0 & 0xFFFF
??CrossCallReturnLabel_491:
        ADD     A,#0x1b
        MOV     DPL,A
        MOV     A,R1
        LCALL   ??Subroutine290_0 & 0xFFFF
//  327 	pConfig->devHead[pDev].ready = 0;
??CrossCallReturnLabel_501:
        LCALL   ??Subroutine287_0 & 0xFFFF
??CrossCallReturnLabel_492:
        ADD     A,#0x19
        LCALL   ?Subroutine126 & 0xFFFF
//  328 	osal_memset(pConfig->devHead[pDev].extAddr, 0x00, 8); 
??CrossCallReturnLabel_221:
        MOV     DPTR,#pConfig
        MOVX    A,@DPTR
        ADD     A,?V0 + 0
        MOV     R2,A
        INC     DPTR
        MOVX    A,@DPTR
        ADDC    A,?V0 + 1
        MOV     R3,A
        MOV     A,R2
        LCALL   ?Subroutine125 & 0xFFFF
//  329 	
//  330 	pConfig->isIdOccupied[shortAddr]=0;
??CrossCallReturnLabel_433:
        LCALL   ?Subroutine63 & 0xFFFF
??CrossCallReturnLabel_94:
        LCALL   ?Subroutine17 & 0xFFFF
//  331 	if(pConfig->totalDev<=0)
??CrossCallReturnLabel_906:
        JNZ     ??RemoveDevice_9
//  332 	{
//  333 		LED_INS_UNLINK();
        SETB    0x90.2
        CLR     0x90.3
//  334 	}
//  335 	
//  336         return shortAddr;
??RemoveDevice_9:
        MOV     A,R6
        MOV     R1,A
??RemoveDevice_1:
        LJMP    ??Subroutine318_0 & 0xFFFF
        CFI EndBlock cfiBlock1
        REQUIRE _A_P1
//  337 }

        RSEG BANKED_CODE:CODE:NOROOT(0)
?Subroutine125:
        CFI Block cfiCond2 Using cfiCommon0
        CFI NoFunction
        CFI Conditional ??CrossCallReturnLabel_433
        CFI R6 load(1, XDATA, add(CFA_XSP16, literal(-10)))
        CFI VB load(1, XDATA, add(CFA_XSP16, literal(-9)))
        CFI V0 load(1, XDATA, add(CFA_XSP16, literal(-8)))
        CFI V1 load(1, XDATA, add(CFA_XSP16, literal(-7)))
        CFI R7 load(1, XDATA, add(CFA_XSP16, literal(-6)))
        CFI ?RET_LOW load(1, XDATA, add(CFA_XSP16, literal(-5)))
        CFI ?RET_HIGH load(1, XDATA, add(CFA_XSP16, literal(-4)))
        CFI ?BRET_EXT load(1, XDATA, add(CFA_XSP16, literal(-3)))
        CFI DPL0 load(1, XDATA, add(CFA_XSP16, literal(-2)))
        CFI DPH0 load(1, XDATA, add(CFA_XSP16, literal(-1)))
        CFI CFA_SP SP+0
        CFI CFA_XSP16 add(XSP16, 10)
        CFI Block cfiCond3 Using cfiCommon0
        CFI (cfiCond3) NoFunction
        CFI (cfiCond3) Conditional ??CrossCallReturnLabel_434
        CFI (cfiCond3) R6 load(1, XDATA, add(CFA_XSP16, literal(-9)))
        CFI (cfiCond3) VB load(1, XDATA, add(CFA_XSP16, literal(-8)))
        CFI (cfiCond3) V0 load(1, XDATA, add(CFA_XSP16, literal(-7)))
        CFI (cfiCond3) R7 load(1, XDATA, add(CFA_XSP16, literal(-6)))
        CFI (cfiCond3) ?RET_LOW load(1, XDATA, add(CFA_XSP16, literal(-5)))
        CFI (cfiCond3) ?RET_HIGH load(1, XDATA, add(CFA_XSP16, literal(-4)))
        CFI (cfiCond3) ?BRET_EXT load(1, XDATA, add(CFA_XSP16, literal(-3)))
        CFI (cfiCond3) DPL0 load(1, XDATA, add(CFA_XSP16, literal(-2)))
        CFI (cfiCond3) DPH0 load(1, XDATA, add(CFA_XSP16, literal(-1)))
        CFI (cfiCond3) CFA_SP SP+0
        CFI (cfiCond3) CFA_XSP16 add(XSP16, 9)
        CFI Block cfiPicker4 Using cfiCommon1
        CFI (cfiPicker4) NoFunction
        CFI (cfiPicker4) Picker
        ADD     A,#0x10
        MOV     R2,A
        MOV     A,R3
        CFI EndBlock cfiCond2
        CFI EndBlock cfiCond3
        CFI EndBlock cfiPicker4
        REQUIRE ??Subroutine268_0
        ; // Fall through to label ??Subroutine268_0

        RSEG BANKED_CODE:CODE:NOROOT(0)
??Subroutine268_0:
        CFI Block cfiCond5 Using cfiCommon0
        CFI NoFunction
        CFI Conditional ??CrossCallReturnLabel_435
        CFI R6 load(1, XDATA, add(CFA_XSP16, literal(-15)))
        CFI VB load(1, XDATA, add(CFA_XSP16, literal(-14)))
        CFI V0 load(1, XDATA, add(CFA_XSP16, literal(-13)))
        CFI V1 load(1, XDATA, add(CFA_XSP16, literal(-12)))
        CFI V2 load(1, XDATA, add(CFA_XSP16, literal(-11)))
        CFI V3 load(1, XDATA, add(CFA_XSP16, literal(-10)))
        CFI V4 load(1, XDATA, add(CFA_XSP16, literal(-9)))
        CFI V5 load(1, XDATA, add(CFA_XSP16, literal(-8)))
        CFI V6 load(1, XDATA, add(CFA_XSP16, literal(-7)))
        CFI R7 load(1, XDATA, add(CFA_XSP16, literal(-6)))
        CFI ?RET_LOW load(1, XDATA, add(CFA_XSP16, literal(-5)))
        CFI ?RET_HIGH load(1, XDATA, add(CFA_XSP16, literal(-4)))
        CFI ?BRET_EXT load(1, XDATA, add(CFA_XSP16, literal(-3)))
        CFI DPL0 load(1, XDATA, add(CFA_XSP16, literal(-2)))
        CFI DPH0 load(1, XDATA, add(CFA_XSP16, literal(-1)))
        CFI CFA_SP SP+0
        CFI CFA_XSP16 add(XSP16, 15)
        CFI Block cfiCond6 Using cfiCommon0
        CFI (cfiCond6) NoFunction
        CFI (cfiCond6) Conditional ??CrossCallReturnLabel_433
        CFI (cfiCond6) R6 load(1, XDATA, add(CFA_XSP16, literal(-10)))
        CFI (cfiCond6) VB load(1, XDATA, add(CFA_XSP16, literal(-9)))
        CFI (cfiCond6) V0 load(1, XDATA, add(CFA_XSP16, literal(-8)))
        CFI (cfiCond6) V1 load(1, XDATA, add(CFA_XSP16, literal(-7)))
        CFI (cfiCond6) R7 load(1, XDATA, add(CFA_XSP16, literal(-6)))
        CFI (cfiCond6) ?RET_LOW load(1, XDATA, add(CFA_XSP16, literal(-5)))
        CFI (cfiCond6) ?RET_HIGH load(1, XDATA, add(CFA_XSP16, literal(-4)))
        CFI (cfiCond6) ?BRET_EXT load(1, XDATA, add(CFA_XSP16, literal(-3)))
        CFI (cfiCond6) DPL0 load(1, XDATA, add(CFA_XSP16, literal(-2)))
        CFI (cfiCond6) DPH0 load(1, XDATA, add(CFA_XSP16, literal(-1)))
        CFI (cfiCond6) CFA_SP SP+0
        CFI (cfiCond6) CFA_XSP16 add(XSP16, 10)
        CFI Block cfiCond7 Using cfiCommon0
        CFI (cfiCond7) NoFunction
        CFI (cfiCond7) Conditional ??CrossCallReturnLabel_434
        CFI (cfiCond7) R6 load(1, XDATA, add(CFA_XSP16, literal(-9)))
        CFI (cfiCond7) VB load(1, XDATA, add(CFA_XSP16, literal(-8)))
        CFI (cfiCond7) V0 load(1, XDATA, add(CFA_XSP16, literal(-7)))
        CFI (cfiCond7) R7 load(1, XDATA, add(CFA_XSP16, literal(-6)))
        CFI (cfiCond7) ?RET_LOW load(1, XDATA, add(CFA_XSP16, literal(-5)))
        CFI (cfiCond7) ?RET_HIGH load(1, XDATA, add(CFA_XSP16, literal(-4)))
        CFI (cfiCond7) ?BRET_EXT load(1, XDATA, add(CFA_XSP16, literal(-3)))
        CFI (cfiCond7) DPL0 load(1, XDATA, add(CFA_XSP16, literal(-2)))
        CFI (cfiCond7) DPH0 load(1, XDATA, add(CFA_XSP16, literal(-1)))
        CFI (cfiCond7) CFA_SP SP+0
        CFI (cfiCond7) CFA_XSP16 add(XSP16, 9)
        CFI Block cfiPicker8 Using cfiCommon1
        CFI (cfiPicker8) NoFunction
        CFI (cfiPicker8) Picker
        ADDC    A,#0x0
        MOV     R3,A
        LCALL   ??osal_memset?relay
        RET
        CFI EndBlock cfiCond5
        CFI EndBlock cfiCond6
        CFI EndBlock cfiCond7
        CFI EndBlock cfiPicker8

        RSEG BANKED_CODE:CODE:NOROOT(0)
?Subroutine124:
        CFI Block cfiCond9 Using cfiCommon0
        CFI NoFunction
        CFI Conditional ??CrossCallReturnLabel_437
        CFI R6 load(1, XDATA, add(CFA_XSP16, literal(-10)))
        CFI VB load(1, XDATA, add(CFA_XSP16, literal(-9)))
        CFI V0 load(1, XDATA, add(CFA_XSP16, literal(-8)))
        CFI V1 load(1, XDATA, add(CFA_XSP16, literal(-7)))
        CFI R7 load(1, XDATA, add(CFA_XSP16, literal(-6)))
        CFI ?RET_LOW load(1, XDATA, add(CFA_XSP16, literal(-5)))
        CFI ?RET_HIGH load(1, XDATA, add(CFA_XSP16, literal(-4)))
        CFI ?BRET_EXT load(1, XDATA, add(CFA_XSP16, literal(-3)))
        CFI DPL0 load(1, XDATA, add(CFA_XSP16, literal(-2)))
        CFI DPH0 load(1, XDATA, add(CFA_XSP16, literal(-1)))
        CFI CFA_SP SP+0
        CFI CFA_XSP16 add(XSP16, 10)
        CFI Block cfiCond10 Using cfiCommon0
        CFI (cfiCond10) NoFunction
        CFI (cfiCond10) Conditional ??CrossCallReturnLabel_438
        CFI (cfiCond10) R6 load(1, XDATA, add(CFA_XSP16, literal(-10)))
        CFI (cfiCond10) VB load(1, XDATA, add(CFA_XSP16, literal(-9)))
        CFI (cfiCond10) V0 load(1, XDATA, add(CFA_XSP16, literal(-8)))
        CFI (cfiCond10) V1 load(1, XDATA, add(CFA_XSP16, literal(-7)))
        CFI (cfiCond10) R7 load(1, XDATA, add(CFA_XSP16, literal(-6)))
        CFI (cfiCond10) ?RET_LOW load(1, XDATA, add(CFA_XSP16, literal(-5)))
        CFI (cfiCond10) ?RET_HIGH load(1, XDATA, add(CFA_XSP16, literal(-4)))
        CFI (cfiCond10) ?BRET_EXT load(1, XDATA, add(CFA_XSP16, literal(-3)))
        CFI (cfiCond10) DPL0 load(1, XDATA, add(CFA_XSP16, literal(-2)))
        CFI (cfiCond10) DPH0 load(1, XDATA, add(CFA_XSP16, literal(-1)))
        CFI (cfiCond10) CFA_SP SP+0
        CFI (cfiCond10) CFA_XSP16 add(XSP16, 10)
        CFI Block cfiPicker11 Using cfiCommon1
        CFI (cfiPicker11) NoFunction
        CFI (cfiPicker11) Picker
        MOV     A,R1
        CFI EndBlock cfiCond9
        CFI EndBlock cfiCond10
        CFI EndBlock cfiPicker11
        REQUIRE ??Subroutine269_0
        ; // Fall through to label ??Subroutine269_0

        RSEG BANKED_CODE:CODE:NOROOT(0)
??Subroutine269_0:
        CFI Block cfiCond12 Using cfiCommon0
        CFI NoFunction
        CFI Conditional ??CrossCallReturnLabel_436
        CFI R6 load(1, XDATA, add(CFA_XSP16, literal(-12)))
        CFI VB load(1, XDATA, add(CFA_XSP16, literal(-11)))
        CFI V0 load(1, XDATA, add(CFA_XSP16, literal(-10)))
        CFI V1 load(1, XDATA, add(CFA_XSP16, literal(-9)))
        CFI V2 load(1, XDATA, add(CFA_XSP16, literal(-8)))
        CFI V3 load(1, XDATA, add(CFA_XSP16, literal(-7)))
        CFI R7 load(1, XDATA, add(CFA_XSP16, literal(-6)))
        CFI ?RET_LOW load(1, XDATA, add(CFA_XSP16, literal(-5)))
        CFI ?RET_HIGH load(1, XDATA, add(CFA_XSP16, literal(-4)))
        CFI ?BRET_EXT load(1, XDATA, add(CFA_XSP16, literal(-3)))
        CFI DPL0 load(1, XDATA, add(CFA_XSP16, literal(-2)))
        CFI DPH0 load(1, XDATA, add(CFA_XSP16, literal(-1)))
        CFI CFA_SP SP+0
        CFI CFA_XSP16 add(XSP16, 12)
        CFI Block cfiCond13 Using cfiCommon0
        CFI (cfiCond13) NoFunction
        CFI (cfiCond13) Conditional ??CrossCallReturnLabel_437
        CFI (cfiCond13) R6 load(1, XDATA, add(CFA_XSP16, literal(-10)))
        CFI (cfiCond13) VB load(1, XDATA, add(CFA_XSP16, literal(-9)))
        CFI (cfiCond13) V0 load(1, XDATA, add(CFA_XSP16, literal(-8)))
        CFI (cfiCond13) V1 load(1, XDATA, add(CFA_XSP16, literal(-7)))
        CFI (cfiCond13) R7 load(1, XDATA, add(CFA_XSP16, literal(-6)))
        CFI (cfiCond13) ?RET_LOW load(1, XDATA, add(CFA_XSP16, literal(-5)))
        CFI (cfiCond13) ?RET_HIGH load(1, XDATA, add(CFA_XSP16, literal(-4)))
        CFI (cfiCond13) ?BRET_EXT load(1, XDATA, add(CFA_XSP16, literal(-3)))
        CFI (cfiCond13) DPL0 load(1, XDATA, add(CFA_XSP16, literal(-2)))
        CFI (cfiCond13) DPH0 load(1, XDATA, add(CFA_XSP16, literal(-1)))
        CFI (cfiCond13) CFA_SP SP+0
        CFI (cfiCond13) CFA_XSP16 add(XSP16, 10)
        CFI Block cfiCond14 Using cfiCommon0
        CFI (cfiCond14) NoFunction
        CFI (cfiCond14) Conditional ??CrossCallReturnLabel_438
        CFI (cfiCond14) R6 load(1, XDATA, add(CFA_XSP16, literal(-10)))
        CFI (cfiCond14) VB load(1, XDATA, add(CFA_XSP16, literal(-9)))
        CFI (cfiCond14) V0 load(1, XDATA, add(CFA_XSP16, literal(-8)))
        CFI (cfiCond14) V1 load(1, XDATA, add(CFA_XSP16, literal(-7)))
        CFI (cfiCond14) R7 load(1, XDATA, add(CFA_XSP16, literal(-6)))
        CFI (cfiCond14) ?RET_LOW load(1, XDATA, add(CFA_XSP16, literal(-5)))
        CFI (cfiCond14) ?RET_HIGH load(1, XDATA, add(CFA_XSP16, literal(-4)))
        CFI (cfiCond14) ?BRET_EXT load(1, XDATA, add(CFA_XSP16, literal(-3)))
        CFI (cfiCond14) DPL0 load(1, XDATA, add(CFA_XSP16, literal(-2)))
        CFI (cfiCond14) DPH0 load(1, XDATA, add(CFA_XSP16, literal(-1)))
        CFI (cfiCond14) CFA_SP SP+0
        CFI (cfiCond14) CFA_XSP16 add(XSP16, 10)
        CFI Block cfiPicker15 Using cfiCommon1
        CFI (cfiPicker15) NoFunction
        CFI (cfiPicker15) Picker
        ADDC    A,#0x0
        MOV     R1,A
        MOV     DPL,R0
        MOV     DPH,R1
        MOVX    A,@DPTR
        RET
        CFI EndBlock cfiCond12
        CFI EndBlock cfiCond13
        CFI EndBlock cfiCond14
        CFI EndBlock cfiPicker15
//  338 
//  339 #if 0
//  340 static uint8 RemoveDevice(uint16 shortAddr)
//  341 {
//  342 	DeviceInfo *nowDev;
//  343 	DeviceInfo *preDev;
//  344 	uint8 rtAddr;
//  345 	nowDev = preDev = pConfig->devHead;
//  346 #ifdef DEBUG_TRACE
//  347 	Printf("RmDev: %x\r\n", shortAddr);
//  348 #endif
//  349 	while(nowDev!=NULL)
//  350 	{
//  351 		if(nowDev->shortAddr==shortAddr)
//  352 		{
//  353 			if(pConfig->totalDev>0)
//  354 			{
//  355 				pConfig->totalDev--;
//  356 			}
//  357 			if(DEVICE_ATTRIBUTE_MAST==nowDev->attribute)
//  358 			{
//  359 				if(pConfig->mstRcd>0)
//  360 				{
//  361 					pConfig->mstRcd--;
//  362 				}
//  363 				if(shortAddr>ipRsv.mst)
//  364 				{
//  365 					ipRsv.mst= shortAddr;
//  366 				}
//  367 				//return (0x0E-nowDev->shortAddr);
//  368 			}else
//  369 			{
//  370 				//if(pConfig->arrCnt[nowDev->group]>0)
//  371 				//{
//  372 				//	pConfig->arrCnt[nowDev->group]--;
//  373 				//}
//  374 #ifdef DEBUG_TRACE
//  375 				Printf("remove a device\r\n");
//  376 #endif
//  377 				if(pConfig->arrCnt[pConfig->idInGroup[shortAddr]]>0)
//  378 				{
//  379 					pConfig->arrCnt[pConfig->idInGroup[shortAddr]]--;
//  380 				}
//  381 				UartSctSend(UART_CC_DEV,pConfig->idInGroup[shortAddr],pConfig->arrCnt[pConfig->idInGroup[shortAddr]]);
//  382 				pConfig->idInGroup[shortAddr]=0;
//  383 				//pConfig->isIdOccupied[shortAddr]=0;
//  384 #ifdef DEBUG_TRACE
//  385 				Printf("slave %d\r\n",pConfig->slvRcd);
//  386 #endif
//  387 				if(pConfig->slvRcd>0)
//  388 				{
//  389 					pConfig->slvRcd--;
//  390 				}
//  391 				if(shortAddr<ipRsv.sla)
//  392 				{
//  393 					ipRsv.sla = shortAddr;
//  394 				}
//  395 				//return nowDev->shortAddr;
//  396 			}
//  397 			if(nowDev==pCurrentDev)
//  398 			{
//  399 #ifdef DEBUG_TRACE
//  400 				Printf("remove current\r\n");
//  401 #endif
//  402 				if(nowDev==pConfig->devHead)
//  403 				{
//  404 #ifdef DEBUG_TRACE
//  405 					Printf("remove head\r\n");
//  406 					Printf("nowDev: %x\r\n",nowDev);
//  407 #endif
//  408 					pCurrentDev = NULL;
//  409 				}else
//  410 				{
//  411 #ifdef DEBUG_TRACE
//  412 					Printf("pCurrentDev: %x\r\n",pCurrentDev);
//  413 					Printf("nowDev->pFront: %x\r\n",nowDev->pFront);
//  414 #endif
//  415 					pCurrentDev = nowDev->pFront;
//  416 				}
//  417 			}
//  418 			if(nowDev==pConfig->devHead)
//  419 			{
//  420 				//pConfig->devHead = NULL;
//  421 #ifdef DEBUG_TRACE
//  422 				Printf("devHead->pNext: %x\r\n",pConfig->devHead->pNext);
//  423 				Printf("devHead->pNext->pNext: %x\r\n",pConfig->devHead->pNext->pNext);
//  424 				Printf("remove: %x\r\n",nowDev);
//  425 #endif
//  426 				pConfig->devHead = pConfig->devHead->pNext;
//  427 				//pCurrentDev = pConfig->devHead;
//  428 				rtAddr = nowDev->shortAddr;
//  429 				osal_mem_free(nowDev);
//  430 				
//  431 			}else
//  432 			{
//  433 #ifdef DEBUG_TRACE
//  434 				Printf("remove: %x\r\n",nowDev);
//  435 #endif
//  436 				preDev->pNext = nowDev ->pNext;
//  437 				nowDev->pNext->pFront = preDev;
//  438 				rtAddr = nowDev->shortAddr;
//  439 				osal_mem_free(nowDev);
//  440 			}
//  441 			
//  442 			pConfig->isIdOccupied[shortAddr]=0;
//  443 			
//  444 			if(pConfig->totalDev<=0)
//  445 			{
//  446 				LED_INS_UNLINK();
//  447 			}
//  448 
//  449 #ifdef DEBUG_TRACE
//  450 			Printf("slvRcd: %d\r\n",pConfig->slvRcd);
//  451 			Printf("mstRcd: %d\r\n",pConfig->mstRcd);
//  452 			Printf("totalDev: %d\r\n; ",pConfig->totalDev);
//  453 			Printf("arrCnt: ");
//  454 			BufferPrint(pConfig->arrCnt, 5);
//  455 			Printf("idInGroup: ");
//  456 			BufferPrint(pConfig->idInGroup, 16);
//  457 			DeviceInfoPrint();
//  458 #endif
//  459 
//  460 			return rtAddr;
//  461 			
//  462 		}
//  463 		preDev = nowDev;
//  464 		nowDev = preDev->pNext;
//  465 	}
//  466 	return 0x0;
//  467 }
//  468 #endif
//  469 

        RSEG BANKED_CODE:CODE:NOROOT(0)
//  470 static uint16 NoneUsedShortAddrSearch(uint8 attr)
NoneUsedShortAddrSearch:
        CFI Block cfiBlock16 Using cfiCommon0
        CFI Function NoneUsedShortAddrSearch
        CODE
//  471 {
        FUNCALL NoneUsedShortAddrSearch, SearchForDevice
        LOCFRAME ISTACK, 0, STACK
        LOCFRAME PSTACK, 0, STACK
        LOCFRAME XSTACK, 9, STACK
        LOCFRAME IOVERLAY, 0, STATIC
        LOCFRAME DOVERLAY, 0, STATIC
        ARGFRAME ISTACK, 0, STACK
        ARGFRAME PSTACK, 0, STACK
        ARGFRAME XSTACK, 9, STACK
        ARGFRAME IOVERLAY, 0, STATIC
        ARGFRAME DOVERLAY, 0, STATIC
        FUNCALL NoneUsedShortAddrSearch, SearchForDevice
        LOCFRAME ISTACK, 0, STACK
        LOCFRAME PSTACK, 0, STACK
        LOCFRAME XSTACK, 9, STACK
        LOCFRAME IOVERLAY, 0, STATIC
        LOCFRAME DOVERLAY, 0, STATIC
        ARGFRAME ISTACK, 0, STACK
        ARGFRAME PSTACK, 0, STACK
        ARGFRAME XSTACK, 9, STACK
        ARGFRAME IOVERLAY, 0, STATIC
        ARGFRAME DOVERLAY, 0, STATIC
        FUNCALL NoneUsedShortAddrSearch, halAssertHandler
        LOCFRAME ISTACK, 0, STACK
        LOCFRAME PSTACK, 0, STACK
        LOCFRAME XSTACK, 9, STACK
        LOCFRAME IOVERLAY, 0, STATIC
        LOCFRAME DOVERLAY, 0, STATIC
        ARGFRAME ISTACK, 0, STACK
        ARGFRAME PSTACK, 0, STACK
        ARGFRAME XSTACK, 9, STACK
        ARGFRAME IOVERLAY, 0, STATIC
        ARGFRAME DOVERLAY, 0, STATIC
        MOV     A,#-0x9
        LCALL   ?BANKED_ENTER_XDATA
        CFI DPH0 load(1, XDATA, add(CFA_XSP16, literal(-1)))
        CFI DPL0 load(1, XDATA, add(CFA_XSP16, literal(-2)))
        CFI ?BRET_EXT load(1, XDATA, add(CFA_XSP16, literal(-3)))
        CFI ?RET_HIGH load(1, XDATA, add(CFA_XSP16, literal(-4)))
        CFI ?RET_LOW load(1, XDATA, add(CFA_XSP16, literal(-5)))
        CFI R7 load(1, XDATA, add(CFA_XSP16, literal(-6)))
        CFI V0 load(1, XDATA, add(CFA_XSP16, literal(-7)))
        CFI VB load(1, XDATA, add(CFA_XSP16, literal(-8)))
        CFI R6 load(1, XDATA, add(CFA_XSP16, literal(-9)))
        CFI CFA_SP SP+0
        CFI CFA_XSP16 add(XSP16, 9)
        ; Saved register size: 9
        ; Auto size: 0
        MOV     ?V0 + 0,R1
//  472 #if 0
//  473 	uint16 st=0;
//  474 	DeviceInfo *nowDev;
//  475 	DeviceInfo *preDev;
//  476 	nowDev = preDev = pConfig->devHead;
//  477 	st = (DEVICE_ATTRIBUTE_MAST==attr)? 0x0E:0;
//  478 	while(st<16)
//  479 	{
//  480 		while(nowDev!=NULL)
//  481 		{
//  482 			if(st==nowDev->shortAddr)
//  483 			{
//  484 				st=(DEVICE_ATTRIBUTE_MAST==attr)?(st-1):(st+1);
//  485 				nowDev = pConfig->devHead;
//  486 			}else
//  487 			{
//  488 				preDev = nowDev;
//  489 				nowDev = preDev->pNext;
//  490 			}
//  491 		}
//  492 		return st;
//  493 	}
//  494         return 0xFF;
//  495 #endif
//  496 	uint16 rtAddr=0;
//  497 	if(DEVICE_ATTRIBUTE_MAST==attr)
        MOV     A,#0x1
        XRL     A,?V0 + 0
        JNZ     ??NoneUsedShortAddrSearch_0
//  498 	{
//  499 		rtAddr = ipRsv.mst;
        MOV     DPTR,#ipRsv
        MOVX    A,@DPTR
        MOV     R6,A
        INC     DPTR
        MOVX    A,@DPTR
        MOV     R7,A
//  500 		ipRsv.mst--;
//  501 		while(ipRsv.mst>0)
//  502 		{
//  503 			//if(!SearchForDevice(ipRsv.mst))
//  504 			if(SearchForDevice(ipRsv.mst)>=DEVICE_TOTAL)
//  505 			{
//  506 				//HAL_ASSERT(ipRsv.mst>ipRsv.sla);
//  507 				pConfig->isIdOccupied[rtAddr] = 1;
//  508 				return rtAddr;
//  509 			}
//  510 			ipRsv.mst--;
??NoneUsedShortAddrSearch_1:
        LCALL   ?Subroutine112 & 0xFFFF
??CrossCallReturnLabel_193:
        MOVX    @DPTR,A
        MOV     DPTR,#ipRsv
        LCALL   ?Subroutine93 & 0xFFFF
??CrossCallReturnLabel_146:
        ORL     A,R1
        JZ      ??NoneUsedShortAddrSearch_2
        ; Setup parameters for call to function SearchForDevice
        MOV     DPTR,#ipRsv
        LCALL   ?Subroutine88 & 0xFFFF
??CrossCallReturnLabel_138:
        JC      ??NoneUsedShortAddrSearch_1
??NoneUsedShortAddrSearch_3:
        LCALL   ?Subroutine63 & 0xFFFF
??CrossCallReturnLabel_95:
        MOV     A,#0x1
        MOVX    @DPTR,A
        SJMP    ??NoneUsedShortAddrSearch_4
//  511 		}
//  512 	}else
//  513 	{
//  514 		rtAddr = ipRsv.sla;
??NoneUsedShortAddrSearch_0:
        MOV     DPTR,#ipRsv + 2
        MOVX    A,@DPTR
        MOV     R6,A
        INC     DPTR
        MOVX    A,@DPTR
        MOV     R7,A
//  515 		ipRsv.sla++;
        SJMP    ??NoneUsedShortAddrSearch_5
//  516 		while(ipRsv.sla<0x0E)
//  517 		{
//  518 			//if(!SearchForDevice(ipRsv.sla))
//  519 			if(SearchForDevice(ipRsv.sla)>=DEVICE_TOTAL)
??NoneUsedShortAddrSearch_6:
        ; Setup parameters for call to function SearchForDevice
        LCALL   ??SearchForDevice?relay
        MOV     A,R1
        CLR     C
        SUBB    A,#0xf
        JNC     ??NoneUsedShortAddrSearch_3
//  520 			{
//  521 				//HAL_ASSERT(ipRsv.mst>ipRsv.sla);
//  522 				pConfig->isIdOccupied[rtAddr] = 1;
//  523 				return rtAddr;
//  524 			}
//  525 			ipRsv.sla++;
//  526 		}
??NoneUsedShortAddrSearch_5:
        LCALL   ?Subroutine71 & 0xFFFF
??CrossCallReturnLabel_440:
        MOV     DPTR,#ipRsv + 2
        LCALL   ??Subroutine320_0 & 0xFFFF
//  527 	}
??CrossCallReturnLabel_666:
        CLR     C
        MOV     A,R2
        SUBB    A,#0xe
        MOV     A,R3
        SUBB    A,#0x0
        JC      ??NoneUsedShortAddrSearch_6
//  528 
//  529 	HAL_ASSERT(0);
??NoneUsedShortAddrSearch_2:
        ; Setup parameters for call to function halAssertHandler
        LCALL   ??halAssertHandler?relay
//  530 	return rtAddr;
??NoneUsedShortAddrSearch_4:
        MOV     A,R6
        MOV     R2,A
        MOV     A,R7
        MOV     R3,A
        LJMP    ?Subroutine2 & 0xFFFF
        CFI EndBlock cfiBlock16
//  531 }

        RSEG BANKED_CODE:CODE:NOROOT(0)
?Subroutine71:
        CFI Block cfiCond17 Using cfiCommon0
        CFI NoFunction
        CFI Conditional ??CrossCallReturnLabel_440
        CFI R6 load(1, XDATA, add(CFA_XSP16, literal(-9)))
        CFI VB load(1, XDATA, add(CFA_XSP16, literal(-8)))
        CFI V0 load(1, XDATA, add(CFA_XSP16, literal(-7)))
        CFI R7 load(1, XDATA, add(CFA_XSP16, literal(-6)))
        CFI ?RET_LOW load(1, XDATA, add(CFA_XSP16, literal(-5)))
        CFI ?RET_HIGH load(1, XDATA, add(CFA_XSP16, literal(-4)))
        CFI ?BRET_EXT load(1, XDATA, add(CFA_XSP16, literal(-3)))
        CFI DPL0 load(1, XDATA, add(CFA_XSP16, literal(-2)))
        CFI DPH0 load(1, XDATA, add(CFA_XSP16, literal(-1)))
        CFI CFA_SP SP+0
        CFI CFA_XSP16 add(XSP16, 9)
        CFI Block cfiCond18 Using cfiCommon0
        CFI (cfiCond18) NoFunction
        CFI (cfiCond18) Conditional ??CrossCallReturnLabel_441
        CFI (cfiCond18) R6 load(1, XDATA, add(CFA_XSP16, literal(-16)))
        CFI (cfiCond18) VB load(1, XDATA, add(CFA_XSP16, literal(-15)))
        CFI (cfiCond18) V0 load(1, XDATA, add(CFA_XSP16, literal(-14)))
        CFI (cfiCond18) V1 load(1, XDATA, add(CFA_XSP16, literal(-13)))
        CFI (cfiCond18) V2 load(1, XDATA, add(CFA_XSP16, literal(-12)))
        CFI (cfiCond18) V3 load(1, XDATA, add(CFA_XSP16, literal(-11)))
        CFI (cfiCond18) V4 load(1, XDATA, add(CFA_XSP16, literal(-10)))
        CFI (cfiCond18) V5 load(1, XDATA, add(CFA_XSP16, literal(-9)))
        CFI (cfiCond18) V6 load(1, XDATA, add(CFA_XSP16, literal(-8)))
        CFI (cfiCond18) V7 load(1, XDATA, add(CFA_XSP16, literal(-7)))
        CFI (cfiCond18) R7 load(1, XDATA, add(CFA_XSP16, literal(-6)))
        CFI (cfiCond18) ?RET_LOW load(1, XDATA, add(CFA_XSP16, literal(-5)))
        CFI (cfiCond18) ?RET_HIGH load(1, XDATA, add(CFA_XSP16, literal(-4)))
        CFI (cfiCond18) ?BRET_EXT load(1, XDATA, add(CFA_XSP16, literal(-3)))
        CFI (cfiCond18) DPL0 load(1, XDATA, add(CFA_XSP16, literal(-2)))
        CFI (cfiCond18) DPH0 load(1, XDATA, add(CFA_XSP16, literal(-1)))
        CFI (cfiCond18) CFA_SP SP+0
        CFI (cfiCond18) CFA_XSP16 add(XSP16, 16)
        CFI Block cfiPicker19 Using cfiCommon1
        CFI (cfiPicker19) NoFunction
        CFI (cfiPicker19) Picker
        MOV     DPTR,#ipRsv + 2
        CFI EndBlock cfiCond17
        CFI EndBlock cfiCond18
        CFI EndBlock cfiPicker19
        REQUIRE ??Subroutine270_0
        ; // Fall through to label ??Subroutine270_0

        RSEG BANKED_CODE:CODE:NOROOT(0)
??Subroutine270_0:
        CFI Block cfiCond20 Using cfiCommon0
        CFI NoFunction
        CFI Conditional ??CrossCallReturnLabel_439
        CFI R6 load(1, XDATA, add(CFA_XSP16, literal(-16)))
        CFI VB load(1, XDATA, add(CFA_XSP16, literal(-15)))
        CFI V0 load(1, XDATA, add(CFA_XSP16, literal(-14)))
        CFI V1 load(1, XDATA, add(CFA_XSP16, literal(-13)))
        CFI V2 load(1, XDATA, add(CFA_XSP16, literal(-12)))
        CFI V3 load(1, XDATA, add(CFA_XSP16, literal(-11)))
        CFI V4 load(1, XDATA, add(CFA_XSP16, literal(-10)))
        CFI V5 load(1, XDATA, add(CFA_XSP16, literal(-9)))
        CFI V6 load(1, XDATA, add(CFA_XSP16, literal(-8)))
        CFI V7 load(1, XDATA, add(CFA_XSP16, literal(-7)))
        CFI R7 load(1, XDATA, add(CFA_XSP16, literal(-6)))
        CFI ?RET_LOW load(1, XDATA, add(CFA_XSP16, literal(-5)))
        CFI ?RET_HIGH load(1, XDATA, add(CFA_XSP16, literal(-4)))
        CFI ?BRET_EXT load(1, XDATA, add(CFA_XSP16, literal(-3)))
        CFI DPL0 load(1, XDATA, add(CFA_XSP16, literal(-2)))
        CFI DPH0 load(1, XDATA, add(CFA_XSP16, literal(-1)))
        CFI CFA_SP SP+0
        CFI CFA_XSP16 add(XSP16, 16)
        CFI Block cfiCond21 Using cfiCommon0
        CFI (cfiCond21) NoFunction
        CFI (cfiCond21) Conditional ??CrossCallReturnLabel_440
        CFI (cfiCond21) R6 load(1, XDATA, add(CFA_XSP16, literal(-9)))
        CFI (cfiCond21) VB load(1, XDATA, add(CFA_XSP16, literal(-8)))
        CFI (cfiCond21) V0 load(1, XDATA, add(CFA_XSP16, literal(-7)))
        CFI (cfiCond21) R7 load(1, XDATA, add(CFA_XSP16, literal(-6)))
        CFI (cfiCond21) ?RET_LOW load(1, XDATA, add(CFA_XSP16, literal(-5)))
        CFI (cfiCond21) ?RET_HIGH load(1, XDATA, add(CFA_XSP16, literal(-4)))
        CFI (cfiCond21) ?BRET_EXT load(1, XDATA, add(CFA_XSP16, literal(-3)))
        CFI (cfiCond21) DPL0 load(1, XDATA, add(CFA_XSP16, literal(-2)))
        CFI (cfiCond21) DPH0 load(1, XDATA, add(CFA_XSP16, literal(-1)))
        CFI (cfiCond21) CFA_SP SP+0
        CFI (cfiCond21) CFA_XSP16 add(XSP16, 9)
        CFI Block cfiCond22 Using cfiCommon0
        CFI (cfiCond22) NoFunction
        CFI (cfiCond22) Conditional ??CrossCallReturnLabel_441
        CFI (cfiCond22) R6 load(1, XDATA, add(CFA_XSP16, literal(-16)))
        CFI (cfiCond22) VB load(1, XDATA, add(CFA_XSP16, literal(-15)))
        CFI (cfiCond22) V0 load(1, XDATA, add(CFA_XSP16, literal(-14)))
        CFI (cfiCond22) V1 load(1, XDATA, add(CFA_XSP16, literal(-13)))
        CFI (cfiCond22) V2 load(1, XDATA, add(CFA_XSP16, literal(-12)))
        CFI (cfiCond22) V3 load(1, XDATA, add(CFA_XSP16, literal(-11)))
        CFI (cfiCond22) V4 load(1, XDATA, add(CFA_XSP16, literal(-10)))
        CFI (cfiCond22) V5 load(1, XDATA, add(CFA_XSP16, literal(-9)))
        CFI (cfiCond22) V6 load(1, XDATA, add(CFA_XSP16, literal(-8)))
        CFI (cfiCond22) V7 load(1, XDATA, add(CFA_XSP16, literal(-7)))
        CFI (cfiCond22) R7 load(1, XDATA, add(CFA_XSP16, literal(-6)))
        CFI (cfiCond22) ?RET_LOW load(1, XDATA, add(CFA_XSP16, literal(-5)))
        CFI (cfiCond22) ?RET_HIGH load(1, XDATA, add(CFA_XSP16, literal(-4)))
        CFI (cfiCond22) ?BRET_EXT load(1, XDATA, add(CFA_XSP16, literal(-3)))
        CFI (cfiCond22) DPL0 load(1, XDATA, add(CFA_XSP16, literal(-2)))
        CFI (cfiCond22) DPH0 load(1, XDATA, add(CFA_XSP16, literal(-1)))
        CFI (cfiCond22) CFA_SP SP+0
        CFI (cfiCond22) CFA_XSP16 add(XSP16, 16)
        CFI Block cfiPicker23 Using cfiCommon1
        CFI (cfiPicker23) NoFunction
        CFI (cfiPicker23) Picker
        LCALL   ?Subroutine209 & 0xFFFF
??CrossCallReturnLabel_443:
        RET
        CFI EndBlock cfiCond20
        CFI EndBlock cfiCond21
        CFI EndBlock cfiCond22
        CFI EndBlock cfiPicker23

        RSEG BANKED_CODE:CODE:NOROOT(0)
?Subroutine209:
        CFI Block cfiCond24 Using cfiCommon0
        CFI NoFunction
        CFI Conditional ??CrossCallReturnLabel_443, ??CrossCallReturnLabel_440
        CFI R6 load(1, XDATA, add(CFA_XSP16, literal(-9)))
        CFI VB load(1, XDATA, add(CFA_XSP16, literal(-8)))
        CFI V0 load(1, XDATA, add(CFA_XSP16, literal(-7)))
        CFI R7 load(1, XDATA, add(CFA_XSP16, literal(-6)))
        CFI ?RET_LOW load(1, XDATA, add(CFA_XSP16, literal(-5)))
        CFI ?RET_HIGH load(1, XDATA, add(CFA_XSP16, literal(-4)))
        CFI ?BRET_EXT load(1, XDATA, add(CFA_XSP16, literal(-3)))
        CFI DPL0 load(1, XDATA, add(CFA_XSP16, literal(-2)))
        CFI DPH0 load(1, XDATA, add(CFA_XSP16, literal(-1)))
        CFI CFA_SP SP+0
        CFI CFA_XSP16 add(XSP16, 9)
        CFI Block cfiCond25 Using cfiCommon0
        CFI (cfiCond25) NoFunction
        CFI (cfiCond25) Conditional ??CrossCallReturnLabel_443, ??CrossCallReturnLabel_441
        CFI (cfiCond25) R6 load(1, XDATA, add(CFA_XSP16, literal(-16)))
        CFI (cfiCond25) VB load(1, XDATA, add(CFA_XSP16, literal(-15)))
        CFI (cfiCond25) V0 load(1, XDATA, add(CFA_XSP16, literal(-14)))
        CFI (cfiCond25) V1 load(1, XDATA, add(CFA_XSP16, literal(-13)))
        CFI (cfiCond25) V2 load(1, XDATA, add(CFA_XSP16, literal(-12)))
        CFI (cfiCond25) V3 load(1, XDATA, add(CFA_XSP16, literal(-11)))
        CFI (cfiCond25) V4 load(1, XDATA, add(CFA_XSP16, literal(-10)))
        CFI (cfiCond25) V5 load(1, XDATA, add(CFA_XSP16, literal(-9)))
        CFI (cfiCond25) V6 load(1, XDATA, add(CFA_XSP16, literal(-8)))
        CFI (cfiCond25) V7 load(1, XDATA, add(CFA_XSP16, literal(-7)))
        CFI (cfiCond25) R7 load(1, XDATA, add(CFA_XSP16, literal(-6)))
        CFI (cfiCond25) ?RET_LOW load(1, XDATA, add(CFA_XSP16, literal(-5)))
        CFI (cfiCond25) ?RET_HIGH load(1, XDATA, add(CFA_XSP16, literal(-4)))
        CFI (cfiCond25) ?BRET_EXT load(1, XDATA, add(CFA_XSP16, literal(-3)))
        CFI (cfiCond25) DPL0 load(1, XDATA, add(CFA_XSP16, literal(-2)))
        CFI (cfiCond25) DPH0 load(1, XDATA, add(CFA_XSP16, literal(-1)))
        CFI (cfiCond25) CFA_SP SP+0
        CFI (cfiCond25) CFA_XSP16 add(XSP16, 16)
        CFI Block cfiCond26 Using cfiCommon0
        CFI (cfiCond26) NoFunction
        CFI (cfiCond26) Conditional ??CrossCallReturnLabel_443, ??CrossCallReturnLabel_439
        CFI (cfiCond26) R6 load(1, XDATA, add(CFA_XSP16, literal(-16)))
        CFI (cfiCond26) VB load(1, XDATA, add(CFA_XSP16, literal(-15)))
        CFI (cfiCond26) V0 load(1, XDATA, add(CFA_XSP16, literal(-14)))
        CFI (cfiCond26) V1 load(1, XDATA, add(CFA_XSP16, literal(-13)))
        CFI (cfiCond26) V2 load(1, XDATA, add(CFA_XSP16, literal(-12)))
        CFI (cfiCond26) V3 load(1, XDATA, add(CFA_XSP16, literal(-11)))
        CFI (cfiCond26) V4 load(1, XDATA, add(CFA_XSP16, literal(-10)))
        CFI (cfiCond26) V5 load(1, XDATA, add(CFA_XSP16, literal(-9)))
        CFI (cfiCond26) V6 load(1, XDATA, add(CFA_XSP16, literal(-8)))
        CFI (cfiCond26) V7 load(1, XDATA, add(CFA_XSP16, literal(-7)))
        CFI (cfiCond26) R7 load(1, XDATA, add(CFA_XSP16, literal(-6)))
        CFI (cfiCond26) ?RET_LOW load(1, XDATA, add(CFA_XSP16, literal(-5)))
        CFI (cfiCond26) ?RET_HIGH load(1, XDATA, add(CFA_XSP16, literal(-4)))
        CFI (cfiCond26) ?BRET_EXT load(1, XDATA, add(CFA_XSP16, literal(-3)))
        CFI (cfiCond26) DPL0 load(1, XDATA, add(CFA_XSP16, literal(-2)))
        CFI (cfiCond26) DPH0 load(1, XDATA, add(CFA_XSP16, literal(-1)))
        CFI (cfiCond26) CFA_SP SP+0
        CFI (cfiCond26) CFA_XSP16 add(XSP16, 16)
        CFI Block cfiCond27 Using cfiCommon0
        CFI (cfiCond27) NoFunction
        CFI (cfiCond27) Conditional ??CrossCallReturnLabel_442, ??CrossCallReturnLabel_530
        CFI (cfiCond27) R6 load(1, XDATA, add(CFA_XSP16, literal(-12)))
        CFI (cfiCond27) VB load(1, XDATA, add(CFA_XSP16, literal(-11)))
        CFI (cfiCond27) V0 load(1, XDATA, add(CFA_XSP16, literal(-10)))
        CFI (cfiCond27) V1 load(1, XDATA, add(CFA_XSP16, literal(-9)))
        CFI (cfiCond27) V2 load(1, XDATA, add(CFA_XSP16, literal(-8)))
        CFI (cfiCond27) V3 load(1, XDATA, add(CFA_XSP16, literal(-7)))
        CFI (cfiCond27) R7 load(1, XDATA, add(CFA_XSP16, literal(-6)))
        CFI (cfiCond27) ?RET_LOW load(1, XDATA, add(CFA_XSP16, literal(-5)))
        CFI (cfiCond27) ?RET_HIGH load(1, XDATA, add(CFA_XSP16, literal(-4)))
        CFI (cfiCond27) ?BRET_EXT load(1, XDATA, add(CFA_XSP16, literal(-3)))
        CFI (cfiCond27) DPL0 load(1, XDATA, add(CFA_XSP16, literal(-2)))
        CFI (cfiCond27) DPH0 load(1, XDATA, add(CFA_XSP16, literal(-1)))
        CFI (cfiCond27) CFA_SP SP+0
        CFI (cfiCond27) CFA_XSP16 add(XSP16, 12)
        CFI Block cfiCond28 Using cfiCommon0
        CFI (cfiCond28) NoFunction
        CFI (cfiCond28) Conditional ??CrossCallReturnLabel_442, ??CrossCallReturnLabel_531
        CFI (cfiCond28) R6 load(1, XDATA, add(CFA_XSP16, literal(-16)))
        CFI (cfiCond28) VB load(1, XDATA, add(CFA_XSP16, literal(-15)))
        CFI (cfiCond28) V0 load(1, XDATA, add(CFA_XSP16, literal(-14)))
        CFI (cfiCond28) V1 load(1, XDATA, add(CFA_XSP16, literal(-13)))
        CFI (cfiCond28) V2 load(1, XDATA, add(CFA_XSP16, literal(-12)))
        CFI (cfiCond28) V3 load(1, XDATA, add(CFA_XSP16, literal(-11)))
        CFI (cfiCond28) V4 load(1, XDATA, add(CFA_XSP16, literal(-10)))
        CFI (cfiCond28) V5 load(1, XDATA, add(CFA_XSP16, literal(-9)))
        CFI (cfiCond28) V6 load(1, XDATA, add(CFA_XSP16, literal(-8)))
        CFI (cfiCond28) V7 load(1, XDATA, add(CFA_XSP16, literal(-7)))
        CFI (cfiCond28) R7 load(1, XDATA, add(CFA_XSP16, literal(-6)))
        CFI (cfiCond28) ?RET_LOW load(1, XDATA, add(CFA_XSP16, literal(-5)))
        CFI (cfiCond28) ?RET_HIGH load(1, XDATA, add(CFA_XSP16, literal(-4)))
        CFI (cfiCond28) ?BRET_EXT load(1, XDATA, add(CFA_XSP16, literal(-3)))
        CFI (cfiCond28) DPL0 load(1, XDATA, add(CFA_XSP16, literal(-2)))
        CFI (cfiCond28) DPH0 load(1, XDATA, add(CFA_XSP16, literal(-1)))
        CFI (cfiCond28) CFA_SP SP+0
        CFI (cfiCond28) CFA_XSP16 add(XSP16, 16)
        CFI Block cfiPicker29 Using cfiCommon1
        CFI (cfiPicker29) NoFunction
        CFI (cfiPicker29) Picker
        MOVX    A,@DPTR
        ADD     A,#0x1
        MOVX    @DPTR,A
        INC     DPTR
        MOVX    A,@DPTR
        ADDC    A,#0x0
        MOVX    @DPTR,A
        RET
        CFI EndBlock cfiCond24
        CFI EndBlock cfiCond25
        CFI EndBlock cfiCond26
        CFI EndBlock cfiCond27
        CFI EndBlock cfiCond28
        CFI EndBlock cfiPicker29

        RSEG BANKED_CODE:CODE:NOROOT(0)
?Subroutine63:
        CFI Block cfiCond30 Using cfiCommon0
        CFI NoFunction
        CFI Conditional ??CrossCallReturnLabel_94
        CFI R6 load(1, XDATA, add(CFA_XSP16, literal(-10)))
        CFI VB load(1, XDATA, add(CFA_XSP16, literal(-9)))
        CFI V0 load(1, XDATA, add(CFA_XSP16, literal(-8)))
        CFI V1 load(1, XDATA, add(CFA_XSP16, literal(-7)))
        CFI R7 load(1, XDATA, add(CFA_XSP16, literal(-6)))
        CFI ?RET_LOW load(1, XDATA, add(CFA_XSP16, literal(-5)))
        CFI ?RET_HIGH load(1, XDATA, add(CFA_XSP16, literal(-4)))
        CFI ?BRET_EXT load(1, XDATA, add(CFA_XSP16, literal(-3)))
        CFI DPL0 load(1, XDATA, add(CFA_XSP16, literal(-2)))
        CFI DPH0 load(1, XDATA, add(CFA_XSP16, literal(-1)))
        CFI CFA_SP SP+0
        CFI CFA_XSP16 add(XSP16, 10)
        CFI Block cfiCond31 Using cfiCommon0
        CFI (cfiCond31) NoFunction
        CFI (cfiCond31) Conditional ??CrossCallReturnLabel_95
        CFI (cfiCond31) R6 load(1, XDATA, add(CFA_XSP16, literal(-9)))
        CFI (cfiCond31) VB load(1, XDATA, add(CFA_XSP16, literal(-8)))
        CFI (cfiCond31) V0 load(1, XDATA, add(CFA_XSP16, literal(-7)))
        CFI (cfiCond31) R7 load(1, XDATA, add(CFA_XSP16, literal(-6)))
        CFI (cfiCond31) ?RET_LOW load(1, XDATA, add(CFA_XSP16, literal(-5)))
        CFI (cfiCond31) ?RET_HIGH load(1, XDATA, add(CFA_XSP16, literal(-4)))
        CFI (cfiCond31) ?BRET_EXT load(1, XDATA, add(CFA_XSP16, literal(-3)))
        CFI (cfiCond31) DPL0 load(1, XDATA, add(CFA_XSP16, literal(-2)))
        CFI (cfiCond31) DPH0 load(1, XDATA, add(CFA_XSP16, literal(-1)))
        CFI (cfiCond31) CFA_SP SP+0
        CFI (cfiCond31) CFA_XSP16 add(XSP16, 9)
        CFI Block cfiPicker32 Using cfiCommon1
        CFI (cfiPicker32) NoFunction
        CFI (cfiPicker32) Picker
        LCALL   ?Subroutine186 & 0xFFFF
??CrossCallReturnLabel_521:
        LCALL   ?Subroutine259 & 0xFFFF
??CrossCallReturnLabel_425:
        RET
        CFI EndBlock cfiCond30
        CFI EndBlock cfiCond31
        CFI EndBlock cfiPicker32

        RSEG BANKED_CODE:CODE:NOROOT(0)
?Subroutine259:
        CFI Block cfiCond33 Using cfiCommon0
        CFI NoFunction
        CFI Conditional ??CrossCallReturnLabel_425, ??CrossCallReturnLabel_94
        CFI R6 load(1, XDATA, add(CFA_XSP16, literal(-10)))
        CFI VB load(1, XDATA, add(CFA_XSP16, literal(-9)))
        CFI V0 load(1, XDATA, add(CFA_XSP16, literal(-8)))
        CFI V1 load(1, XDATA, add(CFA_XSP16, literal(-7)))
        CFI R7 load(1, XDATA, add(CFA_XSP16, literal(-6)))
        CFI ?RET_LOW load(1, XDATA, add(CFA_XSP16, literal(-5)))
        CFI ?RET_HIGH load(1, XDATA, add(CFA_XSP16, literal(-4)))
        CFI ?BRET_EXT load(1, XDATA, add(CFA_XSP16, literal(-3)))
        CFI DPL0 load(1, XDATA, add(CFA_XSP16, literal(-2)))
        CFI DPH0 load(1, XDATA, add(CFA_XSP16, literal(-1)))
        CFI CFA_SP SP+0
        CFI CFA_XSP16 add(XSP16, 10)
        CFI Block cfiCond34 Using cfiCommon0
        CFI (cfiCond34) NoFunction
        CFI (cfiCond34) Conditional ??CrossCallReturnLabel_425, ??CrossCallReturnLabel_95
        CFI (cfiCond34) R6 load(1, XDATA, add(CFA_XSP16, literal(-9)))
        CFI (cfiCond34) VB load(1, XDATA, add(CFA_XSP16, literal(-8)))
        CFI (cfiCond34) V0 load(1, XDATA, add(CFA_XSP16, literal(-7)))
        CFI (cfiCond34) R7 load(1, XDATA, add(CFA_XSP16, literal(-6)))
        CFI (cfiCond34) ?RET_LOW load(1, XDATA, add(CFA_XSP16, literal(-5)))
        CFI (cfiCond34) ?RET_HIGH load(1, XDATA, add(CFA_XSP16, literal(-4)))
        CFI (cfiCond34) ?BRET_EXT load(1, XDATA, add(CFA_XSP16, literal(-3)))
        CFI (cfiCond34) DPL0 load(1, XDATA, add(CFA_XSP16, literal(-2)))
        CFI (cfiCond34) DPH0 load(1, XDATA, add(CFA_XSP16, literal(-1)))
        CFI (cfiCond34) CFA_SP SP+0
        CFI (cfiCond34) CFA_XSP16 add(XSP16, 9)
        CFI Block cfiCond35 Using cfiCommon0
        CFI (cfiCond35) NoFunction
        CFI (cfiCond35) Conditional ??CrossCallReturnLabel_426, ??CrossCallReturnLabel_409
        CFI (cfiCond35) R6 load(1, XDATA, add(CFA_XSP16, literal(-16)))
        CFI (cfiCond35) VB load(1, XDATA, add(CFA_XSP16, literal(-15)))
        CFI (cfiCond35) V0 load(1, XDATA, add(CFA_XSP16, literal(-14)))
        CFI (cfiCond35) V1 load(1, XDATA, add(CFA_XSP16, literal(-13)))
        CFI (cfiCond35) V2 load(1, XDATA, add(CFA_XSP16, literal(-12)))
        CFI (cfiCond35) V3 load(1, XDATA, add(CFA_XSP16, literal(-11)))
        CFI (cfiCond35) V4 load(1, XDATA, add(CFA_XSP16, literal(-10)))
        CFI (cfiCond35) V5 load(1, XDATA, add(CFA_XSP16, literal(-9)))
        CFI (cfiCond35) V6 load(1, XDATA, add(CFA_XSP16, literal(-8)))
        CFI (cfiCond35) V7 load(1, XDATA, add(CFA_XSP16, literal(-7)))
        CFI (cfiCond35) R7 load(1, XDATA, add(CFA_XSP16, literal(-6)))
        CFI (cfiCond35) ?RET_LOW load(1, XDATA, add(CFA_XSP16, literal(-5)))
        CFI (cfiCond35) ?RET_HIGH load(1, XDATA, add(CFA_XSP16, literal(-4)))
        CFI (cfiCond35) ?BRET_EXT load(1, XDATA, add(CFA_XSP16, literal(-3)))
        CFI (cfiCond35) DPL0 load(1, XDATA, add(CFA_XSP16, literal(-2)))
        CFI (cfiCond35) DPH0 load(1, XDATA, add(CFA_XSP16, literal(-1)))
        CFI (cfiCond35) CFA_SP SP+0
        CFI (cfiCond35) CFA_XSP16 add(XSP16, 16)
        CFI Block cfiCond36 Using cfiCommon0
        CFI (cfiCond36) NoFunction
        CFI (cfiCond36) Conditional ??CrossCallReturnLabel_426, ??CrossCallReturnLabel_410, ??CrossCallReturnLabel_20
        CFI (cfiCond36) R6 load(1, XDATA, add(CFA_XSP16, literal(-16)))
        CFI (cfiCond36) VB load(1, XDATA, add(CFA_XSP16, literal(-15)))
        CFI (cfiCond36) V0 load(1, XDATA, add(CFA_XSP16, literal(-14)))
        CFI (cfiCond36) V1 load(1, XDATA, add(CFA_XSP16, literal(-13)))
        CFI (cfiCond36) V2 load(1, XDATA, add(CFA_XSP16, literal(-12)))
        CFI (cfiCond36) V3 load(1, XDATA, add(CFA_XSP16, literal(-11)))
        CFI (cfiCond36) V4 load(1, XDATA, add(CFA_XSP16, literal(-10)))
        CFI (cfiCond36) V5 load(1, XDATA, add(CFA_XSP16, literal(-9)))
        CFI (cfiCond36) V6 load(1, XDATA, add(CFA_XSP16, literal(-8)))
        CFI (cfiCond36) V7 load(1, XDATA, add(CFA_XSP16, literal(-7)))
        CFI (cfiCond36) R7 load(1, XDATA, add(CFA_XSP16, literal(-6)))
        CFI (cfiCond36) ?RET_LOW load(1, XDATA, add(CFA_XSP16, literal(-5)))
        CFI (cfiCond36) ?RET_HIGH load(1, XDATA, add(CFA_XSP16, literal(-4)))
        CFI (cfiCond36) ?BRET_EXT load(1, XDATA, add(CFA_XSP16, literal(-3)))
        CFI (cfiCond36) DPL0 load(1, XDATA, add(CFA_XSP16, literal(-2)))
        CFI (cfiCond36) DPH0 load(1, XDATA, add(CFA_XSP16, literal(-1)))
        CFI (cfiCond36) CFA_SP SP+0
        CFI (cfiCond36) CFA_XSP16 add(XSP16, 16)
        CFI Block cfiCond37 Using cfiCommon0
        CFI (cfiCond37) NoFunction
        CFI (cfiCond37) Conditional ??CrossCallReturnLabel_426, ??CrossCallReturnLabel_410, ??CrossCallReturnLabel_21
        CFI (cfiCond37) R6 load(1, XDATA, add(CFA_XSP16, literal(-16)))
        CFI (cfiCond37) VB load(1, XDATA, add(CFA_XSP16, literal(-15)))
        CFI (cfiCond37) V0 load(1, XDATA, add(CFA_XSP16, literal(-14)))
        CFI (cfiCond37) V1 load(1, XDATA, add(CFA_XSP16, literal(-13)))
        CFI (cfiCond37) V2 load(1, XDATA, add(CFA_XSP16, literal(-12)))
        CFI (cfiCond37) V3 load(1, XDATA, add(CFA_XSP16, literal(-11)))
        CFI (cfiCond37) V4 load(1, XDATA, add(CFA_XSP16, literal(-10)))
        CFI (cfiCond37) V5 load(1, XDATA, add(CFA_XSP16, literal(-9)))
        CFI (cfiCond37) V6 load(1, XDATA, add(CFA_XSP16, literal(-8)))
        CFI (cfiCond37) V7 load(1, XDATA, add(CFA_XSP16, literal(-7)))
        CFI (cfiCond37) R7 load(1, XDATA, add(CFA_XSP16, literal(-6)))
        CFI (cfiCond37) ?RET_LOW load(1, XDATA, add(CFA_XSP16, literal(-5)))
        CFI (cfiCond37) ?RET_HIGH load(1, XDATA, add(CFA_XSP16, literal(-4)))
        CFI (cfiCond37) ?BRET_EXT load(1, XDATA, add(CFA_XSP16, literal(-3)))
        CFI (cfiCond37) DPL0 load(1, XDATA, add(CFA_XSP16, literal(-2)))
        CFI (cfiCond37) DPH0 load(1, XDATA, add(CFA_XSP16, literal(-1)))
        CFI (cfiCond37) CFA_SP SP+0
        CFI (cfiCond37) CFA_XSP16 add(XSP16, 16)
        CFI Block cfiCond38 Using cfiCommon0
        CFI (cfiCond38) NoFunction
        CFI (cfiCond38) Conditional ??CrossCallReturnLabel_426, ??CrossCallReturnLabel_410, ??CrossCallReturnLabel_22
        CFI (cfiCond38) R6 load(1, XDATA, add(CFA_XSP16, literal(-11)))
        CFI (cfiCond38) VB load(1, XDATA, add(CFA_XSP16, literal(-10)))
        CFI (cfiCond38) V0 load(1, XDATA, add(CFA_XSP16, literal(-9)))
        CFI (cfiCond38) V1 load(1, XDATA, add(CFA_XSP16, literal(-8)))
        CFI (cfiCond38) V2 load(1, XDATA, add(CFA_XSP16, literal(-7)))
        CFI (cfiCond38) R7 load(1, XDATA, add(CFA_XSP16, literal(-6)))
        CFI (cfiCond38) ?RET_LOW load(1, XDATA, add(CFA_XSP16, literal(-5)))
        CFI (cfiCond38) ?RET_HIGH load(1, XDATA, add(CFA_XSP16, literal(-4)))
        CFI (cfiCond38) ?BRET_EXT load(1, XDATA, add(CFA_XSP16, literal(-3)))
        CFI (cfiCond38) DPL0 load(1, XDATA, add(CFA_XSP16, literal(-2)))
        CFI (cfiCond38) DPH0 load(1, XDATA, add(CFA_XSP16, literal(-1)))
        CFI (cfiCond38) CFA_SP SP+0
        CFI (cfiCond38) CFA_XSP16 add(XSP16, 11)
        CFI Block cfiPicker39 Using cfiCommon1
        CFI (cfiPicker39) NoFunction
        CFI (cfiPicker39) Picker
        ADD     A,#0x17
        MOV     DPL,A
        MOV     A,R1
        ADDC    A,#0x1
        MOV     DPH,A
        RET
        CFI EndBlock cfiCond33
        CFI EndBlock cfiCond34
        CFI EndBlock cfiCond35
        CFI EndBlock cfiCond36
        CFI EndBlock cfiCond37
        CFI EndBlock cfiCond38
        CFI EndBlock cfiPicker39
//  532 
//  533 
//  534 
//  535 //void halRfWaitTransceiverReady()
//  536 //{
//  537 //	while(MAC_RADIO_TRANS_NOREADY);
//  538 //}
//  539 
//  540 static void macRfReceiveOn(void)
//  541 {
//  542     txState.receiveOn = TRUE;
//  543     halRfReceiveOn();
//  544 }
//  545 
//  546 #if 0
//  547 static void macRvsBuf(uint8* pBuf, uint8 length)
//  548 {
//  549 	uint8 temp;
//  550 	uint8* pBufLast = (pBuf + length - 1);
//  551 
//  552 	while(pBufLast > pBuf)
//  553 	{
//  554 		temp = *pBuf;
//  555 		*pBuf++ = *pBufLast;
//  556 		*pBufLast-- = temp;	
//  557 	}
//  558 }
//  559 #endif
//  560 
//  561 static uint8 basicRfBuildHeader(uint8* buffer, uint16 destAddr, uint8 payloadLength, uint8 sendMod)
//  562 {
//  563     basicRfPktHdr_t *pHdr;
//  564     uint16 fcf;
//  565 
//  566     pHdr= (basicRfPktHdr_t*)buffer;
//  567 
//  568     // Populate packet header
//  569 //#ifndef SEND_OBEY_ZSTACK
//  570     pHdr->packetLength = payloadLength + BASIC_RF_PACKET_OVERHEAD_SIZE;
//  571 //#endif
//  572     //pHdr->frameControlField = pConfig->ackRequest ? BASIC_RF_FCF_ACK : BASIC_RF_FCF_NOACK;
//  573    // fcf= pConfig->ackRequest ? BASIC_RF_FCF_ACK : BASIC_RF_FCF_NOACK;
//  574     fcf = pConfig->frameHead;
//  575     pHdr->fcf0 = LO_UINT16(fcf);
//  576     pHdr->fcf1 = HI_UINT16(fcf);
//  577     pHdr->seqNumber= txState.txSeqNumber;
//  578     pHdr->panId= pConfig->panId;
//  579     pHdr->destAddr= destAddr;
//  580     pHdr->srcAddr= pConfig->myAddr;
//  581 
//  582 #ifdef SECURITY_CCM
//  583 
//  584     // Add security to FCF, length and security header
//  585     pHdr->fcf0 |= BASIC_RF_SEC_ENABLED_FCF_BM_L;
//  586     pHdr->packetLength += PKT_LEN_MIC;
//  587     pHdr->packetLength += BASIC_RF_AUX_HDR_LENGTH;
//  588 
//  589     pHdr->securityControl= SECURITY_CONTROL;
//  590     pHdr->frameCounter[0]=   LO_UINT16(LO_UINT32(txState.frameCounter));
//  591     pHdr->frameCounter[1]=   HI_UINT16(LO_UINT32(txState.frameCounter));
//  592     pHdr->frameCounter[2]=   LO_UINT16(HI_UINT32(txState.frameCounter));
//  593     pHdr->frameCounter[3]=   HI_UINT16(HI_UINT32(txState.frameCounter));
//  594 	
//  595 #endif
//  596 
//  597     // Make sure bytefields are network byte order
//  598     //UINT16_HTON(pHdr->panId);
//  599    // UINT16_HTON(pHdr->destAddr);
//  600     //UINT16_HTON(pHdr->srcAddr);
//  601 #ifdef SEND_OBEY_ZSTACK
//  602     if(SEND_MODE_UNSLOTTED==sendMod)
//  603     {
//  604     	//return BASIC_RF_HDR_SIZE-1;
//  605     	return BASIC_RF_HDR_SIZE;
//  606     }else
//  607     {
//  608 	return BASIC_RF_HDR_SIZE;
//  609     }
//  610 #else
//  611     return BASIC_RF_HDR_SIZE;
//  612 #endif
//  613 }
//  614 
//  615 static uint8 LongAddrBuildHeader(uint8* buffer, uint8 *extAddr, uint8 payloadLength, uint8 sendMod)
//  616 {
//  617 	extRfPktHdr_t *pHdr;
//  618 	uint16 fcf;
//  619 
//  620 	pHdr= (extRfPktHdr_t*)buffer;
//  621 
//  622 	// Populate packet header
//  623 //#ifndef SEND_OBEY_ZSTACK
//  624 	pHdr->packetLength = payloadLength + 19;
//  625 //#endif
//  626 	//pHdr->frameControlField = pConfig->ackRequest ? BASIC_RF_FCF_ACK : BASIC_RF_FCF_NOACK;
//  627 	//fcf= pConfig->ackRequest ? BASIC_RF_FCF_ACK : BASIC_RF_FCF_NOACK;
//  628 	fcf = pConfig->frameHead;
//  629 	pHdr->fcf0 = LO_UINT16(fcf);
//  630 	pHdr->fcf1 = HI_UINT16(fcf);
//  631 	pHdr->seqNumber= txState.txSeqNumber;
//  632 	pHdr->panId= 0xFFFF;
//  633     	osal_memcpy(pHdr->extAddr,extAddr,8);
//  634     	//for(i=0;i<8;i++) pHdr->extAddr[i] = pConfig->extAddr[i];
//  635     	pHdr->srcPan= pConfig->panId;
//  636 	pHdr->srcAddr = pConfig->myAddr;
//  637 
//  638 #ifdef SEND_OBEY_ZSTACK
//  639        if(SEND_MODE_UNSLOTTED==sendMod)
//  640        {
//  641        	return (2+1+2+8+2+2+1);
//  642        }else
//  643        {
//  644 		return (2+1+2+8+2+2+1);
//  645 	}
//  646 #else
//  647 	return (2+1+2+8+2+2+1);
//  648 #endif
//  649 }
//  650 
//  651 static void macWriteTxBuf(uint8* pData, uint8 length)
//  652 {
//  653 	MAC_ISFLUSHTX();
//  654 	MAC_CLEAR_TX_INT();
//  655 	macMemWriteTxFifo(pData,length);	
//  656 }
//  657 

        RSEG BANKED_CODE:CODE:NOROOT(0)
//  658 static uint8 macBuildMpdu(uint16 destAddr, uint8* pPayload, uint8 payloadLength,uint8 *extAddr,uint8 buMode, uint8 sendMod)
macBuildMpdu:
        CFI Block cfiBlock40 Using cfiCommon0
        CFI Function macBuildMpdu
        CODE
//  659 {
        FUNCALL macBuildMpdu, osal_memcpy
        LOCFRAME ISTACK, 0, STACK
        LOCFRAME PSTACK, 0, STACK
        LOCFRAME XSTACK, 18, STACK
        LOCFRAME IOVERLAY, 0, STATIC
        LOCFRAME DOVERLAY, 0, STATIC
        ARGFRAME ISTACK, 0, STACK
        ARGFRAME PSTACK, 0, STACK
        ARGFRAME XSTACK, 18, STACK
        ARGFRAME IOVERLAY, 0, STATIC
        ARGFRAME DOVERLAY, 0, STATIC
        MOV     A,#-0xf
        LCALL   ?BANKED_ENTER_XDATA
        CFI DPH0 load(1, XDATA, add(CFA_XSP16, literal(-1)))
        CFI DPL0 load(1, XDATA, add(CFA_XSP16, literal(-2)))
        CFI ?BRET_EXT load(1, XDATA, add(CFA_XSP16, literal(-3)))
        CFI ?RET_HIGH load(1, XDATA, add(CFA_XSP16, literal(-4)))
        CFI ?RET_LOW load(1, XDATA, add(CFA_XSP16, literal(-5)))
        CFI R7 load(1, XDATA, add(CFA_XSP16, literal(-6)))
        CFI V6 load(1, XDATA, add(CFA_XSP16, literal(-7)))
        CFI V5 load(1, XDATA, add(CFA_XSP16, literal(-8)))
        CFI V4 load(1, XDATA, add(CFA_XSP16, literal(-9)))
        CFI V3 load(1, XDATA, add(CFA_XSP16, literal(-10)))
        CFI V2 load(1, XDATA, add(CFA_XSP16, literal(-11)))
        CFI V1 load(1, XDATA, add(CFA_XSP16, literal(-12)))
        CFI V0 load(1, XDATA, add(CFA_XSP16, literal(-13)))
        CFI VB load(1, XDATA, add(CFA_XSP16, literal(-14)))
        CFI R6 load(1, XDATA, add(CFA_XSP16, literal(-15)))
        CFI CFA_SP SP+0
        CFI CFA_XSP16 add(XSP16, 15)
        ; Saved register size: 15
        ; Auto size: 0
        MOV     A,R4
        MOV     R6,A
        MOV     A,R5
        MOV     R7,A
        MOV     ?V0 + 2,R1
        MOV     A,#0xf
        LCALL   ?XSTACK_DISP0_8
        LCALL   ?Subroutine95 & 0xFFFF
??CrossCallReturnLabel_156:
        MOV     A,#0x11
        LCALL   ?XSTACK_DISP0_8
        MOVX    A,@DPTR
//  660 	uint8 hdrLength, n;
//  661 	
//  662 	if(0==buMode)
        JNZ     ??macBuildMpdu_0
//  663 	{
//  664 		hdrLength = basicRfBuildHeader(txMpdu, destAddr, payloadLength,sendMod);
        MOV     A,#0xb
        LCALL   ?Subroutine32 & 0xFFFF
??CrossCallReturnLabel_44:
        LCALL   ?Subroutine72 & 0xFFFF
??CrossCallReturnLabel_114:
        MOV     DPTR,#txMpdu + 4
        LCALL   ?Subroutine163 & 0xFFFF
??CrossCallReturnLabel_311:
        INC     DPTR
        MOV     A,R2
        MOVX    @DPTR,A
        INC     DPTR
        MOV     A,R3
        LCALL   ?Subroutine64 & 0xFFFF
??CrossCallReturnLabel_444:
        MOV     DPTR,#txMpdu + 8
        LCALL   ?Subroutine163 & 0xFFFF
//  665 	}else
??CrossCallReturnLabel_312:
        MOV     R3,#0xa
        SJMP    ??macBuildMpdu_1
//  666 	{
//  667 		hdrLength = LongAddrBuildHeader(txMpdu, extAddr,payloadLength,sendMod);
??macBuildMpdu_0:
        MOV     A,#0x13
        LCALL   ?Subroutine32 & 0xFFFF
??CrossCallReturnLabel_45:
        INC     DPTR
        MOV     A,#-0x1
        MOVX    @DPTR,A
        INC     DPTR
        MOVX    @DPTR,A
        ; Setup parameters for call to function osal_memcpy
        MOV     ?V0 + 4,?V0 + 0
        MOV     ?V0 + 5,?V0 + 1
        MOV     ?V0 + 6,#0x0
        MOV     R0,#?V0 + 4
        LCALL   ?PUSH_XSTACK_I_THREE
        CFI CFA_XSP16 add(XSP16, 18)
        MOV     R4,#0x8
        MOV     R5,#0x0
        MOV     R2,#(txMpdu + 6) & 0xff
        MOV     R3,#((txMpdu + 6) >> 8) & 0xff
        LCALL   ??Subroutine338_0 & 0xFFFF
??CrossCallReturnLabel_804:
        LCALL   ?DEALLOC_XSTACK8
        CFI CFA_XSP16 add(XSP16, 15)
        LCALL   ?Subroutine72 & 0xFFFF
??CrossCallReturnLabel_115:
        MOV     DPTR,#txMpdu + 14
        MOV     A,R0
        MOVX    @DPTR,A
        INC     DPTR
        MOV     A,R1
        LCALL   ?Subroutine64 & 0xFFFF
??CrossCallReturnLabel_445:
        MOV     DPTR,#txMpdu + 16
        LCALL   ?Subroutine163 & 0xFFFF
//  668 	}
??CrossCallReturnLabel_313:
        MOV     R3,#0x12
//  669 
//  670 	for(n=0;n<payloadLength;n++)
??macBuildMpdu_1:
        MOV     R2,#0x0
        SJMP    ??macBuildMpdu_2
//  671 	{
//  672 		txMpdu[hdrLength+n] = pPayload[n];
??macBuildMpdu_3:
        MOV     DPL,R2
        MOV     R0,DPL
        MOV     A,R6
        ADD     A,R0
        MOV     DPL,A
        MOV     A,R7
        LCALL   ??Subroutine331_0 & 0xFFFF
//  673 	}
??CrossCallReturnLabel_752:
        PUSH    A
        CFI CFA_SP SP+-1
        MOV     ?V0 + 0,R3
        MOV     A,?V0 + 0
        ADD     A,R0
        MOV     R0,A
        CLR     A
        ADDC    A,#0x0
        MOV     R1,A
        MOV     A,#txMpdu & 0xff
        ADD     A,R0
        MOV     DPL,A
        MOV     A,#(txMpdu >> 8) & 0xff
        ADDC    A,R1
        MOV     DPH,A
        POP     A
        CFI CFA_SP SP+0
        MOVX    @DPTR,A
        INC     R2
??macBuildMpdu_2:
        MOV     A,R2
        CLR     C
        SUBB    A,?V0 + 2
        JC      ??macBuildMpdu_3
//  674 	return hdrLength + payloadLength; // total mpdu length
        MOV     A,R3
        ADD     A,?V0 + 2
        MOV     R1,A
        SJMP    ??Subroutine272_0
        CFI EndBlock cfiBlock40
//  675 }

        RSEG BANKED_CODE:CODE:NOROOT(0)
?Subroutine72:
        CFI Block cfiCond41 Using cfiCommon0
        CFI NoFunction
        CFI Conditional ??CrossCallReturnLabel_114
        CFI R6 load(1, XDATA, add(CFA_XSP16, literal(-15)))
        CFI VB load(1, XDATA, add(CFA_XSP16, literal(-14)))
        CFI V0 load(1, XDATA, add(CFA_XSP16, literal(-13)))
        CFI V1 load(1, XDATA, add(CFA_XSP16, literal(-12)))
        CFI V2 load(1, XDATA, add(CFA_XSP16, literal(-11)))
        CFI V3 load(1, XDATA, add(CFA_XSP16, literal(-10)))
        CFI V4 load(1, XDATA, add(CFA_XSP16, literal(-9)))
        CFI V5 load(1, XDATA, add(CFA_XSP16, literal(-8)))
        CFI V6 load(1, XDATA, add(CFA_XSP16, literal(-7)))
        CFI R7 load(1, XDATA, add(CFA_XSP16, literal(-6)))
        CFI ?RET_LOW load(1, XDATA, add(CFA_XSP16, literal(-5)))
        CFI ?RET_HIGH load(1, XDATA, add(CFA_XSP16, literal(-4)))
        CFI ?BRET_EXT load(1, XDATA, add(CFA_XSP16, literal(-3)))
        CFI DPL0 load(1, XDATA, add(CFA_XSP16, literal(-2)))
        CFI DPH0 load(1, XDATA, add(CFA_XSP16, literal(-1)))
        CFI CFA_SP SP+0
        CFI CFA_XSP16 add(XSP16, 15)
        CFI Block cfiCond42 Using cfiCommon0
        CFI (cfiCond42) NoFunction
        CFI (cfiCond42) Conditional ??CrossCallReturnLabel_115
        CFI (cfiCond42) R6 load(1, XDATA, add(CFA_XSP16, literal(-15)))
        CFI (cfiCond42) VB load(1, XDATA, add(CFA_XSP16, literal(-14)))
        CFI (cfiCond42) V0 load(1, XDATA, add(CFA_XSP16, literal(-13)))
        CFI (cfiCond42) V1 load(1, XDATA, add(CFA_XSP16, literal(-12)))
        CFI (cfiCond42) V2 load(1, XDATA, add(CFA_XSP16, literal(-11)))
        CFI (cfiCond42) V3 load(1, XDATA, add(CFA_XSP16, literal(-10)))
        CFI (cfiCond42) V4 load(1, XDATA, add(CFA_XSP16, literal(-9)))
        CFI (cfiCond42) V5 load(1, XDATA, add(CFA_XSP16, literal(-8)))
        CFI (cfiCond42) V6 load(1, XDATA, add(CFA_XSP16, literal(-7)))
        CFI (cfiCond42) R7 load(1, XDATA, add(CFA_XSP16, literal(-6)))
        CFI (cfiCond42) ?RET_LOW load(1, XDATA, add(CFA_XSP16, literal(-5)))
        CFI (cfiCond42) ?RET_HIGH load(1, XDATA, add(CFA_XSP16, literal(-4)))
        CFI (cfiCond42) ?BRET_EXT load(1, XDATA, add(CFA_XSP16, literal(-3)))
        CFI (cfiCond42) DPL0 load(1, XDATA, add(CFA_XSP16, literal(-2)))
        CFI (cfiCond42) DPH0 load(1, XDATA, add(CFA_XSP16, literal(-1)))
        CFI (cfiCond42) CFA_SP SP+0
        CFI (cfiCond42) CFA_XSP16 add(XSP16, 15)
        CFI Block cfiPicker43 Using cfiCommon1
        CFI (cfiPicker43) NoFunction
        CFI (cfiPicker43) Picker
        LCALL   ?Subroutine207 & 0xFFFF
??CrossCallReturnLabel_793:
        LCALL   ?Subroutine203 & 0xFFFF
??CrossCallReturnLabel_449:
        RET
        CFI EndBlock cfiCond41
        CFI EndBlock cfiCond42
        CFI EndBlock cfiPicker43

        RSEG BANKED_CODE:CODE:NOROOT(0)
?Subroutine64:
        CFI Block cfiCond44 Using cfiCommon0
        CFI NoFunction
        CFI Conditional ??CrossCallReturnLabel_444
        CFI R6 load(1, XDATA, add(CFA_XSP16, literal(-15)))
        CFI VB load(1, XDATA, add(CFA_XSP16, literal(-14)))
        CFI V0 load(1, XDATA, add(CFA_XSP16, literal(-13)))
        CFI V1 load(1, XDATA, add(CFA_XSP16, literal(-12)))
        CFI V2 load(1, XDATA, add(CFA_XSP16, literal(-11)))
        CFI V3 load(1, XDATA, add(CFA_XSP16, literal(-10)))
        CFI V4 load(1, XDATA, add(CFA_XSP16, literal(-9)))
        CFI V5 load(1, XDATA, add(CFA_XSP16, literal(-8)))
        CFI V6 load(1, XDATA, add(CFA_XSP16, literal(-7)))
        CFI R7 load(1, XDATA, add(CFA_XSP16, literal(-6)))
        CFI ?RET_LOW load(1, XDATA, add(CFA_XSP16, literal(-5)))
        CFI ?RET_HIGH load(1, XDATA, add(CFA_XSP16, literal(-4)))
        CFI ?BRET_EXT load(1, XDATA, add(CFA_XSP16, literal(-3)))
        CFI DPL0 load(1, XDATA, add(CFA_XSP16, literal(-2)))
        CFI DPH0 load(1, XDATA, add(CFA_XSP16, literal(-1)))
        CFI CFA_SP SP+0
        CFI CFA_XSP16 add(XSP16, 15)
        CFI Block cfiCond45 Using cfiCommon0
        CFI (cfiCond45) NoFunction
        CFI (cfiCond45) Conditional ??CrossCallReturnLabel_445
        CFI (cfiCond45) R6 load(1, XDATA, add(CFA_XSP16, literal(-15)))
        CFI (cfiCond45) VB load(1, XDATA, add(CFA_XSP16, literal(-14)))
        CFI (cfiCond45) V0 load(1, XDATA, add(CFA_XSP16, literal(-13)))
        CFI (cfiCond45) V1 load(1, XDATA, add(CFA_XSP16, literal(-12)))
        CFI (cfiCond45) V2 load(1, XDATA, add(CFA_XSP16, literal(-11)))
        CFI (cfiCond45) V3 load(1, XDATA, add(CFA_XSP16, literal(-10)))
        CFI (cfiCond45) V4 load(1, XDATA, add(CFA_XSP16, literal(-9)))
        CFI (cfiCond45) V5 load(1, XDATA, add(CFA_XSP16, literal(-8)))
        CFI (cfiCond45) V6 load(1, XDATA, add(CFA_XSP16, literal(-7)))
        CFI (cfiCond45) R7 load(1, XDATA, add(CFA_XSP16, literal(-6)))
        CFI (cfiCond45) ?RET_LOW load(1, XDATA, add(CFA_XSP16, literal(-5)))
        CFI (cfiCond45) ?RET_HIGH load(1, XDATA, add(CFA_XSP16, literal(-4)))
        CFI (cfiCond45) ?BRET_EXT load(1, XDATA, add(CFA_XSP16, literal(-3)))
        CFI (cfiCond45) DPL0 load(1, XDATA, add(CFA_XSP16, literal(-2)))
        CFI (cfiCond45) DPH0 load(1, XDATA, add(CFA_XSP16, literal(-1)))
        CFI (cfiCond45) CFA_SP SP+0
        CFI (cfiCond45) CFA_XSP16 add(XSP16, 15)
        CFI Block cfiPicker46 Using cfiCommon1
        CFI (cfiPicker46) NoFunction
        CFI (cfiPicker46) Picker
        LCALL   ?Subroutine221 & 0xFFFF
??CrossCallReturnLabel_862:
        MOV     R0,A
        INC     DPTR
        CFI EndBlock cfiCond44
        CFI EndBlock cfiCond45
        CFI EndBlock cfiPicker46
        REQUIRE ??Subroutine271_0
        ; // Fall through to label ??Subroutine271_0

        RSEG XDATA_Z:XDATA:NOROOT(0)
        DATA8
??netChk:
        DS 1
        REQUIRE __INIT_XDATA_Z

        RSEG XDATA_Z:XDATA:NOROOT(0)
        DATA8
??chanRsv:
        DS 1
        REQUIRE __INIT_XDATA_Z

        RSEG XDATA_Z:XDATA:NOROOT(0)
        DATA8
??devRsv:
        DS 1
        REQUIRE __INIT_XDATA_Z

        RSEG XDATA_Z:XDATA:NOROOT(0)
        DATA8
??waitAckFlag:
        DS 1
        REQUIRE __INIT_XDATA_Z

        RSEG XDATA_Z:XDATA:NOROOT(0)
        DATA8
??relCmdCnt:
        DS 1
        REQUIRE __INIT_XDATA_Z

        RSEG XDATA_Z:XDATA:NOROOT(0)
        DATA8
??slaCmdRel:
        DS 1
        REQUIRE __INIT_XDATA_Z

        RSEG XDATA_Z:XDATA:NOROOT(0)
        DATA8
??slaCmdModel:
        DS 1
        REQUIRE __INIT_XDATA_Z

        RSEG XDATA_Z:XDATA:NOROOT(0)
        DATA8
??slaCmdTest:
        DS 1
        REQUIRE __INIT_XDATA_Z

        RSEG XDATA_Z:XDATA:NOROOT(0)
        DATA8
??rcvCnt:
        DS 1
        REQUIRE __INIT_XDATA_Z

        RSEG XDATA_Z:XDATA:NOROOT(0)
        DATA8
??flaFlag:
        DS 1
        REQUIRE __INIT_XDATA_Z

        RSEG BANKED_CODE:CODE:NOROOT(0)
??Subroutine271_0:
        CFI Block cfiCond47 Using cfiCommon0
        CFI NoFunction
        CFI Conditional ??CrossCallReturnLabel_446
        CFI R6 load(1, XDATA, add(CFA_XSP16, literal(-11)))
        CFI VB load(1, XDATA, add(CFA_XSP16, literal(-10)))
        CFI V0 load(1, XDATA, add(CFA_XSP16, literal(-9)))
        CFI V1 load(1, XDATA, add(CFA_XSP16, literal(-8)))
        CFI V2 load(1, XDATA, add(CFA_XSP16, literal(-7)))
        CFI R7 load(1, XDATA, add(CFA_XSP16, literal(-6)))
        CFI ?RET_LOW load(1, XDATA, add(CFA_XSP16, literal(-5)))
        CFI ?RET_HIGH load(1, XDATA, add(CFA_XSP16, literal(-4)))
        CFI ?BRET_EXT load(1, XDATA, add(CFA_XSP16, literal(-3)))
        CFI DPL0 load(1, XDATA, add(CFA_XSP16, literal(-2)))
        CFI DPH0 load(1, XDATA, add(CFA_XSP16, literal(-1)))
        CFI CFA_SP SP+0
        CFI CFA_XSP16 add(XSP16, 11)
        CFI Block cfiCond48 Using cfiCommon0
        CFI (cfiCond48) NoFunction
        CFI (cfiCond48) Conditional ??CrossCallReturnLabel_444
        CFI (cfiCond48) R6 load(1, XDATA, add(CFA_XSP16, literal(-15)))
        CFI (cfiCond48) VB load(1, XDATA, add(CFA_XSP16, literal(-14)))
        CFI (cfiCond48) V0 load(1, XDATA, add(CFA_XSP16, literal(-13)))
        CFI (cfiCond48) V1 load(1, XDATA, add(CFA_XSP16, literal(-12)))
        CFI (cfiCond48) V2 load(1, XDATA, add(CFA_XSP16, literal(-11)))
        CFI (cfiCond48) V3 load(1, XDATA, add(CFA_XSP16, literal(-10)))
        CFI (cfiCond48) V4 load(1, XDATA, add(CFA_XSP16, literal(-9)))
        CFI (cfiCond48) V5 load(1, XDATA, add(CFA_XSP16, literal(-8)))
        CFI (cfiCond48) V6 load(1, XDATA, add(CFA_XSP16, literal(-7)))
        CFI (cfiCond48) R7 load(1, XDATA, add(CFA_XSP16, literal(-6)))
        CFI (cfiCond48) ?RET_LOW load(1, XDATA, add(CFA_XSP16, literal(-5)))
        CFI (cfiCond48) ?RET_HIGH load(1, XDATA, add(CFA_XSP16, literal(-4)))
        CFI (cfiCond48) ?BRET_EXT load(1, XDATA, add(CFA_XSP16, literal(-3)))
        CFI (cfiCond48) DPL0 load(1, XDATA, add(CFA_XSP16, literal(-2)))
        CFI (cfiCond48) DPH0 load(1, XDATA, add(CFA_XSP16, literal(-1)))
        CFI (cfiCond48) CFA_SP SP+0
        CFI (cfiCond48) CFA_XSP16 add(XSP16, 15)
        CFI Block cfiCond49 Using cfiCommon0
        CFI (cfiCond49) NoFunction
        CFI (cfiCond49) Conditional ??CrossCallReturnLabel_445
        CFI (cfiCond49) R6 load(1, XDATA, add(CFA_XSP16, literal(-15)))
        CFI (cfiCond49) VB load(1, XDATA, add(CFA_XSP16, literal(-14)))
        CFI (cfiCond49) V0 load(1, XDATA, add(CFA_XSP16, literal(-13)))
        CFI (cfiCond49) V1 load(1, XDATA, add(CFA_XSP16, literal(-12)))
        CFI (cfiCond49) V2 load(1, XDATA, add(CFA_XSP16, literal(-11)))
        CFI (cfiCond49) V3 load(1, XDATA, add(CFA_XSP16, literal(-10)))
        CFI (cfiCond49) V4 load(1, XDATA, add(CFA_XSP16, literal(-9)))
        CFI (cfiCond49) V5 load(1, XDATA, add(CFA_XSP16, literal(-8)))
        CFI (cfiCond49) V6 load(1, XDATA, add(CFA_XSP16, literal(-7)))
        CFI (cfiCond49) R7 load(1, XDATA, add(CFA_XSP16, literal(-6)))
        CFI (cfiCond49) ?RET_LOW load(1, XDATA, add(CFA_XSP16, literal(-5)))
        CFI (cfiCond49) ?RET_HIGH load(1, XDATA, add(CFA_XSP16, literal(-4)))
        CFI (cfiCond49) ?BRET_EXT load(1, XDATA, add(CFA_XSP16, literal(-3)))
        CFI (cfiCond49) DPL0 load(1, XDATA, add(CFA_XSP16, literal(-2)))
        CFI (cfiCond49) DPH0 load(1, XDATA, add(CFA_XSP16, literal(-1)))
        CFI (cfiCond49) CFA_SP SP+0
        CFI (cfiCond49) CFA_XSP16 add(XSP16, 15)
        CFI Block cfiPicker50 Using cfiCommon1
        CFI (cfiPicker50) NoFunction
        CFI (cfiPicker50) Picker
        LCALL   ??Subroutine350_0 & 0xFFFF
??CrossCallReturnLabel_897:
        LCALL   ?Subroutine203 & 0xFFFF
??CrossCallReturnLabel_452:
        RET
        CFI EndBlock cfiCond47
        CFI EndBlock cfiCond48
        CFI EndBlock cfiCond49
        CFI EndBlock cfiPicker50

        RSEG BANKED_CODE:CODE:NOROOT(0)
?Subroutine203:
        CFI Block cfiCond51 Using cfiCommon0
        CFI NoFunction
        CFI Conditional ??CrossCallReturnLabel_449, ??CrossCallReturnLabel_114
        CFI R6 load(1, XDATA, add(CFA_XSP16, literal(-15)))
        CFI VB load(1, XDATA, add(CFA_XSP16, literal(-14)))
        CFI V0 load(1, XDATA, add(CFA_XSP16, literal(-13)))
        CFI V1 load(1, XDATA, add(CFA_XSP16, literal(-12)))
        CFI V2 load(1, XDATA, add(CFA_XSP16, literal(-11)))
        CFI V3 load(1, XDATA, add(CFA_XSP16, literal(-10)))
        CFI V4 load(1, XDATA, add(CFA_XSP16, literal(-9)))
        CFI V5 load(1, XDATA, add(CFA_XSP16, literal(-8)))
        CFI V6 load(1, XDATA, add(CFA_XSP16, literal(-7)))
        CFI R7 load(1, XDATA, add(CFA_XSP16, literal(-6)))
        CFI ?RET_LOW load(1, XDATA, add(CFA_XSP16, literal(-5)))
        CFI ?RET_HIGH load(1, XDATA, add(CFA_XSP16, literal(-4)))
        CFI ?BRET_EXT load(1, XDATA, add(CFA_XSP16, literal(-3)))
        CFI DPL0 load(1, XDATA, add(CFA_XSP16, literal(-2)))
        CFI DPH0 load(1, XDATA, add(CFA_XSP16, literal(-1)))
        CFI CFA_SP SP+0
        CFI CFA_XSP16 add(XSP16, 15)
        CFI Block cfiCond52 Using cfiCommon0
        CFI (cfiCond52) NoFunction
        CFI (cfiCond52) Conditional ??CrossCallReturnLabel_449, ??CrossCallReturnLabel_115
        CFI (cfiCond52) R6 load(1, XDATA, add(CFA_XSP16, literal(-15)))
        CFI (cfiCond52) VB load(1, XDATA, add(CFA_XSP16, literal(-14)))
        CFI (cfiCond52) V0 load(1, XDATA, add(CFA_XSP16, literal(-13)))
        CFI (cfiCond52) V1 load(1, XDATA, add(CFA_XSP16, literal(-12)))
        CFI (cfiCond52) V2 load(1, XDATA, add(CFA_XSP16, literal(-11)))
        CFI (cfiCond52) V3 load(1, XDATA, add(CFA_XSP16, literal(-10)))
        CFI (cfiCond52) V4 load(1, XDATA, add(CFA_XSP16, literal(-9)))
        CFI (cfiCond52) V5 load(1, XDATA, add(CFA_XSP16, literal(-8)))
        CFI (cfiCond52) V6 load(1, XDATA, add(CFA_XSP16, literal(-7)))
        CFI (cfiCond52) R7 load(1, XDATA, add(CFA_XSP16, literal(-6)))
        CFI (cfiCond52) ?RET_LOW load(1, XDATA, add(CFA_XSP16, literal(-5)))
        CFI (cfiCond52) ?RET_HIGH load(1, XDATA, add(CFA_XSP16, literal(-4)))
        CFI (cfiCond52) ?BRET_EXT load(1, XDATA, add(CFA_XSP16, literal(-3)))
        CFI (cfiCond52) DPL0 load(1, XDATA, add(CFA_XSP16, literal(-2)))
        CFI (cfiCond52) DPH0 load(1, XDATA, add(CFA_XSP16, literal(-1)))
        CFI (cfiCond52) CFA_SP SP+0
        CFI (cfiCond52) CFA_XSP16 add(XSP16, 15)
        CFI Block cfiCond53 Using cfiCommon0
        CFI (cfiCond53) NoFunction
        CFI (cfiCond53) Conditional ??CrossCallReturnLabel_452, ??CrossCallReturnLabel_444
        CFI (cfiCond53) R6 load(1, XDATA, add(CFA_XSP16, literal(-15)))
        CFI (cfiCond53) VB load(1, XDATA, add(CFA_XSP16, literal(-14)))
        CFI (cfiCond53) V0 load(1, XDATA, add(CFA_XSP16, literal(-13)))
        CFI (cfiCond53) V1 load(1, XDATA, add(CFA_XSP16, literal(-12)))
        CFI (cfiCond53) V2 load(1, XDATA, add(CFA_XSP16, literal(-11)))
        CFI (cfiCond53) V3 load(1, XDATA, add(CFA_XSP16, literal(-10)))
        CFI (cfiCond53) V4 load(1, XDATA, add(CFA_XSP16, literal(-9)))
        CFI (cfiCond53) V5 load(1, XDATA, add(CFA_XSP16, literal(-8)))
        CFI (cfiCond53) V6 load(1, XDATA, add(CFA_XSP16, literal(-7)))
        CFI (cfiCond53) R7 load(1, XDATA, add(CFA_XSP16, literal(-6)))
        CFI (cfiCond53) ?RET_LOW load(1, XDATA, add(CFA_XSP16, literal(-5)))
        CFI (cfiCond53) ?RET_HIGH load(1, XDATA, add(CFA_XSP16, literal(-4)))
        CFI (cfiCond53) ?BRET_EXT load(1, XDATA, add(CFA_XSP16, literal(-3)))
        CFI (cfiCond53) DPL0 load(1, XDATA, add(CFA_XSP16, literal(-2)))
        CFI (cfiCond53) DPH0 load(1, XDATA, add(CFA_XSP16, literal(-1)))
        CFI (cfiCond53) CFA_SP SP+0
        CFI (cfiCond53) CFA_XSP16 add(XSP16, 15)
        CFI Block cfiCond54 Using cfiCommon0
        CFI (cfiCond54) NoFunction
        CFI (cfiCond54) Conditional ??CrossCallReturnLabel_452, ??CrossCallReturnLabel_445
        CFI (cfiCond54) R6 load(1, XDATA, add(CFA_XSP16, literal(-15)))
        CFI (cfiCond54) VB load(1, XDATA, add(CFA_XSP16, literal(-14)))
        CFI (cfiCond54) V0 load(1, XDATA, add(CFA_XSP16, literal(-13)))
        CFI (cfiCond54) V1 load(1, XDATA, add(CFA_XSP16, literal(-12)))
        CFI (cfiCond54) V2 load(1, XDATA, add(CFA_XSP16, literal(-11)))
        CFI (cfiCond54) V3 load(1, XDATA, add(CFA_XSP16, literal(-10)))
        CFI (cfiCond54) V4 load(1, XDATA, add(CFA_XSP16, literal(-9)))
        CFI (cfiCond54) V5 load(1, XDATA, add(CFA_XSP16, literal(-8)))
        CFI (cfiCond54) V6 load(1, XDATA, add(CFA_XSP16, literal(-7)))
        CFI (cfiCond54) R7 load(1, XDATA, add(CFA_XSP16, literal(-6)))
        CFI (cfiCond54) ?RET_LOW load(1, XDATA, add(CFA_XSP16, literal(-5)))
        CFI (cfiCond54) ?RET_HIGH load(1, XDATA, add(CFA_XSP16, literal(-4)))
        CFI (cfiCond54) ?BRET_EXT load(1, XDATA, add(CFA_XSP16, literal(-3)))
        CFI (cfiCond54) DPL0 load(1, XDATA, add(CFA_XSP16, literal(-2)))
        CFI (cfiCond54) DPH0 load(1, XDATA, add(CFA_XSP16, literal(-1)))
        CFI (cfiCond54) CFA_SP SP+0
        CFI (cfiCond54) CFA_XSP16 add(XSP16, 15)
        CFI Block cfiCond55 Using cfiCommon0
        CFI (cfiCond55) NoFunction
        CFI (cfiCond55) Conditional ??CrossCallReturnLabel_452, ??CrossCallReturnLabel_446
        CFI (cfiCond55) R6 load(1, XDATA, add(CFA_XSP16, literal(-11)))
        CFI (cfiCond55) VB load(1, XDATA, add(CFA_XSP16, literal(-10)))
        CFI (cfiCond55) V0 load(1, XDATA, add(CFA_XSP16, literal(-9)))
        CFI (cfiCond55) V1 load(1, XDATA, add(CFA_XSP16, literal(-8)))
        CFI (cfiCond55) V2 load(1, XDATA, add(CFA_XSP16, literal(-7)))
        CFI (cfiCond55) R7 load(1, XDATA, add(CFA_XSP16, literal(-6)))
        CFI (cfiCond55) ?RET_LOW load(1, XDATA, add(CFA_XSP16, literal(-5)))
        CFI (cfiCond55) ?RET_HIGH load(1, XDATA, add(CFA_XSP16, literal(-4)))
        CFI (cfiCond55) ?BRET_EXT load(1, XDATA, add(CFA_XSP16, literal(-3)))
        CFI (cfiCond55) DPL0 load(1, XDATA, add(CFA_XSP16, literal(-2)))
        CFI (cfiCond55) DPH0 load(1, XDATA, add(CFA_XSP16, literal(-1)))
        CFI (cfiCond55) CFA_SP SP+0
        CFI (cfiCond55) CFA_XSP16 add(XSP16, 11)
        CFI Block cfiCond56 Using cfiCommon0
        CFI (cfiCond56) NoFunction
        CFI (cfiCond56) Conditional ??CrossCallReturnLabel_448, ??CrossCallReturnLabel_44
        CFI (cfiCond56) R6 load(1, XDATA, add(CFA_XSP16, literal(-15)))
        CFI (cfiCond56) VB load(1, XDATA, add(CFA_XSP16, literal(-14)))
        CFI (cfiCond56) V0 load(1, XDATA, add(CFA_XSP16, literal(-13)))
        CFI (cfiCond56) V1 load(1, XDATA, add(CFA_XSP16, literal(-12)))
        CFI (cfiCond56) V2 load(1, XDATA, add(CFA_XSP16, literal(-11)))
        CFI (cfiCond56) V3 load(1, XDATA, add(CFA_XSP16, literal(-10)))
        CFI (cfiCond56) V4 load(1, XDATA, add(CFA_XSP16, literal(-9)))
        CFI (cfiCond56) V5 load(1, XDATA, add(CFA_XSP16, literal(-8)))
        CFI (cfiCond56) V6 load(1, XDATA, add(CFA_XSP16, literal(-7)))
        CFI (cfiCond56) R7 load(1, XDATA, add(CFA_XSP16, literal(-6)))
        CFI (cfiCond56) ?RET_LOW load(1, XDATA, add(CFA_XSP16, literal(-5)))
        CFI (cfiCond56) ?RET_HIGH load(1, XDATA, add(CFA_XSP16, literal(-4)))
        CFI (cfiCond56) ?BRET_EXT load(1, XDATA, add(CFA_XSP16, literal(-3)))
        CFI (cfiCond56) DPL0 load(1, XDATA, add(CFA_XSP16, literal(-2)))
        CFI (cfiCond56) DPH0 load(1, XDATA, add(CFA_XSP16, literal(-1)))
        CFI (cfiCond56) CFA_SP SP+0
        CFI (cfiCond56) CFA_XSP16 add(XSP16, 15)
        CFI Block cfiCond57 Using cfiCommon0
        CFI (cfiCond57) NoFunction
        CFI (cfiCond57) Conditional ??CrossCallReturnLabel_448, ??CrossCallReturnLabel_45
        CFI (cfiCond57) R6 load(1, XDATA, add(CFA_XSP16, literal(-15)))
        CFI (cfiCond57) VB load(1, XDATA, add(CFA_XSP16, literal(-14)))
        CFI (cfiCond57) V0 load(1, XDATA, add(CFA_XSP16, literal(-13)))
        CFI (cfiCond57) V1 load(1, XDATA, add(CFA_XSP16, literal(-12)))
        CFI (cfiCond57) V2 load(1, XDATA, add(CFA_XSP16, literal(-11)))
        CFI (cfiCond57) V3 load(1, XDATA, add(CFA_XSP16, literal(-10)))
        CFI (cfiCond57) V4 load(1, XDATA, add(CFA_XSP16, literal(-9)))
        CFI (cfiCond57) V5 load(1, XDATA, add(CFA_XSP16, literal(-8)))
        CFI (cfiCond57) V6 load(1, XDATA, add(CFA_XSP16, literal(-7)))
        CFI (cfiCond57) R7 load(1, XDATA, add(CFA_XSP16, literal(-6)))
        CFI (cfiCond57) ?RET_LOW load(1, XDATA, add(CFA_XSP16, literal(-5)))
        CFI (cfiCond57) ?RET_HIGH load(1, XDATA, add(CFA_XSP16, literal(-4)))
        CFI (cfiCond57) ?BRET_EXT load(1, XDATA, add(CFA_XSP16, literal(-3)))
        CFI (cfiCond57) DPL0 load(1, XDATA, add(CFA_XSP16, literal(-2)))
        CFI (cfiCond57) DPH0 load(1, XDATA, add(CFA_XSP16, literal(-1)))
        CFI (cfiCond57) CFA_SP SP+0
        CFI (cfiCond57) CFA_XSP16 add(XSP16, 15)
        CFI Block cfiCond58 Using cfiCommon0
        CFI (cfiCond58) NoFunction
        CFI (cfiCond58) Conditional ??CrossCallReturnLabel_451, ??CrossCallReturnLabel_151
        CFI (cfiCond58) R6 load(1, XDATA, add(CFA_XSP16, literal(-10)))
        CFI (cfiCond58) VB load(1, XDATA, add(CFA_XSP16, literal(-9)))
        CFI (cfiCond58) V0 load(1, XDATA, add(CFA_XSP16, literal(-8)))
        CFI (cfiCond58) V1 load(1, XDATA, add(CFA_XSP16, literal(-7)))
        CFI (cfiCond58) R7 load(1, XDATA, add(CFA_XSP16, literal(-6)))
        CFI (cfiCond58) ?RET_LOW load(1, XDATA, add(CFA_XSP16, literal(-5)))
        CFI (cfiCond58) ?RET_HIGH load(1, XDATA, add(CFA_XSP16, literal(-4)))
        CFI (cfiCond58) ?BRET_EXT load(1, XDATA, add(CFA_XSP16, literal(-3)))
        CFI (cfiCond58) DPL0 load(1, XDATA, add(CFA_XSP16, literal(-2)))
        CFI (cfiCond58) DPH0 load(1, XDATA, add(CFA_XSP16, literal(-1)))
        CFI (cfiCond58) CFA_SP SP+0
        CFI (cfiCond58) CFA_XSP16 add(XSP16, 10)
        CFI Block cfiCond59 Using cfiCommon0
        CFI (cfiCond59) NoFunction
        CFI (cfiCond59) Conditional ??CrossCallReturnLabel_451, ??CrossCallReturnLabel_152
        CFI (cfiCond59) R6 load(1, XDATA, add(CFA_XSP16, literal(-11)))
        CFI (cfiCond59) VB load(1, XDATA, add(CFA_XSP16, literal(-10)))
        CFI (cfiCond59) V0 load(1, XDATA, add(CFA_XSP16, literal(-9)))
        CFI (cfiCond59) V1 load(1, XDATA, add(CFA_XSP16, literal(-8)))
        CFI (cfiCond59) V2 load(1, XDATA, add(CFA_XSP16, literal(-7)))
        CFI (cfiCond59) R7 load(1, XDATA, add(CFA_XSP16, literal(-6)))
        CFI (cfiCond59) ?RET_LOW load(1, XDATA, add(CFA_XSP16, literal(-5)))
        CFI (cfiCond59) ?RET_HIGH load(1, XDATA, add(CFA_XSP16, literal(-4)))
        CFI (cfiCond59) ?BRET_EXT load(1, XDATA, add(CFA_XSP16, literal(-3)))
        CFI (cfiCond59) DPL0 load(1, XDATA, add(CFA_XSP16, literal(-2)))
        CFI (cfiCond59) DPH0 load(1, XDATA, add(CFA_XSP16, literal(-1)))
        CFI (cfiCond59) CFA_SP SP+0
        CFI (cfiCond59) CFA_XSP16 add(XSP16, 31)
        CFI Block cfiCond60 Using cfiCommon0
        CFI (cfiCond60) NoFunction
        CFI (cfiCond60) Conditional ??CrossCallReturnLabel_451, ??CrossCallReturnLabel_153
        CFI (cfiCond60) R6 load(1, XDATA, add(CFA_XSP16, literal(-12)))
        CFI (cfiCond60) VB load(1, XDATA, add(CFA_XSP16, literal(-11)))
        CFI (cfiCond60) V0 load(1, XDATA, add(CFA_XSP16, literal(-10)))
        CFI (cfiCond60) V1 load(1, XDATA, add(CFA_XSP16, literal(-9)))
        CFI (cfiCond60) V2 load(1, XDATA, add(CFA_XSP16, literal(-8)))
        CFI (cfiCond60) V3 load(1, XDATA, add(CFA_XSP16, literal(-7)))
        CFI (cfiCond60) R7 load(1, XDATA, add(CFA_XSP16, literal(-6)))
        CFI (cfiCond60) ?RET_LOW load(1, XDATA, add(CFA_XSP16, literal(-5)))
        CFI (cfiCond60) ?RET_HIGH load(1, XDATA, add(CFA_XSP16, literal(-4)))
        CFI (cfiCond60) ?BRET_EXT load(1, XDATA, add(CFA_XSP16, literal(-3)))
        CFI (cfiCond60) DPL0 load(1, XDATA, add(CFA_XSP16, literal(-2)))
        CFI (cfiCond60) DPH0 load(1, XDATA, add(CFA_XSP16, literal(-1)))
        CFI (cfiCond60) CFA_SP SP+0
        CFI (cfiCond60) CFA_XSP16 add(XSP16, 12)
        CFI Block cfiCond61 Using cfiCommon0
        CFI (cfiCond61) NoFunction
        CFI (cfiCond61) Conditional ??CrossCallReturnLabel_451, ??CrossCallReturnLabel_154
        CFI (cfiCond61) R6 load(1, XDATA, add(CFA_XSP16, literal(-16)))
        CFI (cfiCond61) VB load(1, XDATA, add(CFA_XSP16, literal(-15)))
        CFI (cfiCond61) V0 load(1, XDATA, add(CFA_XSP16, literal(-14)))
        CFI (cfiCond61) V1 load(1, XDATA, add(CFA_XSP16, literal(-13)))
        CFI (cfiCond61) V2 load(1, XDATA, add(CFA_XSP16, literal(-12)))
        CFI (cfiCond61) V3 load(1, XDATA, add(CFA_XSP16, literal(-11)))
        CFI (cfiCond61) V4 load(1, XDATA, add(CFA_XSP16, literal(-10)))
        CFI (cfiCond61) V5 load(1, XDATA, add(CFA_XSP16, literal(-9)))
        CFI (cfiCond61) V6 load(1, XDATA, add(CFA_XSP16, literal(-8)))
        CFI (cfiCond61) V7 load(1, XDATA, add(CFA_XSP16, literal(-7)))
        CFI (cfiCond61) R7 load(1, XDATA, add(CFA_XSP16, literal(-6)))
        CFI (cfiCond61) ?RET_LOW load(1, XDATA, add(CFA_XSP16, literal(-5)))
        CFI (cfiCond61) ?RET_HIGH load(1, XDATA, add(CFA_XSP16, literal(-4)))
        CFI (cfiCond61) ?BRET_EXT load(1, XDATA, add(CFA_XSP16, literal(-3)))
        CFI (cfiCond61) DPL0 load(1, XDATA, add(CFA_XSP16, literal(-2)))
        CFI (cfiCond61) DPH0 load(1, XDATA, add(CFA_XSP16, literal(-1)))
        CFI (cfiCond61) CFA_SP SP+0
        CFI (cfiCond61) CFA_XSP16 add(XSP16, 16)
        CFI Block cfiCond62 Using cfiCommon0
        CFI (cfiCond62) NoFunction
        CFI (cfiCond62) Conditional ??CrossCallReturnLabel_451, ??CrossCallReturnLabel_155
        CFI (cfiCond62) R6 load(1, XDATA, add(CFA_XSP16, literal(-10)))
        CFI (cfiCond62) VB load(1, XDATA, add(CFA_XSP16, literal(-9)))
        CFI (cfiCond62) V0 load(1, XDATA, add(CFA_XSP16, literal(-8)))
        CFI (cfiCond62) V1 load(1, XDATA, add(CFA_XSP16, literal(-7)))
        CFI (cfiCond62) R7 load(1, XDATA, add(CFA_XSP16, literal(-6)))
        CFI (cfiCond62) ?RET_LOW load(1, XDATA, add(CFA_XSP16, literal(-5)))
        CFI (cfiCond62) ?RET_HIGH load(1, XDATA, add(CFA_XSP16, literal(-4)))
        CFI (cfiCond62) ?BRET_EXT load(1, XDATA, add(CFA_XSP16, literal(-3)))
        CFI (cfiCond62) DPL0 load(1, XDATA, add(CFA_XSP16, literal(-2)))
        CFI (cfiCond62) DPH0 load(1, XDATA, add(CFA_XSP16, literal(-1)))
        CFI (cfiCond62) CFA_SP SP+0
        CFI (cfiCond62) CFA_XSP16 add(XSP16, 10)
        CFI Block cfiCond63 Using cfiCommon0
        CFI (cfiCond63) NoFunction
        CFI (cfiCond63) Conditional ??CrossCallReturnLabel_450, ??CrossCallReturnLabel_146
        CFI (cfiCond63) R6 load(1, XDATA, add(CFA_XSP16, literal(-9)))
        CFI (cfiCond63) VB load(1, XDATA, add(CFA_XSP16, literal(-8)))
        CFI (cfiCond63) V0 load(1, XDATA, add(CFA_XSP16, literal(-7)))
        CFI (cfiCond63) R7 load(1, XDATA, add(CFA_XSP16, literal(-6)))
        CFI (cfiCond63) ?RET_LOW load(1, XDATA, add(CFA_XSP16, literal(-5)))
        CFI (cfiCond63) ?RET_HIGH load(1, XDATA, add(CFA_XSP16, literal(-4)))
        CFI (cfiCond63) ?BRET_EXT load(1, XDATA, add(CFA_XSP16, literal(-3)))
        CFI (cfiCond63) DPL0 load(1, XDATA, add(CFA_XSP16, literal(-2)))
        CFI (cfiCond63) DPH0 load(1, XDATA, add(CFA_XSP16, literal(-1)))
        CFI (cfiCond63) CFA_SP SP+0
        CFI (cfiCond63) CFA_XSP16 add(XSP16, 9)
        CFI Block cfiCond64 Using cfiCommon0
        CFI (cfiCond64) NoFunction
        CFI (cfiCond64) Conditional ??CrossCallReturnLabel_450, ??CrossCallReturnLabel_147
        CFI (cfiCond64) R6 load(1, XDATA, add(CFA_XSP16, literal(-16)))
        CFI (cfiCond64) VB load(1, XDATA, add(CFA_XSP16, literal(-15)))
        CFI (cfiCond64) V0 load(1, XDATA, add(CFA_XSP16, literal(-14)))
        CFI (cfiCond64) V1 load(1, XDATA, add(CFA_XSP16, literal(-13)))
        CFI (cfiCond64) V2 load(1, XDATA, add(CFA_XSP16, literal(-12)))
        CFI (cfiCond64) V3 load(1, XDATA, add(CFA_XSP16, literal(-11)))
        CFI (cfiCond64) V4 load(1, XDATA, add(CFA_XSP16, literal(-10)))
        CFI (cfiCond64) V5 load(1, XDATA, add(CFA_XSP16, literal(-9)))
        CFI (cfiCond64) V6 load(1, XDATA, add(CFA_XSP16, literal(-8)))
        CFI (cfiCond64) V7 load(1, XDATA, add(CFA_XSP16, literal(-7)))
        CFI (cfiCond64) R7 load(1, XDATA, add(CFA_XSP16, literal(-6)))
        CFI (cfiCond64) ?RET_LOW load(1, XDATA, add(CFA_XSP16, literal(-5)))
        CFI (cfiCond64) ?RET_HIGH load(1, XDATA, add(CFA_XSP16, literal(-4)))
        CFI (cfiCond64) ?BRET_EXT load(1, XDATA, add(CFA_XSP16, literal(-3)))
        CFI (cfiCond64) DPL0 load(1, XDATA, add(CFA_XSP16, literal(-2)))
        CFI (cfiCond64) DPH0 load(1, XDATA, add(CFA_XSP16, literal(-1)))
        CFI (cfiCond64) CFA_SP SP+0
        CFI (cfiCond64) CFA_XSP16 add(XSP16, 16)
        CFI Block cfiCond65 Using cfiCommon0
        CFI (cfiCond65) NoFunction
        CFI (cfiCond65) Conditional ??CrossCallReturnLabel_450, ??CrossCallReturnLabel_148
        CFI (cfiCond65) R6 load(1, XDATA, add(CFA_XSP16, literal(-11)))
        CFI (cfiCond65) VB load(1, XDATA, add(CFA_XSP16, literal(-10)))
        CFI (cfiCond65) V0 load(1, XDATA, add(CFA_XSP16, literal(-9)))
        CFI (cfiCond65) V1 load(1, XDATA, add(CFA_XSP16, literal(-8)))
        CFI (cfiCond65) V2 load(1, XDATA, add(CFA_XSP16, literal(-7)))
        CFI (cfiCond65) R7 load(1, XDATA, add(CFA_XSP16, literal(-6)))
        CFI (cfiCond65) ?RET_LOW load(1, XDATA, add(CFA_XSP16, literal(-5)))
        CFI (cfiCond65) ?RET_HIGH load(1, XDATA, add(CFA_XSP16, literal(-4)))
        CFI (cfiCond65) ?BRET_EXT load(1, XDATA, add(CFA_XSP16, literal(-3)))
        CFI (cfiCond65) DPL0 load(1, XDATA, add(CFA_XSP16, literal(-2)))
        CFI (cfiCond65) DPH0 load(1, XDATA, add(CFA_XSP16, literal(-1)))
        CFI (cfiCond65) CFA_SP SP+0
        CFI (cfiCond65) CFA_XSP16 add(XSP16, 11)
        CFI Block cfiCond66 Using cfiCommon0
        CFI (cfiCond66) NoFunction
        CFI (cfiCond66) Conditional ??CrossCallReturnLabel_450, ??CrossCallReturnLabel_149
        CFI (cfiCond66) R6 load(1, XDATA, add(CFA_XSP16, literal(-12)))
        CFI (cfiCond66) VB load(1, XDATA, add(CFA_XSP16, literal(-11)))
        CFI (cfiCond66) V0 load(1, XDATA, add(CFA_XSP16, literal(-10)))
        CFI (cfiCond66) V1 load(1, XDATA, add(CFA_XSP16, literal(-9)))
        CFI (cfiCond66) V2 load(1, XDATA, add(CFA_XSP16, literal(-8)))
        CFI (cfiCond66) V3 load(1, XDATA, add(CFA_XSP16, literal(-7)))
        CFI (cfiCond66) R7 load(1, XDATA, add(CFA_XSP16, literal(-6)))
        CFI (cfiCond66) ?RET_LOW load(1, XDATA, add(CFA_XSP16, literal(-5)))
        CFI (cfiCond66) ?RET_HIGH load(1, XDATA, add(CFA_XSP16, literal(-4)))
        CFI (cfiCond66) ?BRET_EXT load(1, XDATA, add(CFA_XSP16, literal(-3)))
        CFI (cfiCond66) DPL0 load(1, XDATA, add(CFA_XSP16, literal(-2)))
        CFI (cfiCond66) DPH0 load(1, XDATA, add(CFA_XSP16, literal(-1)))
        CFI (cfiCond66) CFA_SP SP+0
        CFI (cfiCond66) CFA_XSP16 add(XSP16, 12)
        CFI Block cfiCond67 Using cfiCommon0
        CFI (cfiCond67) NoFunction
        CFI (cfiCond67) Conditional ??CrossCallReturnLabel_450, ??CrossCallReturnLabel_150
        CFI (cfiCond67) R6 load(1, XDATA, add(CFA_XSP16, literal(-18)))
        CFI (cfiCond67) VB load(1, XDATA, add(CFA_XSP16, literal(-17)))
        CFI (cfiCond67) V0 load(1, XDATA, add(CFA_XSP16, literal(-16)))
        CFI (cfiCond67) V1 load(1, XDATA, add(CFA_XSP16, literal(-15)))
        CFI (cfiCond67) V2 load(1, XDATA, add(CFA_XSP16, literal(-14)))
        CFI (cfiCond67) V3 load(1, XDATA, add(CFA_XSP16, literal(-13)))
        CFI (cfiCond67) V4 load(1, XDATA, add(CFA_XSP16, literal(-12)))
        CFI (cfiCond67) V5 load(1, XDATA, add(CFA_XSP16, literal(-11)))
        CFI (cfiCond67) V6 load(1, XDATA, add(CFA_XSP16, literal(-10)))
        CFI (cfiCond67) V7 load(1, XDATA, add(CFA_XSP16, literal(-9)))
        CFI (cfiCond67) V8 load(1, XDATA, add(CFA_XSP16, literal(-8)))
        CFI (cfiCond67) V9 load(1, XDATA, add(CFA_XSP16, literal(-7)))
        CFI (cfiCond67) R7 load(1, XDATA, add(CFA_XSP16, literal(-6)))
        CFI (cfiCond67) ?RET_LOW load(1, XDATA, add(CFA_XSP16, literal(-5)))
        CFI (cfiCond67) ?RET_HIGH load(1, XDATA, add(CFA_XSP16, literal(-4)))
        CFI (cfiCond67) ?BRET_EXT load(1, XDATA, add(CFA_XSP16, literal(-3)))
        CFI (cfiCond67) DPL0 load(1, XDATA, add(CFA_XSP16, literal(-2)))
        CFI (cfiCond67) DPH0 load(1, XDATA, add(CFA_XSP16, literal(-1)))
        CFI (cfiCond67) CFA_SP SP+0
        CFI (cfiCond67) CFA_XSP16 add(XSP16, 18)
        CFI Block cfiCond68 Using cfiCommon0
        CFI (cfiCond68) NoFunction
        CFI (cfiCond68) Conditional ??CrossCallReturnLabel_447, ??CrossCallReturnLabel_20
        CFI (cfiCond68) R6 load(1, XDATA, add(CFA_XSP16, literal(-16)))
        CFI (cfiCond68) VB load(1, XDATA, add(CFA_XSP16, literal(-15)))
        CFI (cfiCond68) V0 load(1, XDATA, add(CFA_XSP16, literal(-14)))
        CFI (cfiCond68) V1 load(1, XDATA, add(CFA_XSP16, literal(-13)))
        CFI (cfiCond68) V2 load(1, XDATA, add(CFA_XSP16, literal(-12)))
        CFI (cfiCond68) V3 load(1, XDATA, add(CFA_XSP16, literal(-11)))
        CFI (cfiCond68) V4 load(1, XDATA, add(CFA_XSP16, literal(-10)))
        CFI (cfiCond68) V5 load(1, XDATA, add(CFA_XSP16, literal(-9)))
        CFI (cfiCond68) V6 load(1, XDATA, add(CFA_XSP16, literal(-8)))
        CFI (cfiCond68) V7 load(1, XDATA, add(CFA_XSP16, literal(-7)))
        CFI (cfiCond68) R7 load(1, XDATA, add(CFA_XSP16, literal(-6)))
        CFI (cfiCond68) ?RET_LOW load(1, XDATA, add(CFA_XSP16, literal(-5)))
        CFI (cfiCond68) ?RET_HIGH load(1, XDATA, add(CFA_XSP16, literal(-4)))
        CFI (cfiCond68) ?BRET_EXT load(1, XDATA, add(CFA_XSP16, literal(-3)))
        CFI (cfiCond68) DPL0 load(1, XDATA, add(CFA_XSP16, literal(-2)))
        CFI (cfiCond68) DPH0 load(1, XDATA, add(CFA_XSP16, literal(-1)))
        CFI (cfiCond68) CFA_SP SP+0
        CFI (cfiCond68) CFA_XSP16 add(XSP16, 16)
        CFI Block cfiCond69 Using cfiCommon0
        CFI (cfiCond69) NoFunction
        CFI (cfiCond69) Conditional ??CrossCallReturnLabel_447, ??CrossCallReturnLabel_21
        CFI (cfiCond69) R6 load(1, XDATA, add(CFA_XSP16, literal(-16)))
        CFI (cfiCond69) VB load(1, XDATA, add(CFA_XSP16, literal(-15)))
        CFI (cfiCond69) V0 load(1, XDATA, add(CFA_XSP16, literal(-14)))
        CFI (cfiCond69) V1 load(1, XDATA, add(CFA_XSP16, literal(-13)))
        CFI (cfiCond69) V2 load(1, XDATA, add(CFA_XSP16, literal(-12)))
        CFI (cfiCond69) V3 load(1, XDATA, add(CFA_XSP16, literal(-11)))
        CFI (cfiCond69) V4 load(1, XDATA, add(CFA_XSP16, literal(-10)))
        CFI (cfiCond69) V5 load(1, XDATA, add(CFA_XSP16, literal(-9)))
        CFI (cfiCond69) V6 load(1, XDATA, add(CFA_XSP16, literal(-8)))
        CFI (cfiCond69) V7 load(1, XDATA, add(CFA_XSP16, literal(-7)))
        CFI (cfiCond69) R7 load(1, XDATA, add(CFA_XSP16, literal(-6)))
        CFI (cfiCond69) ?RET_LOW load(1, XDATA, add(CFA_XSP16, literal(-5)))
        CFI (cfiCond69) ?RET_HIGH load(1, XDATA, add(CFA_XSP16, literal(-4)))
        CFI (cfiCond69) ?BRET_EXT load(1, XDATA, add(CFA_XSP16, literal(-3)))
        CFI (cfiCond69) DPL0 load(1, XDATA, add(CFA_XSP16, literal(-2)))
        CFI (cfiCond69) DPH0 load(1, XDATA, add(CFA_XSP16, literal(-1)))
        CFI (cfiCond69) CFA_SP SP+0
        CFI (cfiCond69) CFA_XSP16 add(XSP16, 16)
        CFI Block cfiCond70 Using cfiCommon0
        CFI (cfiCond70) NoFunction
        CFI (cfiCond70) Conditional ??CrossCallReturnLabel_447, ??CrossCallReturnLabel_22
        CFI (cfiCond70) R6 load(1, XDATA, add(CFA_XSP16, literal(-11)))
        CFI (cfiCond70) VB load(1, XDATA, add(CFA_XSP16, literal(-10)))
        CFI (cfiCond70) V0 load(1, XDATA, add(CFA_XSP16, literal(-9)))
        CFI (cfiCond70) V1 load(1, XDATA, add(CFA_XSP16, literal(-8)))
        CFI (cfiCond70) V2 load(1, XDATA, add(CFA_XSP16, literal(-7)))
        CFI (cfiCond70) R7 load(1, XDATA, add(CFA_XSP16, literal(-6)))
        CFI (cfiCond70) ?RET_LOW load(1, XDATA, add(CFA_XSP16, literal(-5)))
        CFI (cfiCond70) ?RET_HIGH load(1, XDATA, add(CFA_XSP16, literal(-4)))
        CFI (cfiCond70) ?BRET_EXT load(1, XDATA, add(CFA_XSP16, literal(-3)))
        CFI (cfiCond70) DPL0 load(1, XDATA, add(CFA_XSP16, literal(-2)))
        CFI (cfiCond70) DPH0 load(1, XDATA, add(CFA_XSP16, literal(-1)))
        CFI (cfiCond70) CFA_SP SP+0
        CFI (cfiCond70) CFA_XSP16 add(XSP16, 11)
        CFI Block cfiPicker71 Using cfiCommon1
        CFI (cfiPicker71) NoFunction
        CFI (cfiPicker71) Picker
        MOVX    A,@DPTR
        MOV     R0,A
        INC     DPTR
        MOVX    A,@DPTR
        MOV     R1,A
        RET
        CFI EndBlock cfiCond51
        CFI EndBlock cfiCond52
        CFI EndBlock cfiCond53
        CFI EndBlock cfiCond54
        CFI EndBlock cfiCond55
        CFI EndBlock cfiCond56
        CFI EndBlock cfiCond57
        CFI EndBlock cfiCond58
        CFI EndBlock cfiCond59
        CFI EndBlock cfiCond60
        CFI EndBlock cfiCond61
        CFI EndBlock cfiCond62
        CFI EndBlock cfiCond63
        CFI EndBlock cfiCond64
        CFI EndBlock cfiCond65
        CFI EndBlock cfiCond66
        CFI EndBlock cfiCond67
        CFI EndBlock cfiCond68
        CFI EndBlock cfiCond69
        CFI EndBlock cfiCond70
        CFI EndBlock cfiPicker71

        RSEG BANKED_CODE:CODE:NOROOT(0)
?Subroutine32:
        CFI Block cfiCond72 Using cfiCommon0
        CFI NoFunction
        CFI Conditional ??CrossCallReturnLabel_44
        CFI R6 load(1, XDATA, add(CFA_XSP16, literal(-15)))
        CFI VB load(1, XDATA, add(CFA_XSP16, literal(-14)))
        CFI V0 load(1, XDATA, add(CFA_XSP16, literal(-13)))
        CFI V1 load(1, XDATA, add(CFA_XSP16, literal(-12)))
        CFI V2 load(1, XDATA, add(CFA_XSP16, literal(-11)))
        CFI V3 load(1, XDATA, add(CFA_XSP16, literal(-10)))
        CFI V4 load(1, XDATA, add(CFA_XSP16, literal(-9)))
        CFI V5 load(1, XDATA, add(CFA_XSP16, literal(-8)))
        CFI V6 load(1, XDATA, add(CFA_XSP16, literal(-7)))
        CFI R7 load(1, XDATA, add(CFA_XSP16, literal(-6)))
        CFI ?RET_LOW load(1, XDATA, add(CFA_XSP16, literal(-5)))
        CFI ?RET_HIGH load(1, XDATA, add(CFA_XSP16, literal(-4)))
        CFI ?BRET_EXT load(1, XDATA, add(CFA_XSP16, literal(-3)))
        CFI DPL0 load(1, XDATA, add(CFA_XSP16, literal(-2)))
        CFI DPH0 load(1, XDATA, add(CFA_XSP16, literal(-1)))
        CFI CFA_SP SP+0
        CFI CFA_XSP16 add(XSP16, 15)
        CFI Block cfiCond73 Using cfiCommon0
        CFI (cfiCond73) NoFunction
        CFI (cfiCond73) Conditional ??CrossCallReturnLabel_45
        CFI (cfiCond73) R6 load(1, XDATA, add(CFA_XSP16, literal(-15)))
        CFI (cfiCond73) VB load(1, XDATA, add(CFA_XSP16, literal(-14)))
        CFI (cfiCond73) V0 load(1, XDATA, add(CFA_XSP16, literal(-13)))
        CFI (cfiCond73) V1 load(1, XDATA, add(CFA_XSP16, literal(-12)))
        CFI (cfiCond73) V2 load(1, XDATA, add(CFA_XSP16, literal(-11)))
        CFI (cfiCond73) V3 load(1, XDATA, add(CFA_XSP16, literal(-10)))
        CFI (cfiCond73) V4 load(1, XDATA, add(CFA_XSP16, literal(-9)))
        CFI (cfiCond73) V5 load(1, XDATA, add(CFA_XSP16, literal(-8)))
        CFI (cfiCond73) V6 load(1, XDATA, add(CFA_XSP16, literal(-7)))
        CFI (cfiCond73) R7 load(1, XDATA, add(CFA_XSP16, literal(-6)))
        CFI (cfiCond73) ?RET_LOW load(1, XDATA, add(CFA_XSP16, literal(-5)))
        CFI (cfiCond73) ?RET_HIGH load(1, XDATA, add(CFA_XSP16, literal(-4)))
        CFI (cfiCond73) ?BRET_EXT load(1, XDATA, add(CFA_XSP16, literal(-3)))
        CFI (cfiCond73) DPL0 load(1, XDATA, add(CFA_XSP16, literal(-2)))
        CFI (cfiCond73) DPH0 load(1, XDATA, add(CFA_XSP16, literal(-1)))
        CFI (cfiCond73) CFA_SP SP+0
        CFI (cfiCond73) CFA_XSP16 add(XSP16, 15)
        CFI Block cfiPicker74 Using cfiCommon1
        CFI (cfiPicker74) NoFunction
        CFI (cfiPicker74) Picker
        ADD     A,?V0 + 2
        MOV     DPTR,#txMpdu
        MOVX    @DPTR,A
        LCALL   ?Subroutine187 & 0xFFFF
??CrossCallReturnLabel_354:
        LCALL   ?Subroutine203 & 0xFFFF
??CrossCallReturnLabel_448:
        MOV     A,R0
        MOV     DPTR,#txMpdu + 1
        MOVX    @DPTR,A
        MOV     A,R1
        INC     DPTR
        MOVX    @DPTR,A
        MOV     DPTR,#txState
        MOVX    A,@DPTR
        MOV     DPTR,#txMpdu + 3
        MOVX    @DPTR,A
        RET
        CFI EndBlock cfiCond72
        CFI EndBlock cfiCond73
        CFI EndBlock cfiPicker74

        RSEG XDATA_Z:XDATA:NOROOT(0)
        DATA8
??relCmdCnt_1:
        DS 1
        REQUIRE __INIT_XDATA_Z

        RSEG BANKED_CODE:CODE:NOROOT(0)
?Subroutine3:
        CFI Block cfiBlock75 Using cfiCommon0
        CFI NoFunction
        CFI CFA_SP SP+0
        CFI CFA_XSP16 add(XSP16, 15)
        CFI VB load(1, XDATA, add(CFA_XSP16, literal(-14)))
        CFI DPL0 load(1, XDATA, add(CFA_XSP16, literal(-2)))
        CFI DPH0 load(1, XDATA, add(CFA_XSP16, literal(-1)))
        CFI R6 load(1, XDATA, add(CFA_XSP16, literal(-15)))
        CFI R7 load(1, XDATA, add(CFA_XSP16, literal(-6)))
        CFI V0 load(1, XDATA, add(CFA_XSP16, literal(-13)))
        CFI V1 load(1, XDATA, add(CFA_XSP16, literal(-12)))
        CFI V2 load(1, XDATA, add(CFA_XSP16, literal(-11)))
        CFI V3 load(1, XDATA, add(CFA_XSP16, literal(-10)))
        CFI V4 load(1, XDATA, add(CFA_XSP16, literal(-9)))
        CFI V5 load(1, XDATA, add(CFA_XSP16, literal(-8)))
        CFI V6 load(1, XDATA, add(CFA_XSP16, literal(-7)))
        CFI ?BRET_EXT load(1, XDATA, add(CFA_XSP16, literal(-3)))
        CFI ?RET_HIGH load(1, XDATA, add(CFA_XSP16, literal(-4)))
        CFI ?RET_LOW load(1, XDATA, add(CFA_XSP16, literal(-5)))
        MOVX    @DPTR,A
        CFI EndBlock cfiBlock75
        REQUIRE ??Subroutine272_0
        ; // Fall through to label ??Subroutine272_0

        RSEG BANKED_CODE:CODE:NOROOT(0)
??Subroutine272_0:
        CFI Block cfiBlock76 Using cfiCommon0
        CFI NoFunction
        CFI CFA_SP SP+0
        CFI CFA_XSP16 add(XSP16, 15)
        CFI VB load(1, XDATA, add(CFA_XSP16, literal(-14)))
        CFI DPL0 load(1, XDATA, add(CFA_XSP16, literal(-2)))
        CFI DPH0 load(1, XDATA, add(CFA_XSP16, literal(-1)))
        CFI R6 load(1, XDATA, add(CFA_XSP16, literal(-15)))
        CFI R7 load(1, XDATA, add(CFA_XSP16, literal(-6)))
        CFI V0 load(1, XDATA, add(CFA_XSP16, literal(-13)))
        CFI V1 load(1, XDATA, add(CFA_XSP16, literal(-12)))
        CFI V2 load(1, XDATA, add(CFA_XSP16, literal(-11)))
        CFI V3 load(1, XDATA, add(CFA_XSP16, literal(-10)))
        CFI V4 load(1, XDATA, add(CFA_XSP16, literal(-9)))
        CFI V5 load(1, XDATA, add(CFA_XSP16, literal(-8)))
        CFI V6 load(1, XDATA, add(CFA_XSP16, literal(-7)))
        CFI ?BRET_EXT load(1, XDATA, add(CFA_XSP16, literal(-3)))
        CFI ?RET_HIGH load(1, XDATA, add(CFA_XSP16, literal(-4)))
        CFI ?RET_LOW load(1, XDATA, add(CFA_XSP16, literal(-5)))
        MOV     R7,#0x7
        LJMP    ?BANKED_LEAVE_XDATA
        CFI EndBlock cfiBlock76
//  676 
//  677 static uint8 halRfTransmit(void)
//  678 {
//  679 	uint8 status;
//  680 
//  681 	MAC_ISTXON(); // Sending
//  682 
//  683 	// Waiting for transmission to finish
//  684 	txState.txDone = TXSTATE_TXDONE_PENDING;
//  685 #ifndef RF_SEND_INT
//  686 	while(!(RFIRQF1 & IRQ_TXDONE) );
//  687 	RFIRQF1 = ~IRQ_TXDONE;
//  688 #endif
//  689 
//  690 	status= SUCCESS;
//  691 
//  692 	return status;
//  693 }
//  694 
//  695 //uint8 macRfSendPacket(uint16 destAddr, uint8* pPayload,uint8 length,uint8* extAddr ,uint8 addrMod)

        RSEG BANKED_CODE:CODE:NOROOT(0)
//  696 uint8 macRfSendPacket(uint16 destAddr, uint8* pPayload,uint8 length,uint8* extAddr ,uint8 addrMod,uint8 sendMod)
macRfSendPacket:
        CFI Block cfiBlock77 Using cfiCommon0
        CFI Function macRfSendPacket
        CODE
//  697 {
        FUNCALL macRfSendPacket, macBuildMpdu
        LOCFRAME ISTACK, 0, STACK
        LOCFRAME PSTACK, 0, STACK
        LOCFRAME XSTACK, 15, STACK
        LOCFRAME IOVERLAY, 0, STATIC
        LOCFRAME DOVERLAY, 0, STATIC
        ARGFRAME ISTACK, 0, STACK
        ARGFRAME PSTACK, 0, STACK
        ARGFRAME XSTACK, 15, STACK
        ARGFRAME IOVERLAY, 0, STATIC
        ARGFRAME DOVERLAY, 0, STATIC
        FUNCALL macRfSendPacket, macMemWriteTxFifo
        LOCFRAME ISTACK, 0, STACK
        LOCFRAME PSTACK, 0, STACK
        LOCFRAME XSTACK, 11, STACK
        LOCFRAME IOVERLAY, 0, STATIC
        LOCFRAME DOVERLAY, 0, STATIC
        ARGFRAME ISTACK, 0, STACK
        ARGFRAME PSTACK, 0, STACK
        ARGFRAME XSTACK, 11, STACK
        ARGFRAME IOVERLAY, 0, STATIC
        ARGFRAME DOVERLAY, 0, STATIC
        MOV     A,#-0xb
        LCALL   ?BANKED_ENTER_XDATA
        CFI DPH0 load(1, XDATA, add(CFA_XSP16, literal(-1)))
        CFI DPL0 load(1, XDATA, add(CFA_XSP16, literal(-2)))
        CFI ?BRET_EXT load(1, XDATA, add(CFA_XSP16, literal(-3)))
        CFI ?RET_HIGH load(1, XDATA, add(CFA_XSP16, literal(-4)))
        CFI ?RET_LOW load(1, XDATA, add(CFA_XSP16, literal(-5)))
        CFI R7 load(1, XDATA, add(CFA_XSP16, literal(-6)))
        CFI V2 load(1, XDATA, add(CFA_XSP16, literal(-7)))
        CFI V1 load(1, XDATA, add(CFA_XSP16, literal(-8)))
        CFI V0 load(1, XDATA, add(CFA_XSP16, literal(-9)))
        CFI VB load(1, XDATA, add(CFA_XSP16, literal(-10)))
        CFI R6 load(1, XDATA, add(CFA_XSP16, literal(-11)))
        CFI CFA_SP SP+0
        CFI CFA_XSP16 add(XSP16, 11)
        ; Saved register size: 11
        ; Auto size: 0
        MOV     A,R1
        MOV     R6,A
        MOV     A,#0xb
        LCALL   ?XSTACK_DISP0_8
        LCALL   ?Subroutine95 & 0xFFFF
??CrossCallReturnLabel_157:
        MOV     A,#0xd
        LCALL   ?XSTACK_DISP0_8
        MOVX    A,@DPTR
        MOV     R1,A
        MOV     A,#0xe
        LCALL   ?XSTACK_DISP0_8
        MOVX    A,@DPTR
        MOV     R0,A
//  698 	uint8 mpduLength;
//  699 	uint8 status;
//  700 
//  701 
//  702 	// Turn on receiver if its not on
//  703 /*
//  704 	if(!txState.receiveOn) 
//  705 	{
//  706 		halRfReceiveOn();
//  707 	}
//  708 */
//  709 
//  710 	if(TXSTATE_TXDONE_PENDING==txState.txDone)
        MOV     DPTR,#txState + 2
        MOVX    A,@DPTR
        XRL     A,#0x1
        JNZ     ??macRfSendPacket_0
//  711 	{
//  712 		//while(!(RFIRQF1 & IRQ_TXDONE) );					//wait till the previous send completed
//  713 		txState.txDone = TXSTATE_TXDONE_CLEAR;
        CLR     A
        MOVX    @DPTR,A
//  714 		//return FAILURE;
//  715 	}
//  716 
//  717 #ifdef _RT_AP_
//  718 
//  719 	AP_TXEN = 1;
//  720 
//  721 #endif
//  722 
//  723 	// Check packet length
//  724 	length = min(length, BASIC_RF_MAX_PAYLOAD_SIZE);
??macRfSendPacket_0:
        MOV     A,R6
        CLR     C
        SUBB    A,#0x67
        JC      ??macRfSendPacket_1
        MOV     R6,#0x67
//  725 
//  726 	// Wait until the transceiver is idle
//  727 	halRfWaitTransceiverReady();
??macRfSendPacket_1:
        MOV     DPTR,#0x6193
        MOVX    A,@DPTR
        ANL     A,#0x22
        JNZ     ??macRfSendPacket_1
//  728 
//  729 	// Turn off RX frame done interrupt to avoid interference on the SPI interface
//  730 	macDisableRxInterrupt();
        MOV     DPTR,#0x61a3
        MOVX    A,@DPTR
        CLR     0xE0 /* A   */.6
        MOVX    @DPTR,A
        ANL     0x9a,#0xfe
//  731 
//  732 	//mpduLength = macBuildMpdu(destAddr, pPayload, length,pConfig->devHead[pConfig->pCurrentDev].extAddr,addrMod);
//  733 	//mpduLength = macBuildMpdu(destAddr, pPayload, length,pCurrentDev->extAddr,addrMod);
//  734 	mpduLength = macBuildMpdu(destAddr, pPayload, length,extAddr,addrMod,sendMod);
        ; Setup parameters for call to function macBuildMpdu
        MOV     A,R0
        MOV     ?V0 + 2,A
        MOV     R0,#?V0 + 2
        LCALL   ?PUSH_XSTACK_I_ONE
        CFI CFA_XSP16 add(XSP16, 12)
        MOV     A,R1
        MOV     ?V0 + 2,A
        MOV     R0,#?V0 + 2
        LCALL   ?PUSH_XSTACK_I_ONE
        CFI CFA_XSP16 add(XSP16, 13)
        MOV     R0,#?V0 + 0
        LCALL   ?PUSH_XSTACK_I_TWO
        CFI CFA_XSP16 add(XSP16, 15)
        MOV     A,R6
        MOV     R1,A
        LCALL   ??macBuildMpdu?relay
        MOV     A,#0x4
        LCALL   ?DEALLOC_XSTACK8
        CFI CFA_XSP16 add(XSP16, 11)
//  735 
//  736 #ifdef SECURITY_CCM
//  737 	halRfWriteTxBufSecure(txMpdu, mpduLength, length, BASIC_RF_LEN_AUTH, BASIC_RF_SECURITY_M);
//  738 	txState.frameCounter++;     // Increment frame counter field
//  739 #else
//  740 
//  741 #ifdef SEND_OBEY_ZSTACK
//  742 	if(SEND_MODE_UNSLOTTED==sendMod)
//  743 	{
//  744 		pMacDataTx = &macDataTx;
//  745 		pMacDataTx->msdu.p = txMpdu+1;
//  746 		pMacDataTx->msdu.len = mpduLength-1;			//why
//  747 		//macTxFrame(MAC_TX_TYPE_SLOTTED_CSMA);
//  748 		macTxFrame(MAC_TX_TYPE_UNSLOTTED_CSMA);
//  749 		//macWaitSendOk();
//  750 	}else
//  751 	{
//  752 		macWriteTxBuf(txMpdu, mpduLength);
//  753 	}
//  754 #else
//  755 	macWriteTxBuf(txMpdu, mpduLength);
        MOV     0xe1,#-0x12
        MOV     0x91,#-0x3
        ; Setup parameters for call to function macMemWriteTxFifo
        MOV     R2,#txMpdu & 0xff
        MOV     R3,#(txMpdu >> 8) & 0xff
        LCALL   ??macMemWriteTxFifo?relay
//  756 #endif
//  757 	//pMacDataTx->msdu.p = txMpdu;
//  758 	//pMacDataTx->msdu.len = mpduLength;
//  759 	//macTxFrame(MAC_TX_TYPE_SLOTTED_CSMA);
//  760 #endif
//  761 
//  762 
//  763 	// Turn on RX frame done interrupt for ACK reception
//  764 	macEnableRxInterrupt();
        MOV     DPTR,#0x61a3
        MOVX    A,@DPTR
        SETB    0xE0 /* A   */.6
        MOVX    @DPTR,A
        ORL     0x9a,#0x1
//  765 
//  766 	//FINGER2 = 0;
//  767 	// Send frame with CCA. return FAILED if not successful
//  768 	//its takes the most time
//  769 #ifdef SEND_OBEY_ZSTACK
//  770 	//macTxDoneCallback();
//  771 	if(SEND_MODE_UNSLOTTED==sendMod)
//  772 	{
//  773 		status = SUCCESS;
//  774 	}else
//  775 	{
//  776 		if(halRfTransmit() != SUCCESS) 
//  777 		{
//  778 			status = FAILURE;
//  779 		}else
//  780 		{
//  781 			status = SUCCESS;
//  782 		}
//  783 	}
//  784 #else
//  785 	if(halRfTransmit() != SUCCESS) 
        MOV     0xe1,#-0x17
        MOV     DPTR,#txState + 2
        MOV     A,#0x1
        MOVX    @DPTR,A
//  786 	{
//  787 		status = FAILURE;
//  788 	}else
//  789 	{
//  790 		status = SUCCESS;
//  791 	}
//  792 #endif
//  793 	//FINGER2 = 1;
//  794 
//  795 	// Wait for the acknowledge to be received, if any
//  796 #if 0					//skip waitting for ack for debug
//  797 	if (pConfig->ackRequest) {
//  798 	txState.ackReceived = FALSE;
//  799 
//  800 	// We'll enter RX automatically, so just wait until we can be sure that the ack reception should have finished
//  801 	// The timeout consists of a 12-symbol turnaround time, the ack packet duration, and a small margin
//  802 	halMcuWaitUs((12 * BASIC_RF_SYMBOL_DURATION) + (BASIC_RF_ACK_DURATION) + (2 * BASIC_RF_SYMBOL_DURATION) + 10);
//  803 
//  804 	// If an acknowledgment has been received (by RxFrmDoneIsr), the ackReceived flag should be set
//  805 	status = txState.ackReceived ? SUCCESS : FAILED;
//  806 
//  807 	} else {
//  808 	status = SUCCESS;
//  809 	}
//  810 #endif 
//  811 
//  812 	// Turn off the receiver if it should not continue to be enabled
//  813 /*
//  814 	if (!txState.receiveOn) 
//  815 	{
//  816 		macReceiveOff();
//  817 	}
//  818 */
//  819 
//  820 	if(status == SUCCESS) 
//  821 	{
//  822 		txState.txSeqNumber++;
        MOV     DPTR,#txState
        MOVX    A,@DPTR
        INC     A
        MOVX    @DPTR,A
//  823 	}
//  824 
//  825 #ifdef SECURITY_CCM
//  826 	halRfIncNonceTx();          // Increment nonce value
//  827 #endif
//  828 
//  829 
//  830 	return status;
        MOV     R1,#0x0
        LJMP    ??Subroutine279_0 & 0xFFFF
        CFI EndBlock cfiBlock77
        REQUIRE IEN2
        REQUIRE RFST
        REQUIRE RFIRQF1
//  831 
//  832 }

        RSEG BANKED_CODE:CODE:NOROOT(0)
?Subroutine95:
        CFI Block cfiCond78 Using cfiCommon0
        CFI NoFunction
        CFI Conditional ??CrossCallReturnLabel_156
        CFI R6 load(1, XDATA, add(CFA_XSP16, literal(-15)))
        CFI VB load(1, XDATA, add(CFA_XSP16, literal(-14)))
        CFI V0 load(1, XDATA, add(CFA_XSP16, literal(-13)))
        CFI V1 load(1, XDATA, add(CFA_XSP16, literal(-12)))
        CFI V2 load(1, XDATA, add(CFA_XSP16, literal(-11)))
        CFI V3 load(1, XDATA, add(CFA_XSP16, literal(-10)))
        CFI V4 load(1, XDATA, add(CFA_XSP16, literal(-9)))
        CFI V5 load(1, XDATA, add(CFA_XSP16, literal(-8)))
        CFI V6 load(1, XDATA, add(CFA_XSP16, literal(-7)))
        CFI R7 load(1, XDATA, add(CFA_XSP16, literal(-6)))
        CFI ?RET_LOW load(1, XDATA, add(CFA_XSP16, literal(-5)))
        CFI ?RET_HIGH load(1, XDATA, add(CFA_XSP16, literal(-4)))
        CFI ?BRET_EXT load(1, XDATA, add(CFA_XSP16, literal(-3)))
        CFI DPL0 load(1, XDATA, add(CFA_XSP16, literal(-2)))
        CFI DPH0 load(1, XDATA, add(CFA_XSP16, literal(-1)))
        CFI CFA_SP SP+0
        CFI CFA_XSP16 add(XSP16, 15)
        CFI Block cfiCond79 Using cfiCommon0
        CFI (cfiCond79) NoFunction
        CFI (cfiCond79) Conditional ??CrossCallReturnLabel_157
        CFI (cfiCond79) R6 load(1, XDATA, add(CFA_XSP16, literal(-11)))
        CFI (cfiCond79) VB load(1, XDATA, add(CFA_XSP16, literal(-10)))
        CFI (cfiCond79) V0 load(1, XDATA, add(CFA_XSP16, literal(-9)))
        CFI (cfiCond79) V1 load(1, XDATA, add(CFA_XSP16, literal(-8)))
        CFI (cfiCond79) V2 load(1, XDATA, add(CFA_XSP16, literal(-7)))
        CFI (cfiCond79) R7 load(1, XDATA, add(CFA_XSP16, literal(-6)))
        CFI (cfiCond79) ?RET_LOW load(1, XDATA, add(CFA_XSP16, literal(-5)))
        CFI (cfiCond79) ?RET_HIGH load(1, XDATA, add(CFA_XSP16, literal(-4)))
        CFI (cfiCond79) ?BRET_EXT load(1, XDATA, add(CFA_XSP16, literal(-3)))
        CFI (cfiCond79) DPL0 load(1, XDATA, add(CFA_XSP16, literal(-2)))
        CFI (cfiCond79) DPH0 load(1, XDATA, add(CFA_XSP16, literal(-1)))
        CFI (cfiCond79) CFA_SP SP+0
        CFI (cfiCond79) CFA_XSP16 add(XSP16, 11)
        CFI Block cfiCond80 Using cfiCommon0
        CFI (cfiCond80) NoFunction
        CFI (cfiCond80) Conditional ??CrossCallReturnLabel_158
        CFI (cfiCond80) R6 load(1, XDATA, add(CFA_XSP16, literal(-10)))
        CFI (cfiCond80) VB load(1, XDATA, add(CFA_XSP16, literal(-9)))
        CFI (cfiCond80) V0 load(1, XDATA, add(CFA_XSP16, literal(-8)))
        CFI (cfiCond80) V1 load(1, XDATA, add(CFA_XSP16, literal(-7)))
        CFI (cfiCond80) R7 load(1, XDATA, add(CFA_XSP16, literal(-6)))
        CFI (cfiCond80) ?RET_LOW load(1, XDATA, add(CFA_XSP16, literal(-5)))
        CFI (cfiCond80) ?RET_HIGH load(1, XDATA, add(CFA_XSP16, literal(-4)))
        CFI (cfiCond80) ?BRET_EXT load(1, XDATA, add(CFA_XSP16, literal(-3)))
        CFI (cfiCond80) DPL0 load(1, XDATA, add(CFA_XSP16, literal(-2)))
        CFI (cfiCond80) DPH0 load(1, XDATA, add(CFA_XSP16, literal(-1)))
        CFI (cfiCond80) CFA_SP SP+0
        CFI (cfiCond80) CFA_XSP16 add(XSP16, 10)
        CFI Block cfiPicker81 Using cfiCommon1
        CFI (cfiPicker81) NoFunction
        CFI (cfiPicker81) Picker
        MOVX    A,@DPTR
        MOV     ?V0 + 0,A
        INC     DPTR
        MOVX    A,@DPTR
        MOV     ?V0 + 1,A
        RET
        CFI EndBlock cfiCond78
        CFI EndBlock cfiCond79
        CFI EndBlock cfiCond80
        CFI EndBlock cfiPicker81
//  833 
//  834 static void macSetChan(uint8 chan)
//  835 {
//  836 	MAC_INT_OFF();
//  837 	MAC_RADIO_SET_CHANNEL(chan);
//  838 	MAC_INT_ON();
//  839 }
//  840 
//  841 static void macSetShortAddr(uint16 sAddr)
//  842 {
//  843 	MAC_INT_OFF();
//  844 	MAC_RADIO_SET_SHORT_ADDR(sAddr);
//  845 	MAC_INT_ON();
//  846 }
//  847 
//  848 static void macSetPanID(uint16 panID)
//  849 {
//  850 	MAC_INT_OFF();
//  851 	MAC_RADIO_SET_PAN_ID(panID);
//  852 	MAC_INT_ON();
//  853 }
//  854 
//  855 

        RSEG BANKED_CODE:CODE:NOROOT(0)
//  856 static void macParameterSet(void)
macParameterSet:
        CFI Block cfiBlock82 Using cfiCommon0
        CFI Function macParameterSet
        CODE
//  857 {
        PUSH    DPL
        CFI DPL0 Frame(CFA_SP, 4)
        CFI CFA_SP SP+-4
        PUSH    DPH
        CFI DPH0 Frame(CFA_SP, 5)
        CFI CFA_SP SP+-5
        ; Saved register size: 2
        ; Auto size: 0
//  858 	MAC_INT_OFF();
        CLR     0xa8.7
//  859 
//  860 	// Set channel
//  861 	if(RF_CHAN_AUTO==pConfig->channel)
        LCALL   ?Subroutine70 & 0xFFFF
??CrossCallReturnLabel_104:
        MOV     B,#0x5
        JNZ     ??CrossCallReturnLabel_159
//  862 	{
//  863 		//MAC_RADIO_SET_CHANNEL(RF_CHANNEL);
//  864 		MAC_RADIO_SET_CHANNEL(pConfig->autoChan);
        LCALL   ?Subroutine96 & 0xFFFF
//  865 	}else
//  866 	{
//  867 		MAC_RADIO_SET_CHANNEL(pConfig->channel);
??CrossCallReturnLabel_159:
        MUL     AB
        ADD     A,#-0x2c
        MOV     DPTR,#0x618f
        MOVX    @DPTR,A
//  868 	}
//  869 
//  870 	// Write the short address and the PAN ID to the CC2520 RAM
//  871 	MAC_RADIO_SET_SHORT_ADDR(pConfig->myAddr);
        LCALL   ?Subroutine25 & 0xFFFF
//  872 	MAC_RADIO_SET_PAN_ID(pConfig->panId);
??CrossCallReturnLabel_453:
        LCALL   ?Subroutine216 & 0xFFFF
??CrossCallReturnLabel_899:
        INC     DPTR
        INC     DPTR
        MOVX    A,@DPTR
        MOV     DPTR,#0x6172
        MOVX    @DPTR,A
        LCALL   ?Subroutine114 & 0xFFFF
??CrossCallReturnLabel_197:
        MOVX    A,@DPTR
        MOV     DPTR,#0x6173
        MOVX    @DPTR,A
//  873 
//  874 	//MAC_RADIO_SET_IEEE_ADDR(pConfig->extAddr);	
//  875 
//  876 	MAC_MCU_OR_RFIRQM1(IRQ_TXDONE);			//Enable TxDone interrupt
        MOV     DPTR,#0x61a4
        MOVX    A,@DPTR
        SETB    0xE0 /* A   */.1
        MOVX    @DPTR,A
//  877 	MAC_MCU_OR_RFIRQM1(IRQ_TXACKDONE);
        MOVX    A,@DPTR
        SETB    0xE0 /* A   */.0
        MOVX    @DPTR,A
//  878 	MAC_INT_ON();
        SETB    0xa8.7
//  879 }
        LJMP    ??Subroutine299_0 & 0xFFFF
        CFI EndBlock cfiBlock82
        REQUIRE _A_IEN0

        RSEG BANKED_CODE:CODE:NOROOT(0)
?Subroutine25:
        CFI Block cfiCond83 Using cfiCommon0
        CFI NoFunction
        CFI Conditional ??CrossCallReturnLabel_453
        CFI DPL0 Frame(CFA_SP, 4)
        CFI DPH0 Frame(CFA_SP, 5)
        CFI CFA_SP SP+-5
        CFI Block cfiCond84 Using cfiCommon0
        CFI (cfiCond84) NoFunction
        CFI (cfiCond84) Conditional ??CrossCallReturnLabel_454
        CFI (cfiCond84) R6 load(1, XDATA, add(CFA_XSP16, literal(-12)))
        CFI (cfiCond84) VB load(1, XDATA, add(CFA_XSP16, literal(-11)))
        CFI (cfiCond84) V0 load(1, XDATA, add(CFA_XSP16, literal(-10)))
        CFI (cfiCond84) V1 load(1, XDATA, add(CFA_XSP16, literal(-9)))
        CFI (cfiCond84) V2 load(1, XDATA, add(CFA_XSP16, literal(-8)))
        CFI (cfiCond84) V3 load(1, XDATA, add(CFA_XSP16, literal(-7)))
        CFI (cfiCond84) R7 load(1, XDATA, add(CFA_XSP16, literal(-6)))
        CFI (cfiCond84) ?RET_LOW load(1, XDATA, add(CFA_XSP16, literal(-5)))
        CFI (cfiCond84) ?RET_HIGH load(1, XDATA, add(CFA_XSP16, literal(-4)))
        CFI (cfiCond84) ?BRET_EXT load(1, XDATA, add(CFA_XSP16, literal(-3)))
        CFI (cfiCond84) DPL0 load(1, XDATA, add(CFA_XSP16, literal(-2)))
        CFI (cfiCond84) DPH0 load(1, XDATA, add(CFA_XSP16, literal(-1)))
        CFI (cfiCond84) CFA_SP SP+0
        CFI (cfiCond84) CFA_XSP16 add(XSP16, 12)
        CFI Block cfiPicker85 Using cfiCommon1
        CFI (cfiPicker85) NoFunction
        CFI (cfiPicker85) Picker
        MOV     DPTR,#pConfig + 1
        CFI EndBlock cfiCond83
        CFI EndBlock cfiCond84
        CFI EndBlock cfiPicker85
        REQUIRE ??Subroutine273_0
        ; // Fall through to label ??Subroutine273_0

        RSEG BANKED_CODE:CODE:NOROOT(0)
??Subroutine273_0:
        CFI Block cfiCond86 Using cfiCommon0
        CFI NoFunction
        CFI Conditional ??CrossCallReturnLabel_455
        CFI R6 load(1, XDATA, add(CFA_XSP16, literal(-11)))
        CFI VB load(1, XDATA, add(CFA_XSP16, literal(-10)))
        CFI V0 load(1, XDATA, add(CFA_XSP16, literal(-9)))
        CFI V1 load(1, XDATA, add(CFA_XSP16, literal(-8)))
        CFI V2 load(1, XDATA, add(CFA_XSP16, literal(-7)))
        CFI R7 load(1, XDATA, add(CFA_XSP16, literal(-6)))
        CFI ?RET_LOW load(1, XDATA, add(CFA_XSP16, literal(-5)))
        CFI ?RET_HIGH load(1, XDATA, add(CFA_XSP16, literal(-4)))
        CFI ?BRET_EXT load(1, XDATA, add(CFA_XSP16, literal(-3)))
        CFI DPL0 load(1, XDATA, add(CFA_XSP16, literal(-2)))
        CFI DPH0 load(1, XDATA, add(CFA_XSP16, literal(-1)))
        CFI CFA_SP SP+0
        CFI CFA_XSP16 add(XSP16, 11)
        CFI Block cfiCond87 Using cfiCommon0
        CFI (cfiCond87) NoFunction
        CFI (cfiCond87) Conditional ??CrossCallReturnLabel_453
        CFI (cfiCond87) DPL0 Frame(CFA_SP, 4)
        CFI (cfiCond87) DPH0 Frame(CFA_SP, 5)
        CFI (cfiCond87) CFA_SP SP+-5
        CFI Block cfiCond88 Using cfiCommon0
        CFI (cfiCond88) NoFunction
        CFI (cfiCond88) Conditional ??CrossCallReturnLabel_454
        CFI (cfiCond88) R6 load(1, XDATA, add(CFA_XSP16, literal(-12)))
        CFI (cfiCond88) VB load(1, XDATA, add(CFA_XSP16, literal(-11)))
        CFI (cfiCond88) V0 load(1, XDATA, add(CFA_XSP16, literal(-10)))
        CFI (cfiCond88) V1 load(1, XDATA, add(CFA_XSP16, literal(-9)))
        CFI (cfiCond88) V2 load(1, XDATA, add(CFA_XSP16, literal(-8)))
        CFI (cfiCond88) V3 load(1, XDATA, add(CFA_XSP16, literal(-7)))
        CFI (cfiCond88) R7 load(1, XDATA, add(CFA_XSP16, literal(-6)))
        CFI (cfiCond88) ?RET_LOW load(1, XDATA, add(CFA_XSP16, literal(-5)))
        CFI (cfiCond88) ?RET_HIGH load(1, XDATA, add(CFA_XSP16, literal(-4)))
        CFI (cfiCond88) ?BRET_EXT load(1, XDATA, add(CFA_XSP16, literal(-3)))
        CFI (cfiCond88) DPL0 load(1, XDATA, add(CFA_XSP16, literal(-2)))
        CFI (cfiCond88) DPH0 load(1, XDATA, add(CFA_XSP16, literal(-1)))
        CFI (cfiCond88) CFA_SP SP+0
        CFI (cfiCond88) CFA_XSP16 add(XSP16, 12)
        CFI Block cfiPicker89 Using cfiCommon1
        CFI (cfiPicker89) NoFunction
        CFI (cfiPicker89) Picker
        LCALL   ??Subroutine350_0 & 0xFFFF
??CrossCallReturnLabel_898:
        MOVX    A,@DPTR
        MOV     DPTR,#0x6174
        MOVX    @DPTR,A
        LCALL   ?Subroutine216 & 0xFFFF
??CrossCallReturnLabel_900:
        INC     DPTR
        MOVX    A,@DPTR
        MOV     DPTR,#0x6175
        MOVX    @DPTR,A
        RET
        CFI EndBlock cfiCond86
        CFI EndBlock cfiCond87
        CFI EndBlock cfiCond88
        CFI EndBlock cfiPicker89
//  880 

        RSEG BANKED_CODE:CODE:NOROOT(0)
//  881 MAC_DATAREQ_API static void devChangeGroup(macRx_t* pck)
devChangeGroup:
        CFI Block cfiBlock90 Using cfiCommon0
        CFI Function devChangeGroup
        CODE
//  882 {
        FUNCALL devChangeGroup, macRfSendPacket
        LOCFRAME ISTACK, 0, STACK
        LOCFRAME PSTACK, 0, STACK
        LOCFRAME XSTACK, 14, STACK
        LOCFRAME IOVERLAY, 0, STATIC
        LOCFRAME DOVERLAY, 0, STATIC
        ARGFRAME ISTACK, 0, STACK
        ARGFRAME PSTACK, 0, STACK
        ARGFRAME XSTACK, 14, STACK
        ARGFRAME IOVERLAY, 0, STATIC
        ARGFRAME DOVERLAY, 0, STATIC
        FUNCALL devChangeGroup, osal_rand
        LOCFRAME ISTACK, 0, STACK
        LOCFRAME PSTACK, 0, STACK
        LOCFRAME XSTACK, 10, STACK
        LOCFRAME IOVERLAY, 0, STATIC
        LOCFRAME DOVERLAY, 0, STATIC
        ARGFRAME ISTACK, 0, STACK
        ARGFRAME PSTACK, 0, STACK
        ARGFRAME XSTACK, 10, STACK
        ARGFRAME IOVERLAY, 0, STATIC
        ARGFRAME DOVERLAY, 0, STATIC
        FUNCALL devChangeGroup, osal_start_timerEx
        LOCFRAME ISTACK, 0, STACK
        LOCFRAME PSTACK, 0, STACK
        LOCFRAME XSTACK, 10, STACK
        LOCFRAME IOVERLAY, 0, STATIC
        LOCFRAME DOVERLAY, 0, STATIC
        ARGFRAME ISTACK, 0, STACK
        ARGFRAME PSTACK, 0, STACK
        ARGFRAME XSTACK, 10, STACK
        ARGFRAME IOVERLAY, 0, STATIC
        ARGFRAME DOVERLAY, 0, STATIC
        MOV     A,#-0xa
        LCALL   ?BANKED_ENTER_XDATA
        CFI DPH0 load(1, XDATA, add(CFA_XSP16, literal(-1)))
        CFI DPL0 load(1, XDATA, add(CFA_XSP16, literal(-2)))
        CFI ?BRET_EXT load(1, XDATA, add(CFA_XSP16, literal(-3)))
        CFI ?RET_HIGH load(1, XDATA, add(CFA_XSP16, literal(-4)))
        CFI ?RET_LOW load(1, XDATA, add(CFA_XSP16, literal(-5)))
        CFI R7 load(1, XDATA, add(CFA_XSP16, literal(-6)))
        CFI V1 load(1, XDATA, add(CFA_XSP16, literal(-7)))
        CFI V0 load(1, XDATA, add(CFA_XSP16, literal(-8)))
        CFI VB load(1, XDATA, add(CFA_XSP16, literal(-9)))
        CFI R6 load(1, XDATA, add(CFA_XSP16, literal(-10)))
        CFI CFA_SP SP+0
        CFI CFA_XSP16 add(XSP16, 10)
        ; Saved register size: 10
        ; Auto size: 0
//  883 	//pConfig->group++;
//  884 	if(pConfig->group>4)
        MOV     DPTR,#pConfig
        MOVX    A,@DPTR
        ADD     A,#0x27
        LCALL   ??Subroutine298_0 & 0xFFFF
??CrossCallReturnLabel_552:
        CLR     C
        SUBB    A,#0x5
        JC      ??devChangeGroup_0
//  885 	{
//  886 		pConfig->group = 0;
        CLR     A
        MOVX    @DPTR,A
//  887 	}
//  888 	pConfig->frameHead = 0x8841;
??devChangeGroup_0:
        LCALL   ?Subroutine18 & 0xFFFF
//  889 	pConfig->destAddr = 0xFFFF;
//  890 	pTxData[0] = 0x04;
//  891 	pTxData[1] = 0x00;
//  892 	pTxData[2] = 0x31;
??CrossCallReturnLabel_12:
        MOV     A,#0x31
        LCALL   ??Subroutine347_0 & 0xFFFF
//  893 	pTxData[3] = pConfig->group;
??CrossCallReturnLabel_859:
        LCALL   ?Subroutine134 & 0xFFFF
//  894 	g_sendLen = 4;
//  895 	//macRfSendPacket(pConfig->destAddr, pTxData, g_sendLen,NULL,0);	
//  896 	macRfSendPacket(pConfig->destAddr, pTxData, g_sendLen,NULL,0,SEND_MODE_UNSLOTTED);	
??CrossCallReturnLabel_848:
        LCALL   ?PUSH_XSTACK_I_ONE
        CFI CFA_XSP16 add(XSP16, 11)
        MOV     ?V0 + 0,#0x0
        MOV     R0,#?V0 + 0
        LCALL   ?PUSH_XSTACK_I_ONE
        CFI CFA_XSP16 add(XSP16, 12)
        CLR     A
        MOV     ?V0 + 1,A
        MOV     R0,#?V0 + 0
        LCALL   ?PUSH_XSTACK_I_TWO
        CFI CFA_XSP16 add(XSP16, 14)
        MOV     R1,#0x4
        MOV     R4,#pTxData & 0xff
        MOV     R5,#(pTxData >> 8) & 0xff
        MOV     DPL,R2
        MOV     DPH,R3
        LCALL   ??Subroutine323_0 & 0xFFFF
??CrossCallReturnLabel_694:
        LCALL   ?DEALLOC_XSTACK8
        CFI CFA_XSP16 add(XSP16, 10)
//  897 	veriPckSendCallback=&ReadyInfo;
        LCALL   ?Subroutine137 & 0xFFFF
//  898 	osal_start_timerEx( macEx_taskId, MACEX_VERI_SEND_INQURE, 50+(osal_rand()&0x0F));	
??CrossCallReturnLabel_249:
        ADD     A,#0x32
        LJMP    ?Subroutine7 & 0xFFFF
        CFI EndBlock cfiBlock90
//  899 }
//  900 

        RSEG BANKED_CODE:CODE:NOROOT(0)
//  901 MAC_DATAREQ_API static void macNetCheck(macRx_t* pck)
macNetCheck:
        CFI Block cfiBlock91 Using cfiCommon0
        CFI Function macNetCheck
        CODE
//  902 {
        FUNCALL macNetCheck, macParameterSet
        LOCFRAME ISTACK, 0, STACK
        LOCFRAME PSTACK, 0, STACK
        LOCFRAME XSTACK, 11, STACK
        LOCFRAME IOVERLAY, 0, STATIC
        LOCFRAME DOVERLAY, 0, STATIC
        ARGFRAME ISTACK, 0, STACK
        ARGFRAME PSTACK, 0, STACK
        ARGFRAME XSTACK, 11, STACK
        ARGFRAME IOVERLAY, 0, STATIC
        ARGFRAME DOVERLAY, 0, STATIC
        FUNCALL macNetCheck, osal_memcpy
        LOCFRAME ISTACK, 0, STACK
        LOCFRAME PSTACK, 0, STACK
        LOCFRAME XSTACK, 14, STACK
        LOCFRAME IOVERLAY, 0, STATIC
        LOCFRAME DOVERLAY, 0, STATIC
        ARGFRAME ISTACK, 0, STACK
        ARGFRAME PSTACK, 0, STACK
        ARGFRAME XSTACK, 14, STACK
        ARGFRAME IOVERLAY, 0, STATIC
        ARGFRAME DOVERLAY, 0, STATIC
        FUNCALL macNetCheck, macRfSendPacket
        LOCFRAME ISTACK, 0, STACK
        LOCFRAME PSTACK, 0, STACK
        LOCFRAME XSTACK, 15, STACK
        LOCFRAME IOVERLAY, 0, STATIC
        LOCFRAME DOVERLAY, 0, STATIC
        ARGFRAME ISTACK, 0, STACK
        ARGFRAME PSTACK, 0, STACK
        ARGFRAME XSTACK, 15, STACK
        ARGFRAME IOVERLAY, 0, STATIC
        ARGFRAME DOVERLAY, 0, STATIC
        FUNCALL macNetCheck, osal_start_timerEx
        LOCFRAME ISTACK, 0, STACK
        LOCFRAME PSTACK, 0, STACK
        LOCFRAME XSTACK, 11, STACK
        LOCFRAME IOVERLAY, 0, STATIC
        LOCFRAME DOVERLAY, 0, STATIC
        ARGFRAME ISTACK, 0, STACK
        ARGFRAME PSTACK, 0, STACK
        ARGFRAME XSTACK, 11, STACK
        ARGFRAME IOVERLAY, 0, STATIC
        ARGFRAME DOVERLAY, 0, STATIC
        FUNCALL macNetCheck, macParameterSet
        LOCFRAME ISTACK, 0, STACK
        LOCFRAME PSTACK, 0, STACK
        LOCFRAME XSTACK, 11, STACK
        LOCFRAME IOVERLAY, 0, STATIC
        LOCFRAME DOVERLAY, 0, STATIC
        ARGFRAME ISTACK, 0, STACK
        ARGFRAME PSTACK, 0, STACK
        ARGFRAME XSTACK, 11, STACK
        ARGFRAME IOVERLAY, 0, STATIC
        ARGFRAME DOVERLAY, 0, STATIC
        FUNCALL macNetCheck, osal_rand
        LOCFRAME ISTACK, 0, STACK
        LOCFRAME PSTACK, 0, STACK
        LOCFRAME XSTACK, 11, STACK
        LOCFRAME IOVERLAY, 0, STATIC
        LOCFRAME DOVERLAY, 0, STATIC
        ARGFRAME ISTACK, 0, STACK
        ARGFRAME PSTACK, 0, STACK
        ARGFRAME XSTACK, 11, STACK
        ARGFRAME IOVERLAY, 0, STATIC
        ARGFRAME DOVERLAY, 0, STATIC
        FUNCALL macNetCheck, osal_start_timerEx
        LOCFRAME ISTACK, 0, STACK
        LOCFRAME PSTACK, 0, STACK
        LOCFRAME XSTACK, 11, STACK
        LOCFRAME IOVERLAY, 0, STATIC
        LOCFRAME DOVERLAY, 0, STATIC
        ARGFRAME ISTACK, 0, STACK
        ARGFRAME PSTACK, 0, STACK
        ARGFRAME XSTACK, 11, STACK
        ARGFRAME IOVERLAY, 0, STATIC
        ARGFRAME DOVERLAY, 0, STATIC
        FUNCALL macNetCheck, osal_memcpy
        LOCFRAME ISTACK, 0, STACK
        LOCFRAME PSTACK, 0, STACK
        LOCFRAME XSTACK, 14, STACK
        LOCFRAME IOVERLAY, 0, STATIC
        LOCFRAME DOVERLAY, 0, STATIC
        ARGFRAME ISTACK, 0, STACK
        ARGFRAME PSTACK, 0, STACK
        ARGFRAME XSTACK, 14, STACK
        ARGFRAME IOVERLAY, 0, STATIC
        ARGFRAME DOVERLAY, 0, STATIC
        FUNCALL macNetCheck, macRfSendPacket
        LOCFRAME ISTACK, 0, STACK
        LOCFRAME PSTACK, 0, STACK
        LOCFRAME XSTACK, 15, STACK
        LOCFRAME IOVERLAY, 0, STATIC
        LOCFRAME DOVERLAY, 0, STATIC
        ARGFRAME ISTACK, 0, STACK
        ARGFRAME PSTACK, 0, STACK
        ARGFRAME XSTACK, 15, STACK
        ARGFRAME IOVERLAY, 0, STATIC
        ARGFRAME DOVERLAY, 0, STATIC
        FUNCALL macNetCheck, osal_start_timerEx
        LOCFRAME ISTACK, 0, STACK
        LOCFRAME PSTACK, 0, STACK
        LOCFRAME XSTACK, 11, STACK
        LOCFRAME IOVERLAY, 0, STATIC
        LOCFRAME DOVERLAY, 0, STATIC
        ARGFRAME ISTACK, 0, STACK
        ARGFRAME PSTACK, 0, STACK
        ARGFRAME XSTACK, 11, STACK
        ARGFRAME IOVERLAY, 0, STATIC
        ARGFRAME DOVERLAY, 0, STATIC
        FUNCALL macNetCheck, osal_start_timerEx
        LOCFRAME ISTACK, 0, STACK
        LOCFRAME PSTACK, 0, STACK
        LOCFRAME XSTACK, 11, STACK
        LOCFRAME IOVERLAY, 0, STATIC
        LOCFRAME DOVERLAY, 0, STATIC
        ARGFRAME ISTACK, 0, STACK
        ARGFRAME PSTACK, 0, STACK
        ARGFRAME XSTACK, 11, STACK
        ARGFRAME IOVERLAY, 0, STATIC
        ARGFRAME DOVERLAY, 0, STATIC
        MOV     A,#-0xb
        LCALL   ?BANKED_ENTER_XDATA
        CFI DPH0 load(1, XDATA, add(CFA_XSP16, literal(-1)))
        CFI DPL0 load(1, XDATA, add(CFA_XSP16, literal(-2)))
        CFI ?BRET_EXT load(1, XDATA, add(CFA_XSP16, literal(-3)))
        CFI ?RET_HIGH load(1, XDATA, add(CFA_XSP16, literal(-4)))
        CFI ?RET_LOW load(1, XDATA, add(CFA_XSP16, literal(-5)))
        CFI R7 load(1, XDATA, add(CFA_XSP16, literal(-6)))
        CFI V2 load(1, XDATA, add(CFA_XSP16, literal(-7)))
        CFI V1 load(1, XDATA, add(CFA_XSP16, literal(-8)))
        CFI V0 load(1, XDATA, add(CFA_XSP16, literal(-9)))
        CFI VB load(1, XDATA, add(CFA_XSP16, literal(-10)))
        CFI R6 load(1, XDATA, add(CFA_XSP16, literal(-11)))
        CFI CFA_SP SP+0
        CFI CFA_XSP16 add(XSP16, 11)
        ; Saved register size: 11
        ; Auto size: 0
//  903 	static uint8 netChk = 0;
//  904 	static uint8 chanRsv = 0;
//  905 	//static uint8 chkCnt=0;
//  906 	//static uint8 netStart=0;
//  907 
//  908 	//if(MSTDEV_MODE_HOLD==g_isMaster)
//  909 	if((CMD_MODE_RF_MST!=g_isMaster)&&(CMD_MODE_RF_SLA!=g_isMaster)&&
//  910 		(CMD_MODE_RFLS_MST!=g_isMaster)&&(CMD_MODE_RFLS_SLA!=g_isMaster))
        MOV     DPTR,#g_isMaster
        MOVX    A,@DPTR
        XRL     A,#0x1
        JZ      ??macNetCheck_0
        MOVX    A,@DPTR
        XRL     A,#0x2
        JZ      ??macNetCheck_0
        MOVX    A,@DPTR
        XRL     A,#0x6
        JZ      ??macNetCheck_0
        MOVX    A,@DPTR
        XRL     A,#0x5
        JZ      $+5
        LJMP    ??CrossCallReturnLabel_812 & 0xFFFF
//  911 	{
//  912 		return;
//  913 	}
//  914 
//  915 	if(RF_CHAN_AUTO==pConfig->channel)
??macNetCheck_0:
        MOV     ?V0 + 0,#g_extAddr & 0xff
        MOV     ?V0 + 1,#(g_extAddr >> 8) & 0xff
        MOV     ?V0 + 2,#0x0
        LCALL   ?Subroutine70 & 0xFFFF
??CrossCallReturnLabel_105:
        MOV     DPTR,#??netChk
        JZ      $+5
        LJMP    ??macNetCheck_1 & 0xFFFF
//  916 	{
//  917 /*
//  918 		if(!g_netStart)
//  919 		{
//  920 			chanRsv = pConfig->autoChan;
//  921 			pConfig->autoChan = RF_CHANNEL;
//  922 			g_mstHold = 0;
//  923 			g_netStart = 1;
//  924 		}else if(g_mstHold)
//  925 		{
//  926 			g_netStart = 0;
//  927 		}
//  928 */
//  929 		if(!netChk)
        MOVX    A,@DPTR
        JNZ     ??macNetCheck_2
//  930 		{
//  931 			netChk++;
        MOV     A,#0x1
        LCALL   ?Subroutine147 & 0xFFFF
//  932 			chanRsv = pConfig->autoChan;
//  933 			pConfig->autoChan = RF_CHANNEL;
//  934 		}
??CrossCallReturnLabel_275:
        LCALL   ??Subroutine276_0 & 0xFFFF
??CrossCallReturnLabel_469:
        MOV     DPTR,#??chanRsv
        LCALL   ?Subroutine166 & 0xFFFF
??CrossCallReturnLabel_319:
        SJMP    ??macNetCheck_3
//  935 		
//  936 		//if((pConfig->autoChan<(RF_CHANNEL+15))&&(!g_mstHold)&&(netChk<2))
//  937 		if(netChk<3)
??macNetCheck_2:
        CLR     C
        SUBB    A,#0x3
        JNC     ??macNetCheck_4
//  938 		{
//  939 			macParameterSet();
??macNetCheck_3:
        ; Setup parameters for call to function macParameterSet
        LCALL   ??macParameterSet?relay
//  940 			pConfig->autoChan++;
        LCALL   ?Subroutine45 & 0xFFFF
??CrossCallReturnLabel_62:
        MOVX    A,@DPTR
        INC     A
        MOVX    @DPTR,A
//  941 			pConfig->frameHead = 0xc801;
        LCALL   ?Subroutine14 & 0xFFFF
//  942 			pConfig->destAddr = 0x000f;
//  943 			pConfig->myAddr = 0xFFFF;
//  944 			osal_memcpy(pTxData,g_extAddr,8);
??CrossCallReturnLabel_8:
        LCALL   ?PUSH_XSTACK_I_THREE
        CFI CFA_XSP16 add(XSP16, 14)
        MOV     R4,#0x8
        MOV     R5,#0x0
        MOV     R2,#pTxData & 0xff
        MOV     R3,#(pTxData >> 8) & 0xff
        LCALL   ??Subroutine338_0 & 0xFFFF
??CrossCallReturnLabel_805:
        LCALL   ?DEALLOC_XSTACK8
        CFI CFA_XSP16 add(XSP16, 11)
//  945 			//pConfig->myAddr = ADDR;
//  946 			pTxData[8]=0x91;
        LCALL   ?Subroutine39 & 0xFFFF
//  947 			//pTxData[9]=0x00;
//  948 			//pTxData[10]=0x30;
//  949 			//pTxData[11]=0x00;
//  950 			//pTxData[10]=(uint8)((pConfig->panId)>>8);
//  951 			//pTxData[11]=(pConfig->panId)&0xFF;
//  952 			pTxData[9]=(pConfig->panId)&0xFF;
//  953 			pTxData[10]=(uint8)((pConfig->panId)>>8);
//  954 			pTxData[11]=0x01;
??CrossCallReturnLabel_53:
        MOV     A,#0x1
        LCALL   ?Subroutine159 & 0xFFFF
//  955 			g_sendLen = 12;
??CrossCallReturnLabel_299:
        LCALL   ??Subroutine346_0 & 0xFFFF
//  956 			//macRfSendPacket(pConfig->destAddr, pTxData, g_sendLen,NULL,0);
//  957 			macRfSendPacket(pConfig->destAddr, pTxData, g_sendLen,NULL,0,SEND_MODE_UNSLOTTED);
??CrossCallReturnLabel_851:
        LCALL   ?PUSH_XSTACK_I_ONE
        CFI CFA_XSP16 add(XSP16, 12)
        MOV     ?V0 + 0,#0x0
        MOV     R0,#?V0 + 0
        LCALL   ?PUSH_XSTACK_I_ONE
        CFI CFA_XSP16 add(XSP16, 13)
        CLR     A
        MOV     ?V0 + 1,A
        MOV     R0,#?V0 + 0
        LCALL   ?PUSH_XSTACK_I_TWO
        CFI CFA_XSP16 add(XSP16, 15)
        MOV     R1,#0xc
        LCALL   ??Subroutine322_0 & 0xFFFF
??CrossCallReturnLabel_690:
        LCALL   ?DEALLOC_XSTACK8
        CFI CFA_XSP16 add(XSP16, 11)
//  958 			pConfig->myAddr = 0x000F;
        LCALL   ?Subroutine43 & 0xFFFF
//  959 			veriPckSendCallback = &macNetCheck;
//  960 			osal_start_timerEx( macEx_taskId, MACEX_VERI_SEND_INQURE, 50);
??CrossCallReturnLabel_60:
        ; Setup parameters for call to function osal_start_timerEx
        MOV     R4,#0x32
        LCALL   ??Subroutine339_0 & 0xFFFF
//  961 			if(pConfig->autoChan>=(RF_CHANNEL+15))
??CrossCallReturnLabel_811:
        LCALL   ?Subroutine80 & 0xFFFF
??CrossCallReturnLabel_128:
        SUBB    A,#0x1a
        JC      ??CrossCallReturnLabel_812
//  962 			{
//  963 				netChk++;
        MOV     DPTR,#??netChk
        MOVX    A,@DPTR
        INC     A
        LCALL   ?Subroutine166 & 0xFFFF
//  964 				pConfig->autoChan = RF_CHANNEL;
//  965 				
//  966 			}
//  967 			//osal_start_timerEx( macEx_taskId, MACEX_VERI_SEND_INQURE, 450);
//  968 		}//else if(pConfig->autoChan>=(RF_CHANNEL+15))
??CrossCallReturnLabel_320:
        SJMP    ??CrossCallReturnLabel_812
//  969 		else
//  970 		{
//  971 			netChk = 0;
??macNetCheck_4:
        CLR     A
        MOVX    @DPTR,A
//  972 			pConfig ->autoChan = chanRsv;
        MOV     DPTR,#??chanRsv
        MOVX    A,@DPTR
        PUSH    A
        CFI CFA_SP SP+-1
        LCALL   ?Subroutine114 & 0xFFFF
??CrossCallReturnLabel_198:
        INC     DPTR
        INC     DPTR
        POP     A
        CFI CFA_SP SP+0
        MOVX    @DPTR,A
//  973 			macParameterSet();
        ; Setup parameters for call to function macParameterSet
        LCALL   ??macParameterSet?relay
//  974 			veriPckSendCallback = &macRollPolingProc;
        LCALL   ?Subroutine138 & 0xFFFF
//  975 			//osal_start_timerEx( macEx_taskId, MACEX_VERI_SEND_INQURE, 80+(osal_rand()&0x0f));	
//  976 			osal_start_timerEx( macEx_taskId, MACEX_VERI_SEND_INQURE, 70+(osal_rand()&0x0f));
//  977 		}
//  978 		
//  979 	}else
??CrossCallReturnLabel_252:
        ADD     A,#0x46
        MOV     R4,A
        SJMP    ??macNetCheck_5
//  980 	{
//  981 		if(netChk++<2)
??macNetCheck_1:
        LCALL   ?Subroutine97 & 0xFFFF
??CrossCallReturnLabel_161:
        JNC     ??macNetCheck_6
//  982 		{
//  983 			pConfig->frameHead = 0xc801;
        LCALL   ?Subroutine14 & 0xFFFF
//  984 			pConfig->destAddr = 0x000f;
//  985 			pConfig->myAddr = 0xFFFF;
//  986 			osal_memcpy(pTxData,g_extAddr,8);
??CrossCallReturnLabel_9:
        LCALL   ?PUSH_XSTACK_I_THREE
        CFI CFA_XSP16 add(XSP16, 14)
        MOV     R4,#0x8
        MOV     R5,#0x0
        MOV     R2,#pTxData & 0xff
        MOV     R3,#(pTxData >> 8) & 0xff
        LCALL   ??Subroutine338_0 & 0xFFFF
??CrossCallReturnLabel_806:
        LCALL   ?DEALLOC_XSTACK8
        CFI CFA_XSP16 add(XSP16, 11)
//  987 			//pConfig->myAddr = ADDR;
//  988 			pTxData[8]=0x91;
        LCALL   ?Subroutine39 & 0xFFFF
//  989 			//pTxData[9]=0x00;
//  990 			//pTxData[10]=0x30;
//  991 			//pTxData[11]=0x00;
//  992 			//pTxData[10]=(uint8)((pConfig->panId)>>8);
//  993 			//pTxData[11]=(pConfig->panId)&0xFF;
//  994 			pTxData[9]=(pConfig->panId)&0xFF;
//  995 			pTxData[10]=(uint8)((pConfig->panId)>>8);
//  996 			pTxData[11]=0x00;
??CrossCallReturnLabel_54:
        CLR     A
        LCALL   ?Subroutine159 & 0xFFFF
//  997 			g_sendLen = 12;
??CrossCallReturnLabel_300:
        LCALL   ??Subroutine346_0 & 0xFFFF
//  998 			//macRfSendPacket(pConfig->destAddr, pTxData, g_sendLen,NULL,0);
//  999 			macRfSendPacket(pConfig->destAddr, pTxData, g_sendLen,NULL,0,SEND_MODE_UNSLOTTED);
??CrossCallReturnLabel_852:
        LCALL   ?PUSH_XSTACK_I_ONE
        CFI CFA_XSP16 add(XSP16, 12)
        MOV     ?V0 + 0,#0x0
        MOV     R0,#?V0 + 0
        LCALL   ?PUSH_XSTACK_I_ONE
        CFI CFA_XSP16 add(XSP16, 13)
        CLR     A
        MOV     ?V0 + 1,A
        MOV     R0,#?V0 + 0
        LCALL   ?PUSH_XSTACK_I_TWO
        CFI CFA_XSP16 add(XSP16, 15)
        MOV     R1,#0xc
        LCALL   ??Subroutine322_0 & 0xFFFF
??CrossCallReturnLabel_691:
        LCALL   ?DEALLOC_XSTACK8
        CFI CFA_XSP16 add(XSP16, 11)
// 1000 			pConfig->myAddr = 0x000F;
        LCALL   ?Subroutine43 & 0xFFFF
// 1001 			veriPckSendCallback = &macNetCheck;
// 1002 			osal_start_timerEx( macEx_taskId, MACEX_VERI_SEND_INQURE, 30);		
??CrossCallReturnLabel_61:
        ; Setup parameters for call to function osal_start_timerEx
        MOV     R4,#0x1e
        SJMP    ??macNetCheck_5
// 1003 		}else
// 1004 		{
// 1005 			netChk = 0;
??macNetCheck_6:
        LCALL   ?Subroutine149 & 0xFFFF
// 1006 			veriPckSendCallback = &macRollPolingProc;
??CrossCallReturnLabel_456:
        LCALL   ??Subroutine324_0 & 0xFFFF
// 1007 			osal_start_timerEx( macEx_taskId, MACEX_VERI_SEND_INQURE, 80);	
??CrossCallReturnLabel_715:
        ; Setup parameters for call to function osal_start_timerEx
        MOV     R4,#0x50
// 1008 			
// 1009 		}
// 1010 	}
??macNetCheck_5:
        LCALL   ??Subroutine339_0 & 0xFFFF
??CrossCallReturnLabel_812:
        SJMP    ??Subroutine279_0
        CFI EndBlock cfiBlock91
// 1011 	
// 1012 }

        RSEG BANKED_CODE:CODE:NOROOT(0)
?Subroutine166:
        CFI Block cfiCond92 Using cfiCommon0
        CFI NoFunction
        CFI Conditional ??CrossCallReturnLabel_319
        CFI R6 load(1, XDATA, add(CFA_XSP16, literal(-11)))
        CFI VB load(1, XDATA, add(CFA_XSP16, literal(-10)))
        CFI V0 load(1, XDATA, add(CFA_XSP16, literal(-9)))
        CFI V1 load(1, XDATA, add(CFA_XSP16, literal(-8)))
        CFI V2 load(1, XDATA, add(CFA_XSP16, literal(-7)))
        CFI R7 load(1, XDATA, add(CFA_XSP16, literal(-6)))
        CFI ?RET_LOW load(1, XDATA, add(CFA_XSP16, literal(-5)))
        CFI ?RET_HIGH load(1, XDATA, add(CFA_XSP16, literal(-4)))
        CFI ?BRET_EXT load(1, XDATA, add(CFA_XSP16, literal(-3)))
        CFI DPL0 load(1, XDATA, add(CFA_XSP16, literal(-2)))
        CFI DPH0 load(1, XDATA, add(CFA_XSP16, literal(-1)))
        CFI CFA_SP SP+0
        CFI CFA_XSP16 add(XSP16, 11)
        CFI Block cfiCond93 Using cfiCommon0
        CFI (cfiCond93) NoFunction
        CFI (cfiCond93) Conditional ??CrossCallReturnLabel_320
        CFI (cfiCond93) R6 load(1, XDATA, add(CFA_XSP16, literal(-11)))
        CFI (cfiCond93) VB load(1, XDATA, add(CFA_XSP16, literal(-10)))
        CFI (cfiCond93) V0 load(1, XDATA, add(CFA_XSP16, literal(-9)))
        CFI (cfiCond93) V1 load(1, XDATA, add(CFA_XSP16, literal(-8)))
        CFI (cfiCond93) V2 load(1, XDATA, add(CFA_XSP16, literal(-7)))
        CFI (cfiCond93) R7 load(1, XDATA, add(CFA_XSP16, literal(-6)))
        CFI (cfiCond93) ?RET_LOW load(1, XDATA, add(CFA_XSP16, literal(-5)))
        CFI (cfiCond93) ?RET_HIGH load(1, XDATA, add(CFA_XSP16, literal(-4)))
        CFI (cfiCond93) ?BRET_EXT load(1, XDATA, add(CFA_XSP16, literal(-3)))
        CFI (cfiCond93) DPL0 load(1, XDATA, add(CFA_XSP16, literal(-2)))
        CFI (cfiCond93) DPH0 load(1, XDATA, add(CFA_XSP16, literal(-1)))
        CFI (cfiCond93) CFA_SP SP+0
        CFI (cfiCond93) CFA_XSP16 add(XSP16, 11)
        CFI Block cfiPicker94 Using cfiCommon1
        CFI (cfiPicker94) NoFunction
        CFI (cfiPicker94) Picker
        LCALL   ?Subroutine230 & 0xFFFF
??CrossCallReturnLabel_394:
        MOV     A,#0xb
        MOVX    @DPTR,A
        RET
        CFI EndBlock cfiCond92
        CFI EndBlock cfiCond93
        CFI EndBlock cfiPicker94

        RSEG BANKED_CODE:CODE:NOROOT(0)
?Subroutine149:
        CFI Block cfiCond95 Using cfiCommon0
        CFI NoFunction
        CFI Conditional ??CrossCallReturnLabel_456
        CFI R6 load(1, XDATA, add(CFA_XSP16, literal(-11)))
        CFI VB load(1, XDATA, add(CFA_XSP16, literal(-10)))
        CFI V0 load(1, XDATA, add(CFA_XSP16, literal(-9)))
        CFI V1 load(1, XDATA, add(CFA_XSP16, literal(-8)))
        CFI V2 load(1, XDATA, add(CFA_XSP16, literal(-7)))
        CFI R7 load(1, XDATA, add(CFA_XSP16, literal(-6)))
        CFI ?RET_LOW load(1, XDATA, add(CFA_XSP16, literal(-5)))
        CFI ?RET_HIGH load(1, XDATA, add(CFA_XSP16, literal(-4)))
        CFI ?BRET_EXT load(1, XDATA, add(CFA_XSP16, literal(-3)))
        CFI DPL0 load(1, XDATA, add(CFA_XSP16, literal(-2)))
        CFI DPH0 load(1, XDATA, add(CFA_XSP16, literal(-1)))
        CFI CFA_SP SP+0
        CFI CFA_XSP16 add(XSP16, 11)
        CFI Block cfiCond96 Using cfiCommon0
        CFI (cfiCond96) NoFunction
        CFI (cfiCond96) Conditional ??CrossCallReturnLabel_457
        CFI (cfiCond96) R6 load(1, XDATA, add(CFA_XSP16, literal(-17)))
        CFI (cfiCond96) VB load(1, XDATA, add(CFA_XSP16, literal(-16)))
        CFI (cfiCond96) V0 load(1, XDATA, add(CFA_XSP16, literal(-15)))
        CFI (cfiCond96) V1 load(1, XDATA, add(CFA_XSP16, literal(-14)))
        CFI (cfiCond96) V2 load(1, XDATA, add(CFA_XSP16, literal(-13)))
        CFI (cfiCond96) V3 load(1, XDATA, add(CFA_XSP16, literal(-12)))
        CFI (cfiCond96) V4 load(1, XDATA, add(CFA_XSP16, literal(-11)))
        CFI (cfiCond96) V5 load(1, XDATA, add(CFA_XSP16, literal(-10)))
        CFI (cfiCond96) V6 load(1, XDATA, add(CFA_XSP16, literal(-9)))
        CFI (cfiCond96) V7 load(1, XDATA, add(CFA_XSP16, literal(-8)))
        CFI (cfiCond96) V8 load(1, XDATA, add(CFA_XSP16, literal(-7)))
        CFI (cfiCond96) R7 load(1, XDATA, add(CFA_XSP16, literal(-6)))
        CFI (cfiCond96) ?RET_LOW load(1, XDATA, add(CFA_XSP16, literal(-5)))
        CFI (cfiCond96) ?RET_HIGH load(1, XDATA, add(CFA_XSP16, literal(-4)))
        CFI (cfiCond96) ?BRET_EXT load(1, XDATA, add(CFA_XSP16, literal(-3)))
        CFI (cfiCond96) DPL0 load(1, XDATA, add(CFA_XSP16, literal(-2)))
        CFI (cfiCond96) DPH0 load(1, XDATA, add(CFA_XSP16, literal(-1)))
        CFI (cfiCond96) CFA_SP SP+0
        CFI (cfiCond96) CFA_XSP16 add(XSP16, 17)
        CFI Block cfiCond97 Using cfiCommon0
        CFI (cfiCond97) NoFunction
        CFI (cfiCond97) Conditional ??CrossCallReturnLabel_458
        CFI (cfiCond97) R6 load(1, XDATA, add(CFA_XSP16, literal(-11)))
        CFI (cfiCond97) VB load(1, XDATA, add(CFA_XSP16, literal(-10)))
        CFI (cfiCond97) V0 load(1, XDATA, add(CFA_XSP16, literal(-9)))
        CFI (cfiCond97) V1 load(1, XDATA, add(CFA_XSP16, literal(-8)))
        CFI (cfiCond97) V2 load(1, XDATA, add(CFA_XSP16, literal(-7)))
        CFI (cfiCond97) R7 load(1, XDATA, add(CFA_XSP16, literal(-6)))
        CFI (cfiCond97) ?RET_LOW load(1, XDATA, add(CFA_XSP16, literal(-5)))
        CFI (cfiCond97) ?RET_HIGH load(1, XDATA, add(CFA_XSP16, literal(-4)))
        CFI (cfiCond97) ?BRET_EXT load(1, XDATA, add(CFA_XSP16, literal(-3)))
        CFI (cfiCond97) DPL0 load(1, XDATA, add(CFA_XSP16, literal(-2)))
        CFI (cfiCond97) DPH0 load(1, XDATA, add(CFA_XSP16, literal(-1)))
        CFI (cfiCond97) CFA_SP SP+0
        CFI (cfiCond97) CFA_XSP16 add(XSP16, 11)
        CFI Block cfiCond98 Using cfiCommon0
        CFI (cfiCond98) NoFunction
        CFI (cfiCond98) Conditional ??CrossCallReturnLabel_459
        CFI (cfiCond98) R6 load(1, XDATA, add(CFA_XSP16, literal(-10)))
        CFI (cfiCond98) VB load(1, XDATA, add(CFA_XSP16, literal(-9)))
        CFI (cfiCond98) V0 load(1, XDATA, add(CFA_XSP16, literal(-8)))
        CFI (cfiCond98) V1 load(1, XDATA, add(CFA_XSP16, literal(-7)))
        CFI (cfiCond98) R7 load(1, XDATA, add(CFA_XSP16, literal(-6)))
        CFI (cfiCond98) ?RET_LOW load(1, XDATA, add(CFA_XSP16, literal(-5)))
        CFI (cfiCond98) ?RET_HIGH load(1, XDATA, add(CFA_XSP16, literal(-4)))
        CFI (cfiCond98) ?BRET_EXT load(1, XDATA, add(CFA_XSP16, literal(-3)))
        CFI (cfiCond98) DPL0 load(1, XDATA, add(CFA_XSP16, literal(-2)))
        CFI (cfiCond98) DPH0 load(1, XDATA, add(CFA_XSP16, literal(-1)))
        CFI (cfiCond98) CFA_SP SP+0
        CFI (cfiCond98) CFA_XSP16 add(XSP16, 10)
        CFI Block cfiPicker99 Using cfiCommon1
        CFI (cfiPicker99) NoFunction
        CFI (cfiPicker99) Picker
        CLR     A
        CFI EndBlock cfiCond95
        CFI EndBlock cfiCond96
        CFI EndBlock cfiCond97
        CFI EndBlock cfiCond98
        CFI EndBlock cfiPicker99
        REQUIRE ??Subroutine274_0
        ; // Fall through to label ??Subroutine274_0

        RSEG BANKED_CODE:CODE:NOROOT(0)
??Subroutine274_0:
        CFI Block cfiCond100 Using cfiCommon0
        CFI NoFunction
        CFI Conditional ??CrossCallReturnLabel_460
        CFI R6 load(1, XDATA, add(CFA_XSP16, literal(-17)))
        CFI VB load(1, XDATA, add(CFA_XSP16, literal(-16)))
        CFI V0 load(1, XDATA, add(CFA_XSP16, literal(-15)))
        CFI V1 load(1, XDATA, add(CFA_XSP16, literal(-14)))
        CFI V2 load(1, XDATA, add(CFA_XSP16, literal(-13)))
        CFI V3 load(1, XDATA, add(CFA_XSP16, literal(-12)))
        CFI V4 load(1, XDATA, add(CFA_XSP16, literal(-11)))
        CFI V5 load(1, XDATA, add(CFA_XSP16, literal(-10)))
        CFI V6 load(1, XDATA, add(CFA_XSP16, literal(-9)))
        CFI V7 load(1, XDATA, add(CFA_XSP16, literal(-8)))
        CFI V8 load(1, XDATA, add(CFA_XSP16, literal(-7)))
        CFI R7 load(1, XDATA, add(CFA_XSP16, literal(-6)))
        CFI ?RET_LOW load(1, XDATA, add(CFA_XSP16, literal(-5)))
        CFI ?RET_HIGH load(1, XDATA, add(CFA_XSP16, literal(-4)))
        CFI ?BRET_EXT load(1, XDATA, add(CFA_XSP16, literal(-3)))
        CFI DPL0 load(1, XDATA, add(CFA_XSP16, literal(-2)))
        CFI DPH0 load(1, XDATA, add(CFA_XSP16, literal(-1)))
        CFI CFA_SP SP+0
        CFI CFA_XSP16 add(XSP16, 17)
        CFI Block cfiCond101 Using cfiCommon0
        CFI (cfiCond101) NoFunction
        CFI (cfiCond101) Conditional ??CrossCallReturnLabel_461
        CFI (cfiCond101) R6 load(1, XDATA, add(CFA_XSP16, literal(-17)))
        CFI (cfiCond101) VB load(1, XDATA, add(CFA_XSP16, literal(-16)))
        CFI (cfiCond101) V0 load(1, XDATA, add(CFA_XSP16, literal(-15)))
        CFI (cfiCond101) V1 load(1, XDATA, add(CFA_XSP16, literal(-14)))
        CFI (cfiCond101) V2 load(1, XDATA, add(CFA_XSP16, literal(-13)))
        CFI (cfiCond101) V3 load(1, XDATA, add(CFA_XSP16, literal(-12)))
        CFI (cfiCond101) V4 load(1, XDATA, add(CFA_XSP16, literal(-11)))
        CFI (cfiCond101) V5 load(1, XDATA, add(CFA_XSP16, literal(-10)))
        CFI (cfiCond101) V6 load(1, XDATA, add(CFA_XSP16, literal(-9)))
        CFI (cfiCond101) V7 load(1, XDATA, add(CFA_XSP16, literal(-8)))
        CFI (cfiCond101) V8 load(1, XDATA, add(CFA_XSP16, literal(-7)))
        CFI (cfiCond101) R7 load(1, XDATA, add(CFA_XSP16, literal(-6)))
        CFI (cfiCond101) ?RET_LOW load(1, XDATA, add(CFA_XSP16, literal(-5)))
        CFI (cfiCond101) ?RET_HIGH load(1, XDATA, add(CFA_XSP16, literal(-4)))
        CFI (cfiCond101) ?BRET_EXT load(1, XDATA, add(CFA_XSP16, literal(-3)))
        CFI (cfiCond101) DPL0 load(1, XDATA, add(CFA_XSP16, literal(-2)))
        CFI (cfiCond101) DPH0 load(1, XDATA, add(CFA_XSP16, literal(-1)))
        CFI (cfiCond101) CFA_SP SP+0
        CFI (cfiCond101) CFA_XSP16 add(XSP16, 17)
        CFI Block cfiCond102 Using cfiCommon0
        CFI (cfiCond102) NoFunction
        CFI (cfiCond102) Conditional ??CrossCallReturnLabel_462
        CFI (cfiCond102) R6 load(1, XDATA, add(CFA_XSP16, literal(-17)))
        CFI (cfiCond102) VB load(1, XDATA, add(CFA_XSP16, literal(-16)))
        CFI (cfiCond102) V0 load(1, XDATA, add(CFA_XSP16, literal(-15)))
        CFI (cfiCond102) V1 load(1, XDATA, add(CFA_XSP16, literal(-14)))
        CFI (cfiCond102) V2 load(1, XDATA, add(CFA_XSP16, literal(-13)))
        CFI (cfiCond102) V3 load(1, XDATA, add(CFA_XSP16, literal(-12)))
        CFI (cfiCond102) V4 load(1, XDATA, add(CFA_XSP16, literal(-11)))
        CFI (cfiCond102) V5 load(1, XDATA, add(CFA_XSP16, literal(-10)))
        CFI (cfiCond102) V6 load(1, XDATA, add(CFA_XSP16, literal(-9)))
        CFI (cfiCond102) V7 load(1, XDATA, add(CFA_XSP16, literal(-8)))
        CFI (cfiCond102) V8 load(1, XDATA, add(CFA_XSP16, literal(-7)))
        CFI (cfiCond102) R7 load(1, XDATA, add(CFA_XSP16, literal(-6)))
        CFI (cfiCond102) ?RET_LOW load(1, XDATA, add(CFA_XSP16, literal(-5)))
        CFI (cfiCond102) ?RET_HIGH load(1, XDATA, add(CFA_XSP16, literal(-4)))
        CFI (cfiCond102) ?BRET_EXT load(1, XDATA, add(CFA_XSP16, literal(-3)))
        CFI (cfiCond102) DPL0 load(1, XDATA, add(CFA_XSP16, literal(-2)))
        CFI (cfiCond102) DPH0 load(1, XDATA, add(CFA_XSP16, literal(-1)))
        CFI (cfiCond102) CFA_SP SP+0
        CFI (cfiCond102) CFA_XSP16 add(XSP16, 17)
        CFI Block cfiCond103 Using cfiCommon0
        CFI (cfiCond103) NoFunction
        CFI (cfiCond103) Conditional ??CrossCallReturnLabel_463
        CFI (cfiCond103) R6 load(1, XDATA, add(CFA_XSP16, literal(-10)))
        CFI (cfiCond103) VB load(1, XDATA, add(CFA_XSP16, literal(-9)))
        CFI (cfiCond103) V0 load(1, XDATA, add(CFA_XSP16, literal(-8)))
        CFI (cfiCond103) V1 load(1, XDATA, add(CFA_XSP16, literal(-7)))
        CFI (cfiCond103) R7 load(1, XDATA, add(CFA_XSP16, literal(-6)))
        CFI (cfiCond103) ?RET_LOW load(1, XDATA, add(CFA_XSP16, literal(-5)))
        CFI (cfiCond103) ?RET_HIGH load(1, XDATA, add(CFA_XSP16, literal(-4)))
        CFI (cfiCond103) ?BRET_EXT load(1, XDATA, add(CFA_XSP16, literal(-3)))
        CFI (cfiCond103) DPL0 load(1, XDATA, add(CFA_XSP16, literal(-2)))
        CFI (cfiCond103) DPH0 load(1, XDATA, add(CFA_XSP16, literal(-1)))
        CFI (cfiCond103) CFA_SP SP+0
        CFI (cfiCond103) CFA_XSP16 add(XSP16, 10)
        CFI Block cfiCond104 Using cfiCommon0
        CFI (cfiCond104) NoFunction
        CFI (cfiCond104) Conditional ??CrossCallReturnLabel_464
        CFI (cfiCond104) R6 load(1, XDATA, add(CFA_XSP16, literal(-10)))
        CFI (cfiCond104) VB load(1, XDATA, add(CFA_XSP16, literal(-9)))
        CFI (cfiCond104) V0 load(1, XDATA, add(CFA_XSP16, literal(-8)))
        CFI (cfiCond104) V1 load(1, XDATA, add(CFA_XSP16, literal(-7)))
        CFI (cfiCond104) R7 load(1, XDATA, add(CFA_XSP16, literal(-6)))
        CFI (cfiCond104) ?RET_LOW load(1, XDATA, add(CFA_XSP16, literal(-5)))
        CFI (cfiCond104) ?RET_HIGH load(1, XDATA, add(CFA_XSP16, literal(-4)))
        CFI (cfiCond104) ?BRET_EXT load(1, XDATA, add(CFA_XSP16, literal(-3)))
        CFI (cfiCond104) DPL0 load(1, XDATA, add(CFA_XSP16, literal(-2)))
        CFI (cfiCond104) DPH0 load(1, XDATA, add(CFA_XSP16, literal(-1)))
        CFI (cfiCond104) CFA_SP SP+0
        CFI (cfiCond104) CFA_XSP16 add(XSP16, 10)
        CFI Block cfiCond105 Using cfiCommon0
        CFI (cfiCond105) NoFunction
        CFI (cfiCond105) Conditional ??CrossCallReturnLabel_456
        CFI (cfiCond105) R6 load(1, XDATA, add(CFA_XSP16, literal(-11)))
        CFI (cfiCond105) VB load(1, XDATA, add(CFA_XSP16, literal(-10)))
        CFI (cfiCond105) V0 load(1, XDATA, add(CFA_XSP16, literal(-9)))
        CFI (cfiCond105) V1 load(1, XDATA, add(CFA_XSP16, literal(-8)))
        CFI (cfiCond105) V2 load(1, XDATA, add(CFA_XSP16, literal(-7)))
        CFI (cfiCond105) R7 load(1, XDATA, add(CFA_XSP16, literal(-6)))
        CFI (cfiCond105) ?RET_LOW load(1, XDATA, add(CFA_XSP16, literal(-5)))
        CFI (cfiCond105) ?RET_HIGH load(1, XDATA, add(CFA_XSP16, literal(-4)))
        CFI (cfiCond105) ?BRET_EXT load(1, XDATA, add(CFA_XSP16, literal(-3)))
        CFI (cfiCond105) DPL0 load(1, XDATA, add(CFA_XSP16, literal(-2)))
        CFI (cfiCond105) DPH0 load(1, XDATA, add(CFA_XSP16, literal(-1)))
        CFI (cfiCond105) CFA_SP SP+0
        CFI (cfiCond105) CFA_XSP16 add(XSP16, 11)
        CFI Block cfiCond106 Using cfiCommon0
        CFI (cfiCond106) NoFunction
        CFI (cfiCond106) Conditional ??CrossCallReturnLabel_457
        CFI (cfiCond106) R6 load(1, XDATA, add(CFA_XSP16, literal(-17)))
        CFI (cfiCond106) VB load(1, XDATA, add(CFA_XSP16, literal(-16)))
        CFI (cfiCond106) V0 load(1, XDATA, add(CFA_XSP16, literal(-15)))
        CFI (cfiCond106) V1 load(1, XDATA, add(CFA_XSP16, literal(-14)))
        CFI (cfiCond106) V2 load(1, XDATA, add(CFA_XSP16, literal(-13)))
        CFI (cfiCond106) V3 load(1, XDATA, add(CFA_XSP16, literal(-12)))
        CFI (cfiCond106) V4 load(1, XDATA, add(CFA_XSP16, literal(-11)))
        CFI (cfiCond106) V5 load(1, XDATA, add(CFA_XSP16, literal(-10)))
        CFI (cfiCond106) V6 load(1, XDATA, add(CFA_XSP16, literal(-9)))
        CFI (cfiCond106) V7 load(1, XDATA, add(CFA_XSP16, literal(-8)))
        CFI (cfiCond106) V8 load(1, XDATA, add(CFA_XSP16, literal(-7)))
        CFI (cfiCond106) R7 load(1, XDATA, add(CFA_XSP16, literal(-6)))
        CFI (cfiCond106) ?RET_LOW load(1, XDATA, add(CFA_XSP16, literal(-5)))
        CFI (cfiCond106) ?RET_HIGH load(1, XDATA, add(CFA_XSP16, literal(-4)))
        CFI (cfiCond106) ?BRET_EXT load(1, XDATA, add(CFA_XSP16, literal(-3)))
        CFI (cfiCond106) DPL0 load(1, XDATA, add(CFA_XSP16, literal(-2)))
        CFI (cfiCond106) DPH0 load(1, XDATA, add(CFA_XSP16, literal(-1)))
        CFI (cfiCond106) CFA_SP SP+0
        CFI (cfiCond106) CFA_XSP16 add(XSP16, 17)
        CFI Block cfiCond107 Using cfiCommon0
        CFI (cfiCond107) NoFunction
        CFI (cfiCond107) Conditional ??CrossCallReturnLabel_458
        CFI (cfiCond107) R6 load(1, XDATA, add(CFA_XSP16, literal(-11)))
        CFI (cfiCond107) VB load(1, XDATA, add(CFA_XSP16, literal(-10)))
        CFI (cfiCond107) V0 load(1, XDATA, add(CFA_XSP16, literal(-9)))
        CFI (cfiCond107) V1 load(1, XDATA, add(CFA_XSP16, literal(-8)))
        CFI (cfiCond107) V2 load(1, XDATA, add(CFA_XSP16, literal(-7)))
        CFI (cfiCond107) R7 load(1, XDATA, add(CFA_XSP16, literal(-6)))
        CFI (cfiCond107) ?RET_LOW load(1, XDATA, add(CFA_XSP16, literal(-5)))
        CFI (cfiCond107) ?RET_HIGH load(1, XDATA, add(CFA_XSP16, literal(-4)))
        CFI (cfiCond107) ?BRET_EXT load(1, XDATA, add(CFA_XSP16, literal(-3)))
        CFI (cfiCond107) DPL0 load(1, XDATA, add(CFA_XSP16, literal(-2)))
        CFI (cfiCond107) DPH0 load(1, XDATA, add(CFA_XSP16, literal(-1)))
        CFI (cfiCond107) CFA_SP SP+0
        CFI (cfiCond107) CFA_XSP16 add(XSP16, 11)
        CFI Block cfiCond108 Using cfiCommon0
        CFI (cfiCond108) NoFunction
        CFI (cfiCond108) Conditional ??CrossCallReturnLabel_459
        CFI (cfiCond108) R6 load(1, XDATA, add(CFA_XSP16, literal(-10)))
        CFI (cfiCond108) VB load(1, XDATA, add(CFA_XSP16, literal(-9)))
        CFI (cfiCond108) V0 load(1, XDATA, add(CFA_XSP16, literal(-8)))
        CFI (cfiCond108) V1 load(1, XDATA, add(CFA_XSP16, literal(-7)))
        CFI (cfiCond108) R7 load(1, XDATA, add(CFA_XSP16, literal(-6)))
        CFI (cfiCond108) ?RET_LOW load(1, XDATA, add(CFA_XSP16, literal(-5)))
        CFI (cfiCond108) ?RET_HIGH load(1, XDATA, add(CFA_XSP16, literal(-4)))
        CFI (cfiCond108) ?BRET_EXT load(1, XDATA, add(CFA_XSP16, literal(-3)))
        CFI (cfiCond108) DPL0 load(1, XDATA, add(CFA_XSP16, literal(-2)))
        CFI (cfiCond108) DPH0 load(1, XDATA, add(CFA_XSP16, literal(-1)))
        CFI (cfiCond108) CFA_SP SP+0
        CFI (cfiCond108) CFA_XSP16 add(XSP16, 10)
        CFI Block cfiPicker109 Using cfiCommon1
        CFI (cfiPicker109) NoFunction
        CFI (cfiPicker109) Picker
        MOVX    @DPTR,A
        MOV     DPTR,#veriPckSendCallback
        RET
        CFI EndBlock cfiCond100
        CFI EndBlock cfiCond101
        CFI EndBlock cfiCond102
        CFI EndBlock cfiCond103
        CFI EndBlock cfiCond104
        CFI EndBlock cfiCond105
        CFI EndBlock cfiCond106
        CFI EndBlock cfiCond107
        CFI EndBlock cfiCond108
        CFI EndBlock cfiPicker109

        RSEG BANKED_CODE:CODE:NOROOT(0)
?Subroutine114:
        CFI Block cfiCond110 Using cfiCommon0
        CFI NoFunction
        CFI Conditional ??CrossCallReturnLabel_197
        CFI DPL0 Frame(CFA_SP, 4)
        CFI DPH0 Frame(CFA_SP, 5)
        CFI CFA_SP SP+-5
        CFI Block cfiCond111 Using cfiCommon0
        CFI (cfiCond111) NoFunction
        CFI (cfiCond111) Conditional ??CrossCallReturnLabel_198
        CFI (cfiCond111) R6 load(1, XDATA, add(CFA_XSP16, literal(-11)))
        CFI (cfiCond111) VB load(1, XDATA, add(CFA_XSP16, literal(-10)))
        CFI (cfiCond111) V0 load(1, XDATA, add(CFA_XSP16, literal(-9)))
        CFI (cfiCond111) V1 load(1, XDATA, add(CFA_XSP16, literal(-8)))
        CFI (cfiCond111) V2 load(1, XDATA, add(CFA_XSP16, literal(-7)))
        CFI (cfiCond111) R7 load(1, XDATA, add(CFA_XSP16, literal(-6)))
        CFI (cfiCond111) ?RET_LOW load(1, XDATA, add(CFA_XSP16, literal(-5)))
        CFI (cfiCond111) ?RET_HIGH load(1, XDATA, add(CFA_XSP16, literal(-4)))
        CFI (cfiCond111) ?BRET_EXT load(1, XDATA, add(CFA_XSP16, literal(-3)))
        CFI (cfiCond111) DPL0 load(1, XDATA, add(CFA_XSP16, literal(-2)))
        CFI (cfiCond111) DPH0 load(1, XDATA, add(CFA_XSP16, literal(-1)))
        CFI (cfiCond111) CFA_SP SP+-1
        CFI (cfiCond111) CFA_XSP16 add(XSP16, 11)
        CFI Block cfiPicker112 Using cfiCommon1
        CFI (cfiPicker112) NoFunction
        CFI (cfiPicker112) Picker
        LCALL   ?Subroutine215 & 0xFFFF
??CrossCallReturnLabel_374:
        RET
        CFI EndBlock cfiCond110
        CFI EndBlock cfiCond111
        CFI EndBlock cfiPicker112

        RSEG BANKED_CODE:CODE:NOROOT(0)
?Subroutine215:
        CFI Block cfiCond113 Using cfiCommon0
        CFI NoFunction
        CFI Conditional ??CrossCallReturnLabel_374, ??CrossCallReturnLabel_197
        CFI DPL0 Frame(CFA_SP, 4)
        CFI DPH0 Frame(CFA_SP, 5)
        CFI CFA_SP SP+-5
        CFI Block cfiCond114 Using cfiCommon0
        CFI (cfiCond114) NoFunction
        CFI (cfiCond114) Conditional ??CrossCallReturnLabel_374, ??CrossCallReturnLabel_198
        CFI (cfiCond114) R6 load(1, XDATA, add(CFA_XSP16, literal(-11)))
        CFI (cfiCond114) VB load(1, XDATA, add(CFA_XSP16, literal(-10)))
        CFI (cfiCond114) V0 load(1, XDATA, add(CFA_XSP16, literal(-9)))
        CFI (cfiCond114) V1 load(1, XDATA, add(CFA_XSP16, literal(-8)))
        CFI (cfiCond114) V2 load(1, XDATA, add(CFA_XSP16, literal(-7)))
        CFI (cfiCond114) R7 load(1, XDATA, add(CFA_XSP16, literal(-6)))
        CFI (cfiCond114) ?RET_LOW load(1, XDATA, add(CFA_XSP16, literal(-5)))
        CFI (cfiCond114) ?RET_HIGH load(1, XDATA, add(CFA_XSP16, literal(-4)))
        CFI (cfiCond114) ?BRET_EXT load(1, XDATA, add(CFA_XSP16, literal(-3)))
        CFI (cfiCond114) DPL0 load(1, XDATA, add(CFA_XSP16, literal(-2)))
        CFI (cfiCond114) DPH0 load(1, XDATA, add(CFA_XSP16, literal(-1)))
        CFI (cfiCond114) CFA_SP SP+-1
        CFI (cfiCond114) CFA_XSP16 add(XSP16, 11)
        CFI Block cfiCond115 Using cfiCommon0
        CFI (cfiCond115) NoFunction
        CFI (cfiCond115) Conditional ??CrossCallReturnLabel_373, ??CrossCallReturnLabel_159
        CFI (cfiCond115) DPL0 Frame(CFA_SP, 4)
        CFI (cfiCond115) DPH0 Frame(CFA_SP, 5)
        CFI (cfiCond115) CFA_SP SP+-5
        CFI Block cfiCond116 Using cfiCommon0
        CFI (cfiCond116) NoFunction
        CFI (cfiCond116) Conditional ??CrossCallReturnLabel_373, ??CrossCallReturnLabel_160
        CFI (cfiCond116) R6 load(1, XDATA, add(CFA_XSP16, literal(-10)))
        CFI (cfiCond116) VB load(1, XDATA, add(CFA_XSP16, literal(-9)))
        CFI (cfiCond116) V0 load(1, XDATA, add(CFA_XSP16, literal(-8)))
        CFI (cfiCond116) V1 load(1, XDATA, add(CFA_XSP16, literal(-7)))
        CFI (cfiCond116) R7 load(1, XDATA, add(CFA_XSP16, literal(-6)))
        CFI (cfiCond116) ?RET_LOW load(1, XDATA, add(CFA_XSP16, literal(-5)))
        CFI (cfiCond116) ?RET_HIGH load(1, XDATA, add(CFA_XSP16, literal(-4)))
        CFI (cfiCond116) ?BRET_EXT load(1, XDATA, add(CFA_XSP16, literal(-3)))
        CFI (cfiCond116) DPL0 load(1, XDATA, add(CFA_XSP16, literal(-2)))
        CFI (cfiCond116) DPH0 load(1, XDATA, add(CFA_XSP16, literal(-1)))
        CFI (cfiCond116) CFA_SP SP+0
        CFI (cfiCond116) CFA_XSP16 add(XSP16, 10)
        CFI Block cfiPicker117 Using cfiCommon1
        CFI (cfiPicker117) NoFunction
        CFI (cfiPicker117) Picker
        MOV     DPTR,#pConfig + 1
        LCALL   ?Subroutine245 & 0xFFFF
??CrossCallReturnLabel_663:
        RET
        CFI EndBlock cfiCond113
        CFI EndBlock cfiCond114
        CFI EndBlock cfiCond115
        CFI EndBlock cfiCond116
        CFI EndBlock cfiPicker117

        RSEG BANKED_CODE:CODE:NOROOT(0)
?Subroutine83:
        CFI Block cfiCond118 Using cfiCommon0
        CFI NoFunction
        CFI Conditional ??CrossCallReturnLabel_465
        CFI R6 load(1, XDATA, add(CFA_XSP16, literal(-10)))
        CFI VB load(1, XDATA, add(CFA_XSP16, literal(-9)))
        CFI V0 load(1, XDATA, add(CFA_XSP16, literal(-8)))
        CFI V1 load(1, XDATA, add(CFA_XSP16, literal(-7)))
        CFI R7 load(1, XDATA, add(CFA_XSP16, literal(-6)))
        CFI ?RET_LOW load(1, XDATA, add(CFA_XSP16, literal(-5)))
        CFI ?RET_HIGH load(1, XDATA, add(CFA_XSP16, literal(-4)))
        CFI ?BRET_EXT load(1, XDATA, add(CFA_XSP16, literal(-3)))
        CFI DPL0 load(1, XDATA, add(CFA_XSP16, literal(-2)))
        CFI DPH0 load(1, XDATA, add(CFA_XSP16, literal(-1)))
        CFI CFA_SP SP+0
        CFI CFA_XSP16 add(XSP16, 10)
        CFI Block cfiCond119 Using cfiCommon0
        CFI (cfiCond119) NoFunction
        CFI (cfiCond119) Conditional ??CrossCallReturnLabel_466
        CFI (cfiCond119) R6 load(1, XDATA, add(CFA_XSP16, literal(-12)))
        CFI (cfiCond119) VB load(1, XDATA, add(CFA_XSP16, literal(-11)))
        CFI (cfiCond119) V0 load(1, XDATA, add(CFA_XSP16, literal(-10)))
        CFI (cfiCond119) V1 load(1, XDATA, add(CFA_XSP16, literal(-9)))
        CFI (cfiCond119) V2 load(1, XDATA, add(CFA_XSP16, literal(-8)))
        CFI (cfiCond119) V3 load(1, XDATA, add(CFA_XSP16, literal(-7)))
        CFI (cfiCond119) R7 load(1, XDATA, add(CFA_XSP16, literal(-6)))
        CFI (cfiCond119) ?RET_LOW load(1, XDATA, add(CFA_XSP16, literal(-5)))
        CFI (cfiCond119) ?RET_HIGH load(1, XDATA, add(CFA_XSP16, literal(-4)))
        CFI (cfiCond119) ?BRET_EXT load(1, XDATA, add(CFA_XSP16, literal(-3)))
        CFI (cfiCond119) DPL0 load(1, XDATA, add(CFA_XSP16, literal(-2)))
        CFI (cfiCond119) DPH0 load(1, XDATA, add(CFA_XSP16, literal(-1)))
        CFI (cfiCond119) CFA_SP SP+0
        CFI (cfiCond119) CFA_XSP16 add(XSP16, 12)
        CFI Block cfiPicker120 Using cfiCommon1
        CFI (cfiPicker120) NoFunction
        CFI (cfiPicker120) Picker
        LCALL   ?Subroutine221 & 0xFFFF
        CFI EndBlock cfiCond118
        CFI EndBlock cfiCond119
        CFI EndBlock cfiPicker120
??CrossCallReturnLabel_863:
        REQUIRE ??Subroutine275_0
        ; // Fall through to label ??Subroutine275_0

        RSEG BANKED_CODE:CODE:NOROOT(0)
??Subroutine275_0:
        CFI Block cfiCond121 Using cfiCommon0
        CFI NoFunction
        CFI Conditional ??CrossCallReturnLabel_470
        CFI R6 load(1, XDATA, add(CFA_XSP16, literal(-12)))
        CFI VB load(1, XDATA, add(CFA_XSP16, literal(-11)))
        CFI V0 load(1, XDATA, add(CFA_XSP16, literal(-10)))
        CFI V1 load(1, XDATA, add(CFA_XSP16, literal(-9)))
        CFI V2 load(1, XDATA, add(CFA_XSP16, literal(-8)))
        CFI V3 load(1, XDATA, add(CFA_XSP16, literal(-7)))
        CFI R7 load(1, XDATA, add(CFA_XSP16, literal(-6)))
        CFI ?RET_LOW load(1, XDATA, add(CFA_XSP16, literal(-5)))
        CFI ?RET_HIGH load(1, XDATA, add(CFA_XSP16, literal(-4)))
        CFI ?BRET_EXT load(1, XDATA, add(CFA_XSP16, literal(-3)))
        CFI DPL0 load(1, XDATA, add(CFA_XSP16, literal(-2)))
        CFI DPH0 load(1, XDATA, add(CFA_XSP16, literal(-1)))
        CFI CFA_SP SP+0
        CFI CFA_XSP16 add(XSP16, 12)
        CFI Block cfiCond122 Using cfiCommon0
        CFI (cfiCond122) NoFunction
        CFI (cfiCond122) Conditional ??CrossCallReturnLabel_465
        CFI (cfiCond122) R6 load(1, XDATA, add(CFA_XSP16, literal(-10)))
        CFI (cfiCond122) VB load(1, XDATA, add(CFA_XSP16, literal(-9)))
        CFI (cfiCond122) V0 load(1, XDATA, add(CFA_XSP16, literal(-8)))
        CFI (cfiCond122) V1 load(1, XDATA, add(CFA_XSP16, literal(-7)))
        CFI (cfiCond122) R7 load(1, XDATA, add(CFA_XSP16, literal(-6)))
        CFI (cfiCond122) ?RET_LOW load(1, XDATA, add(CFA_XSP16, literal(-5)))
        CFI (cfiCond122) ?RET_HIGH load(1, XDATA, add(CFA_XSP16, literal(-4)))
        CFI (cfiCond122) ?BRET_EXT load(1, XDATA, add(CFA_XSP16, literal(-3)))
        CFI (cfiCond122) DPL0 load(1, XDATA, add(CFA_XSP16, literal(-2)))
        CFI (cfiCond122) DPH0 load(1, XDATA, add(CFA_XSP16, literal(-1)))
        CFI (cfiCond122) CFA_SP SP+0
        CFI (cfiCond122) CFA_XSP16 add(XSP16, 10)
        CFI Block cfiCond123 Using cfiCommon0
        CFI (cfiCond123) NoFunction
        CFI (cfiCond123) Conditional ??CrossCallReturnLabel_466
        CFI (cfiCond123) R6 load(1, XDATA, add(CFA_XSP16, literal(-12)))
        CFI (cfiCond123) VB load(1, XDATA, add(CFA_XSP16, literal(-11)))
        CFI (cfiCond123) V0 load(1, XDATA, add(CFA_XSP16, literal(-10)))
        CFI (cfiCond123) V1 load(1, XDATA, add(CFA_XSP16, literal(-9)))
        CFI (cfiCond123) V2 load(1, XDATA, add(CFA_XSP16, literal(-8)))
        CFI (cfiCond123) V3 load(1, XDATA, add(CFA_XSP16, literal(-7)))
        CFI (cfiCond123) R7 load(1, XDATA, add(CFA_XSP16, literal(-6)))
        CFI (cfiCond123) ?RET_LOW load(1, XDATA, add(CFA_XSP16, literal(-5)))
        CFI (cfiCond123) ?RET_HIGH load(1, XDATA, add(CFA_XSP16, literal(-4)))
        CFI (cfiCond123) ?BRET_EXT load(1, XDATA, add(CFA_XSP16, literal(-3)))
        CFI (cfiCond123) DPL0 load(1, XDATA, add(CFA_XSP16, literal(-2)))
        CFI (cfiCond123) DPH0 load(1, XDATA, add(CFA_XSP16, literal(-1)))
        CFI (cfiCond123) CFA_SP SP+0
        CFI (cfiCond123) CFA_XSP16 add(XSP16, 12)
        CFI Block cfiPicker124 Using cfiCommon1
        CFI (cfiPicker124) NoFunction
        CFI (cfiPicker124) Picker
        ADD     A,#-0x2
        CFI EndBlock cfiCond121
        CFI EndBlock cfiCond122
        CFI EndBlock cfiCond123
        CFI EndBlock cfiPicker124
        REQUIRE ??Subroutine276_0
        ; // Fall through to label ??Subroutine276_0

        RSEG BANKED_CODE:CODE:NOROOT(0)
??Subroutine276_0:
        CFI Block cfiCond125 Using cfiCommon0
        CFI NoFunction
        CFI Conditional ??CrossCallReturnLabel_469
        CFI R6 load(1, XDATA, add(CFA_XSP16, literal(-11)))
        CFI VB load(1, XDATA, add(CFA_XSP16, literal(-10)))
        CFI V0 load(1, XDATA, add(CFA_XSP16, literal(-9)))
        CFI V1 load(1, XDATA, add(CFA_XSP16, literal(-8)))
        CFI V2 load(1, XDATA, add(CFA_XSP16, literal(-7)))
        CFI R7 load(1, XDATA, add(CFA_XSP16, literal(-6)))
        CFI ?RET_LOW load(1, XDATA, add(CFA_XSP16, literal(-5)))
        CFI ?RET_HIGH load(1, XDATA, add(CFA_XSP16, literal(-4)))
        CFI ?BRET_EXT load(1, XDATA, add(CFA_XSP16, literal(-3)))
        CFI DPL0 load(1, XDATA, add(CFA_XSP16, literal(-2)))
        CFI DPH0 load(1, XDATA, add(CFA_XSP16, literal(-1)))
        CFI CFA_SP SP+0
        CFI CFA_XSP16 add(XSP16, 11)
        CFI Block cfiCond126 Using cfiCommon0
        CFI (cfiCond126) NoFunction
        CFI (cfiCond126) Conditional ??CrossCallReturnLabel_470
        CFI (cfiCond126) R6 load(1, XDATA, add(CFA_XSP16, literal(-12)))
        CFI (cfiCond126) VB load(1, XDATA, add(CFA_XSP16, literal(-11)))
        CFI (cfiCond126) V0 load(1, XDATA, add(CFA_XSP16, literal(-10)))
        CFI (cfiCond126) V1 load(1, XDATA, add(CFA_XSP16, literal(-9)))
        CFI (cfiCond126) V2 load(1, XDATA, add(CFA_XSP16, literal(-8)))
        CFI (cfiCond126) V3 load(1, XDATA, add(CFA_XSP16, literal(-7)))
        CFI (cfiCond126) R7 load(1, XDATA, add(CFA_XSP16, literal(-6)))
        CFI (cfiCond126) ?RET_LOW load(1, XDATA, add(CFA_XSP16, literal(-5)))
        CFI (cfiCond126) ?RET_HIGH load(1, XDATA, add(CFA_XSP16, literal(-4)))
        CFI (cfiCond126) ?BRET_EXT load(1, XDATA, add(CFA_XSP16, literal(-3)))
        CFI (cfiCond126) DPL0 load(1, XDATA, add(CFA_XSP16, literal(-2)))
        CFI (cfiCond126) DPH0 load(1, XDATA, add(CFA_XSP16, literal(-1)))
        CFI (cfiCond126) CFA_SP SP+0
        CFI (cfiCond126) CFA_XSP16 add(XSP16, 12)
        CFI Block cfiCond127 Using cfiCommon0
        CFI (cfiCond127) NoFunction
        CFI (cfiCond127) Conditional ??CrossCallReturnLabel_465
        CFI (cfiCond127) R6 load(1, XDATA, add(CFA_XSP16, literal(-10)))
        CFI (cfiCond127) VB load(1, XDATA, add(CFA_XSP16, literal(-9)))
        CFI (cfiCond127) V0 load(1, XDATA, add(CFA_XSP16, literal(-8)))
        CFI (cfiCond127) V1 load(1, XDATA, add(CFA_XSP16, literal(-7)))
        CFI (cfiCond127) R7 load(1, XDATA, add(CFA_XSP16, literal(-6)))
        CFI (cfiCond127) ?RET_LOW load(1, XDATA, add(CFA_XSP16, literal(-5)))
        CFI (cfiCond127) ?RET_HIGH load(1, XDATA, add(CFA_XSP16, literal(-4)))
        CFI (cfiCond127) ?BRET_EXT load(1, XDATA, add(CFA_XSP16, literal(-3)))
        CFI (cfiCond127) DPL0 load(1, XDATA, add(CFA_XSP16, literal(-2)))
        CFI (cfiCond127) DPH0 load(1, XDATA, add(CFA_XSP16, literal(-1)))
        CFI (cfiCond127) CFA_SP SP+0
        CFI (cfiCond127) CFA_XSP16 add(XSP16, 10)
        CFI Block cfiCond128 Using cfiCommon0
        CFI (cfiCond128) NoFunction
        CFI (cfiCond128) Conditional ??CrossCallReturnLabel_466
        CFI (cfiCond128) R6 load(1, XDATA, add(CFA_XSP16, literal(-12)))
        CFI (cfiCond128) VB load(1, XDATA, add(CFA_XSP16, literal(-11)))
        CFI (cfiCond128) V0 load(1, XDATA, add(CFA_XSP16, literal(-10)))
        CFI (cfiCond128) V1 load(1, XDATA, add(CFA_XSP16, literal(-9)))
        CFI (cfiCond128) V2 load(1, XDATA, add(CFA_XSP16, literal(-8)))
        CFI (cfiCond128) V3 load(1, XDATA, add(CFA_XSP16, literal(-7)))
        CFI (cfiCond128) R7 load(1, XDATA, add(CFA_XSP16, literal(-6)))
        CFI (cfiCond128) ?RET_LOW load(1, XDATA, add(CFA_XSP16, literal(-5)))
        CFI (cfiCond128) ?RET_HIGH load(1, XDATA, add(CFA_XSP16, literal(-4)))
        CFI (cfiCond128) ?BRET_EXT load(1, XDATA, add(CFA_XSP16, literal(-3)))
        CFI (cfiCond128) DPL0 load(1, XDATA, add(CFA_XSP16, literal(-2)))
        CFI (cfiCond128) DPH0 load(1, XDATA, add(CFA_XSP16, literal(-1)))
        CFI (cfiCond128) CFA_SP SP+0
        CFI (cfiCond128) CFA_XSP16 add(XSP16, 12)
        CFI Block cfiPicker129 Using cfiCommon1
        CFI (cfiPicker129) NoFunction
        CFI (cfiPicker129) Picker
        MOV     R0,A
        CFI EndBlock cfiCond125
        CFI EndBlock cfiCond126
        CFI EndBlock cfiCond127
        CFI EndBlock cfiCond128
        CFI EndBlock cfiPicker129
        REQUIRE ??Subroutine277_0
        ; // Fall through to label ??Subroutine277_0

        RSEG BANKED_CODE:CODE:NOROOT(0)
??Subroutine277_0:
        CFI Block cfiCond130 Using cfiCommon0
        CFI NoFunction
        CFI Conditional ??CrossCallReturnLabel_467
        CFI R6 load(1, XDATA, add(CFA_XSP16, literal(-10)))
        CFI VB load(1, XDATA, add(CFA_XSP16, literal(-9)))
        CFI V0 load(1, XDATA, add(CFA_XSP16, literal(-8)))
        CFI V1 load(1, XDATA, add(CFA_XSP16, literal(-7)))
        CFI R7 load(1, XDATA, add(CFA_XSP16, literal(-6)))
        CFI ?RET_LOW load(1, XDATA, add(CFA_XSP16, literal(-5)))
        CFI ?RET_HIGH load(1, XDATA, add(CFA_XSP16, literal(-4)))
        CFI ?BRET_EXT load(1, XDATA, add(CFA_XSP16, literal(-3)))
        CFI DPL0 load(1, XDATA, add(CFA_XSP16, literal(-2)))
        CFI DPH0 load(1, XDATA, add(CFA_XSP16, literal(-1)))
        CFI CFA_SP SP+0
        CFI CFA_XSP16 add(XSP16, 10)
        CFI Block cfiCond131 Using cfiCommon0
        CFI (cfiCond131) NoFunction
        CFI (cfiCond131) Conditional ??CrossCallReturnLabel_468
        CFI (cfiCond131) R6 load(1, XDATA, add(CFA_XSP16, literal(-12)))
        CFI (cfiCond131) VB load(1, XDATA, add(CFA_XSP16, literal(-11)))
        CFI (cfiCond131) V0 load(1, XDATA, add(CFA_XSP16, literal(-10)))
        CFI (cfiCond131) V1 load(1, XDATA, add(CFA_XSP16, literal(-9)))
        CFI (cfiCond131) V2 load(1, XDATA, add(CFA_XSP16, literal(-8)))
        CFI (cfiCond131) V3 load(1, XDATA, add(CFA_XSP16, literal(-7)))
        CFI (cfiCond131) R7 load(1, XDATA, add(CFA_XSP16, literal(-6)))
        CFI (cfiCond131) ?RET_LOW load(1, XDATA, add(CFA_XSP16, literal(-5)))
        CFI (cfiCond131) ?RET_HIGH load(1, XDATA, add(CFA_XSP16, literal(-4)))
        CFI (cfiCond131) ?BRET_EXT load(1, XDATA, add(CFA_XSP16, literal(-3)))
        CFI (cfiCond131) DPL0 load(1, XDATA, add(CFA_XSP16, literal(-2)))
        CFI (cfiCond131) DPH0 load(1, XDATA, add(CFA_XSP16, literal(-1)))
        CFI (cfiCond131) CFA_SP SP+0
        CFI (cfiCond131) CFA_XSP16 add(XSP16, 12)
        CFI Block cfiCond132 Using cfiCommon0
        CFI (cfiCond132) NoFunction
        CFI (cfiCond132) Conditional ??CrossCallReturnLabel_469
        CFI (cfiCond132) R6 load(1, XDATA, add(CFA_XSP16, literal(-11)))
        CFI (cfiCond132) VB load(1, XDATA, add(CFA_XSP16, literal(-10)))
        CFI (cfiCond132) V0 load(1, XDATA, add(CFA_XSP16, literal(-9)))
        CFI (cfiCond132) V1 load(1, XDATA, add(CFA_XSP16, literal(-8)))
        CFI (cfiCond132) V2 load(1, XDATA, add(CFA_XSP16, literal(-7)))
        CFI (cfiCond132) R7 load(1, XDATA, add(CFA_XSP16, literal(-6)))
        CFI (cfiCond132) ?RET_LOW load(1, XDATA, add(CFA_XSP16, literal(-5)))
        CFI (cfiCond132) ?RET_HIGH load(1, XDATA, add(CFA_XSP16, literal(-4)))
        CFI (cfiCond132) ?BRET_EXT load(1, XDATA, add(CFA_XSP16, literal(-3)))
        CFI (cfiCond132) DPL0 load(1, XDATA, add(CFA_XSP16, literal(-2)))
        CFI (cfiCond132) DPH0 load(1, XDATA, add(CFA_XSP16, literal(-1)))
        CFI (cfiCond132) CFA_SP SP+0
        CFI (cfiCond132) CFA_XSP16 add(XSP16, 11)
        CFI Block cfiCond133 Using cfiCommon0
        CFI (cfiCond133) NoFunction
        CFI (cfiCond133) Conditional ??CrossCallReturnLabel_470
        CFI (cfiCond133) R6 load(1, XDATA, add(CFA_XSP16, literal(-12)))
        CFI (cfiCond133) VB load(1, XDATA, add(CFA_XSP16, literal(-11)))
        CFI (cfiCond133) V0 load(1, XDATA, add(CFA_XSP16, literal(-10)))
        CFI (cfiCond133) V1 load(1, XDATA, add(CFA_XSP16, literal(-9)))
        CFI (cfiCond133) V2 load(1, XDATA, add(CFA_XSP16, literal(-8)))
        CFI (cfiCond133) V3 load(1, XDATA, add(CFA_XSP16, literal(-7)))
        CFI (cfiCond133) R7 load(1, XDATA, add(CFA_XSP16, literal(-6)))
        CFI (cfiCond133) ?RET_LOW load(1, XDATA, add(CFA_XSP16, literal(-5)))
        CFI (cfiCond133) ?RET_HIGH load(1, XDATA, add(CFA_XSP16, literal(-4)))
        CFI (cfiCond133) ?BRET_EXT load(1, XDATA, add(CFA_XSP16, literal(-3)))
        CFI (cfiCond133) DPL0 load(1, XDATA, add(CFA_XSP16, literal(-2)))
        CFI (cfiCond133) DPH0 load(1, XDATA, add(CFA_XSP16, literal(-1)))
        CFI (cfiCond133) CFA_SP SP+0
        CFI (cfiCond133) CFA_XSP16 add(XSP16, 12)
        CFI Block cfiCond134 Using cfiCommon0
        CFI (cfiCond134) NoFunction
