###############################################################################
#                                                                             #
# IAR C/C++ Compiler V8.10.4.40412/W32 for 8051         13/Aug/2016  11:58:48 #
# Copyright 2004-2011 IAR Systems AB.                                         #
#                                                                             #
#    Core               =  plain                                              #
#    Code model         =  banked                                             #
#    Data model         =  large                                              #
#    Calling convention =  xdata reentrant                                    #
#    Constant location  =  data                                               #
#    Dptr setup         =  1,16                                               #
#    Source file        =  C:\Users\freeman\Documents\work\NBK\Canon\Nbk600EX #
#                           - RF\Components\mac\low_level\srf04\mac_rf.c      #
#    Command line       =  -f "C:\Users\freeman\Documents\work\NBK\Canon\Nbk6 #
#                          00EX - RF\Projects\zstack\Samples\SampleApp        #
#                          com\CC2530DB\..\..\..\Tools\CC2530DB\f8wCoord.cfg" #
#                           (-DCPU32MHZ -DROOT=__near_func                    #
#                          -DMAC_CFG_APP_PENDING_QUEUE=TRUE                   #
#                          -DZDO_COORDINATOR -DRTR_NWK -DBLINK_LEDS) -f       #
#                          "C:\Users\freeman\Documents\work\NBK\Canon\Nbk600E #
#                          X - RF\Projects\zstack\Samples\SampleApp           #
#                          com\CC2530DB\..\..\..\Tools\CC2530DB\f8wConfig.cfg #
#                          " (-DSECURE=0 -DZG_SECURE_DYNAMIC=0 -DREFLECTOR    #
#                          -DDEFAULT_CHANLIST=0x00000800                      #
#                          -DZDAPP_CONFIG_PAN_ID=0xFFF0                       #
#                          -DNWK_START_DELAY=100 -DEXTENDED_JOINING_RANDOM_MA #
#                          SK=0x007F -DBEACON_REQUEST_DELAY=100               #
#                          -DBEACON_REQ_DELAY_MASK=0x00FF                     #
#                          -DROUTE_EXPIRY_TIME=30 -DAPSC_ACK_WAIT_DURATION_PO #
#                          LLED=3000 -DNWK_INDIRECT_MSG_TIMEOUT=7             #
#                          -DMAX_RREQ_ENTRIES=8 -DAPSC_MAX_FRAME_RETRIES=3    #
#                          -DNWK_MAX_DATA_RETRIES=2                           #
#                          -DMAX_POLL_FAILURE_RETRIES=2 -DMAX_BCAST=9         #
#                          -DAPS_MAX_GROUPS=16 -DMAX_RTG_ENTRIES=40           #
#                          -DNWK_MAX_BINDING_ENTRIES=4                        #
#                          -DMAX_BINDING_CLUSTER_IDS=4 "-DDEFAULT_KEY={0x01,  #
#                          0x03, 0x05, 0x07, 0x09, 0x0B, 0x0D, 0x0F, 0x00,    #
#                          0x02, 0x04, 0x06, 0x08, 0x0A, 0x0C, 0x0D}"         #
#                          -DMAC_MAX_FRAME_SIZE=116 "-DCONST=const __code"    #
#                          -DGENERIC=__generic -DRFD_RCVC_ALWAYS_ON=FALSE     #
#                          -DPOLL_RATE=1000 -DQUEUED_POLL_RATE=100            #
#                          -DRESPONSE_POLL_RATE=100) -DREJOIN_POLL_RATE=440   #
#                          "C:\Users\freeman\Documents\work\NBK\Canon\Nbk600E #
#                          X - RF\Components\mac\low_level\srf04\mac_rf.c"    #
#                          -D ZIGBEEPRO -D ZTOOL_P1 -lC                       #
#                          "C:\Users\freeman\Documents\work\NBK\Canon\Nbk600E #
#                          X - RF\Projects\zstack\Samples\SampleApp           #
#                          com\CC2530DB\CoordinatorEB\List\" -lA              #
#                          "C:\Users\freeman\Documents\work\NBK\Canon\Nbk600E #
#                          X - RF\Projects\zstack\Samples\SampleApp           #
#                          com\CC2530DB\CoordinatorEB\List\" --diag_suppress  #
#                          Pe001,Pa010 -o "C:\Users\freeman\Documents\work\NB #
#                          K\Canon\Nbk600EX - RF\Projects\zstack\Samples\Samp #
#                          leApp com\CC2530DB\CoordinatorEB\Obj\" -e --debug  #
#                          --core=plain --dptr=16,1 --data_model=large        #
#                          --code_model=banked --calling_convention=xdata_ree #
#                          ntrant --place_constants=data --nr_virtual_regs    #
#                          16 -I "C:\Users\freeman\Documents\work\NBK\Canon\N #
#                          bk600EX - RF\Projects\zstack\Samples\SampleApp     #
#                          com\CC2530DB\" -I "C:\Users\freeman\Documents\work #
#                          \NBK\Canon\Nbk600EX - RF\Projects\zstack\Samples\S #
#                          ampleApp com\CC2530DB\..\SOURCE\" -I               #
#                          "C:\Users\freeman\Documents\work\NBK\Canon\Nbk600E #
#                          X - RF\Projects\zstack\Samples\SampleApp           #
#                          com\CC2530DB\..\..\..\ZMAIN\TI2530DB\" -I          #
#                          "C:\Users\freeman\Documents\work\NBK\Canon\Nbk600E #
#                          X - RF\Projects\zstack\Samples\SampleApp           #
#                          com\CC2530DB\..\..\..\..\..\COMPONENTS\MT\" -I     #
#                          "C:\Users\freeman\Documents\work\NBK\Canon\Nbk600E #
#                          X - RF\Projects\zstack\Samples\SampleApp           #
#                          com\CC2530DB\..\..\..\..\..\COMPONENTS\HAL\INCLUDE #
#                          \" -I "C:\Users\freeman\Documents\work\NBK\Canon\N #
#                          bk600EX - RF\Projects\zstack\Samples\SampleApp     #
#                          com\CC2530DB\..\..\..\..\..\COMPONENTS\HAL\TARGET\ #
#                          CC2530EB\" -I "C:\Users\freeman\Documents\work\NBK #
#                          \Canon\Nbk600EX - RF\Projects\zstack\Samples\Sampl #
#                          eApp com\CC2530DB\..\..\..\..\..\COMPONENTS\OSAL\M #
#                          CU\CCSOC\" -I "C:\Users\freeman\Documents\work\NBK #
#                          \Canon\Nbk600EX - RF\Projects\zstack\Samples\Sampl #
#                          eApp com\CC2530DB\..\..\..\..\..\COMPONENTS\OSAL\I #
#                          NCLUDE\" -I "C:\Users\freeman\Documents\work\NBK\C #
#                          anon\Nbk600EX - RF\Projects\zstack\Samples\SampleA #
#                          pp com\CC2530DB\..\..\..\..\..\COMPONENTS\STACK\AF #
#                          \" -I "C:\Users\freeman\Documents\work\NBK\Canon\N #
#                          bk600EX - RF\Projects\zstack\Samples\SampleApp     #
#                          com\CC2530DB\..\..\..\..\..\COMPONENTS\STACK\NWK\" #
#                           -I "C:\Users\freeman\Documents\work\NBK\Canon\Nbk #
#                          600EX - RF\Projects\zstack\Samples\SampleApp       #
#                          com\CC2530DB\..\..\..\..\..\COMPONENTS\STACK\SEC\" #
#                           -I "C:\Users\freeman\Documents\work\NBK\Canon\Nbk #
#                          600EX - RF\Projects\zstack\Samples\SampleApp       #
#                          com\CC2530DB\..\..\..\..\..\COMPONENTS\STACK\SAPI\ #
#                          " -I "C:\Users\freeman\Documents\work\NBK\Canon\Nb #
#                          k600EX - RF\Projects\zstack\Samples\SampleApp      #
#                          com\CC2530DB\..\..\..\..\..\COMPONENTS\STACK\SYS\" #
#                           -I "C:\Users\freeman\Documents\work\NBK\Canon\Nbk #
#                          600EX - RF\Projects\zstack\Samples\SampleApp       #
#                          com\CC2530DB\..\..\..\..\..\COMPONENTS\STACK\ZDO\" #
#                           -I "C:\Users\freeman\Documents\work\NBK\Canon\Nbk #
#                          600EX - RF\Projects\zstack\Samples\SampleApp       #
#                          com\CC2530DB\..\..\..\..\..\COMPONENTS\ZMAC\F8W\"  #
#                          -I "C:\Users\freeman\Documents\work\NBK\Canon\Nbk6 #
#                          00EX - RF\Projects\zstack\Samples\SampleApp        #
#                          com\CC2530DB\..\..\..\..\..\COMPONENTS\ZMAC\" -I   #
#                          "C:\Users\freeman\Documents\work\NBK\Canon\Nbk600E #
#                          X - RF\Projects\zstack\Samples\SampleApp           #
#                          com\CC2530DB\..\..\..\..\..\COMPONENTS\SERVICES\SA #
#                          DDR\" -I "C:\Users\freeman\Documents\work\NBK\Cano #
#                          n\Nbk600EX - RF\Projects\zstack\Samples\SampleApp  #
#                          com\CC2530DB\..\..\..\..\..\COMPONENTS\SERVICES\SD #
#                          ATA\" -I "C:\Users\freeman\Documents\work\NBK\Cano #
#                          n\Nbk600EX - RF\Projects\zstack\Samples\SampleApp  #
#                          com\CC2530DB\..\..\..\..\..\COMPONENTS\MAC\INCLUDE #
#                          \" -I "C:\Users\freeman\Documents\work\NBK\Canon\N #
#                          bk600EX - RF\Projects\zstack\Samples\SampleApp     #
#                          com\CC2530DB\..\..\..\..\..\COMPONENTS\MAC\HIGH_LE #
#                          VEL\" -I "C:\Users\freeman\Documents\work\NBK\Cano #
#                          n\Nbk600EX - RF\Projects\zstack\Samples\SampleApp  #
#                          com\CC2530DB\..\..\..\..\..\COMPONENTS\MAC\LOW_LEV #
#                          EL\srf04\" -I "C:\Users\freeman\Documents\work\NBK #
#                          \Canon\Nbk600EX - RF\Projects\zstack\Samples\Sampl #
#                          eApp com\CC2530DB\..\..\..\..\..\COMPONENTS\MAC\LO #
#                          W_LEVEL\srf04\SINGLE_CHIP\" -Ohz                   #
#                          --require_prototypes                               #
#    List file          =  C:\Users\freeman\Documents\work\NBK\Canon\Nbk600EX #
#                           - RF\Projects\zstack\Samples\SampleApp            #
#                          com\CC2530DB\CoordinatorEB\List\mac_rf.lst         #
#    Object file        =  C:\Users\freeman\Documents\work\NBK\Canon\Nbk600EX #
#                           - RF\Projects\zstack\Samples\SampleApp            #
#                          com\CC2530DB\CoordinatorEB\Obj\mac_rf.r51          #
#                                                                             #
#                                                                             #
###############################################################################

C:\Users\freeman\Documents\work\NBK\Canon\Nbk600EX - RF\Components\mac\low_level\srf04\mac_rf.c
      1          #include "mac_api.h"
      2          #include "mac_rf.h"
      3          #include "mac_radio_defs.h"

   \                                 In  segment SFR_AN, at 0x80
   \   union <unnamed> volatile __sfr _A_P0
   \                     _A_P0:
   \   000000                DS 1

   \                                 In  segment SFR_AN, at 0x89
   \   unsigned char volatile __sfr P0IFG
   \                     P0IFG:
   \   000000                DS 1

   \                                 In  segment SFR_AN, at 0x8c
   \   unsigned char volatile __sfr PICTL
   \                     PICTL:
   \   000000                DS 1

   \                                 In  segment SFR_AN, at 0x8f
   \   unsigned char volatile __sfr P0INP
   \                     P0INP:
   \   000000                DS 1

   \                                 In  segment SFR_AN, at 0x90
   \   union <unnamed> volatile __sfr _A_P1
   \                     _A_P1:
   \   000000                DS 1

   \                                 In  segment SFR_AN, at 0x91
   \   unsigned char volatile __sfr RFIRQF1
   \                     RFIRQF1:
   \   000000                DS 1

   \                                 In  segment SFR_AN, at 0x9a
   \   unsigned char volatile __sfr IEN2
   \                     IEN2:
   \   000000                DS 1

   \                                 In  segment SFR_AN, at 0xa8
   \   union <unnamed> volatile __sfr _A_IEN0
   \                     _A_IEN0:
   \   000000                DS 1

   \                                 In  segment SFR_AN, at 0xab
   \   unsigned char volatile __sfr P0IEN
   \                     P0IEN:
   \   000000                DS 1

   \                                 In  segment SFR_AN, at 0xb1
   \   unsigned char volatile __sfr ENCDI
   \                     ENCDI:
   \   000000                DS 1

   \                                 In  segment SFR_AN, at 0xb2
   \   unsigned char volatile __sfr ENCDO
   \                     ENCDO:
   \   000000                DS 1

   \                                 In  segment SFR_AN, at 0xb3
   \   unsigned char volatile __sfr ENCCS
   \                     ENCCS:
   \   000000                DS 1

   \                                 In  segment SFR_AN, at 0xb8
   \   union <unnamed> volatile __sfr _A_IEN1
   \                     _A_IEN1:
   \   000000                DS 1

   \                                 In  segment SFR_AN, at 0xc0
   \   union <unnamed> volatile __sfr _A_IRCON
   \                     _A_IRCON:
   \   000000                DS 1

   \                                 In  segment SFR_AN, at 0xe1
   \   unsigned char volatile __sfr RFST
   \                     RFST:
   \   000000                DS 1

   \                                 In  segment SFR_AN, at 0xf3
   \   unsigned char volatile __sfr P0SEL
   \                     P0SEL:
   \   000000                DS 1

   \                                 In  segment SFR_AN, at 0xfd
   \   unsigned char volatile __sfr P0DIR
   \                     P0DIR:
   \   000000                DS 1
      4          #include "mac_mem.h"
      5          #include "comdef.h"
      6          #include "osal.h"
      7          #include "hal_types.h"
      8          #include "AF.h"

  typedef uint16  UINT16;
                  ^
"C:\Users\freeman\Documents\work\NBK\Canon\Nbk600EX - RF\COMPONENTS\OSAL\INCLUDE\ZComDef.h",202  Warning[Pe301]: 
          typedef name has already been declared (with same type)

  typedef int16   INT16;
                  ^
"C:\Users\freeman\Documents\work\NBK\Canon\Nbk600EX - RF\COMPONENTS\OSAL\INCLUDE\ZComDef.h",203  Warning[Pe301]: 
          typedef name has already been declared (with same type)
      9          #include "mac_low_level.h"
     10          #include "mac_rx_onoff.h"
     11          #include "hal_uart.h"
     12          #include "mac_rx.h"
     13          #include <stdio.h>
     14          #include "OSAL_Nv.h"
     15          #include "hal_flash.h"
     16          
     17          #ifdef IO_INDEX_TEST
     18          #include "ioCC2531.h"
     19          #endif
     20          
     21          extern void osal_sleep_timers(void);
     22          extern void halSleep( uint16 osal_timeout );
     23          extern void macTxDoneCallback(void);
     24          //-C $PROJ_DIR$\..\..\..\Libraries\TI2530DB\bin\Security.lib
     25          //-f $PROJ_DIR$\..\..\..\Tools\CC2530DB\f8wConfig.cfg
     26          #define MODELING_STYLE_APERT 	0
     27          #define MODELING_STYLE_STEX	1
     28          #define MODELING_STYLE_BOTH	2
     29          #define MODELING_STYLE_OFF		3
     30          
     31          #define	MAX_UART_DATA_LEN	64
     32          
     33          #define DEVICE_ATTRIBUTE_SLAVE		0
     34          #define DEVICE_ATTRIBUTE_MAST 		1
     35          #define DEVICE_ATTRIBUTE_LINKSHOT	2
     36          
     37          #define TI_EXTADDR  PXREG( 0x780C )  /* Pointer to Start of Flash Information Page          */
     38          #define MACEX_READ_IEEE_ADDR(p)                macMemReadRam((macRam_t *) &TI_EXTADDR, p, 8)

   \                                 In  segment XDATA_Z, align 1, keep-with-next
     39          static uint8 txMpdu[BASIC_RF_MAX_PAYLOAD_SIZE+BASIC_RF_PACKET_OVERHEAD_SIZE+1];
   \                     txMpdu:
   \   000000                DS 115
   \   000073                REQUIRE __INIT_XDATA_Z

   \                                 In  segment XDATA_Z, align 1, keep-with-next
     40          static uint8 g_extAddr[8];// = {0x38,0x15,0xC6,0xFE,0xFF,0x17,0x87,0x88};
   \                     g_extAddr:
   \   000000                DS 8
   \   000008                REQUIRE __INIT_XDATA_Z

   \                                 In  segment XDATA_Z, align 1, keep-with-next
     41          static uint8 g_extAddrSrc[8];
   \                     g_extAddrSrc:
   \   000000                DS 8
   \   000008                REQUIRE __INIT_XDATA_Z

   \                                 In  segment XDATA_Z, align 1, keep-with-next
     42          static uint8 g_extAddrVef[8];
   \                     g_extAddrVef:
   \   000000                DS 8
   \   000008                REQUIRE __INIT_XDATA_Z

   \                                 In  segment XDATA_I, align 1, keep-with-next
     43          uint8 g_modelingStyle = 1;
   \                     g_modelingStyle:
   \   000000                DS 1
   \   000001                REQUIRE `?<Initializer for g_modelingStyle>`
   \   000001                REQUIRE __INIT_XDATA_I
     44          //static uint8 pilotCommand[] = {0x17,0x00,0xFF,0x47,0x00,0x00,0x48,0x0A,0x06,0x98,0x07,0x06,0x98,0x07,0x06,0x98,0x07,0x06,0x98,0x07,0x06,0x98,0x07};

   \                                 In  segment XDATA_I, align 1, keep-with-next
     45          const uint8 preCmdBuf[] = 	{0x17,0x00,0xFF,0x47};//0x75,0x30,0x60,0x04,0x01,0xA0,0x04,0x01,0xA0,0x04,0x01,0xA0,0x04,0x01,0x00,0x00,0x01,0x00,0x00};
   \                     preCmdBuf:
   \   000000                DS 4
   \   000004                REQUIRE `?<Initializer for preCmdBuf>`
   \   000004                REQUIRE __INIT_XDATA_I
     46          //uint8 flashCmd[] = 	{0x17,0x00,0xFF,0x47,0x75,0x30,0x60,0x04,0x01,0x9E,0x03,0x01,0x9E,0x03,0x01,0x9E,0x03,0x01,0x00,0x00,0x01,0x00,0x00};

   \                                 In  segment XDATA_I, align 1, keep-with-next
     47          const uint8 multiCmd[] = {0x0F,0x00,0xFF,0x48};
   \                     multiCmd:
   \   000000                DS 4
   \   000004                REQUIRE `?<Initializer for multiCmd>`
   \   000004                REQUIRE __INIT_XDATA_I

   \                                 In  segment XDATA_Z, align 1, keep-with-next
     48          unsigned char rcvBuf[UART_RCVBUF_LEN];
   \                     rcvBuf:
   \   000000                DS 80
   \   000050                REQUIRE __INIT_XDATA_Z

   \                                 In  segment XDATA_Z, align 1, keep-with-next
     49          basicRfCfg_t* pConfig;
   \                     pConfig:
   \   000000                DS 2
   \   000002                REQUIRE __INIT_XDATA_Z

   \                                 In  segment XDATA_Z, align 1, keep-with-next
     50          static basicRfCfg_t basicRfConfig;
   \                     basicRfConfig:
   \   000000                DS 296
   \   000128                REQUIRE __INIT_XDATA_Z

   \                                 In  segment XDATA_Z, align 1, keep-with-next
     51          static basicRfTxState_t txState=  { 0x00 }; // initialised and distinct
   \                     txState:
   \   000000                DS 8
   \   000008                REQUIRE __INIT_XDATA_Z

   \                                 In  segment XDATA_Z, align 1, keep-with-next
     52          uint8 macEx_taskId;
   \                     macEx_taskId:
   \   000000                DS 1
   \   000001                REQUIRE __INIT_XDATA_Z

   \                                 In  segment XDATA_Z, align 1, keep-with-next
     53          uint8 g_quireFlag=0;
   \                     g_quireFlag:
   \   000000                DS 1
   \   000001                REQUIRE __INIT_XDATA_Z
     54          //uint8 g_linkedMode = 0;
     55          //uint8 g_isMaster = CMD_MODE_RF_MST;
     56          //uint8 g_isMaster = MSTDEV_MODE_DEV;

   \                                 In  segment XDATA_Z, align 1, keep-with-next
     57          uint8 g_isMaster = CMD_MODE_OFF;
   \                     g_isMaster:
   \   000000                DS 1
   \   000001                REQUIRE __INIT_XDATA_Z
     58          //uint8 g_isMaster = CMD_MODE_RF_SLA;
     59          //uint8 g_isMaster = CMD_MODE_RFLS_SLA;

   \                                 In  segment XDATA_Z, align 1, keep-with-next
     60          uint8 g_mstHold = 0;				
   \                     g_mstHold:
   \   000000                DS 1
   \   000001                REQUIRE __INIT_XDATA_Z
     61          //DeviceInfo deviceInfo[128];

   \                                 In  segment XDATA_I, align 1, keep-with-next
     62          basicRfRxInfo_t  rxi={ 0xFF };
   \                     rxi:
   \   000000                DS 12
   \   00000C                REQUIRE `?<Initializer for rxi>`
   \   00000C                REQUIRE __INIT_XDATA_I

   \                                 In  segment XDATA_Z, align 1, keep-with-next
     63          uint8 g_sendLen = 0;
   \                     g_sendLen:
   \   000000                DS 1
   \   000001                REQUIRE __INIT_XDATA_Z
     64          //static uint8 g_netCheckFlag=0;

   \                                 In  segment XDATA_Z, align 1, keep-with-next
     65          DeviceInfo * pCurrentDev=NULL;
   \                     pCurrentDev:
   \   000000                DS 2
   \   000002                REQUIRE __INIT_XDATA_Z

   \                                 In  segment XDATA_Z, align 1, keep-with-next
     66          int16 g_msTick=0;
   \                     g_msTick:
   \   000000                DS 2
   \   000002                REQUIRE __INIT_XDATA_Z

   \                                 In  segment XDATA_Z, align 1, keep-with-next
     67          uint8 g_slaLinkSta=0;
   \                     g_slaLinkSta:
   \   000000                DS 1
   \   000001                REQUIRE __INIT_XDATA_Z

   \                                 In  segment XDATA_Z, align 1, keep-with-next
     68          static int8 s_rxFlag=0;
   \                     s_rxFlag:
   \   000000                DS 1
   \   000001                REQUIRE __INIT_XDATA_Z

   \                                 In  segment XDATA_Z, align 1, keep-with-next
     69          static int8 s_ready=0; 
   \                     s_ready:
   \   000000                DS 1
   \   000001                REQUIRE __INIT_XDATA_Z

   \                                 In  segment XDATA_Z, align 1, keep-with-next
     70          uint8 g_netStart=0;
   \                     g_netStart:
   \   000000                DS 1
   \   000001                REQUIRE __INIT_XDATA_Z
     71          //uint8 g_expireCounter = 0;

   \                                 In  segment XDATA_Z, align 1, keep-with-next
     72          uint8 g_initCheck=0;
   \                     g_initCheck:
   \   000000                DS 1
   \   000001                REQUIRE __INIT_XDATA_Z

   \                                 In  segment XDATA_Z, align 1, keep-with-next
     73          uint8 g_swMode=0;
   \                     g_swMode:
   \   000000                DS 1
   \   000001                REQUIRE __INIT_XDATA_Z

   \                                 In  segment XDATA_Z, align 1, keep-with-next
     74          uint8 g_swRfChan=0;
   \                     g_swRfChan:
   \   000000                DS 1
   \   000001                REQUIRE __INIT_XDATA_Z

   \                                 In  segment XDATA_Z, align 1, keep-with-next
     75          uint16 g_swRfId=0;
   \                     g_swRfId:
   \   000000                DS 2
   \   000002                REQUIRE __INIT_XDATA_Z

   \                                 In  segment XDATA_Z, align 1, keep-with-next
     76          uint8 g_grInfo = 0;
   \                     g_grInfo:
   \   000000                DS 1
   \   000001                REQUIRE __INIT_XDATA_Z

   \                                 In  segment XDATA_I, align 1, keep-with-next
     77          IpReserve ipRsv={0x0E,0x00};
   \                     ipRsv:
   \   000000                DS 4
   \   000004                REQUIRE `?<Initializer for ipRsv>`
   \   000004                REQUIRE __INIT_XDATA_I

   \                                 In  segment XDATA_Z, align 1, keep-with-next
     78          uint8 g_devLinkFlag=0;
   \                     g_devLinkFlag:
   \   000000                DS 1
   \   000001                REQUIRE __INIT_XDATA_Z

   \                                 In  segment XDATA_Z, align 1, keep-with-next
     79          uint8 g_flaStatus=0;
   \                     g_flaStatus:
   \   000000                DS 1
   \   000001                REQUIRE __INIT_XDATA_Z

   \                                 In  segment XDATA_Z, align 1, keep-with-next
     80          uint8 g_hpFlag=0;
   \                     g_hpFlag:
   \   000000                DS 1
   \   000001                REQUIRE __INIT_XDATA_Z

   \                                 In  segment XDATA_Z, align 1, keep-with-next
     81          uint8 g_devCmd=0;
   \                     g_devCmd:
   \   000000                DS 1
   \   000001                REQUIRE __INIT_XDATA_Z
     82          

   \                                 In  segment XDATA_Z, align 1, keep-with-next
     83          unsigned char gBUartTotalByte=0;
   \                     gBUartTotalByte:
   \   000000                DS 1
   \   000001                REQUIRE __INIT_XDATA_Z

   \                                 In  segment XDATA_Z, align 1, keep-with-next
     84          unsigned char   gBUartLen=0;
   \                     gBUartLen:
   \   000000                DS 1
   \   000001                REQUIRE __INIT_XDATA_Z

   \                                 In  segment XDATA_Z, align 1, keep-with-next
     85          unsigned char	gBUartBuf[MAX_UART_DATA_LEN];
   \                     gBUartBuf:
   \   000000                DS 64
   \   000040                REQUIRE __INIT_XDATA_Z

   \                                 In  segment XDATA_Z, align 1, keep-with-next
     86          unsigned char uart_tran_flag=0;
   \                     uart_tran_flag:
   \   000000                DS 1
   \   000001                REQUIRE __INIT_XDATA_Z
     87          
     88          //static uint8 pRxData[APP_PAYLOAD_LENGTH];

   \                                 In  segment XDATA_Z, align 1, keep-with-next
     89          static uint8 pTxData[APP_PAYLOAD_LENGTH]={0};
   \                     pTxData:
   \   000000                DS 127
   \   00007F                REQUIRE __INIT_XDATA_Z
     90          //void (*veriPckSendCallback)();

   \                                 In  segment XDATA_Z, align 1, keep-with-next
     91          static void    (* veriPckSendCallback)(macRx_t*);
   \                     veriPckSendCallback:
   \   000000                DS 2
   \   000002                REQUIRE __INIT_XDATA_Z

   \                                 In  segment XDATA_Z, align 1, keep-with-next
     92          macRx_t  *callbackPara;
   \                     callbackPara:
   \   000000                DS 2
   \   000002                REQUIRE __INIT_XDATA_Z

   \                                 In  segment XDATA_Z, align 1, keep-with-next
     93          DevCheck g_devCheck={0};
   \                     g_devCheck:
   \   000000                DS 3
   \   000003                REQUIRE __INIT_XDATA_Z

   \                                 In  segment XDATA_Z, align 1, keep-with-next
     94          RadioSet radioSet={0};
   \                     radioSet:
   \   000000                DS 37
   \   000025                REQUIRE __INIT_XDATA_Z
     95          //int32 g_slvPwrDnTmr=0;
     96          
     97          //****************************************************************
     98          // relative with AES
     99          //****************************************************************
    100          #define DELAY 0x0F
    101          // _mode_ is one of
    102          #define CBC         0x00
    103          #define CFB         0x10
    104          #define OFB         0x20
    105          #define CTR         0x30
    106          #define ECB         0x40
    107          #define CBC_MAC     0x50
    108          
    109          #define AES_BUSY    0x08
    110          #define ENCRYPT     0x00
    111          #define DECRYPT     0x01
    112          
    113          // Where _mode_ is one of
    114          #define AES_ENCRYPT     0x00;
    115          #define AES_DECRYPT     0x02;
    116          #define AES_LOAD_KEY    0x04;
    117          #define AES_LOAD_IV     0x06;
    118          
    119          // Macro for starting or stopping encryption or decryption
    120          #define AES_SET_ENCR_DECR_KEY_IV(mode) \
    121             do {                                \
    122              ENCCS = (ENCCS & ~0x07) | mode     \
    123             } while(0)
    124          
    125          // Macro for setting the mode of the AES operation
    126          #define AES_SETMODE(mode) do { ENCCS &= ~0x70; ENCCS |= mode; } while (0)
    127          
    128          // Macro for starting the AES module for either encryption, decryption,
    129          // key or initialisation vector loading.
    130          #define AES_START()     ENCCS |= 0x01
    131          
    132          //****************************************************************
    133          // END
    134          //****************************************************************
    135          

   \                                 In  segment XDATA_I, align 1, keep-with-next
    136          const char cpuIdKey[16] = {0x24,0x98,0xb7,0xA0,0xCB,0xDF,0xE6,0x5D,0xD1,0x4B,0xF7,0x51,0xA6,0x01,0x98,0x22};
   \                     cpuIdKey:
   \   000000                DS 16
   \   000010                REQUIRE `?<Initializer for cpuIdKey>`
   \   000010                REQUIRE __INIT_XDATA_I
    137            //char cpuIdRst[16] = {0xE8,0xF7,0x0C,0x78,0xCB,0xDF,0xE6,0x5D,0xD1,0x4B,0xF7,0x51,0xA6,0x01,0x98,0x22};

   \                                 In  segment XDATA_I, align 1, keep-with-next
    138          char cpuIdRst[16]  = {0x3f,0xdd,0xfb,0xb7,0x20,0xb1,0x95,0x89,0x75,0xd6,0x6e,0x92,0x3f,0xf7,0xf0,0xad};
   \                     cpuIdRst:
   \   000000                DS 16
   \   000010                REQUIRE `?<Initializer for cpuIdRst>`
   \   000010                REQUIRE __INIT_XDATA_I
    139          
    140          #ifdef DEBUG_TRACE
    141          macTx_t macDataTx;
    142          #endif
    143          
    144          #ifdef SEND_OBEY_ZSTACK
    145          macTx_t macDataTx;
    146          #endif
    147          
    148          MAC_DATAREQ_API static void macRollPolingProc(macRx_t* pck);
    149          #ifndef SEND_UNIFIED
    150          MAC_DATAREQ_API static void VeriResponse(macRx_t* pck);
    151          MAC_DATAREQ_API static void LinkedModeShortAddrAlloc(macRx_t* pck);
    152          MAC_DATAREQ_API static void LinkedModeRollPoling(macRx_t* pck);
    153          #endif
    154          MAC_DATAREQ_API void PreFlashInfo(macRx_t* pck);
    155          MAC_DATAREQ_API void CountDown(macRx_t* pck);
    156          MAC_DATAREQ_API void FlashConfirm(macRx_t* pck);
    157          MAC_DATAREQ_API void InqureConfirm(macRx_t* pck);
    158          MAC_DATAREQ_API void ReConfirm(macRx_t* pck);
    159          MAC_DATAREQ_API void ReadyInfo(macRx_t* pck);
    160          MAC_DATAREQ_API void Pilot(macRx_t* pck);
    161          MAC_DATAREQ_API void LinkedShotRel(macRx_t* pck);
    162          MAC_INTERNAL_API void SetSleepMode(macRx_t *pMsg);
    163          MAC_DATAREQ_API void ChanScan(macRx_t* pck);
    164          MAC_DATAREQ_API void RflsStart(macRx_t* pck);
    165          MAC_DATAREQ_API static void VeriAndAllocID(macRx_t* pck);
    166          MAC_DATAREQ_API void CmdModeSwitch(macRx_t* pck);
    167          MAC_DATAREQ_API void CmdModeSwitchEx(macRx_t* pck);
    168          MAC_DATAREQ_API static void RfMstExit(macRx_t* pck);
    169          MAC_DATAREQ_API static void ExitAndSetChan_exit(macRx_t* pck);
    170          MAC_DATAREQ_API static void ExitAndSetChan_setCh(macRx_t* pck);
    171          MAC_DATAREQ_API static void ExitAndSetRfId(macRx_t* pck);
    172          MAC_DATAREQ_API void MstBridgeInfoInqure(macRx_t* pck);
    173          MAC_DATAREQ_API static void BridgedMstReadyRes(macRx_t* pck);
    174          MAC_DATAREQ_API static void devChangeGroup(macRx_t* pck);
    175          MAC_DATAREQ_API void DevShotRel(macRx_t* pck);
    176          LINKMODE_DEFINE void linkedNoneCoordinatorProc(macRx_t *payload);
    177          void BuildPilotInfoData(uint8 * buf, uint8 * len);
    178          static uint8 UartSctSend(unsigned char id, unsigned char pa1, unsigned char pa2);
    179          static uint16 NoneUsedShortAddrSearch(uint8 attr);
    180          static uint8 LoadUartSendBuf(unsigned char id, unsigned char pa1, unsigned char pa2);
    181          static void TrigerUartSend(void);
    182          
    183          static void macExRxEnable(void);
    184          static void macExRxDisable(void);
    185          static void CalcEachRssi(int8 *valBuf, uint16 tms, uint16 dly);
    186          
    187          static uint8 UartBulkSend(uint8 *sBuf, uint8 len);
    188          static void UartSendByte(char aByte);
    189          
    190          static void macExUartInit (void);
    191          static void macExUartRcvHandle(uint8 *rcv, uint8 len);
    192          static void RfModCheck(uint8 mod);
    193          
    194          static void macExUartIntSet(void);
    195          
    196          extern void macWaitSendOk(void);
    197          static void macDelay(unsigned int de);
    198          static void macPreDelay(uint16 microSecs);
    199          
    200          extern void UartDMAIntRcv(void);
    201          extern void UartDMAIntSend(void);
    202          
    203          static unsigned char CalcSum(uint8 *rcv, uint8 len);
    204          
    205          unsigned char RfMcodeInvert(unsigned char src, uint8 hpMod);
    206          static void macExUartIntOutSet(void);
    207          static uint8 MstDevInfoSend(void);
    208          static uint8 MstDevInfoSendEx(uint8 gr, uint8 isReady);
    209          
    210          static void halAesLoadKeyOrInitVector(BYTE* pData, BOOL key);
    211          static void halAesEncrDecr(BYTE *pDataIn, UINT16 length, BYTE *pDataOut, /*BYTE *pInitVector, */BOOL decr);
    212          static void MemReadRam(macRam_t * pRam, uint8 * pData, uint8 len);
    213          
    214          void znpTestRF(void);
    215          
    216          
    217          #ifdef DEBUG_TRACE
    218          void DeviceInfoPrint(void);
    219          void BufferPrint(uint8* buf, uint16 size);
    220          int Printf(const char *fmt, ...);
    221          #endif
    222          
    223          //CurrentVeriDev currentVeriDev;
    224          #define NOP()  asm("NOP")
    225          
    226          
    227          static void halRfReceiveOn(void)
    228          {
    229          	MAC_ISFLUSHRX();     // Making sure that the TX FIFO is empty.
    230          	MAC_ISRXON();
    231          }
    232          
    233          
    234          /*
    235          static DeviceInfo* SearchForDevice(uint16 shortAddr)
    236          {
    237          	DeviceInfo *pDev;
    238          	for(pDev=pConfig->devHead;pDev!=NULL;pDev=pDev->pNext)
    239          	{
    240          		if(pDev->shortAddr==shortAddr)
    241          		{
    242          			return pDev;
    243          		}
    244          	}
    245          	return NULL;
    246          }
    247          */

   \                                 In  segment BANKED_CODE, align 1, keep-with-next
    248          static uint8 SearchForDevice(uint16 shortAddr)
   \                     SearchForDevice:
    249          {
   \   000000   C082         PUSH    DPL
   \   000002   C083         PUSH    DPH
   \   000004                ; Saved register size: 2
   \   000004                ; Auto size: 0
    250          	uint8 pDev;
    251          	for(pDev=0;pDev<DEVICE_TOTAL;pDev++)
   \   000004   7900         MOV     R1,#0x0
    252          	{
    253          		if((shortAddr==pConfig->devHead[pDev].shortAddr)
    254          			&&(DEVICE_VERIFIED==pConfig->devHead[pDev].veriFlag))
   \                     ??SearchForDevice_0:
   \   000006   E9           MOV     A,R1
   \   000007   75F00F       MOV     B,#0xf
   \   00000A   A4           MUL     AB
   \   00000B   FC           MOV     R4,A
   \   00000C   ADF0         MOV     R5,B
   \   00000E   90....       MOV     DPTR,#pConfig
   \   000011   E0           MOVX    A,@DPTR
   \   000012   2C           ADD     A,R4
   \   000013   FC           MOV     R4,A
   \   000014   A3           INC     DPTR
   \   000015   E0           MOVX    A,@DPTR
   \   000016   3D           ADDC    A,R5
   \   000017   FD           MOV     R5,A
   \   000018   EC           MOV     A,R4
   \   000019   240E         ADD     A,#0xe
   \   00001B   F582         MOV     DPL,A
   \   00001D   ED           MOV     A,R5
   \   00001E   12....       LCALL   ??Subroutine331_0 & 0xFFFF
   \                     ??CrossCallReturnLabel_750:
   \   000021   6A           XRL     A,R2
   \   000022   7003         JNZ     ??SearchForDevice_1
   \   000024   A3           INC     DPTR
   \   000025   E0           MOVX    A,@DPTR
   \   000026   6B           XRL     A,R3
   \                     ??SearchForDevice_1:
   \   000027   700C         JNZ     ??SearchForDevice_2
   \   000029   EC           MOV     A,R4
   \   00002A   12....       LCALL   ?Subroutine131 & 0xFFFF
   \                     ??CrossCallReturnLabel_225:
   \   00002D   ED           MOV     A,R5
   \   00002E   12....       LCALL   ??Subroutine331_0 & 0xFFFF
   \                     ??CrossCallReturnLabel_751:
   \   000031   6404         XRL     A,#0x4
   \   000033   6009         JZ      ??SearchForDevice_3
    255          		{
    256          			return pDev;
    257          		}
    258          	}
   \                     ??SearchForDevice_2:
   \   000035   09           INC     R1
   \   000036   E9           MOV     A,R1
   \   000037   C3           CLR     C
   \   000038   940F         SUBB    A,#0xf
   \   00003A   40CA         JC      ??SearchForDevice_0
    259          
    260          	return DEVICE_TOTAL;
   \   00003C   790F         MOV     R1,#0xf
   \                     ??SearchForDevice_3:
   \   00003E   02....       LJMP    ??Subroutine299_0 & 0xFFFF
    261          }

   \                                 In  segment BANKED_CODE, align 1, keep-with-next
   \                     ??Subroutine289_0:
   \   000000   3400         ADDC    A,#0x0
   \   000002   F583         MOV     DPH,A
   \   000004   22           RET

   \                                 In  segment BANKED_CODE, align 1, keep-with-next
   \                     ??Subroutine295_0:
   \   000000   12....       LCALL   ??Subroutine289_0 & 0xFFFF
   \                     ??CrossCallReturnLabel_784:
   \   000003   E0           MOVX    A,@DPTR
   \   000004   22           RET

   \                                 In  segment BANKED_CODE, align 1, keep-with-next
   \                     ??Subroutine299_0:
   \   000000   D083         POP     DPH
   \   000002   D082         POP     DPL
   \   000004   02....       LJMP    ?BRET

   \                                 In  segment BANKED_CODE, align 1, keep-with-next
   \                     ?Subroutine131:
   \   000000   240D         ADD     A,#0xd
   \   000002   F582         MOV     DPL,A
   \   000004   22           RET

   \                                 In  segment BANKED_CODE, align 1, keep-with-next
   \                     ??Subroutine331_0:
   \   000000   12....       LCALL   ??Subroutine295_0 & 0xFFFF
   \                     ??CrossCallReturnLabel_775:
   \   000003   22           RET
    262          
    263          /*
    264          static uint8 RemoveCurrent(void)
    265          {
    266          	DeviceInfo *tmpDev;
    267          	tmpDev = pCurrentDev;
    268          	pCurrentDev = pCurrentDev->pFront;
    269          	osal_mem_free(tmpDev);	
    270          }
    271          */
    272          
    273          

   \                                 In  segment BANKED_CODE, align 1, keep-with-next
    274          static uint8 RemoveDevice(uint16 shortAddr)
   \                     RemoveDevice:
    275          {
   \   000000   74F6         MOV     A,#-0xa
   \   000002   12....       LCALL   ?BANKED_ENTER_XDATA
   \   000005                ; Saved register size: 10
   \   000005                ; Auto size: 0
   \   000005   EA           MOV     A,R2
   \   000006   FE           MOV     R6,A
   \   000007   EB           MOV     A,R3
   \   000008   FF           MOV     R7,A
    276          	uint8 pDev;
    277          #ifdef DEBUG_TRACE
    278          	Printf("RmDev: %x\r\n", shortAddr);
    279          #endif
    280          	pDev = SearchForDevice(shortAddr);
   \   000009                ; Setup parameters for call to function SearchForDevice
   \   000009   12....       LCALL   ??SearchForDevice?relay
   \   00000C   E9           MOV     A,R1
   \   00000D   FA           MOV     R2,A
    281          	if(pDev>=DEVICE_TOTAL)
   \   00000E   C3           CLR     C
   \   00000F   940F         SUBB    A,#0xf
   \   000011   4005         JC      ??RemoveDevice_0
    282          	{
    283          		return DEVICE_TOTAL;
   \   000013   790F         MOV     R1,#0xf
   \   000015   02....       LJMP    ??RemoveDevice_1 & 0xFFFF
    284          	}
    285          	
    286          	if(pConfig->totalDev>0)
   \                     ??RemoveDevice_0:
   \   000018   12....       LCALL   ??Subroutine353_0 & 0xFFFF
   \                     ??CrossCallReturnLabel_910:
   \   00001B   6002         JZ      ??RemoveDevice_2
    287          	{
    288          		pConfig->totalDev--;
   \   00001D   14           DEC     A
   \   00001E   F0           MOVX    @DPTR,A
    289          	}
    290          	if(DEVICE_ATTRIBUTE_MAST==pConfig->devHead[pDev].attribute)
   \                     ??RemoveDevice_2:
   \   00001F   EA           MOV     A,R2
   \   000020   12....       LCALL   ?Subroutine57 & 0xFFFF
   \                     ??CrossCallReturnLabel_493:
   \   000023   241A         ADD     A,#0x1a
   \   000025   12....       LCALL   ??Subroutine330_0 & 0xFFFF
   \                     ??CrossCallReturnLabel_762:
   \   000028   6401         XRL     A,#0x1
   \   00002A   701D         JNZ     ??RemoveDevice_3
    291          	{
    292          		if(pConfig->mstRcd>0)
   \   00002C   90....       MOV     DPTR,#pConfig
   \   00002F   E0           MOVX    A,@DPTR
   \   000030   2400         ADD     A,#0x0
   \   000032   12....       LCALL   ??Subroutine298_0 & 0xFFFF
   \                     ??CrossCallReturnLabel_550:
   \   000035   6002         JZ      ??RemoveDevice_4
    293          		{
    294          			pConfig->mstRcd--;
   \   000037   14           DEC     A
   \   000038   F0           MOVX    @DPTR,A
    295          		}
    296          		if(shortAddr>ipRsv.mst)
   \                     ??RemoveDevice_4:
   \   000039   90....       MOV     DPTR,#ipRsv
   \   00003C   C3           CLR     C
   \   00003D   E0           MOVX    A,@DPTR
   \   00003E   9E           SUBB    A,R6
   \   00003F   A3           INC     DPTR
   \   000040   E0           MOVX    A,@DPTR
   \   000041   9F           SUBB    A,R7
   \   000042   503F         JNC     ??RemoveDevice_5
    297          		{
    298          			ipRsv.mst = shortAddr;
   \   000044   90....       MOV     DPTR,#ipRsv
   \   000047   8035         SJMP    ??RemoveDevice_6
    299          		}
    300          	}else
    301          	{
    302          #ifdef DEBUG_TRACE
    303          		Printf("remove a device\r\n");
    304          #endif
    305          		if(pConfig->arrCnt[pConfig->devHead[pDev].group]>0)
   \                     ??RemoveDevice_3:
   \   000049   E8           MOV     A,R0
   \   00004A   2418         ADD     A,#0x18
   \   00004C   F8           MOV     R0,A
   \   00004D   12....       LCALL   ?Subroutine124 & 0xFFFF
   \                     ??CrossCallReturnLabel_437:
   \   000050   12....       LCALL   ??Subroutine316_0 & 0xFFFF
   \                     ??CrossCallReturnLabel_657:
   \   000053   6009         JZ      ??RemoveDevice_7
    306          		{
    307          			pConfig->arrCnt[pConfig->devHead[pDev].group]--;
   \   000055   8882         MOV     DPL,R0
   \   000057   8983         MOV     DPH,R1
   \   000059   12....       LCALL   ?Subroutine31 & 0xFFFF
    308          		}
   \                     ??CrossCallReturnLabel_41:
   \   00005C   14           DEC     A
   \   00005D   F0           MOVX    @DPTR,A
    309          		//UartSctSend(UART_CC_DEV,pConfig->devHead[pDev].group,pConfig->arrCnt[pConfig->devHead[pDev].group]);
    310          		MstDevInfoSend();
   \                     ??RemoveDevice_7:
   \   00005E                ; Setup parameters for call to function MstDevInfoSend
   \   00005E   12....       LCALL   ??MstDevInfoSend?relay
    311          #ifdef DEBUG_TRACE
    312          		Printf("slave %d\r\n",pConfig->slvRcd);
    313          #endif
    314          		if(pConfig->slvRcd>0)
   \   000061   90....       MOV     DPTR,#pConfig
   \   000064   E0           MOVX    A,@DPTR
   \   000065   2401         ADD     A,#0x1
   \   000067   12....       LCALL   ??Subroutine298_0 & 0xFFFF
   \                     ??CrossCallReturnLabel_551:
   \   00006A   6002         JZ      ??RemoveDevice_8
    315          		{
    316          			pConfig->slvRcd--;
   \   00006C   14           DEC     A
   \   00006D   F0           MOVX    @DPTR,A
    317          		}
    318          		if(shortAddr<ipRsv.sla)
   \                     ??RemoveDevice_8:
   \   00006E   90....       MOV     DPTR,#ipRsv + 2
   \   000071   12....       LCALL   ?Subroutine94 & 0xFFFF
   \                     ??CrossCallReturnLabel_151:
   \   000074   C3           CLR     C
   \   000075   EE           MOV     A,R6
   \   000076   98           SUBB    A,R0
   \   000077   EF           MOV     A,R7
   \   000078   99           SUBB    A,R1
   \   000079   5008         JNC     ??RemoveDevice_5
    319          		{
    320          			ipRsv.sla = shortAddr;
   \   00007B   90....       MOV     DPTR,#ipRsv + 2
   \                     ??RemoveDevice_6:
   \   00007E   EE           MOV     A,R6
   \   00007F   F0           MOVX    @DPTR,A
   \   000080   A3           INC     DPTR
   \   000081   EF           MOV     A,R7
   \   000082   F0           MOVX    @DPTR,A
    321          		}
    322          	}
    323          
    324          	pConfig->devHead[pDev].veriFlag = DEVICE_UNVERIFIED;
   \                     ??RemoveDevice_5:
   \   000083   12....       LCALL   ?Subroutine56 & 0xFFFF
   \                     ??CrossCallReturnLabel_85:
   \   000086   E4           CLR     A
   \   000087   F0           MOVX    @DPTR,A
    325          	pConfig->devHead[pDev].group = 0x0F;
   \   000088   12....       LCALL   ??Subroutine287_0 & 0xFFFF
   \                     ??CrossCallReturnLabel_490:
   \   00008B   2418         ADD     A,#0x18
   \   00008D   F582         MOV     DPL,A
   \   00008F   E9           MOV     A,R1
   \   000090   12....       LCALL   ??Subroutine312_0 & 0xFFFF
   \                     ??CrossCallReturnLabel_613:
   \   000093   740F         MOV     A,#0xf
   \   000095   F0           MOVX    @DPTR,A
    326          	pConfig->devHead[pDev].info = 0;
   \   000096   12....       LCALL   ??Subroutine287_0 & 0xFFFF
   \                     ??CrossCallReturnLabel_491:
   \   000099   241B         ADD     A,#0x1b
   \   00009B   F582         MOV     DPL,A
   \   00009D   E9           MOV     A,R1
   \   00009E   12....       LCALL   ??Subroutine290_0 & 0xFFFF
    327          	pConfig->devHead[pDev].ready = 0;
   \                     ??CrossCallReturnLabel_501:
   \   0000A1   12....       LCALL   ??Subroutine287_0 & 0xFFFF
   \                     ??CrossCallReturnLabel_492:
   \   0000A4   2419         ADD     A,#0x19
   \   0000A6   12....       LCALL   ?Subroutine126 & 0xFFFF
    328          	osal_memset(pConfig->devHead[pDev].extAddr, 0x00, 8); 
   \                     ??CrossCallReturnLabel_221:
   \   0000A9   90....       MOV     DPTR,#pConfig
   \   0000AC   E0           MOVX    A,@DPTR
   \   0000AD   25..         ADD     A,?V0 + 0
   \   0000AF   FA           MOV     R2,A
   \   0000B0   A3           INC     DPTR
   \   0000B1   E0           MOVX    A,@DPTR
   \   0000B2   35..         ADDC    A,?V0 + 1
   \   0000B4   FB           MOV     R3,A
   \   0000B5   EA           MOV     A,R2
   \   0000B6   12....       LCALL   ?Subroutine125 & 0xFFFF
    329          	
    330          	pConfig->isIdOccupied[shortAddr]=0;
   \                     ??CrossCallReturnLabel_433:
   \   0000B9   12....       LCALL   ?Subroutine63 & 0xFFFF
   \                     ??CrossCallReturnLabel_94:
   \   0000BC   12....       LCALL   ?Subroutine17 & 0xFFFF
    331          	if(pConfig->totalDev<=0)
   \                     ??CrossCallReturnLabel_906:
   \   0000BF   7004         JNZ     ??RemoveDevice_9
    332          	{
    333          		LED_INS_UNLINK();
   \   0000C1   D292         SETB    0x90.2
   \   0000C3   C293         CLR     0x90.3
    334          	}
    335          	
    336                  return shortAddr;
   \                     ??RemoveDevice_9:
   \   0000C5   EE           MOV     A,R6
   \   0000C6   F9           MOV     R1,A
   \                     ??RemoveDevice_1:
   \   0000C7   02....       LJMP    ??Subroutine318_0 & 0xFFFF
   \   0000CA                REQUIRE _A_P1
    337          }

   \                                 In  segment BANKED_CODE, align 1, keep-with-next
   \                     ?Subroutine125:
   \   000000   2410         ADD     A,#0x10
   \   000002   FA           MOV     R2,A
   \   000003   EB           MOV     A,R3
   \   000004                REQUIRE ??Subroutine268_0
   \   000004                ; // Fall through to label ??Subroutine268_0

   \                                 In  segment BANKED_CODE, align 1, keep-with-next
   \                     ??Subroutine268_0:
   \   000000   3400         ADDC    A,#0x0
   \   000002   FB           MOV     R3,A
   \   000003   12....       LCALL   ??osal_memset?relay
   \   000006   22           RET

   \                                 In  segment BANKED_CODE, align 1, keep-with-next
   \                     ?Subroutine124:
   \   000000   E9           MOV     A,R1
   \   000001                REQUIRE ??Subroutine269_0
   \   000001                ; // Fall through to label ??Subroutine269_0

   \                                 In  segment BANKED_CODE, align 1, keep-with-next
   \                     ??Subroutine269_0:
   \   000000   3400         ADDC    A,#0x0
   \   000002   F9           MOV     R1,A
   \   000003   8882         MOV     DPL,R0
   \   000005   8983         MOV     DPH,R1
   \   000007   E0           MOVX    A,@DPTR
   \   000008   22           RET

   \                                 In  segment BANKED_CODE, align 1, keep-with-next
   \                     ?Subroutine63:
   \   000000   12....       LCALL   ?Subroutine186 & 0xFFFF
   \                     ??CrossCallReturnLabel_521:
   \   000003   12....       LCALL   ?Subroutine259 & 0xFFFF
   \                     ??CrossCallReturnLabel_425:
   \   000006   22           RET

   \                                 In  segment BANKED_CODE, align 1, keep-with-next
   \                     ?Subroutine259:
   \   000000   2417         ADD     A,#0x17
   \   000002   F582         MOV     DPL,A
   \   000004   E9           MOV     A,R1
   \   000005   3401         ADDC    A,#0x1
   \   000007   F583         MOV     DPH,A
   \   000009   22           RET

   \                                 In  segment BANKED_CODE, align 1, keep-with-next
   \                     ?Subroutine203:
   \   000000   E0           MOVX    A,@DPTR
   \   000001   F8           MOV     R0,A
   \   000002   A3           INC     DPTR
   \   000003   E0           MOVX    A,@DPTR
   \   000004   F9           MOV     R1,A
   \   000005   22           RET

   \                                 In  segment BANKED_CODE, align 1, keep-with-next
   \                     ??Subroutine281_0:
   \   000000   F8           MOV     R0,A
   \   000001                REQUIRE ??Subroutine282_0
   \   000001                ; // Fall through to label ??Subroutine282_0

   \                                 In  segment BANKED_CODE, align 1, keep-with-next
   \                     ??Subroutine282_0:
   \   000000   12....       LCALL   ?Subroutine248 & 0xFFFF
   \                     ??CrossCallReturnLabel_918:
   \   000003   22           RET

   \                                 In  segment BANKED_CODE, align 1, keep-with-next
   \                     ?Subroutine248:
   \   000000   12....       LCALL   ??Subroutine345_0 & 0xFFFF
   \                     ??CrossCallReturnLabel_921:
   \   000003   E0           MOVX    A,@DPTR
   \   000004   22           RET

   \                                 In  segment BANKED_CODE, align 1, keep-with-next
   \                     ?Subroutine57:
   \   000000   75F00F       MOV     B,#0xf
   \   000003   A4           MUL     AB
   \   000004   F5..         MOV     ?V0 + 0,A
   \   000006   E5F0         MOV     A,B
   \   000008   F5..         MOV     ?V0 + 1,A
   \   00000A                ; Setup parameters for call to function sAddrExtCmp
   \   00000A                REQUIRE ??Subroutine287_0
   \   00000A                ; // Fall through to label ??Subroutine287_0

   \                                 In  segment BANKED_CODE, align 1, keep-with-next
   \                     ??Subroutine287_0:
   \   000000   12....       LCALL   ?Subroutine210 & 0xFFFF
   \                     ??CrossCallReturnLabel_496:
   \   000003   E8           MOV     A,R0
   \   000004   22           RET

   \                                 In  segment BANKED_CODE, align 1, keep-with-next
   \                     ?Subroutine210:
   \   000000   12....       LCALL   ?Subroutine247 & 0xFFFF
   \                     ??CrossCallReturnLabel_498:
   \   000003   22           RET

   \                                 In  segment BANKED_CODE, align 1, keep-with-next
   \                     ?Subroutine247:
   \   000000   90....       MOV     DPTR,#pConfig
   \   000003   E0           MOVX    A,@DPTR
   \   000004   25..         ADD     A,?V0 + 0
   \   000006   F8           MOV     R0,A
   \   000007   A3           INC     DPTR
   \   000008   E0           MOVX    A,@DPTR
   \   000009   35..         ADDC    A,?V0 + 1
   \   00000B   F9           MOV     R1,A
   \   00000C   22           RET

   \                                 In  segment BANKED_CODE, align 1, keep-with-next
   \                     ?Subroutine56:
   \   000000   12....       LCALL   ?Subroutine190 & 0xFFFF
   \                     ??CrossCallReturnLabel_359:
   \   000003   22           RET

   \                                 In  segment BANKED_CODE, align 1, keep-with-next
   \                     ?Subroutine190:
   \   000000   12....       LCALL   ?Subroutine247 & 0xFFFF
   \                     ??CrossCallReturnLabel_497:
   \   000003   E8           MOV     A,R0
   \   000004   12....       LCALL   ?Subroutine258 & 0xFFFF
   \                     ??CrossCallReturnLabel_781:
   \   000007   22           RET

   \                                 In  segment BANKED_CODE, align 1, keep-with-next
   \                     ?Subroutine258:
   \   000000   240D         ADD     A,#0xd
   \   000002                REQUIRE ??Subroutine288_0
   \   000002                ; // Fall through to label ??Subroutine288_0

   \                                 In  segment BANKED_CODE, align 1, keep-with-next
   \                     ??Subroutine288_0:
   \   000000   F582         MOV     DPL,A
   \   000002   E9           MOV     A,R1
   \   000003                REQUIRE ??Subroutine289_0
   \   000003                ; // Fall through to label ??Subroutine289_0

   \                                 In  segment BANKED_CODE, align 1, keep-with-next
   \                     ??Subroutine290_0:
   \   000000   12....       LCALL   ?Subroutine236 & 0xFFFF
   \                     ??CrossCallReturnLabel_508:
   \   000003   22           RET

   \                                 In  segment BANKED_CODE, align 1, keep-with-next
   \                     ?Subroutine236:
   \   000000   12....       LCALL   ??Subroutine289_0 & 0xFFFF
   \                     ??CrossCallReturnLabel_778:
   \   000003   E4           CLR     A
   \   000004   F0           MOVX    @DPTR,A
   \   000005   22           RET

   \                                 In  segment BANKED_CODE, align 1, keep-with-next
   \                     ?Subroutine126:
   \   000000   F582         MOV     DPL,A
   \   000002   E9           MOV     A,R1
   \   000003   12....       LCALL   ?Subroutine236 & 0xFFFF
   \                     ??CrossCallReturnLabel_506:
   \   000006                ; Setup parameters for call to function osal_memset
   \   000006                ; Setup parameters for call to function osal_memset
   \   000006   7C08         MOV     R4,#0x8
   \   000008   FD           MOV     R5,A
   \   000009   F9           MOV     R1,A
   \   00000A   22           RET

   \                                 In  segment BANKED_CODE, align 1, keep-with-next
   \                     ?Subroutine94:
   \   000000   12....       LCALL   ?Subroutine203 & 0xFFFF
   \                     ??CrossCallReturnLabel_451:
   \   000003   22           RET

   \                                 In  segment BANKED_CODE, align 1, keep-with-next
   \                     ??Subroutine298_0:
   \   000000   12....       LCALL   ?Subroutine211 & 0xFFFF
   \                     ??CrossCallReturnLabel_860:
   \   000003   22           RET

   \                                 In  segment BANKED_CODE, align 1, keep-with-next
   \                     ?Subroutine211:
   \   000000   12....       LCALL   ?Subroutine250 & 0xFFFF
   \                     ??CrossCallReturnLabel_875:
   \   000003   22           RET

   \                                 In  segment BANKED_CODE, align 1, keep-with-next
   \                     ?Subroutine250:
   \   000000   12....       LCALL   ?Subroutine265 & 0xFFFF
   \                     ??CrossCallReturnLabel_877:
   \   000003   E0           MOVX    A,@DPTR
   \   000004   22           RET

   \                                 In  segment BANKED_CODE, align 1, keep-with-next
   \                     ?Subroutine265:
   \   000000   F8           MOV     R0,A
   \   000001   A3           INC     DPTR
   \   000002   E0           MOVX    A,@DPTR
   \   000003   3401         ADDC    A,#0x1
   \   000005   F9           MOV     R1,A
   \   000006   8882         MOV     DPL,R0
   \   000008   8983         MOV     DPH,R1
   \   00000A   22           RET

   \                                 In  segment BANKED_CODE, align 1, keep-with-next
   \                     ?Subroutine186:
   \   000000   90....       MOV     DPTR,#pConfig
   \   000003   E0           MOVX    A,@DPTR
   \   000004   2E           ADD     A,R6
   \   000005   F8           MOV     R0,A
   \   000006   A3           INC     DPTR
   \   000007   E0           MOVX    A,@DPTR
   \   000008   3F           ADDC    A,R7
   \   000009   F9           MOV     R1,A
   \   00000A                ; Setup parameters for call to function UartSctSend
   \   00000A   E8           MOV     A,R0
   \   00000B   22           RET

   \                                 In  segment BANKED_CODE, align 1, keep-with-next
   \                     ?Subroutine31:
   \   000000   12....       LCALL   ?Subroutine189 & 0xFFFF
   \                     ??CrossCallReturnLabel_357:
   \   000003   22           RET

   \                                 In  segment BANKED_CODE, align 1, keep-with-next
   \                     ?Subroutine189:
   \   000000   E0           MOVX    A,@DPTR
   \   000001   12....       LCALL   ?Subroutine249 & 0xFFFF
   \                     ??CrossCallReturnLabel_416:
   \   000004   12....       LCALL   ?Subroutine261 & 0xFFFF
   \                     ??CrossCallReturnLabel_428:
   \   000007   E0           MOVX    A,@DPTR
   \   000008   22           RET

   \                                 In  segment BANKED_CODE, align 1, keep-with-next
   \                     ??Subroutine312_0:
   \   000000   12....       LCALL   ??Subroutine328_0 & 0xFFFF
   \                     ??CrossCallReturnLabel_749:
   \   000003   22           RET

   \                                 In  segment BANKED_CODE, align 1, keep-with-next
   \                     ?Subroutine249:
   \   000000   F8           MOV     R0,A
   \   000001   90....       MOV     DPTR,#pConfig
   \   000004   E0           MOVX    A,@DPTR
   \   000005   28           ADD     A,R0
   \   000006   12....       LCALL   ?Subroutine267 & 0xFFFF
   \                     ??CrossCallReturnLabel_645:
   \   000009   22           RET

   \                                 In  segment BANKED_CODE, align 1, keep-with-next
   \                     ?Subroutine267:
   \   000000   F8           MOV     R0,A
   \   000001   A3           INC     DPTR
   \   000002   E0           MOVX    A,@DPTR
   \   000003                REQUIRE ??Subroutine313_0
   \   000003                ; // Fall through to label ??Subroutine313_0

   \                                 In  segment BANKED_CODE, align 1, keep-with-next
   \                     ??Subroutine313_0:
   \   000000   3400         ADDC    A,#0x0
   \   000002   F9           MOV     R1,A
   \   000003   E8           MOV     A,R0
   \   000004   22           RET

   \                                 In  segment BANKED_CODE, align 1, keep-with-next
   \                     ?Subroutine261:
   \   000000   2402         ADD     A,#0x2
   \   000002   F582         MOV     DPL,A
   \   000004   E9           MOV     A,R1
   \   000005   3401         ADDC    A,#0x1
   \   000007   F583         MOV     DPH,A
   \   000009   22           RET

   \                                 In  segment BANKED_CODE, align 1, keep-with-next
   \                     ??Subroutine316_0:
   \   000000   FA           MOV     R2,A
   \   000001   90....       MOV     DPTR,#pConfig
   \   000004   E0           MOVX    A,@DPTR
   \   000005   2A           ADD     A,R2
   \   000006   FA           MOV     R2,A
   \   000007   A3           INC     DPTR
   \   000008   E0           MOVX    A,@DPTR
   \   000009   3400         ADDC    A,#0x0
   \   00000B   FB           MOV     R3,A
   \   00000C   EA           MOV     A,R2
   \   00000D   2402         ADD     A,#0x2
   \   00000F   F582         MOV     DPL,A
   \   000011   EB           MOV     A,R3
   \   000012   3401         ADDC    A,#0x1
   \   000014   F583         MOV     DPH,A
   \   000016   E0           MOVX    A,@DPTR
   \   000017   22           RET

   \                                 In  segment BANKED_CODE, align 1, keep-with-next
   \                     ??Subroutine318_0:
   \   000000   7F02         MOV     R7,#0x2
   \   000002   02....       LJMP    ?BANKED_LEAVE_XDATA

   \                                 In  segment BANKED_CODE, align 1, keep-with-next
   \                     ??Subroutine328_0:
   \   000000   12....       LCALL   ??Subroutine289_0 & 0xFFFF
   \                     ??CrossCallReturnLabel_783:
   \   000003   22           RET

   \                                 In  segment BANKED_CODE, align 1, keep-with-next
   \                     ??Subroutine330_0:
   \   000000   F582         MOV     DPL,A
   \   000002   E9           MOV     A,R1
   \   000003                REQUIRE ??Subroutine331_0
   \   000003                ; // Fall through to label ??Subroutine331_0

   \                                 In  segment BANKED_CODE, align 1, keep-with-next
   \                     ??Subroutine345_0:
   \   000000   A3           INC     DPTR
   \   000001   E0           MOVX    A,@DPTR
   \   000002   3400         ADDC    A,#0x0
   \   000004   F9           MOV     R1,A
   \   000005   8882         MOV     DPL,R0
   \   000007   8983         MOV     DPH,R1
   \   000009   22           RET

   \                                 In  segment BANKED_CODE, align 1, keep-with-next
   \                     ?Subroutine17:
   \   000000   E4           CLR     A
   \   000001                REQUIRE ??Subroutine352_0
   \   000001                ; // Fall through to label ??Subroutine352_0

   \                                 In  segment BANKED_CODE, align 1, keep-with-next
   \                     ??Subroutine352_0:
   \   000000   F0           MOVX    @DPTR,A
   \   000001                REQUIRE ??Subroutine353_0
   \   000001                ; // Fall through to label ??Subroutine353_0

   \                                 In  segment BANKED_CODE, align 1, keep-with-next
   \                     ??Subroutine353_0:
   \   000000   90....       MOV     DPTR,#pConfig
   \   000003   E0           MOVX    A,@DPTR
   \   000004   24FD         ADD     A,#-0x3
   \   000006   12....       LCALL   ??Subroutine281_0 & 0xFFFF
   \                     ??CrossCallReturnLabel_916:
   \   000009   22           RET
    338          
    339          #if 0
    340          static uint8 RemoveDevice(uint16 shortAddr)
    341          {
    342          	DeviceInfo *nowDev;
    343          	DeviceInfo *preDev;
    344          	uint8 rtAddr;
    345          	nowDev = preDev = pConfig->devHead;
    346          #ifdef DEBUG_TRACE
    347          	Printf("RmDev: %x\r\n", shortAddr);
    348          #endif
    349          	while(nowDev!=NULL)
    350          	{
    351          		if(nowDev->shortAddr==shortAddr)
    352          		{
    353          			if(pConfig->totalDev>0)
    354          			{
    355          				pConfig->totalDev--;
    356          			}
    357          			if(DEVICE_ATTRIBUTE_MAST==nowDev->attribute)
    358          			{
    359          				if(pConfig->mstRcd>0)
    360          				{
    361          					pConfig->mstRcd--;
    362          				}
    363          				if(shortAddr>ipRsv.mst)
    364          				{
    365          					ipRsv.mst= shortAddr;
    366          				}
    367          				//return (0x0E-nowDev->shortAddr);
    368          			}else
    369          			{
    370          				//if(pConfig->arrCnt[nowDev->group]>0)
    371          				//{
    372          				//	pConfig->arrCnt[nowDev->group]--;
    373          				//}
    374          #ifdef DEBUG_TRACE
    375          				Printf("remove a device\r\n");
    376          #endif
    377          				if(pConfig->arrCnt[pConfig->idInGroup[shortAddr]]>0)
    378          				{
    379          					pConfig->arrCnt[pConfig->idInGroup[shortAddr]]--;
    380          				}
    381          				UartSctSend(UART_CC_DEV,pConfig->idInGroup[shortAddr],pConfig->arrCnt[pConfig->idInGroup[shortAddr]]);
    382          				pConfig->idInGroup[shortAddr]=0;
    383          				//pConfig->isIdOccupied[shortAddr]=0;
    384          #ifdef DEBUG_TRACE
    385          				Printf("slave %d\r\n",pConfig->slvRcd);
    386          #endif
    387          				if(pConfig->slvRcd>0)
    388          				{
    389          					pConfig->slvRcd--;
    390          				}
    391          				if(shortAddr<ipRsv.sla)
    392          				{
    393          					ipRsv.sla = shortAddr;
    394          				}
    395          				//return nowDev->shortAddr;
    396          			}
    397          			if(nowDev==pCurrentDev)
    398          			{
    399          #ifdef DEBUG_TRACE
    400          				Printf("remove current\r\n");
    401          #endif
    402          				if(nowDev==pConfig->devHead)
    403          				{
    404          #ifdef DEBUG_TRACE
    405          					Printf("remove head\r\n");
    406          					Printf("nowDev: %x\r\n",nowDev);
    407          #endif
    408          					pCurrentDev = NULL;
    409          				}else
    410          				{
    411          #ifdef DEBUG_TRACE
    412          					Printf("pCurrentDev: %x\r\n",pCurrentDev);
    413          					Printf("nowDev->pFront: %x\r\n",nowDev->pFront);
    414          #endif
    415          					pCurrentDev = nowDev->pFront;
    416          				}
    417          			}
    418          			if(nowDev==pConfig->devHead)
    419          			{
    420          				//pConfig->devHead = NULL;
    421          #ifdef DEBUG_TRACE
    422          				Printf("devHead->pNext: %x\r\n",pConfig->devHead->pNext);
    423          				Printf("devHead->pNext->pNext: %x\r\n",pConfig->devHead->pNext->pNext);
    424          				Printf("remove: %x\r\n",nowDev);
    425          #endif
    426          				pConfig->devHead = pConfig->devHead->pNext;
    427          				//pCurrentDev = pConfig->devHead;
    428          				rtAddr = nowDev->shortAddr;
    429          				osal_mem_free(nowDev);
    430          				
    431          			}else
    432          			{
    433          #ifdef DEBUG_TRACE
    434          				Printf("remove: %x\r\n",nowDev);
    435          #endif
    436          				preDev->pNext = nowDev ->pNext;
    437          				nowDev->pNext->pFront = preDev;
    438          				rtAddr = nowDev->shortAddr;
    439          				osal_mem_free(nowDev);
    440          			}
    441          			
    442          			pConfig->isIdOccupied[shortAddr]=0;
    443          			
    444          			if(pConfig->totalDev<=0)
    445          			{
    446          				LED_INS_UNLINK();
    447          			}
    448          
    449          #ifdef DEBUG_TRACE
    450          			Printf("slvRcd: %d\r\n",pConfig->slvRcd);
    451          			Printf("mstRcd: %d\r\n",pConfig->mstRcd);
    452          			Printf("totalDev: %d\r\n; ",pConfig->totalDev);
    453          			Printf("arrCnt: ");
    454          			BufferPrint(pConfig->arrCnt, 5);
    455          			Printf("idInGroup: ");
    456          			BufferPrint(pConfig->idInGroup, 16);
    457          			DeviceInfoPrint();
    458          #endif
    459          
    460          			return rtAddr;
    461          			
    462          		}
    463          		preDev = nowDev;
    464          		nowDev = preDev->pNext;
    465          	}
    466          	return 0x0;
    467          }
    468          #endif
    469          

   \                                 In  segment BANKED_CODE, align 1, keep-with-next
    470          static uint16 NoneUsedShortAddrSearch(uint8 attr)
   \                     NoneUsedShortAddrSearch:
    471          {
   \   000000   74F7         MOV     A,#-0x9
   \   000002   12....       LCALL   ?BANKED_ENTER_XDATA
   \   000005                ; Saved register size: 9
   \   000005                ; Auto size: 0
   \   000005   89..         MOV     ?V0 + 0,R1
    472          #if 0
    473          	uint16 st=0;
    474          	DeviceInfo *nowDev;
    475          	DeviceInfo *preDev;
    476          	nowDev = preDev = pConfig->devHead;
    477          	st = (DEVICE_ATTRIBUTE_MAST==attr)? 0x0E:0;
    478          	while(st<16)
    479          	{
    480          		while(nowDev!=NULL)
    481          		{
    482          			if(st==nowDev->shortAddr)
    483          			{
    484          				st=(DEVICE_ATTRIBUTE_MAST==attr)?(st-1):(st+1);
    485          				nowDev = pConfig->devHead;
    486          			}else
    487          			{
    488          				preDev = nowDev;
    489          				nowDev = preDev->pNext;
    490          			}
    491          		}
    492          		return st;
    493          	}
    494                  return 0xFF;
    495          #endif
    496          	uint16 rtAddr=0;
    497          	if(DEVICE_ATTRIBUTE_MAST==attr)
   \   000007   7401         MOV     A,#0x1
   \   000009   65..         XRL     A,?V0 + 0
   \   00000B   7025         JNZ     ??NoneUsedShortAddrSearch_0
    498          	{
    499          		rtAddr = ipRsv.mst;
   \   00000D   90....       MOV     DPTR,#ipRsv
   \   000010   E0           MOVX    A,@DPTR
   \   000011   FE           MOV     R6,A
   \   000012   A3           INC     DPTR
   \   000013   E0           MOVX    A,@DPTR
   \   000014   FF           MOV     R7,A
    500          		ipRsv.mst--;
    501          		while(ipRsv.mst>0)
    502          		{
    503          			//if(!SearchForDevice(ipRsv.mst))
    504          			if(SearchForDevice(ipRsv.mst)>=DEVICE_TOTAL)
    505          			{
    506          				//HAL_ASSERT(ipRsv.mst>ipRsv.sla);
    507          				pConfig->isIdOccupied[rtAddr] = 1;
    508          				return rtAddr;
    509          			}
    510          			ipRsv.mst--;
   \                     ??NoneUsedShortAddrSearch_1:
   \   000015   12....       LCALL   ?Subroutine112 & 0xFFFF
   \                     ??CrossCallReturnLabel_193:
   \   000018   F0           MOVX    @DPTR,A
   \   000019   90....       MOV     DPTR,#ipRsv
   \   00001C   12....       LCALL   ?Subroutine93 & 0xFFFF
   \                     ??CrossCallReturnLabel_146:
   \   00001F   49           ORL     A,R1
   \   000020   6035         JZ      ??NoneUsedShortAddrSearch_2
   \   000022                ; Setup parameters for call to function SearchForDevice
   \   000022   90....       MOV     DPTR,#ipRsv
   \   000025   12....       LCALL   ?Subroutine88 & 0xFFFF
   \                     ??CrossCallReturnLabel_138:
   \   000028   40EB         JC      ??NoneUsedShortAddrSearch_1
   \                     ??NoneUsedShortAddrSearch_3:
   \   00002A   12....       LCALL   ?Subroutine63 & 0xFFFF
   \                     ??CrossCallReturnLabel_95:
   \   00002D   7401         MOV     A,#0x1
   \   00002F   F0           MOVX    @DPTR,A
   \   000030   8028         SJMP    ??NoneUsedShortAddrSearch_4
    511          		}
    512          	}else
    513          	{
    514          		rtAddr = ipRsv.sla;
   \                     ??NoneUsedShortAddrSearch_0:
   \   000032   90....       MOV     DPTR,#ipRsv + 2
   \   000035   E0           MOVX    A,@DPTR
   \   000036   FE           MOV     R6,A
   \   000037   A3           INC     DPTR
   \   000038   E0           MOVX    A,@DPTR
   \   000039   FF           MOV     R7,A
    515          		ipRsv.sla++;
   \   00003A   8009         SJMP    ??NoneUsedShortAddrSearch_5
    516          		while(ipRsv.sla<0x0E)
    517          		{
    518          			//if(!SearchForDevice(ipRsv.sla))
    519          			if(SearchForDevice(ipRsv.sla)>=DEVICE_TOTAL)
   \                     ??NoneUsedShortAddrSearch_6:
   \   00003C                ; Setup parameters for call to function SearchForDevice
   \   00003C   12....       LCALL   ??SearchForDevice?relay
   \   00003F   E9           MOV     A,R1
   \   000040   C3           CLR     C
   \   000041   940F         SUBB    A,#0xf
   \   000043   50E5         JNC     ??NoneUsedShortAddrSearch_3
    520          			{
    521          				//HAL_ASSERT(ipRsv.mst>ipRsv.sla);
    522          				pConfig->isIdOccupied[rtAddr] = 1;
    523          				return rtAddr;
    524          			}
    525          			ipRsv.sla++;
    526          		}
   \                     ??NoneUsedShortAddrSearch_5:
   \   000045   12....       LCALL   ?Subroutine71 & 0xFFFF
   \                     ??CrossCallReturnLabel_440:
   \   000048   90....       MOV     DPTR,#ipRsv + 2
   \   00004B   12....       LCALL   ??Subroutine320_0 & 0xFFFF
    527          	}
   \                     ??CrossCallReturnLabel_666:
   \   00004E   C3           CLR     C
   \   00004F   EA           MOV     A,R2
   \   000050   940E         SUBB    A,#0xe
   \   000052   EB           MOV     A,R3
   \   000053   9400         SUBB    A,#0x0
   \   000055   40E5         JC      ??NoneUsedShortAddrSearch_6
    528          
    529          	HAL_ASSERT(0);
   \                     ??NoneUsedShortAddrSearch_2:
   \   000057                ; Setup parameters for call to function halAssertHandler
   \   000057   12....       LCALL   ??halAssertHandler?relay
    530          	return rtAddr;
   \                     ??NoneUsedShortAddrSearch_4:
   \   00005A   EE           MOV     A,R6
   \   00005B   FA           MOV     R2,A
   \   00005C   EF           MOV     A,R7
   \   00005D   FB           MOV     R3,A
   \   00005E   02....       LJMP    ?Subroutine2 & 0xFFFF
    531          }

   \                                 In  segment BANKED_CODE, align 1, keep-with-next
   \                     ?Subroutine71:
   \   000000   90....       MOV     DPTR,#ipRsv + 2
   \   000003                REQUIRE ??Subroutine270_0
   \   000003                ; // Fall through to label ??Subroutine270_0

   \                                 In  segment BANKED_CODE, align 1, keep-with-next
   \                     ??Subroutine270_0:
   \   000000   12....       LCALL   ?Subroutine209 & 0xFFFF
   \                     ??CrossCallReturnLabel_443:
   \   000003   22           RET

   \                                 In  segment BANKED_CODE, align 1, keep-with-next
   \                     ?Subroutine209:
   \   000000   E0           MOVX    A,@DPTR
   \   000001   2401         ADD     A,#0x1
   \   000003   F0           MOVX    @DPTR,A
   \   000004   A3           INC     DPTR
   \   000005   E0           MOVX    A,@DPTR
   \   000006   3400         ADDC    A,#0x0
   \   000008   F0           MOVX    @DPTR,A
   \   000009   22           RET

   \                                 In  segment BANKED_CODE, align 1, keep-with-next
   \                     ?Subroutine2:
   \   000000   7F01         MOV     R7,#0x1
   \   000002   02....       LJMP    ?BANKED_LEAVE_XDATA

   \                                 In  segment BANKED_CODE, align 1, keep-with-next
   \                     ?Subroutine112:
   \   000000   90....       MOV     DPTR,#ipRsv
   \   000003   E0           MOVX    A,@DPTR
   \   000004   24FF         ADD     A,#-0x1
   \   000006   F0           MOVX    @DPTR,A
   \   000007   A3           INC     DPTR
   \   000008   E0           MOVX    A,@DPTR
   \   000009   34FF         ADDC    A,#-0x1
   \   00000B   22           RET

   \                                 In  segment BANKED_CODE, align 1, keep-with-next
   \                     ?Subroutine93:
   \   000000   12....       LCALL   ?Subroutine203 & 0xFFFF
   \                     ??CrossCallReturnLabel_450:
   \   000003   E8           MOV     A,R0
   \   000004   22           RET

   \                                 In  segment BANKED_CODE, align 1, keep-with-next
   \                     ?Subroutine88:
   \   000000   12....       LCALL   ?Subroutine204 & 0xFFFF
   \                     ??CrossCallReturnLabel_711:
   \   000003   12....       LCALL   ??SearchForDevice?relay
   \   000006   E9           MOV     A,R1
   \   000007   C3           CLR     C
   \   000008   940F         SUBB    A,#0xf
   \   00000A   22           RET

   \                                 In  segment BANKED_CODE, align 1, keep-with-next
   \                     ??Subroutine320_0:
   \   000000   12....       LCALL   ?Subroutine204 & 0xFFFF
   \                     ??CrossCallReturnLabel_713:
   \   000003   22           RET

   \                                 In  segment BANKED_CODE, align 1, keep-with-next
   \                     ?Subroutine204:
   \   000000   E0           MOVX    A,@DPTR
   \   000001   FA           MOV     R2,A
   \   000002   A3           INC     DPTR
   \   000003   E0           MOVX    A,@DPTR
   \   000004   FB           MOV     R3,A
   \   000005   22           RET
    532          
    533          
    534          
    535          //void halRfWaitTransceiverReady()
    536          //{
    537          //	while(MAC_RADIO_TRANS_NOREADY);
    538          //}
    539          
    540          static void macRfReceiveOn(void)
    541          {
    542              txState.receiveOn = TRUE;
    543              halRfReceiveOn();
    544          }
    545          
    546          #if 0
    547          static void macRvsBuf(uint8* pBuf, uint8 length)
    548          {
    549          	uint8 temp;
    550          	uint8* pBufLast = (pBuf + length - 1);
    551          
    552          	while(pBufLast > pBuf)
    553          	{
    554          		temp = *pBuf;
    555          		*pBuf++ = *pBufLast;
    556          		*pBufLast-- = temp;	
    557          	}
    558          }
    559          #endif
    560          
    561          static uint8 basicRfBuildHeader(uint8* buffer, uint16 destAddr, uint8 payloadLength, uint8 sendMod)
    562          {
    563              basicRfPktHdr_t *pHdr;
    564              uint16 fcf;
    565          
    566              pHdr= (basicRfPktHdr_t*)buffer;
    567          
    568              // Populate packet header
    569          //#ifndef SEND_OBEY_ZSTACK
    570              pHdr->packetLength = payloadLength + BASIC_RF_PACKET_OVERHEAD_SIZE;
    571          //#endif
    572              //pHdr->frameControlField = pConfig->ackRequest ? BASIC_RF_FCF_ACK : BASIC_RF_FCF_NOACK;
    573             // fcf= pConfig->ackRequest ? BASIC_RF_FCF_ACK : BASIC_RF_FCF_NOACK;
    574              fcf = pConfig->frameHead;
    575              pHdr->fcf0 = LO_UINT16(fcf);
    576              pHdr->fcf1 = HI_UINT16(fcf);
    577              pHdr->seqNumber= txState.txSeqNumber;
    578              pHdr->panId= pConfig->panId;
    579              pHdr->destAddr= destAddr;
    580              pHdr->srcAddr= pConfig->myAddr;
    581          
    582          #ifdef SECURITY_CCM
    583          
    584              // Add security to FCF, length and security header
    585              pHdr->fcf0 |= BASIC_RF_SEC_ENABLED_FCF_BM_L;
    586              pHdr->packetLength += PKT_LEN_MIC;
    587              pHdr->packetLength += BASIC_RF_AUX_HDR_LENGTH;
    588          
    589              pHdr->securityControl= SECURITY_CONTROL;
    590              pHdr->frameCounter[0]=   LO_UINT16(LO_UINT32(txState.frameCounter));
    591              pHdr->frameCounter[1]=   HI_UINT16(LO_UINT32(txState.frameCounter));
    592              pHdr->frameCounter[2]=   LO_UINT16(HI_UINT32(txState.frameCounter));
    593              pHdr->frameCounter[3]=   HI_UINT16(HI_UINT32(txState.frameCounter));
    594          	
    595          #endif
    596          
    597              // Make sure bytefields are network byte order
    598              //UINT16_HTON(pHdr->panId);
    599             // UINT16_HTON(pHdr->destAddr);
    600              //UINT16_HTON(pHdr->srcAddr);
    601          #ifdef SEND_OBEY_ZSTACK
    602              if(SEND_MODE_UNSLOTTED==sendMod)
    603              {
    604              	//return BASIC_RF_HDR_SIZE-1;
    605              	return BASIC_RF_HDR_SIZE;
    606              }else
    607              {
    608          	return BASIC_RF_HDR_SIZE;
    609              }
    610          #else
    611              return BASIC_RF_HDR_SIZE;
    612          #endif
    613          }
    614          
    615          static uint8 LongAddrBuildHeader(uint8* buffer, uint8 *extAddr, uint8 payloadLength, uint8 sendMod)
    616          {
    617          	extRfPktHdr_t *pHdr;
    618          	uint16 fcf;
    619          
    620          	pHdr= (extRfPktHdr_t*)buffer;
    621          
    622          	// Populate packet header
    623          //#ifndef SEND_OBEY_ZSTACK
    624          	pHdr->packetLength = payloadLength + 19;
    625          //#endif
    626          	//pHdr->frameControlField = pConfig->ackRequest ? BASIC_RF_FCF_ACK : BASIC_RF_FCF_NOACK;
    627          	//fcf= pConfig->ackRequest ? BASIC_RF_FCF_ACK : BASIC_RF_FCF_NOACK;
    628          	fcf = pConfig->frameHead;
    629          	pHdr->fcf0 = LO_UINT16(fcf);
    630          	pHdr->fcf1 = HI_UINT16(fcf);
    631          	pHdr->seqNumber= txState.txSeqNumber;
    632          	pHdr->panId= 0xFFFF;
    633              	osal_memcpy(pHdr->extAddr,extAddr,8);
    634              	//for(i=0;i<8;i++) pHdr->extAddr[i] = pConfig->extAddr[i];
    635              	pHdr->srcPan= pConfig->panId;
    636          	pHdr->srcAddr = pConfig->myAddr;
    637          
    638          #ifdef SEND_OBEY_ZSTACK
    639                 if(SEND_MODE_UNSLOTTED==sendMod)
    640                 {
    641                 	return (2+1+2+8+2+2+1);
    642                 }else
    643                 {
    644          		return (2+1+2+8+2+2+1);
    645          	}
    646          #else
    647          	return (2+1+2+8+2+2+1);
    648          #endif
    649          }
    650          
    651          static void macWriteTxBuf(uint8* pData, uint8 length)
    652          {
    653          	MAC_ISFLUSHTX();
    654          	MAC_CLEAR_TX_INT();
    655          	macMemWriteTxFifo(pData,length);	
    656          }
    657          

   \                                 In  segment BANKED_CODE, align 1, keep-with-next
    658          static uint8 macBuildMpdu(uint16 destAddr, uint8* pPayload, uint8 payloadLength,uint8 *extAddr,uint8 buMode, uint8 sendMod)
   \                     macBuildMpdu:
    659          {
   \   000000   74F1         MOV     A,#-0xf
   \   000002   12....       LCALL   ?BANKED_ENTER_XDATA
   \   000005                ; Saved register size: 15
   \   000005                ; Auto size: 0
   \   000005   EC           MOV     A,R4
   \   000006   FE           MOV     R6,A
   \   000007   ED           MOV     A,R5
   \   000008   FF           MOV     R7,A
   \   000009   89..         MOV     ?V0 + 2,R1
   \   00000B   740F         MOV     A,#0xf
   \   00000D   12....       LCALL   ?XSTACK_DISP0_8
   \   000010   12....       LCALL   ?Subroutine95 & 0xFFFF
   \                     ??CrossCallReturnLabel_156:
   \   000013   7411         MOV     A,#0x11
   \   000015   12....       LCALL   ?XSTACK_DISP0_8
   \   000018   E0           MOVX    A,@DPTR
    660          	uint8 hdrLength, n;
    661          	
    662          	if(0==buMode)
   \   000019   7020         JNZ     ??macBuildMpdu_0
    663          	{
    664          		hdrLength = basicRfBuildHeader(txMpdu, destAddr, payloadLength,sendMod);
   \   00001B   740B         MOV     A,#0xb
   \   00001D   12....       LCALL   ?Subroutine32 & 0xFFFF
   \                     ??CrossCallReturnLabel_44:
   \   000020   12....       LCALL   ?Subroutine72 & 0xFFFF
   \                     ??CrossCallReturnLabel_114:
   \   000023   90....       MOV     DPTR,#txMpdu + 4
   \   000026   12....       LCALL   ?Subroutine163 & 0xFFFF
   \                     ??CrossCallReturnLabel_311:
   \   000029   A3           INC     DPTR
   \   00002A   EA           MOV     A,R2
   \   00002B   F0           MOVX    @DPTR,A
   \   00002C   A3           INC     DPTR
   \   00002D   EB           MOV     A,R3
   \   00002E   12....       LCALL   ?Subroutine64 & 0xFFFF
   \                     ??CrossCallReturnLabel_444:
   \   000031   90....       MOV     DPTR,#txMpdu + 8
   \   000034   12....       LCALL   ?Subroutine163 & 0xFFFF
    665          	}else
   \                     ??CrossCallReturnLabel_312:
   \   000037   7B0A         MOV     R3,#0xa
   \   000039   803C         SJMP    ??macBuildMpdu_1
    666          	{
    667          		hdrLength = LongAddrBuildHeader(txMpdu, extAddr,payloadLength,sendMod);
   \                     ??macBuildMpdu_0:
   \   00003B   7413         MOV     A,#0x13
   \   00003D   12....       LCALL   ?Subroutine32 & 0xFFFF
   \                     ??CrossCallReturnLabel_45:
   \   000040   A3           INC     DPTR
   \   000041   74FF         MOV     A,#-0x1
   \   000043   F0           MOVX    @DPTR,A
   \   000044   A3           INC     DPTR
   \   000045   F0           MOVX    @DPTR,A
   \   000046                ; Setup parameters for call to function osal_memcpy
   \   000046   85....       MOV     ?V0 + 4,?V0 + 0
   \   000049   85....       MOV     ?V0 + 5,?V0 + 1
   \   00004C   75..00       MOV     ?V0 + 6,#0x0
   \   00004F   78..         MOV     R0,#?V0 + 4
   \   000051   12....       LCALL   ?PUSH_XSTACK_I_THREE
   \   000054   7C08         MOV     R4,#0x8
   \   000056   7D00         MOV     R5,#0x0
   \   000058   7A..         MOV     R2,#(txMpdu + 6) & 0xff
   \   00005A   7B..         MOV     R3,#((txMpdu + 6) >> 8) & 0xff
   \   00005C   12....       LCALL   ??Subroutine338_0 & 0xFFFF
   \                     ??CrossCallReturnLabel_804:
   \   00005F   12....       LCALL   ?DEALLOC_XSTACK8
   \   000062   12....       LCALL   ?Subroutine72 & 0xFFFF
   \                     ??CrossCallReturnLabel_115:
   \   000065   90....       MOV     DPTR,#txMpdu + 14
   \   000068   E8           MOV     A,R0
   \   000069   F0           MOVX    @DPTR,A
   \   00006A   A3           INC     DPTR
   \   00006B   E9           MOV     A,R1
   \   00006C   12....       LCALL   ?Subroutine64 & 0xFFFF
   \                     ??CrossCallReturnLabel_445:
   \   00006F   90....       MOV     DPTR,#txMpdu + 16
   \   000072   12....       LCALL   ?Subroutine163 & 0xFFFF
    668          	}
   \                     ??CrossCallReturnLabel_313:
   \   000075   7B12         MOV     R3,#0x12
    669          
    670          	for(n=0;n<payloadLength;n++)
   \                     ??macBuildMpdu_1:
   \   000077   7A00         MOV     R2,#0x0
   \   000079   8026         SJMP    ??macBuildMpdu_2
    671          	{
    672          		txMpdu[hdrLength+n] = pPayload[n];
   \                     ??macBuildMpdu_3:
   \   00007B   8A82         MOV     DPL,R2
   \   00007D   A882         MOV     R0,DPL
   \   00007F   EE           MOV     A,R6
   \   000080   28           ADD     A,R0
   \   000081   F582         MOV     DPL,A
   \   000083   EF           MOV     A,R7
   \   000084   12....       LCALL   ??Subroutine331_0 & 0xFFFF
    673          	}
   \                     ??CrossCallReturnLabel_752:
   \   000087   C0E0         PUSH    A
   \   000089   8B..         MOV     ?V0 + 0,R3
   \   00008B   E5..         MOV     A,?V0 + 0
   \   00008D   28           ADD     A,R0
   \   00008E   F8           MOV     R0,A
   \   00008F   E4           CLR     A
   \   000090   3400         ADDC    A,#0x0
   \   000092   F9           MOV     R1,A
   \   000093   74..         MOV     A,#txMpdu & 0xff
   \   000095   28           ADD     A,R0
   \   000096   F582         MOV     DPL,A
   \   000098   74..         MOV     A,#(txMpdu >> 8) & 0xff
   \   00009A   39           ADDC    A,R1
   \   00009B   F583         MOV     DPH,A
   \   00009D   D0E0         POP     A
   \   00009F   F0           MOVX    @DPTR,A
   \   0000A0   0A           INC     R2
   \                     ??macBuildMpdu_2:
   \   0000A1   EA           MOV     A,R2
   \   0000A2   C3           CLR     C
   \   0000A3   95..         SUBB    A,?V0 + 2
   \   0000A5   40D4         JC      ??macBuildMpdu_3
    674          	return hdrLength + payloadLength; // total mpdu length
   \   0000A7   EB           MOV     A,R3
   \   0000A8   25..         ADD     A,?V0 + 2
   \   0000AA   F9           MOV     R1,A
   \   0000AB   80..         SJMP    ??Subroutine272_0
    675          }

   \                                 In  segment BANKED_CODE, align 1, keep-with-next
   \                     ??Subroutine272_0:
   \   000000   7F07         MOV     R7,#0x7
   \   000002   02....       LJMP    ?BANKED_LEAVE_XDATA

   \                                 In  segment BANKED_CODE, align 1, keep-with-next
   \                     ?Subroutine95:
   \   000000   E0           MOVX    A,@DPTR
   \   000001   F5..         MOV     ?V0 + 0,A
   \   000003   A3           INC     DPTR
   \   000004   E0           MOVX    A,@DPTR
   \   000005   F5..         MOV     ?V0 + 1,A
   \   000007   22           RET
    676          
    677          static uint8 halRfTransmit(void)
    678          {
    679          	uint8 status;
    680          
    681          	MAC_ISTXON(); // Sending
    682          
    683          	// Waiting for transmission to finish
    684          	txState.txDone = TXSTATE_TXDONE_PENDING;
    685          #ifndef RF_SEND_INT
    686          	while(!(RFIRQF1 & IRQ_TXDONE) );
    687          	RFIRQF1 = ~IRQ_TXDONE;
    688          #endif
    689          
    690          	status= SUCCESS;
    691          
    692          	return status;
    693          }
    694          
    695          //uint8 macRfSendPacket(uint16 destAddr, uint8* pPayload,uint8 length,uint8* extAddr ,uint8 addrMod)

   \                                 In  segment BANKED_CODE, align 1, keep-with-next
    696          uint8 macRfSendPacket(uint16 destAddr, uint8* pPayload,uint8 length,uint8* extAddr ,uint8 addrMod,uint8 sendMod)
   \                     macRfSendPacket:
    697          {
   \   000000   74F5         MOV     A,#-0xb
   \   000002   12....       LCALL   ?BANKED_ENTER_XDATA
   \   000005                ; Saved register size: 11
   \   000005                ; Auto size: 0
   \   000005   E9           MOV     A,R1
   \   000006   FE           MOV     R6,A
   \   000007   740B         MOV     A,#0xb
   \   000009   12....       LCALL   ?XSTACK_DISP0_8
   \   00000C   12....       LCALL   ?Subroutine95 & 0xFFFF
   \                     ??CrossCallReturnLabel_157:
   \   00000F   740D         MOV     A,#0xd
   \   000011   12....       LCALL   ?XSTACK_DISP0_8
   \   000014   E0           MOVX    A,@DPTR
   \   000015   F9           MOV     R1,A
   \   000016   740E         MOV     A,#0xe
   \   000018   12....       LCALL   ?XSTACK_DISP0_8
   \   00001B   E0           MOVX    A,@DPTR
   \   00001C   F8           MOV     R0,A
    698          	uint8 mpduLength;
    699          	uint8 status;
    700          
    701          
    702          	// Turn on receiver if its not on
    703          /*
    704          	if(!txState.receiveOn) 
    705          	{
    706          		halRfReceiveOn();
    707          	}
    708          */
    709          
    710          	if(TXSTATE_TXDONE_PENDING==txState.txDone)
   \   00001D   90....       MOV     DPTR,#txState + 2
   \   000020   E0           MOVX    A,@DPTR
   \   000021   6401         XRL     A,#0x1
   \   000023   7002         JNZ     ??macRfSendPacket_0
    711          	{
    712          		//while(!(RFIRQF1 & IRQ_TXDONE) );					//wait till the previous send completed
    713          		txState.txDone = TXSTATE_TXDONE_CLEAR;
   \   000025   E4           CLR     A
   \   000026   F0           MOVX    @DPTR,A
    714          		//return FAILURE;
    715          	}
    716          
    717          #ifdef _RT_AP_
    718          
    719          	AP_TXEN = 1;
    720          
    721          #endif
    722          
    723          	// Check packet length
    724          	length = min(length, BASIC_RF_MAX_PAYLOAD_SIZE);
   \                     ??macRfSendPacket_0:
   \   000027   EE           MOV     A,R6
   \   000028   C3           CLR     C
   \   000029   9467         SUBB    A,#0x67
   \   00002B   4002         JC      ??macRfSendPacket_1
   \   00002D   7E67         MOV     R6,#0x67
    725          
    726          	// Wait until the transceiver is idle
    727          	halRfWaitTransceiverReady();
   \                     ??macRfSendPacket_1:
   \   00002F   906193       MOV     DPTR,#0x6193
   \   000032   E0           MOVX    A,@DPTR
   \   000033   5422         ANL     A,#0x22
   \   000035   70F8         JNZ     ??macRfSendPacket_1
    728          
    729          	// Turn off RX frame done interrupt to avoid interference on the SPI interface
    730          	macDisableRxInterrupt();
   \   000037   9061A3       MOV     DPTR,#0x61a3
   \   00003A   E0           MOVX    A,@DPTR
   \   00003B   C2E6         CLR     0xE0 /* A   */.6
   \   00003D   F0           MOVX    @DPTR,A
   \   00003E   539AFE       ANL     0x9a,#0xfe
    731          
    732          	//mpduLength = macBuildMpdu(destAddr, pPayload, length,pConfig->devHead[pConfig->pCurrentDev].extAddr,addrMod);
    733          	//mpduLength = macBuildMpdu(destAddr, pPayload, length,pCurrentDev->extAddr,addrMod);
    734          	mpduLength = macBuildMpdu(destAddr, pPayload, length,extAddr,addrMod,sendMod);
   \   000041                ; Setup parameters for call to function macBuildMpdu
   \   000041   E8           MOV     A,R0
   \   000042   F5..         MOV     ?V0 + 2,A
   \   000044   78..         MOV     R0,#?V0 + 2
   \   000046   12....       LCALL   ?PUSH_XSTACK_I_ONE
   \   000049   E9           MOV     A,R1
   \   00004A   F5..         MOV     ?V0 + 2,A
   \   00004C   78..         MOV     R0,#?V0 + 2
   \   00004E   12....       LCALL   ?PUSH_XSTACK_I_ONE
   \   000051   78..         MOV     R0,#?V0 + 0
   \   000053   12....       LCALL   ?PUSH_XSTACK_I_TWO
   \   000056   EE           MOV     A,R6
   \   000057   F9           MOV     R1,A
   \   000058   12....       LCALL   ??macBuildMpdu?relay
   \   00005B   7404         MOV     A,#0x4
   \   00005D   12....       LCALL   ?DEALLOC_XSTACK8
    735          
    736          #ifdef SECURITY_CCM
    737          	halRfWriteTxBufSecure(txMpdu, mpduLength, length, BASIC_RF_LEN_AUTH, BASIC_RF_SECURITY_M);
    738          	txState.frameCounter++;     // Increment frame counter field
    739          #else
    740          
    741          #ifdef SEND_OBEY_ZSTACK
    742          	if(SEND_MODE_UNSLOTTED==sendMod)
    743          	{
    744          		pMacDataTx = &macDataTx;
    745          		pMacDataTx->msdu.p = txMpdu+1;
    746          		pMacDataTx->msdu.len = mpduLength-1;			//why
    747          		//macTxFrame(MAC_TX_TYPE_SLOTTED_CSMA);
    748          		macTxFrame(MAC_TX_TYPE_UNSLOTTED_CSMA);
    749          		//macWaitSendOk();
    750          	}else
    751          	{
    752          		macWriteTxBuf(txMpdu, mpduLength);
    753          	}
    754          #else
    755          	macWriteTxBuf(txMpdu, mpduLength);
   \   000060   75E1EE       MOV     0xe1,#-0x12
   \   000063   7591FD       MOV     0x91,#-0x3
   \   000066                ; Setup parameters for call to function macMemWriteTxFifo
   \   000066   7A..         MOV     R2,#txMpdu & 0xff
   \   000068   7B..         MOV     R3,#(txMpdu >> 8) & 0xff
   \   00006A   12....       LCALL   ??macMemWriteTxFifo?relay
    756          #endif
    757          	//pMacDataTx->msdu.p = txMpdu;
    758          	//pMacDataTx->msdu.len = mpduLength;
    759          	//macTxFrame(MAC_TX_TYPE_SLOTTED_CSMA);
    760          #endif
    761          
    762          
    763          	// Turn on RX frame done interrupt for ACK reception
    764          	macEnableRxInterrupt();
   \   00006D   9061A3       MOV     DPTR,#0x61a3
   \   000070   E0           MOVX    A,@DPTR
   \   000071   D2E6         SETB    0xE0 /* A   */.6
   \   000073   F0           MOVX    @DPTR,A
   \   000074   439A01       ORL     0x9a,#0x1
    765          
    766          	//FINGER2 = 0;
    767          	// Send frame with CCA. return FAILED if not successful
    768          	//its takes the most time
    769          #ifdef SEND_OBEY_ZSTACK
    770          	//macTxDoneCallback();
    771          	if(SEND_MODE_UNSLOTTED==sendMod)
    772          	{
    773          		status = SUCCESS;
    774          	}else
    775          	{
    776          		if(halRfTransmit() != SUCCESS) 
    777          		{
    778          			status = FAILURE;
    779          		}else
    780          		{
    781          			status = SUCCESS;
    782          		}
    783          	}
    784          #else
    785          	if(halRfTransmit() != SUCCESS) 
   \   000077   75E1E9       MOV     0xe1,#-0x17
   \   00007A   90....       MOV     DPTR,#txState + 2
   \   00007D   7401         MOV     A,#0x1
   \   00007F   F0           MOVX    @DPTR,A
    786          	{
    787          		status = FAILURE;
    788          	}else
    789          	{
    790          		status = SUCCESS;
    791          	}
    792          #endif
    793          	//FINGER2 = 1;
    794          
    795          	// Wait for the acknowledge to be received, if any
    796          #if 0					//skip waitting for ack for debug
    797          	if (pConfig->ackRequest) {
    798          	txState.ackReceived = FALSE;
    799          
    800          	// We'll enter RX automatically, so just wait until we can be sure that the ack reception should have finished
    801          	// The timeout consists of a 12-symbol turnaround time, the ack packet duration, and a small margin
    802          	halMcuWaitUs((12 * BASIC_RF_SYMBOL_DURATION) + (BASIC_RF_ACK_DURATION) + (2 * BASIC_RF_SYMBOL_DURATION) + 10);
    803          
    804          	// If an acknowledgment has been received (by RxFrmDoneIsr), the ackReceived flag should be set
    805          	status = txState.ackReceived ? SUCCESS : FAILED;
    806          
    807          	} else {
    808          	status = SUCCESS;
    809          	}
    810          #endif 
    811          
    812          	// Turn off the receiver if it should not continue to be enabled
    813          /*
    814          	if (!txState.receiveOn) 
    815          	{
    816          		macReceiveOff();
    817          	}
    818          */
    819          
    820          	if(status == SUCCESS) 
    821          	{
    822          		txState.txSeqNumber++;
   \   000080   90....       MOV     DPTR,#txState
   \   000083   E0           MOVX    A,@DPTR
   \   000084   04           INC     A
   \   000085   F0           MOVX    @DPTR,A
    823          	}
    824          
    825          #ifdef SECURITY_CCM
    826          	halRfIncNonceTx();          // Increment nonce value
    827          #endif
    828          
    829          
    830          	return status;
   \   000086   7900         MOV     R1,#0x0
   \   000088   02....       LJMP    ??Subroutine279_0 & 0xFFFF
   \   00008B                REQUIRE IEN2
   \   00008B                REQUIRE RFST
   \   00008B                REQUIRE RFIRQF1
    831          
    832          }

   \                                 In  segment BANKED_CODE, align 1, keep-with-next
   \                     ??Subroutine279_0:
   \   000000   7F03         MOV     R7,#0x3
   \   000002   02....       LJMP    ?BANKED_LEAVE_XDATA
    833          
    834          static void macSetChan(uint8 chan)
    835          {
    836          	MAC_INT_OFF();
    837          	MAC_RADIO_SET_CHANNEL(chan);
    838          	MAC_INT_ON();
    839          }
    840          
    841          static void macSetShortAddr(uint16 sAddr)
    842          {
    843          	MAC_INT_OFF();
    844          	MAC_RADIO_SET_SHORT_ADDR(sAddr);
    845          	MAC_INT_ON();
    846          }
    847          
    848          static void macSetPanID(uint16 panID)
    849          {
    850          	MAC_INT_OFF();
    851          	MAC_RADIO_SET_PAN_ID(panID);
    852          	MAC_INT_ON();
    853          }
    854          
    855          

   \                                 In  segment BANKED_CODE, align 1, keep-with-next
    856          static void macParameterSet(void)
   \                     macParameterSet:
    857          {
   \   000000   C082         PUSH    DPL
   \   000002   C083         PUSH    DPH
   \   000004                ; Saved register size: 2
   \   000004                ; Auto size: 0
    858          	MAC_INT_OFF();
   \   000004   C2AF         CLR     0xa8.7
    859          
    860          	// Set channel
    861          	if(RF_CHAN_AUTO==pConfig->channel)
   \   000006   12....       LCALL   ?Subroutine70 & 0xFFFF
   \                     ??CrossCallReturnLabel_104:
   \   000009   75F005       MOV     B,#0x5
   \   00000C   7003         JNZ     ??CrossCallReturnLabel_159
    862          	{
    863          		//MAC_RADIO_SET_CHANNEL(RF_CHANNEL);
    864          		MAC_RADIO_SET_CHANNEL(pConfig->autoChan);
   \   00000E   12....       LCALL   ?Subroutine96 & 0xFFFF
    865          	}else
    866          	{
    867          		MAC_RADIO_SET_CHANNEL(pConfig->channel);
   \                     ??CrossCallReturnLabel_159:
   \   000011   A4           MUL     AB
   \   000012   24D4         ADD     A,#-0x2c
   \   000014   90618F       MOV     DPTR,#0x618f
   \   000017   F0           MOVX    @DPTR,A
    868          	}
    869          
    870          	// Write the short address and the PAN ID to the CC2520 RAM
    871          	MAC_RADIO_SET_SHORT_ADDR(pConfig->myAddr);
   \   000018   12....       LCALL   ?Subroutine25 & 0xFFFF
    872          	MAC_RADIO_SET_PAN_ID(pConfig->panId);
   \                     ??CrossCallReturnLabel_453:
   \   00001B   12....       LCALL   ?Subroutine216 & 0xFFFF
   \                     ??CrossCallReturnLabel_899:
   \   00001E   A3           INC     DPTR
   \   00001F   A3           INC     DPTR
   \   000020   E0           MOVX    A,@DPTR
   \   000021   906172       MOV     DPTR,#0x6172
   \   000024   F0           MOVX    @DPTR,A
   \   000025   12....       LCALL   ?Subroutine114 & 0xFFFF
   \                     ??CrossCallReturnLabel_197:
   \   000028   E0           MOVX    A,@DPTR
   \   000029   906173       MOV     DPTR,#0x6173
   \   00002C   F0           MOVX    @DPTR,A
    873          
    874          	//MAC_RADIO_SET_IEEE_ADDR(pConfig->extAddr);	
    875          
    876          	MAC_MCU_OR_RFIRQM1(IRQ_TXDONE);			//Enable TxDone interrupt
   \   00002D   9061A4       MOV     DPTR,#0x61a4
   \   000030   E0           MOVX    A,@DPTR
   \   000031   D2E1         SETB    0xE0 /* A   */.1
   \   000033   F0           MOVX    @DPTR,A
    877          	MAC_MCU_OR_RFIRQM1(IRQ_TXACKDONE);
   \   000034   E0           MOVX    A,@DPTR
   \   000035   D2E0         SETB    0xE0 /* A   */.0
   \   000037   F0           MOVX    @DPTR,A
    878          	MAC_INT_ON();
   \   000038   D2AF         SETB    0xa8.7
    879          }
   \   00003A   02....       LJMP    ??Subroutine299_0 & 0xFFFF
   \   00003D                REQUIRE _A_IEN0

   \                                 In  segment BANKED_CODE, align 1, keep-with-next
   \                     ?Subroutine25:
   \   000000   90....       MOV     DPTR,#pConfig + 1
   \   000003                REQUIRE ??Subroutine273_0
   \   000003                ; // Fall through to label ??Subroutine273_0

   \                                 In  segment BANKED_CODE, align 1, keep-with-next
   \                     ??Subroutine273_0:
   \   000000   12....       LCALL   ??Subroutine350_0 & 0xFFFF
   \                     ??CrossCallReturnLabel_898:
   \   000003   E0           MOVX    A,@DPTR
   \   000004   906174       MOV     DPTR,#0x6174
   \   000007   F0           MOVX    @DPTR,A
   \   000008   12....       LCALL   ?Subroutine216 & 0xFFFF
   \                     ??CrossCallReturnLabel_900:
   \   00000B   A3           INC     DPTR
   \   00000C   E0           MOVX    A,@DPTR
   \   00000D   906175       MOV     DPTR,#0x6175
   \   000010   F0           MOVX    @DPTR,A
   \   000011   22           RET

   \                                 In  segment BANKED_CODE, align 1, keep-with-next
   \                     ?Subroutine114:
   \   000000   12....       LCALL   ?Subroutine215 & 0xFFFF
   \                     ??CrossCallReturnLabel_374:
   \   000003   22           RET

   \                                 In  segment BANKED_CODE, align 1, keep-with-next
   \                     ?Subroutine215:
   \   000000   90....       MOV     DPTR,#pConfig + 1
   \   000003   12....       LCALL   ?Subroutine245 & 0xFFFF
   \                     ??CrossCallReturnLabel_663:
   \   000006   22           RET

   \                                 In  segment BANKED_CODE, align 1, keep-with-next
   \                     ?Subroutine96:
   \   000000   12....       LCALL   ?Subroutine215 & 0xFFFF
   \                     ??CrossCallReturnLabel_373:
   \   000003   A3           INC     DPTR
   \   000004   A3           INC     DPTR
   \   000005   E0           MOVX    A,@DPTR
   \   000006   22           RET

   \                                 In  segment BANKED_CODE, align 1, keep-with-next
   \                     ?Subroutine245:
   \   000000   E0           MOVX    A,@DPTR
   \   000001   F583         MOV     DPH,A
   \   000003   8882         MOV     DPL,R0
   \   000005   A3           INC     DPTR
   \   000006   A3           INC     DPTR
   \   000007   A3           INC     DPTR
   \   000008   22           RET

   \                                 In  segment BANKED_CODE, align 1, keep-with-next
   \                     ?Subroutine70:
   \   000000   12....       LCALL   ?Subroutine193 & 0xFFFF
   \                     ??CrossCallReturnLabel_662:
   \   000003   22           RET

   \                                 In  segment BANKED_CODE, align 1, keep-with-next
   \                     ?Subroutine193:
   \   000000   90....       MOV     DPTR,#pConfig
   \   000003   E0           MOVX    A,@DPTR
   \   000004   F8           MOV     R0,A
   \   000005   A3           INC     DPTR
   \   000006                REQUIRE ??Subroutine319_0
   \   000006                ; // Fall through to label ??Subroutine319_0

   \                                 In  segment BANKED_CODE, align 1, keep-with-next
   \                     ??Subroutine319_0:
   \   000000   12....       LCALL   ?Subroutine245 & 0xFFFF
   \                     ??CrossCallReturnLabel_665:
   \   000003   A3           INC     DPTR
   \   000004   E0           MOVX    A,@DPTR
   \   000005   22           RET

   \                                 In  segment BANKED_CODE, align 1, keep-with-next
   \                     ?Subroutine216:
   \   000000   90....       MOV     DPTR,#pConfig + 1
   \   000003                REQUIRE ??Subroutine350_0
   \   000003                ; // Fall through to label ??Subroutine350_0

   \                                 In  segment BANKED_CODE, align 1, keep-with-next
   \                     ??Subroutine350_0:
   \   000000   E0           MOVX    A,@DPTR
   \   000001   F583         MOV     DPH,A
   \   000003   8882         MOV     DPL,R0
   \   000005   22           RET
    880          

   \                                 In  segment BANKED_CODE, align 1, keep-with-next
    881          MAC_DATAREQ_API static void devChangeGroup(macRx_t* pck)
   \                     devChangeGroup:
    882          {
   \   000000   74F6         MOV     A,#-0xa
   \   000002   12....       LCALL   ?BANKED_ENTER_XDATA
   \   000005                ; Saved register size: 10
   \   000005                ; Auto size: 0
    883          	//pConfig->group++;
    884          	if(pConfig->group>4)
   \   000005   90....       MOV     DPTR,#pConfig
   \   000008   E0           MOVX    A,@DPTR
   \   000009   2427         ADD     A,#0x27
   \   00000B   12....       LCALL   ??Subroutine298_0 & 0xFFFF
   \                     ??CrossCallReturnLabel_552:
   \   00000E   C3           CLR     C
   \   00000F   9405         SUBB    A,#0x5
   \   000011   4002         JC      ??devChangeGroup_0
    885          	{
    886          		pConfig->group = 0;
   \   000013   E4           CLR     A
   \   000014   F0           MOVX    @DPTR,A
    887          	}
    888          	pConfig->frameHead = 0x8841;
   \                     ??devChangeGroup_0:
   \   000015   12....       LCALL   ?Subroutine18 & 0xFFFF
    889          	pConfig->destAddr = 0xFFFF;
    890          	pTxData[0] = 0x04;
    891          	pTxData[1] = 0x00;
    892          	pTxData[2] = 0x31;
   \                     ??CrossCallReturnLabel_12:
   \   000018   7431         MOV     A,#0x31
   \   00001A   12....       LCALL   ??Subroutine347_0 & 0xFFFF
    893          	pTxData[3] = pConfig->group;
   \                     ??CrossCallReturnLabel_859:
   \   00001D   12....       LCALL   ?Subroutine134 & 0xFFFF
    894          	g_sendLen = 4;
    895          	//macRfSendPacket(pConfig->destAddr, pTxData, g_sendLen,NULL,0);	
    896          	macRfSendPacket(pConfig->destAddr, pTxData, g_sendLen,NULL,0,SEND_MODE_UNSLOTTED);	
   \                     ??CrossCallReturnLabel_848:
   \   000020   12....       LCALL   ?PUSH_XSTACK_I_ONE
   \   000023   75..00       MOV     ?V0 + 0,#0x0
   \   000026   78..         MOV     R0,#?V0 + 0
   \   000028   12....       LCALL   ?PUSH_XSTACK_I_ONE
   \   00002B   E4           CLR     A
   \   00002C   F5..         MOV     ?V0 + 1,A
   \   00002E   78..         MOV     R0,#?V0 + 0
   \   000030   12....       LCALL   ?PUSH_XSTACK_I_TWO
   \   000033   7904         MOV     R1,#0x4
   \   000035   7C..         MOV     R4,#pTxData & 0xff
   \   000037   7D..         MOV     R5,#(pTxData >> 8) & 0xff
   \   000039   8A82         MOV     DPL,R2
   \   00003B   8B83         MOV     DPH,R3
   \   00003D   12....       LCALL   ??Subroutine323_0 & 0xFFFF
   \                     ??CrossCallReturnLabel_694:
   \   000040   12....       LCALL   ?DEALLOC_XSTACK8
    897          	veriPckSendCallback=&ReadyInfo;
   \   000043   12....       LCALL   ?Subroutine137 & 0xFFFF
    898          	osal_start_timerEx( macEx_taskId, MACEX_VERI_SEND_INQURE, 50+(osal_rand()&0x0F));	
   \                     ??CrossCallReturnLabel_249:
   \   000046   2432         ADD     A,#0x32
   \   000048   02....       LJMP    ?Subroutine7 & 0xFFFF
    899          }

   \                                 In  segment BANKED_CODE, align 1, keep-with-next
   \                     ?Subroutine18:
   \   000000   12....       LCALL   ?Subroutine183 & 0xFFFF
   \                     ??CrossCallReturnLabel_347:
   \   000003   7404         MOV     A,#0x4
   \   000005   12....       LCALL   ??Subroutine343_0 & 0xFFFF
   \                     ??CrossCallReturnLabel_834:
   \   000008   A3           INC     DPTR
   \   000009   22           RET

   \                                 In  segment BANKED_CODE, align 1, keep-with-next
   \                     ?Subroutine221:
   \   000000   F0           MOVX    @DPTR,A
   \   000001   90....       MOV     DPTR,#pConfig
   \   000004   E0           MOVX    A,@DPTR
   \   000005   22           RET

   \                                 In  segment BANKED_CODE, align 1, keep-with-next
   \                     ?Subroutine241:
   \   000000   F0           MOVX    @DPTR,A
   \   000001                ; Setup parameters for call to function osal_rand
   \   000001                ; Setup parameters for call to function osal_rand
   \   000001                ; Setup parameters for call to function osal_rand
   \   000001                ; Setup parameters for call to function osal_rand
   \   000001                ; Setup parameters for call to function osal_rand
   \   000001                ; Setup parameters for call to function osal_rand
   \   000001                ; Setup parameters for call to function osal_rand
   \   000001                ; Setup parameters for call to function osal_rand
   \   000001                ; Setup parameters for call to function osal_rand
   \   000001                REQUIRE ??Subroutine304_0
   \   000001                ; // Fall through to label ??Subroutine304_0

   \                                 In  segment BANKED_CODE, align 1, keep-with-next
   \                     ??Subroutine304_0:
   \   000000   12....       LCALL   ??osal_rand?relay
   \   000003                ; Setup parameters for call to function osal_start_timerEx
   \   000003                ; Setup parameters for call to function osal_start_timerEx
   \   000003                ; Setup parameters for call to function osal_start_timerEx
   \   000003                ; Setup parameters for call to function osal_start_timerEx
   \   000003                ; Setup parameters for call to function osal_start_timerEx
   \   000003                ; Setup parameters for call to function osal_start_timerEx
   \   000003                ; Setup parameters for call to function osal_start_timerEx
   \   000003                ; Setup parameters for call to function osal_start_timerEx
   \   000003                ; Setup parameters for call to function osal_start_timerEx
   \   000003                ; Setup parameters for call to function osal_start_timerEx
   \   000003                ; Setup parameters for call to function osal_start_timerEx
   \   000003                ; Setup parameters for call to function osal_start_timerEx
   \   000003                ; Setup parameters for call to function osal_start_timerEx
   \   000003                ; Setup parameters for call to function osal_start_timerEx
   \   000003                ; Setup parameters for call to function osal_start_timerEx
   \   000003                ; Setup parameters for call to function osal_start_timerEx
   \   000003                ; Setup parameters for call to function osal_start_timerEx
   \   000003                ; Setup parameters for call to function osal_start_timerEx
   \   000003   EA           MOV     A,R2
   \   000004   22           RET

   \                                 In  segment BANKED_CODE, align 1, keep-with-next
   \                     ?Subroutine137:
   \   000000   90....       MOV     DPTR,#veriPckSendCallback
   \   000003   74..         MOV     A,#??ReadyInfo?relay & 0xff
   \   000005   F0           MOVX    @DPTR,A
   \   000006   A3           INC     DPTR
   \   000007   74..         MOV     A,#(??ReadyInfo?relay >> 8) & 0xff
   \   000009   12....       LCALL   ?Subroutine241 & 0xFFFF
   \                     ??CrossCallReturnLabel_584:
   \   00000C   540F         ANL     A,#0xf
   \   00000E   22           RET

   \                                 In  segment BANKED_CODE, align 1, keep-with-next
   \                     ??Subroutine323_0:
   \   000000   12....       LCALL   ?Subroutine204 & 0xFFFF
   \                     ??CrossCallReturnLabel_714:
   \   000003   12....       LCALL   ??macRfSendPacket?relay
   \   000006   7404         MOV     A,#0x4
   \   000008   22           RET

   \                                 In  segment BANKED_CODE, align 1, keep-with-next
   \                     ?Subroutine183:
   \   000000   12....       LCALL   ?Subroutine243 & 0xFFFF
   \                     ??CrossCallReturnLabel_413:
   \   000003   22           RET

   \                                 In  segment BANKED_CODE, align 1, keep-with-next
   \                     ?Subroutine243:
   \   000000   90....       MOV     DPTR,#pConfig
   \   000003   E0           MOVX    A,@DPTR
   \   000004   240B         ADD     A,#0xb
   \   000006   12....       LCALL   ?Subroutine262 & 0xFFFF
   \                     ??CrossCallReturnLabel_919:
   \   000009   7441         MOV     A,#0x41
   \   00000B   F0           MOVX    @DPTR,A
   \   00000C   A3           INC     DPTR
   \   00000D   7488         MOV     A,#-0x78
   \   00000F   12....       LCALL   ?Subroutine263 & 0xFFFF
   \                     ??CrossCallReturnLabel_429:
   \   000012   8A82         MOV     DPL,R2
   \   000014   8B83         MOV     DPH,R3
   \   000016   74FF         MOV     A,#-0x1
   \   000018   F0           MOVX    @DPTR,A
   \   000019   A3           INC     DPTR
   \   00001A   F0           MOVX    @DPTR,A
   \   00001B   90....       MOV     DPTR,#pTxData
   \   00001E   22           RET

   \                                 In  segment BANKED_CODE, align 1, keep-with-next
   \                     ?Subroutine7:
   \   000000   FC           MOV     R4,A
   \   000001                REQUIRE ??Subroutine333_0
   \   000001                ; // Fall through to label ??Subroutine333_0

   \                                 In  segment BANKED_CODE, align 1, keep-with-next
   \                     ??Subroutine333_0:
   \   000000   7D00         MOV     R5,#0x0
   \   000002                REQUIRE ??Subroutine334_0
   \   000002                ; // Fall through to label ??Subroutine334_0

   \                                 In  segment BANKED_CODE, align 1, keep-with-next
   \                     ??Subroutine334_0:
   \   000000   7A02         MOV     R2,#0x2
   \   000002                REQUIRE ??Subroutine335_0
   \   000002                ; // Fall through to label ??Subroutine335_0

   \                                 In  segment BANKED_CODE, align 1, keep-with-next
   \                     ??Subroutine335_0:
   \   000000   7B00         MOV     R3,#0x0
   \   000002                REQUIRE ??Subroutine336_0
   \   000002                ; // Fall through to label ??Subroutine336_0

   \                                 In  segment BANKED_CODE, align 1, keep-with-next
   \                     ??Subroutine336_0:
   \   000000   12....       LCALL   ??Subroutine342_0 & 0xFFFF
   \                     ??CrossCallReturnLabel_833:
   \   000003   02....       LJMP    ??Subroutine318_0 & 0xFFFF

   \                                 In  segment BANKED_CODE, align 1, keep-with-next
   \                     ??Subroutine342_0:
   \   000000   90....       MOV     DPTR,#macEx_taskId
   \   000003   E0           MOVX    A,@DPTR
   \   000004   F9           MOV     R1,A
   \   000005   12....       LCALL   ??osal_start_timerEx?relay
   \   000008   22           RET

   \                                 In  segment BANKED_CODE, align 1, keep-with-next
   \                     ?Subroutine225:
   \   000000   F0           MOVX    @DPTR,A
   \   000001   90....       MOV     DPTR,#g_sendLen
   \   000004   22           RET

   \                                 In  segment BANKED_CODE, align 1, keep-with-next
   \                     ??Subroutine343_0:
   \   000000   F0           MOVX    @DPTR,A
   \   000001   A3           INC     DPTR
   \   000002   E4           CLR     A
   \   000003   F0           MOVX    @DPTR,A
   \   000004   22           RET

   \                                 In  segment BANKED_CODE, align 1, keep-with-next
   \                     ?Subroutine262:
   \   000000   F8           MOV     R0,A
   \   000001                REQUIRE ??Subroutine345_0
   \   000001                ; // Fall through to label ??Subroutine345_0

   \                                 In  segment BANKED_CODE, align 1, keep-with-next
   \                     ?Subroutine134:
   \   000000   12....       LCALL   ?Subroutine225 & 0xFFFF
   \                     ??CrossCallReturnLabel_890:
   \   000003   7404         MOV     A,#0x4
   \   000005                REQUIRE ??Subroutine346_0
   \   000005                ; // Fall through to label ??Subroutine346_0

   \                                 In  segment BANKED_CODE, align 1, keep-with-next
   \                     ??Subroutine346_0:
   \   000000   12....       LCALL   ?Subroutine232 & 0xFFFF
   \                     ??CrossCallReturnLabel_894:
   \   000003   22           RET

   \                                 In  segment BANKED_CODE, align 1, keep-with-next
   \                     ?Subroutine232:
   \   000000   F0           MOVX    @DPTR,A
   \   000001                ; Setup parameters for call to function macRfSendPacket
   \   000001                ; Setup parameters for call to function macRfSendPacket
   \   000001                ; Setup parameters for call to function macRfSendPacket
   \   000001                ; Setup parameters for call to function macRfSendPacket
   \   000001                ; Setup parameters for call to function macRfSendPacket
   \   000001                ; Setup parameters for call to function macRfSendPacket
   \   000001                ; Setup parameters for call to function macRfSendPacket
   \   000001                ; Setup parameters for call to function macRfSendPacket
   \   000001                ; Setup parameters for call to function macRfSendPacket
   \   000001                ; Setup parameters for call to function macRfSendPacket
   \   000001                ; Setup parameters for call to function macRfSendPacket
   \   000001                ; Setup parameters for call to function macRfSendPacket
   \   000001                ; Setup parameters for call to function macRfSendPacket
   \   000001                ; Setup parameters for call to function macRfSendPacket
   \   000001                ; Setup parameters for call to function macRfSendPacket
   \   000001                ; Setup parameters for call to function macRfSendPacket
   \   000001                ; Setup parameters for call to function macRfSendPacket
   \   000001                ; Setup parameters for call to function macRfSendPacket
   \   000001   75..01       MOV     ?V0 + 0,#0x1
   \   000004   78..         MOV     R0,#?V0 + 0
   \   000006   22           RET

   \                                 In  segment BANKED_CODE, align 1, keep-with-next
   \                     ?Subroutine263:
   \   000000   F0           MOVX    @DPTR,A
   \   000001   90....       MOV     DPTR,#pConfig
   \   000004   E0           MOVX    A,@DPTR
   \   000005   2409         ADD     A,#0x9
   \   000007   12....       LCALL   ?Subroutine267 & 0xFFFF
   \                     ??CrossCallReturnLabel_646:
   \   00000A   FA           MOV     R2,A
   \   00000B   E9           MOV     A,R1
   \   00000C   FB           MOV     R3,A
   \   00000D   22           RET

   \                                 In  segment BANKED_CODE, align 1, keep-with-next
   \                     ??Subroutine347_0:
   \   000000   12....       LCALL   ?Subroutine221 & 0xFFFF
   \                     ??CrossCallReturnLabel_873:
   \   000003   2427         ADD     A,#0x27
   \   000005   12....       LCALL   ?Subroutine211 & 0xFFFF
   \                     ??CrossCallReturnLabel_861:
   \   000008   90....       MOV     DPTR,#pTxData + 3
   \   00000B   22           RET
    900          

   \                                 In  segment BANKED_CODE, align 1, keep-with-next
    901          MAC_DATAREQ_API static void macNetCheck(macRx_t* pck)
   \                     macNetCheck:
    902          {
   \   000000   74F5         MOV     A,#-0xb
   \   000002   12....       LCALL   ?BANKED_ENTER_XDATA
   \   000005                ; Saved register size: 11
   \   000005                ; Auto size: 0
    903          	static uint8 netChk = 0;
    904          	static uint8 chanRsv = 0;
    905          	//static uint8 chkCnt=0;
    906          	//static uint8 netStart=0;
    907          
    908          	//if(MSTDEV_MODE_HOLD==g_isMaster)
    909          	if((CMD_MODE_RF_MST!=g_isMaster)&&(CMD_MODE_RF_SLA!=g_isMaster)&&
    910          		(CMD_MODE_RFLS_MST!=g_isMaster)&&(CMD_MODE_RFLS_SLA!=g_isMaster))
   \   000005   90....       MOV     DPTR,#g_isMaster
   \   000008   E0           MOVX    A,@DPTR
   \   000009   6401         XRL     A,#0x1
   \   00000B   6012         JZ      ??macNetCheck_0
   \   00000D   E0           MOVX    A,@DPTR
   \   00000E   6402         XRL     A,#0x2
   \   000010   600D         JZ      ??macNetCheck_0
   \   000012   E0           MOVX    A,@DPTR
   \   000013   6406         XRL     A,#0x6
   \   000015   6008         JZ      ??macNetCheck_0
   \   000017   E0           MOVX    A,@DPTR
   \   000018   6405         XRL     A,#0x5
   \   00001A   6003         JZ      $+5
   \   00001C   02....       LJMP    ??CrossCallReturnLabel_812 & 0xFFFF
    911          	{
    912          		return;
    913          	}
    914          
    915          	if(RF_CHAN_AUTO==pConfig->channel)
   \                     ??macNetCheck_0:
   \   00001F   75....       MOV     ?V0 + 0,#g_extAddr & 0xff
   \   000022   75....       MOV     ?V0 + 1,#(g_extAddr >> 8) & 0xff
   \   000025   75..00       MOV     ?V0 + 2,#0x0
   \   000028   12....       LCALL   ?Subroutine70 & 0xFFFF
   \                     ??CrossCallReturnLabel_105:
   \   00002B   90....       MOV     DPTR,#??netChk
   \   00002E   6003         JZ      $+5
   \   000030   02....       LJMP    ??macNetCheck_1 & 0xFFFF
    916          	{
    917          /*
    918          		if(!g_netStart)
    919          		{
    920          			chanRsv = pConfig->autoChan;
    921          			pConfig->autoChan = RF_CHANNEL;
    922          			g_mstHold = 0;
    923          			g_netStart = 1;
    924          		}else if(g_mstHold)
    925          		{
    926          			g_netStart = 0;
    927          		}
    928          */
    929          		if(!netChk)
   \   000033   E0           MOVX    A,@DPTR
   \   000034   7010         JNZ     ??macNetCheck_2
    930          		{
    931          			netChk++;
   \   000036   7401         MOV     A,#0x1
   \   000038   12....       LCALL   ?Subroutine147 & 0xFFFF
    932          			chanRsv = pConfig->autoChan;
    933          			pConfig->autoChan = RF_CHANNEL;
    934          		}
   \                     ??CrossCallReturnLabel_275:
   \   00003B   12....       LCALL   ??Subroutine276_0 & 0xFFFF
   \                     ??CrossCallReturnLabel_469:
   \   00003E   90....       MOV     DPTR,#??chanRsv
   \   000041   12....       LCALL   ?Subroutine166 & 0xFFFF
   \                     ??CrossCallReturnLabel_319:
   \   000044   8005         SJMP    ??macNetCheck_3
    935          		
    936          		//if((pConfig->autoChan<(RF_CHANNEL+15))&&(!g_mstHold)&&(netChk<2))
    937          		if(netChk<3)
   \                     ??macNetCheck_2:
   \   000046   C3           CLR     C
   \   000047   9403         SUBB    A,#0x3
   \   000049   505C         JNC     ??macNetCheck_4
    938          		{
    939          			macParameterSet();
   \                     ??macNetCheck_3:
   \   00004B                ; Setup parameters for call to function macParameterSet
   \   00004B   12....       LCALL   ??macParameterSet?relay
    940          			pConfig->autoChan++;
   \   00004E   12....       LCALL   ?Subroutine45 & 0xFFFF
   \                     ??CrossCallReturnLabel_62:
   \   000051   E0           MOVX    A,@DPTR
   \   000052   04           INC     A
   \   000053   F0           MOVX    @DPTR,A
    941          			pConfig->frameHead = 0xc801;
   \   000054   12....       LCALL   ?Subroutine14 & 0xFFFF
    942          			pConfig->destAddr = 0x000f;
    943          			pConfig->myAddr = 0xFFFF;
    944          			osal_memcpy(pTxData,g_extAddr,8);
   \                     ??CrossCallReturnLabel_8:
   \   000057   12....       LCALL   ?PUSH_XSTACK_I_THREE
   \   00005A   7C08         MOV     R4,#0x8
   \   00005C   7D00         MOV     R5,#0x0
   \   00005E   7A..         MOV     R2,#pTxData & 0xff
   \   000060   7B..         MOV     R3,#(pTxData >> 8) & 0xff
   \   000062   12....       LCALL   ??Subroutine338_0 & 0xFFFF
   \                     ??CrossCallReturnLabel_805:
   \   000065   12....       LCALL   ?DEALLOC_XSTACK8
    945          			//pConfig->myAddr = ADDR;
    946          			pTxData[8]=0x91;
   \   000068   12....       LCALL   ?Subroutine39 & 0xFFFF
    947          			//pTxData[9]=0x00;
    948          			//pTxData[10]=0x30;
    949          			//pTxData[11]=0x00;
    950          			//pTxData[10]=(uint8)((pConfig->panId)>>8);
    951          			//pTxData[11]=(pConfig->panId)&0xFF;
    952          			pTxData[9]=(pConfig->panId)&0xFF;
    953          			pTxData[10]=(uint8)((pConfig->panId)>>8);
    954          			pTxData[11]=0x01;
   \                     ??CrossCallReturnLabel_53:
   \   00006B   7401         MOV     A,#0x1
   \   00006D   12....       LCALL   ?Subroutine159 & 0xFFFF
    955          			g_sendLen = 12;
   \                     ??CrossCallReturnLabel_299:
   \   000070   12....       LCALL   ??Subroutine346_0 & 0xFFFF
    956          			//macRfSendPacket(pConfig->destAddr, pTxData, g_sendLen,NULL,0);
    957          			macRfSendPacket(pConfig->destAddr, pTxData, g_sendLen,NULL,0,SEND_MODE_UNSLOTTED);
   \                     ??CrossCallReturnLabel_851:
   \   000073   12....       LCALL   ?PUSH_XSTACK_I_ONE
   \   000076   75..00       MOV     ?V0 + 0,#0x0
   \   000079   78..         MOV     R0,#?V0 + 0
   \   00007B   12....       LCALL   ?PUSH_XSTACK_I_ONE
   \   00007E   E4           CLR     A
   \   00007F   F5..         MOV     ?V0 + 1,A
   \   000081   78..         MOV     R0,#?V0 + 0
   \   000083   12....       LCALL   ?PUSH_XSTACK_I_TWO
   \   000086   790C         MOV     R1,#0xc
   \   000088   12....       LCALL   ??Subroutine322_0 & 0xFFFF
   \                     ??CrossCallReturnLabel_690:
   \   00008B   12....       LCALL   ?DEALLOC_XSTACK8
    958          			pConfig->myAddr = 0x000F;
   \   00008E   12....       LCALL   ?Subroutine43 & 0xFFFF
    959          			veriPckSendCallback = &macNetCheck;
    960          			osal_start_timerEx( macEx_taskId, MACEX_VERI_SEND_INQURE, 50);
   \                     ??CrossCallReturnLabel_60:
   \   000091                ; Setup parameters for call to function osal_start_timerEx
   \   000091   7C32         MOV     R4,#0x32
   \   000093   12....       LCALL   ??Subroutine339_0 & 0xFFFF
    961          			if(pConfig->autoChan>=(RF_CHANNEL+15))
   \                     ??CrossCallReturnLabel_811:
   \   000096   12....       LCALL   ?Subroutine80 & 0xFFFF
   \                     ??CrossCallReturnLabel_128:
   \   000099   941A         SUBB    A,#0x1a
   \   00009B   4075         JC      ??CrossCallReturnLabel_812
    962          			{
    963          				netChk++;
   \   00009D   90....       MOV     DPTR,#??netChk
   \   0000A0   E0           MOVX    A,@DPTR
   \   0000A1   04           INC     A
   \   0000A2   12....       LCALL   ?Subroutine166 & 0xFFFF
    964          				pConfig->autoChan = RF_CHANNEL;
    965          				
    966          			}
    967          			//osal_start_timerEx( macEx_taskId, MACEX_VERI_SEND_INQURE, 450);
    968          		}//else if(pConfig->autoChan>=(RF_CHANNEL+15))
   \                     ??CrossCallReturnLabel_320:
   \   0000A5   806B         SJMP    ??CrossCallReturnLabel_812
    969          		else
    970          		{
    971          			netChk = 0;
   \                     ??macNetCheck_4:
   \   0000A7   E4           CLR     A
   \   0000A8   F0           MOVX    @DPTR,A
    972          			pConfig ->autoChan = chanRsv;
   \   0000A9   90....       MOV     DPTR,#??chanRsv
   \   0000AC   E0           MOVX    A,@DPTR
   \   0000AD   C0E0         PUSH    A
   \   0000AF   12....       LCALL   ?Subroutine114 & 0xFFFF
   \                     ??CrossCallReturnLabel_198:
   \   0000B2   A3           INC     DPTR
   \   0000B3   A3           INC     DPTR
   \   0000B4   D0E0         POP     A
   \   0000B6   F0           MOVX    @DPTR,A
    973          			macParameterSet();
   \   0000B7                ; Setup parameters for call to function macParameterSet
   \   0000B7   12....       LCALL   ??macParameterSet?relay
    974          			veriPckSendCallback = &macRollPolingProc;
   \   0000BA   12....       LCALL   ?Subroutine138 & 0xFFFF
    975          			//osal_start_timerEx( macEx_taskId, MACEX_VERI_SEND_INQURE, 80+(osal_rand()&0x0f));	
    976          			osal_start_timerEx( macEx_taskId, MACEX_VERI_SEND_INQURE, 70+(osal_rand()&0x0f));
    977          		}
    978          		
    979          	}else
   \                     ??CrossCallReturnLabel_252:
   \   0000BD   2446         ADD     A,#0x46
   \   0000BF   FC           MOV     R4,A
   \   0000C0   804D         SJMP    ??macNetCheck_5
    980          	{
    981          		if(netChk++<2)
   \                     ??macNetCheck_1:
   \   0000C2   12....       LCALL   ?Subroutine97 & 0xFFFF
   \                     ??CrossCallReturnLabel_161:
   \   0000C5   5040         JNC     ??macNetCheck_6
    982          		{
    983          			pConfig->frameHead = 0xc801;
   \   0000C7   12....       LCALL   ?Subroutine14 & 0xFFFF
    984          			pConfig->destAddr = 0x000f;
    985          			pConfig->myAddr = 0xFFFF;
    986          			osal_memcpy(pTxData,g_extAddr,8);
   \                     ??CrossCallReturnLabel_9:
   \   0000CA   12....       LCALL   ?PUSH_XSTACK_I_THREE
   \   0000CD   7C08         MOV     R4,#0x8
   \   0000CF   7D00         MOV     R5,#0x0
   \   0000D1   7A..         MOV     R2,#pTxData & 0xff
   \   0000D3   7B..         MOV     R3,#(pTxData >> 8) & 0xff
   \   0000D5   12....       LCALL   ??Subroutine338_0 & 0xFFFF
   \                     ??CrossCallReturnLabel_806:
   \   0000D8   12....       LCALL   ?DEALLOC_XSTACK8
    987          			//pConfig->myAddr = ADDR;
    988          			pTxData[8]=0x91;
   \   0000DB   12....       LCALL   ?Subroutine39 & 0xFFFF
    989          			//pTxData[9]=0x00;
    990          			//pTxData[10]=0x30;
    991          			//pTxData[11]=0x00;
    992          			//pTxData[10]=(uint8)((pConfig->panId)>>8);
    993          			//pTxData[11]=(pConfig->panId)&0xFF;
    994          			pTxData[9]=(pConfig->panId)&0xFF;
    995          			pTxData[10]=(uint8)((pConfig->panId)>>8);
    996          			pTxData[11]=0x00;
   \                     ??CrossCallReturnLabel_54:
   \   0000DE   E4           CLR     A
   \   0000DF   12....       LCALL   ?Subroutine159 & 0xFFFF
    997          			g_sendLen = 12;
   \                     ??CrossCallReturnLabel_300:
   \   0000E2   12....       LCALL   ??Subroutine346_0 & 0xFFFF
    998          			//macRfSendPacket(pConfig->destAddr, pTxData, g_sendLen,NULL,0);
    999          			macRfSendPacket(pConfig->destAddr, pTxData, g_sendLen,NULL,0,SEND_MODE_UNSLOTTED);
   \                     ??CrossCallReturnLabel_852:
   \   0000E5   12....       LCALL   ?PUSH_XSTACK_I_ONE
   \   0000E8   75..00       MOV     ?V0 + 0,#0x0
   \   0000EB   78..         MOV     R0,#?V0 + 0
   \   0000ED   12....       LCALL   ?PUSH_XSTACK_I_ONE
   \   0000F0   E4           CLR     A
   \   0000F1   F5..         MOV     ?V0 + 1,A
   \   0000F3   78..         MOV     R0,#?V0 + 0
   \   0000F5   12....       LCALL   ?PUSH_XSTACK_I_TWO
   \   0000F8   790C         MOV     R1,#0xc
   \   0000FA   12....       LCALL   ??Subroutine322_0 & 0xFFFF
   \                     ??CrossCallReturnLabel_691:
   \   0000FD   12....       LCALL   ?DEALLOC_XSTACK8
   1000          			pConfig->myAddr = 0x000F;
   \   000100   12....       LCALL   ?Subroutine43 & 0xFFFF
   1001          			veriPckSendCallback = &macNetCheck;
   1002          			osal_start_timerEx( macEx_taskId, MACEX_VERI_SEND_INQURE, 30);		
   \                     ??CrossCallReturnLabel_61:
   \   000103                ; Setup parameters for call to function osal_start_timerEx
   \   000103   7C1E         MOV     R4,#0x1e
   \   000105   8008         SJMP    ??macNetCheck_5
   1003          		}else
   1004          		{
   1005          			netChk = 0;
   \                     ??macNetCheck_6:
   \   000107   12....       LCALL   ?Subroutine149 & 0xFFFF
   1006          			veriPckSendCallback = &macRollPolingProc;
   \                     ??CrossCallReturnLabel_456:
   \   00010A   12....       LCALL   ??Subroutine324_0 & 0xFFFF
   1007          			osal_start_timerEx( macEx_taskId, MACEX_VERI_SEND_INQURE, 80);	
   \                     ??CrossCallReturnLabel_715:
   \   00010D                ; Setup parameters for call to function osal_start_timerEx
   \   00010D   7C50         MOV     R4,#0x50
   1008          			
   1009          		}
   1010          	}
   \                     ??macNetCheck_5:
   \   00010F   12....       LCALL   ??Subroutine339_0 & 0xFFFF
   \                     ??CrossCallReturnLabel_812:
   \   000112   80..         SJMP    ??Subroutine279_0
   1011          	
   1012          }

   \                                 In  segment BANKED_CODE, align 1, keep-with-next
   \                     ?Subroutine166:
   \   000000   12....       LCALL   ?Subroutine230 & 0xFFFF
   \                     ??CrossCallReturnLabel_394:
   \   000003   740B         MOV     A,#0xb
   \   000005   F0           MOVX    @DPTR,A
   \   000006   22           RET

   \                                 In  segment BANKED_CODE, align 1, keep-with-next
   \                     ?Subroutine149:
   \   000000   E4           CLR     A
   \   000001                REQUIRE ??Subroutine274_0
   \   000001                ; // Fall through to label ??Subroutine274_0

   \                                 In  segment BANKED_CODE, align 1, keep-with-next
   \                     ??Subroutine274_0:
   \   000000   F0           MOVX    @DPTR,A
   \   000001   90....       MOV     DPTR,#veriPckSendCallback
   \   000004   22           RET

   \                                 In  segment BANKED_CODE, align 1, keep-with-next
   \                     ??Subroutine276_0:
   \   000000   F8           MOV     R0,A
   \   000001                REQUIRE ??Subroutine277_0
   \   000001                ; // Fall through to label ??Subroutine277_0

   \                                 In  segment BANKED_CODE, align 1, keep-with-next
   \                     ??Subroutine277_0:
   \   000000   12....       LCALL   ??Subroutine282_0 & 0xFFFF
   \                     ??CrossCallReturnLabel_914:
   \   000003   22           RET

   \                                 In  segment BANKED_CODE, align 1, keep-with-next
   \                     ?Subroutine43:
   \   000000   12....       LCALL   ?Subroutine208 & 0xFFFF
   \                     ??CrossCallReturnLabel_681:
   \   000003   12....       LCALL   ?Subroutine255 & 0xFFFF
   \                     ??CrossCallReturnLabel_839:
   \   000006   90....       MOV     DPTR,#veriPckSendCallback
   \   000009   74..         MOV     A,#??macNetCheck?relay & 0xff
   \   00000B   F0           MOVX    @DPTR,A
   \   00000C   A3           INC     DPTR
   \   00000D   74..         MOV     A,#(??macNetCheck?relay >> 8) & 0xff
   \   00000F   F0           MOVX    @DPTR,A
   \   000010   22           RET

   \                                 In  segment BANKED_CODE, align 1, keep-with-next
   \                     ?Subroutine39:
   \   000000   90....       MOV     DPTR,#pTxData + 8
   \   000003   7491         MOV     A,#-0x6f
   \   000005   12....       LCALL   ?Subroutine197 & 0xFFFF
   \                     ??CrossCallReturnLabel_912:
   \   000008   90....       MOV     DPTR,#pTxData + 9
   \   00000B   12....       LCALL   ?Subroutine229 & 0xFFFF
   \                     ??CrossCallReturnLabel_391:
   \   00000E   E0           MOVX    A,@DPTR
   \   00000F   90....       MOV     DPTR,#pTxData + 10
   \   000012   F0           MOVX    @DPTR,A
   \   000013   A3           INC     DPTR
   \   000014   22           RET

   \                                 In  segment BANKED_CODE, align 1, keep-with-next
   \                     ?Subroutine14:
   \   000000   12....       LCALL   ?Subroutine187 & 0xFFFF
   \                     ??CrossCallReturnLabel_353:
   \   000003   7401         MOV     A,#0x1
   \   000005   12....       LCALL   ?Subroutine184 & 0xFFFF
   \                     ??CrossCallReturnLabel_350:
   \   000008                ; Setup parameters for call to function osal_memcpy
   \   000008                ; Setup parameters for call to function osal_memcpy
   \   000008   78..         MOV     R0,#?V0 + 0
   \   00000A   22           RET

   \                                 In  segment BANKED_CODE, align 1, keep-with-next
   \                     ?Subroutine138:
   \   000000   12....       LCALL   ?Subroutine223 & 0xFFFF
   \                     ??CrossCallReturnLabel_381:
   \   000003   540F         ANL     A,#0xf
   \   000005   22           RET

   \                                 In  segment BANKED_CODE, align 1, keep-with-next
   \                     ?Subroutine159:
   \   000000   12....       LCALL   ?Subroutine225 & 0xFFFF
   \                     ??CrossCallReturnLabel_884:
   \   000003   740C         MOV     A,#0xc
   \   000005   22           RET

   \                                 In  segment BANKED_CODE, align 1, keep-with-next
   \                     ?Subroutine80:
   \   000000   90....       MOV     DPTR,#pConfig
   \   000003   E0           MOVX    A,@DPTR
   \   000004   2405         ADD     A,#0x5
   \   000006   12....       LCALL   ??Subroutine281_0 & 0xFFFF
   \                     ??CrossCallReturnLabel_915:
   \   000009   C3           CLR     C
   \   00000A   22           RET

   \                                 In  segment BANKED_CODE, align 1, keep-with-next
   \                     ?Subroutine229:
   \   000000   F0           MOVX    @DPTR,A
   \   000001   8882         MOV     DPL,R0
   \   000003   8983         MOV     DPH,R1
   \   000005   A3           INC     DPTR
   \   000006   22           RET

   \                                 In  segment BANKED_CODE, align 1, keep-with-next
   \                     ?Subroutine197:
   \   000000   F0           MOVX    @DPTR,A
   \   000001   90....       MOV     DPTR,#pConfig
   \   000004   E0           MOVX    A,@DPTR
   \   000005   2402         ADD     A,#0x2
   \   000007                REQUIRE ??Subroutine281_0
   \   000007                ; // Fall through to label ??Subroutine281_0

   \                                 In  segment BANKED_CODE, align 1, keep-with-next
   \                     ?Subroutine187:
   \   000000   12....       LCALL   ?Subroutine251 & 0xFFFF
   \                     ??CrossCallReturnLabel_418:
   \   000003   8882         MOV     DPL,R0
   \   000005   8983         MOV     DPH,R1
   \   000007   22           RET

   \                                 In  segment BANKED_CODE, align 1, keep-with-next
   \                     ?Subroutine251:
   \   000000   90....       MOV     DPTR,#pConfig
   \   000003   E0           MOVX    A,@DPTR
   \   000004   240B         ADD     A,#0xb
   \   000006   F8           MOV     R0,A
   \   000007   A3           INC     DPTR
   \   000008   E0           MOVX    A,@DPTR
   \   000009   3400         ADDC    A,#0x0
   \   00000B   F9           MOV     R1,A
   \   00000C   22           RET

   \                                 In  segment BANKED_CODE, align 1, keep-with-next
   \                     ?Subroutine45:
   \   000000   90....       MOV     DPTR,#pConfig
   \   000003   12....       LCALL   ?Subroutine194 & 0xFFFF
   \                     ??CrossCallReturnLabel_601:
   \   000006   A3           INC     DPTR
   \   000007   A3           INC     DPTR
   \   000008   22           RET

   \                                 In  segment BANKED_CODE, align 1, keep-with-next
   \                     ?Subroutine147:
   \   000000   12....       LCALL   ?Subroutine221 & 0xFFFF
   \                     ??CrossCallReturnLabel_869:
   \   000003   2405         ADD     A,#0x5
   \   000005   22           RET

   \                                 In  segment BANKED_CODE, align 1, keep-with-next
   \                     ?Subroutine194:
   \   000000   E0           MOVX    A,@DPTR
   \   000001   F8           MOV     R0,A
   \   000002   A3           INC     DPTR
   \   000003   12....       LCALL   ?Subroutine245 & 0xFFFF
   \                     ??CrossCallReturnLabel_664:
   \   000006   22           RET

   \                                 In  segment BANKED_CODE, align 1, keep-with-next
   \                     ?Subroutine223:
   \   000000   90....       MOV     DPTR,#veriPckSendCallback
   \   000003   74..         MOV     A,#??macRollPolingProc?relay & 0xff
   \   000005   F0           MOVX    @DPTR,A
   \   000006   A3           INC     DPTR
   \   000007   74..         MOV     A,#(??macRollPolingProc?relay >> 8) & 0xff
   \   000009   F0           MOVX    @DPTR,A
   \   00000A                ; Setup parameters for call to function osal_rand
   \   00000A                ; Setup parameters for call to function osal_rand
   \   00000A                ; Setup parameters for call to function osal_rand
   \   00000A                ; Setup parameters for call to function osal_rand
   \   00000A                ; Setup parameters for call to function osal_rand
   \   00000A                ; Setup parameters for call to function osal_rand
   \   00000A                ; Setup parameters for call to function osal_rand
   \   00000A   12....       LCALL   ??osal_rand?relay
   \   00000D                ; Setup parameters for call to function osal_start_timerEx
   \   00000D                ; Setup parameters for call to function osal_start_timerEx
   \   00000D                ; Setup parameters for call to function osal_start_timerEx
   \   00000D                ; Setup parameters for call to function osal_start_timerEx
   \   00000D                ; Setup parameters for call to function osal_start_timerEx
   \   00000D                ; Setup parameters for call to function osal_start_timerEx
   \   00000D                ; Setup parameters for call to function osal_start_timerEx
   \   00000D   EA           MOV     A,R2
   \   00000E   22           RET

   \                                 In  segment BANKED_CODE, align 1, keep-with-next
   \                     ?Subroutine208:
   \   000000   12....       LCALL   ?Subroutine246 & 0xFFFF
   \                     ??CrossCallReturnLabel_796:
   \   000003   22           RET

   \                                 In  segment BANKED_CODE, align 1, keep-with-next
   \                     ?Subroutine246:
   \   000000   12....       LCALL   ?Subroutine264 & 0xFFFF
   \                     ??CrossCallReturnLabel_799:
   \   000003   22           RET

   \                                 In  segment BANKED_CODE, align 1, keep-with-next
   \                     ?Subroutine264:
   \   000000   90....       MOV     DPTR,#pConfig
   \   000003   E0           MOVX    A,@DPTR
   \   000004   F8           MOV     R0,A
   \   000005   A3           INC     DPTR
   \   000006   E0           MOVX    A,@DPTR
   \   000007   F583         MOV     DPH,A
   \   000009   8882         MOV     DPL,R0
   \   00000B   22           RET

   \                                 In  segment BANKED_CODE, align 1, keep-with-next
   \                     ??Subroutine322_0:
   \   000000   7C..         MOV     R4,#pTxData & 0xff
   \   000002   7D..         MOV     R5,#(pTxData >> 8) & 0xff
   \   000004   12....       LCALL   ?Subroutine192 & 0xFFFF
   \                     ??CrossCallReturnLabel_684:
   \   000007                REQUIRE ??Subroutine323_0
   \   000007                ; // Fall through to label ??Subroutine323_0

   \                                 In  segment BANKED_CODE, align 1, keep-with-next
   \                     ??Subroutine324_0:
   \   000000   74..         MOV     A,#??macRollPolingProc?relay & 0xff
   \   000002   F0           MOVX    @DPTR,A
   \   000003   A3           INC     DPTR
   \   000004   74..         MOV     A,#(??macRollPolingProc?relay >> 8) & 0xff
   \   000006   F0           MOVX    @DPTR,A
   \   000007   22           RET

   \                                 In  segment BANKED_CODE, align 1, keep-with-next
   \                     ?Subroutine230:
   \   000000   F0           MOVX    @DPTR,A
   \   000001   8882         MOV     DPL,R0
   \   000003   8983         MOV     DPH,R1
   \   000005   22           RET

   \                                 In  segment BANKED_CODE, align 1, keep-with-next
   \                     ?Subroutine192:
   \   000000   12....       LCALL   ?Subroutine244 & 0xFFFF
   \                     ??CrossCallReturnLabel_686:
   \   000003   22           RET

   \                                 In  segment BANKED_CODE, align 1, keep-with-next
   \                     ?Subroutine244:
   \   000000   12....       LCALL   ?Subroutine264 & 0xFFFF
   \                     ??CrossCallReturnLabel_798:
   \   000003   A3           INC     DPTR
   \   000004   A3           INC     DPTR
   \   000005   A3           INC     DPTR
   \   000006   A3           INC     DPTR
   \   000007   A3           INC     DPTR
   \   000008   A3           INC     DPTR
   \   000009   A3           INC     DPTR
   \   00000A   A3           INC     DPTR
   \   00000B   A3           INC     DPTR
   \   00000C   22           RET

   \                                 In  segment BANKED_CODE, align 1, keep-with-next
   \                     ?Subroutine97:
   \   000000   12....       LCALL   ?Subroutine199 & 0xFFFF
   \                     ??CrossCallReturnLabel_363:
   \   000003   9402         SUBB    A,#0x2
   \   000005   22           RET

   \                                 In  segment BANKED_CODE, align 1, keep-with-next
   \                     ?Subroutine199:
   \   000000   E0           MOVX    A,@DPTR
   \   000001   F8           MOV     R0,A
   \   000002   7401         MOV     A,#0x1
   \   000004   28           ADD     A,R0
   \   000005   F0           MOVX    @DPTR,A
   \   000006   E8           MOV     A,R0
   \   000007   C3           CLR     C
   \   000008   22           RET

   \                                 In  segment BANKED_CODE, align 1, keep-with-next
   \                     ??Subroutine338_0:
   \   000000   12....       LCALL   ??osal_memcpy?relay
   \   000003   7403         MOV     A,#0x3
   \   000005   22           RET

   \                                 In  segment BANKED_CODE, align 1, keep-with-next
   \                     ??Subroutine339_0:
   \   000000   7D00         MOV     R5,#0x0
   \   000002                REQUIRE ??Subroutine340_0
   \   000002                ; // Fall through to label ??Subroutine340_0

   \                                 In  segment BANKED_CODE, align 1, keep-with-next
   \                     ??Subroutine340_0:
   \   000000   7A02         MOV     R2,#0x2
   \   000002                REQUIRE ??Subroutine341_0
   \   000002                ; // Fall through to label ??Subroutine341_0

   \                                 In  segment BANKED_CODE, align 1, keep-with-next
   \                     ??Subroutine341_0:
   \   000000   7B00         MOV     R3,#0x0
   \   000002                REQUIRE ??Subroutine342_0
   \   000002                ; // Fall through to label ??Subroutine342_0

   \                                 In  segment BANKED_CODE, align 1, keep-with-next
   \                     ?Subroutine255:
   \   000000   740F         MOV     A,#0xf
   \   000002                REQUIRE ??Subroutine343_0
   \   000002                ; // Fall through to label ??Subroutine343_0

   \                                 In  segment BANKED_CODE, align 1, keep-with-next
   \                     ?Subroutine184:
   \   000000   F0           MOVX    @DPTR,A
   \   000001   A3           INC     DPTR
   \   000002   74C8         MOV     A,#-0x38
   \   000004   F0           MOVX    @DPTR,A
   \   000005   12....       LCALL   ?Subroutine244 & 0xFFFF
   \                     ??CrossCallReturnLabel_685:
   \   000008   12....       LCALL   ?Subroutine255 & 0xFFFF
   \                     ??CrossCallReturnLabel_840:
   \   00000B   12....       LCALL   ?Subroutine246 & 0xFFFF
   \                     ??CrossCallReturnLabel_795:
   \   00000E   74FF         MOV     A,#-0x1
   \   000010   F0           MOVX    @DPTR,A
   \   000011   A3           INC     DPTR
   \   000012   F0           MOVX    @DPTR,A
   \   000013   22           RET

   \                                 In  segment XDATA_Z, align 1, keep-with-next
   \                     ??netChk:
   \   000000                DS 1
   \   000001                REQUIRE __INIT_XDATA_Z

   \                                 In  segment XDATA_Z, align 1, keep-with-next
   \                     ??chanRsv:
   \   000000                DS 1
   \   000001                REQUIRE __INIT_XDATA_Z
   1013          

   \                                 In  segment BANKED_CODE, align 1, keep-with-next
   1014          MAC_DATAREQ_API void RflsStart(macRx_t* pck)
   \                     RflsStart:
   1015          {
   \   000000   74F6         MOV     A,#-0xa
   \   000002   12....       LCALL   ?BANKED_ENTER_XDATA
   \   000005                ; Saved register size: 10
   \   000005                ; Auto size: 0
   1016          	pConfig->frameHead = 0x8841;
   \   000005   12....       LCALL   ?Subroutine18 & 0xFFFF
   1017          	pConfig->destAddr = 0xFFFF;
   1018          	//arrcpy(pTxData,preCmdBuf,sizeof(preCmdBuf));
   1019          	pTxData[0] = 0x04;
   1020          	pTxData[1] = 0x00;//0x01;
   1021          	pTxData[2] = 0xFF;
   \                     ??CrossCallReturnLabel_13:
   \   000008   74FF         MOV     A,#-0x1
   \   00000A   F0           MOVX    @DPTR,A
   1022          	pTxData[3] = 0x4B;
   \   00000B   A3           INC     DPTR
   \   00000C   744B         MOV     A,#0x4b
   \   00000E   12....       LCALL   ?Subroutine134 & 0xFFFF
   1023          	g_sendLen = 4;
   1024          	//macRfSendPacket(pConfig->destAddr, pTxData, g_sendLen,NULL,0);
   1025          	macRfSendPacket(pConfig->destAddr, pTxData, g_sendLen,NULL,0,SEND_MODE_UNSLOTTED);
   \                     ??CrossCallReturnLabel_849:
   \   000011   12....       LCALL   ?PUSH_XSTACK_I_ONE
   \   000014   75..00       MOV     ?V0 + 0,#0x0
   \   000017   78..         MOV     R0,#?V0 + 0
   \   000019   12....       LCALL   ?PUSH_XSTACK_I_ONE
   \   00001C   E4           CLR     A
   \   00001D   F5..         MOV     ?V0 + 1,A
   \   00001F   78..         MOV     R0,#?V0 + 0
   \   000021   12....       LCALL   ?PUSH_XSTACK_I_TWO
   \   000024   7904         MOV     R1,#0x4
   \   000026   7C..         MOV     R4,#pTxData & 0xff
   \   000028   7D..         MOV     R5,#(pTxData >> 8) & 0xff
   \   00002A   8A82         MOV     DPL,R2
   \   00002C   8B83         MOV     DPH,R3
   \   00002E   12....       LCALL   ??Subroutine323_0 & 0xFFFF
   \                     ??CrossCallReturnLabel_695:
   \   000031                REQUIRE ?Subroutine8
   \   000031                ; // Fall through to label ?Subroutine8
   1026          
   1027          #if 0
   1028          	if(RFLS_COORDINATOR_M==pConfig->isRflsCoordinator)
   1029          	{
   1030          #ifdef SEND_UNIFIED
   1031          		veriPckSendCallback=&macRollPolingProc;
   1032          #else
   1033          		veriPckSendCallback=&LinkedModeRollPoling;
   1034          #endif
   1035          		osal_start_timerEx( macEx_taskId, MACEX_VERI_SEND_INQURE, 1000);
   1036          	}else
   1037          	{
   1038          		veriPckSendCallback=NULL;
   1039          	}
   1040          #endif
   1041          	
   1042          }

   \                                 In  segment BANKED_CODE, align 1, keep-with-next
   \                     ?Subroutine8:
   \   000000   12....       LCALL   ?DEALLOC_XSTACK8
   \   000003   02....       LJMP    ??Subroutine318_0 & 0xFFFF
   1043          

   \                                 In  segment BANKED_CODE, align 1, keep-with-next
   1044          MAC_DATAREQ_API static void LinkedShotShut(macRx_t* pck)
   \                     LinkedShotShut:
   1045          {
   \   000000   74F6         MOV     A,#-0xa
   \   000002   12....       LCALL   ?BANKED_ENTER_XDATA
   \   000005                ; Saved register size: 10
   \   000005                ; Auto size: 0
   1046          	LED_INS_LINKED();
   \   000005   C292         CLR     0x90.2
   \   000007   D293         SETB    0x90.3
   1047          	veriPckSendCallback = &macRollPolingProc;
   \   000009   12....       LCALL   ?Subroutine138 & 0xFFFF
   1048          	osal_start_timerEx( macEx_taskId, MACEX_VERI_SEND_INQURE, 200+(osal_rand()&0x0f));
   \                     ??CrossCallReturnLabel_253:
   \   00000C   24C8         ADD     A,#-0x38
   \   00000E   FC           MOV     R4,A
   \   00000F   E4           CLR     A
   \   000010   3400         ADDC    A,#0x0
   \   000012   FD           MOV     R5,A
   \   000013   02....       LJMP    ??Subroutine334_0 & 0xFFFF
   \   000016                REQUIRE _A_P1
   1049          }
   1050          

   \                                 In  segment BANKED_CODE, align 1, keep-with-next
   \                     ?Subroutine83:
   \   000000   12....       LCALL   ?Subroutine221 & 0xFFFF
   \                     ??CrossCallReturnLabel_863:
   \   000003                REQUIRE ??Subroutine275_0
   \   000003                ; // Fall through to label ??Subroutine275_0

   \                                 In  segment BANKED_CODE, align 1, keep-with-next
   \                     ??Subroutine275_0:
   \   000000   24FE         ADD     A,#-0x2
   \   000002                REQUIRE ??Subroutine276_0
   \   000002                ; // Fall through to label ??Subroutine276_0

   \                                 In  segment BANKED_CODE, align 1, keep-with-next
   1051          MAC_DATAREQ_API static void macRollPolingProc(macRx_t* pck)
   \                     macRollPolingProc:
   1052          {
   \   000000   74F6         MOV     A,#-0xa
   \   000002   12....       LCALL   ?BANKED_ENTER_XDATA
   \   000005                ; Saved register size: 10
   \   000005                ; Auto size: 0
   1053          	uint8 sdCnt=0;
   1054          	uint8 cn=0;
   1055          	uint8 pDev=0;
   1056          
   1057          
   1058          	if(CMD_MODE_RF_MST==g_isMaster)
   \   000005   90....       MOV     DPTR,#g_isMaster
   \   000008   E0           MOVX    A,@DPTR
   \   000009   6401         XRL     A,#0x1
   \   00000B   7019         JNZ     ??macRollPolingProc_0
   1059          	{
   1060          		for(pDev=0;pDev<DEVICE_TOTAL;pDev++)
   \   00000D   7B00         MOV     R3,#0x0
   1061          		{
   1062          			if((DEVICE_ONVERI==pConfig->devHead[pDev].veriFlag)
   1063          				||(DEVICE_RESPOND==pConfig->devHead[pDev].veriFlag))
   \                     ??macRollPolingProc_1:
   \   00000F   EB           MOV     A,R3
   \   000010   12....       LCALL   ??Subroutine285_0 & 0xFFFF
   \                     ??CrossCallReturnLabel_483:
   \   000013   6005         JZ      ??macRollPolingProc_2
   \   000015   E0           MOVX    A,@DPTR
   \   000016   6402         XRL     A,#0x2
   \   000018   7005         JNZ     ??macRollPolingProc_3
   1064          			{
   1065          				pConfig->devHead[pDev].veriFlag = DEVICE_UNVERIFIED;
   \                     ??macRollPolingProc_2:
   \   00001A   12....       LCALL   ?Subroutine17 & 0xFFFF
   1066          				pConfig->totalDev--;
   1067          			}
   1068          		}
   \                     ??CrossCallReturnLabel_907:
   \   00001D   14           DEC     A
   \   00001E   F0           MOVX    @DPTR,A
   \                     ??macRollPolingProc_3:
   \   00001F   0B           INC     R3
   \   000020   EB           MOV     A,R3
   \   000021   C3           CLR     C
   \   000022   940F         SUBB    A,#0xf
   \   000024   40E9         JC      ??macRollPolingProc_1
   1069          	}
   1070          
   1071          #ifdef DEBUG_TRACE
   1072          	for(pDev=0;pDev<DEVICE_TOTAL;pDev++)
   1073          	Printf("%d ",pConfig->devHead[pDev].veriFlag);
   1074          	Printf("\r\n");
   1075          #endif
   1076          
   1077          	
   1078          	switch(g_isMaster)
   \                     ??macRollPolingProc_0:
   \   000026   90....       MOV     DPTR,#g_isMaster
   \   000029   E0           MOVX    A,@DPTR
   \   00002A   14           DEC     A
   \   00002B   7003         JNZ     $+5
   \   00002D   02....       LJMP    ??macRollPolingProc_4 & 0xFFFF
   \   000030   14           DEC     A
   \   000031   6010         JZ      ??macRollPolingProc_5
   \   000033   24FD         ADD     A,#-0x3
   \   000035   7003         JNZ     $+5
   \   000037   02....       LJMP    ??macRollPolingProc_4 & 0xFFFF
   \   00003A   14           DEC     A
   \   00003B   7003         JNZ     $+5
   \   00003D   02....       LJMP    ??macRollPolingProc_4 & 0xFFFF
   \   000040   02....       LJMP    ??CrossCallReturnLabel_817 & 0xFFFF
   1079          	{
   1080          		//case MSTDEV_MODE_DEV:
   1081          		case CMD_MODE_RF_SLA:
   1082          		if(RF_CHAN_AUTO==pConfig->channel)
   \                     ??macRollPolingProc_5:
   \   000043   12....       LCALL   ?Subroutine70 & 0xFFFF
   \                     ??CrossCallReturnLabel_106:
   \   000046   7019         JNZ     ??macRollPolingProc_6
   1083          		{
   1084          			pConfig->autoChan++;
   \   000048   12....       LCALL   ?Subroutine96 & 0xFFFF
   \                     ??CrossCallReturnLabel_160:
   \   00004B   04           INC     A
   \   00004C   F0           MOVX    @DPTR,A
   1085          			if(pConfig->autoChan>(RF_CHANNEL+15))
   \   00004D   12....       LCALL   ?Subroutine80 & 0xFFFF
   \                     ??CrossCallReturnLabel_129:
   \   000050   941B         SUBB    A,#0x1b
   \   000052   4003         JC      ??macRollPolingProc_7
   1086          			{
   1087          				pConfig->autoChan = RF_CHANNEL;
   \   000054   740B         MOV     A,#0xb
   \   000056   F0           MOVX    @DPTR,A
   1088          			}
   1089          			macParameterSet();
   \                     ??macRollPolingProc_7:
   \   000057                ; Setup parameters for call to function macParameterSet
   \   000057   12....       LCALL   ??macParameterSet?relay
   1090          
   1091          			macDelay(1);
   \   00005A                ; Setup parameters for call to function macDelay
   \   00005A   7A01         MOV     R2,#0x1
   \   00005C   7B00         MOV     R3,#0x0
   \   00005E   12....       LCALL   ??macDelay?relay
   1092          		}
   1093          		basicRfConfig.ackRequest = 0;
   \                     ??macRollPolingProc_6:
   \   000061   90....       MOV     DPTR,#basicRfConfig + 6
   \   000064   E4           CLR     A
   \   000065   12....       LCALL   ?Subroutine85 & 0xFFFF
   1094          		pConfig->frameHead = 0xc801;
   \                     ??CrossCallReturnLabel_471:
   \   000068   7401         MOV     A,#0x1
   \   00006A   12....       LCALL   ?Subroutine22 & 0xFFFF
   1095          		pConfig->destAddr = 0x000f;
   1096          		pConfig->myAddr = 0xFFFF;
   1097          		osal_cpyExtAddr(pTxData,g_extAddr);
   1098          		//pConfig->myAddr = ADDR;
   1099          		pTxData[8]=0x91;
   \                     ??CrossCallReturnLabel_23:
   \   00006D   7491         MOV     A,#-0x6f
   \   00006F   12....       LCALL   ?Subroutine82 & 0xFFFF
   1100          		//pTxData[9]=0x00;
   1101          		//pTxData[10]=0x30;
   1102          		//pTxData[11]=0x00;
   1103          		//pTxData[10]=(uint8)((pConfig->panId)>>8);
   1104          		//pTxData[11]=(pConfig->panId)&0xFF;
   1105          		pTxData[9]=(pConfig->panId)&0xFF;
   \                     ??CrossCallReturnLabel_132:
   \   000072   90....       MOV     DPTR,#pTxData + 9
   \   000075   12....       LCALL   ?Subroutine158 & 0xFFFF
   1106          		pTxData[10]=(uint8)((pConfig->panId)>>8);
   \                     ??CrossCallReturnLabel_296:
   \   000078   E0           MOVX    A,@DPTR
   \   000079   90....       MOV     DPTR,#pTxData + 10
   \   00007C   12....       LCALL   ?Subroutine99 & 0xFFFF
   1107          		//pTxData[11]=0x00;
   1108          		pTxData[11] = (RF_CHAN_AUTO==pConfig->channel)?0X01:0X00;
   \                     ??CrossCallReturnLabel_165:
   \   00007F   7004         JNZ     ??macRollPolingProc_8
   \   000081   7401         MOV     A,#0x1
   \   000083   8001         SJMP    ??macRollPolingProc_9
   \                     ??macRollPolingProc_8:
   \   000085   E4           CLR     A
   \                     ??macRollPolingProc_9:
   \   000086   90....       MOV     DPTR,#pTxData + 11
   \   000089   12....       LCALL   ?Subroutine159 & 0xFFFF
   1109          		g_sendLen = 12;
   \                     ??CrossCallReturnLabel_301:
   \   00008C   12....       LCALL   ??Subroutine346_0 & 0xFFFF
   1110          		//macRfSendPacket(pConfig->destAddr, pTxData, g_sendLen,NULL,0);	
   1111          		macRfSendPacket(pConfig->destAddr, pTxData, g_sendLen,NULL,0,SEND_MODE_UNSLOTTED);	
   \                     ??CrossCallReturnLabel_853:
   \   00008F   12....       LCALL   ?PUSH_XSTACK_I_ONE
   \   000092   75..00       MOV     ?V0 + 0,#0x0
   \   000095   78..         MOV     R0,#?V0 + 0
   \   000097   12....       LCALL   ?PUSH_XSTACK_I_ONE
   \   00009A   E4           CLR     A
   \   00009B   F5..         MOV     ?V0 + 1,A
   \   00009D   78..         MOV     R0,#?V0 + 0
   \   00009F   12....       LCALL   ?PUSH_XSTACK_I_TWO
   \   0000A2   790C         MOV     R1,#0xc
   \   0000A4   12....       LCALL   ??Subroutine322_0 & 0xFFFF
   \                     ??CrossCallReturnLabel_692:
   \   0000A7   12....       LCALL   ?DEALLOC_XSTACK8
   1112          		veriPckSendCallback = &macRollPolingProc;
   \   0000AA   12....       LCALL   ?Subroutine154 & 0xFFFF
   1113          		//osal_start_timerEx( macEx_taskId, MACEX_VERI_SEND_INQURE, 1000);
   1114          		if(RF_CHAN_AUTO==pConfig->channel)
   \                     ??CrossCallReturnLabel_716:
   \   0000AD   12....       LCALL   ?Subroutine70 & 0xFFFF
   \                     ??CrossCallReturnLabel_107:
   \   0000B0   700B         JNZ     ??macRollPolingProc_10
   1115          		{
   1116          			osal_start_timerEx( macEx_taskId, MACEX_VERI_SEND_INQURE, 50+(osal_rand()&0x0f));
   \   0000B2                ; Setup parameters for call to function osal_rand
   \   0000B2   12....       LCALL   ??Subroutine303_0 & 0xFFFF
   1117          
   1118          			//while(WAIT_RF_SEND_OK());
   1119          /*
   1120          			WAIT_RF_SEND_OK();
   1121          			
   1122          			pConfig->autoChan++;
   1123          			if(pConfig->autoChan>(RF_CHANNEL+15))
   1124          			{
   1125          				pConfig->autoChan = RF_CHANNEL;
   1126          			}
   1127          			macParameterSet();			
   1128          */
   1129          		}else
   \                     ??CrossCallReturnLabel_581:
   \   0000B5   2432         ADD     A,#0x32
   \   0000B7   FC           MOV     R4,A
   \   0000B8   7D00         MOV     R5,#0x0
   \   0000BA   02....       LJMP    ??macRollPolingProc_11 & 0xFFFF
   1130          		{
   1131          			osal_start_timerEx( macEx_taskId, MACEX_VERI_SEND_INQURE, 800+(osal_rand()&0x0f));
   \                     ??macRollPolingProc_10:
   \   0000BD                ; Setup parameters for call to function osal_rand
   \   0000BD   12....       LCALL   ??Subroutine303_0 & 0xFFFF
   1132          		}
   \                     ??CrossCallReturnLabel_582:
   \   0000C0   2420         ADD     A,#0x20
   \   0000C2   FC           MOV     R4,A
   \   0000C3   7D03         MOV     R5,#0x3
   \   0000C5   02....       LJMP    ??macRollPolingProc_11 & 0xFFFF
   1133          		break;
   1134          
   1135          		//case MSTDEV_MODE_MST:
   1136          		//case MSTDEV_MODE_MLINK:
   1137          		//case MSTDEV_MODE_SLINK:
   1138          		case CMD_MODE_RF_MST:
   1139          		case CMD_MODE_RFLS_MST:
   1140          		case CMD_MODE_RFLS_SLA:
   1141          		pConfig->frameHead = 0x8841;
   \                     ??macRollPolingProc_4:
   \   0000C8   12....       LCALL   ?Subroutine20 & 0xFFFF
   1142          		pConfig->destAddr = 0xFFFF;
   1143          		//pConfig->myAddr = 0x000F;
   1144          		pTxData[sdCnt++] = 0x9A;
   \                     ??CrossCallReturnLabel_16:
   \   0000CB   749A         MOV     A,#-0x66
   \   0000CD   12....       LCALL   ?Subroutine83 & 0xFFFF
   1145          		pTxData[sdCnt++] = pConfig->evtCnt;//0x01;
   \                     ??CrossCallReturnLabel_465:
   \   0000D0   90....       MOV     DPTR,#pTxData + 1
   \   0000D3   12....       LCALL   ?Subroutine167 & 0xFFFF
   1146          		pTxData[sdCnt++] = pConfig->totalDev;//0x01;
   \                     ??CrossCallReturnLabel_321:
   \   0000D6   12....       LCALL   ??Subroutine277_0 & 0xFFFF
   \                     ??CrossCallReturnLabel_467:
   \   0000D9   90....       MOV     DPTR,#pTxData + 2
   \   0000DC   12....       LCALL   ?Subroutine50 & 0xFFFF
   1147          		pTxData[sdCnt++] = pConfig->mstRcd+1;//0x01;
   \                     ??CrossCallReturnLabel_77:
   \   0000DF   90....       MOV     DPTR,#pTxData + 3
   \   0000E2   12....       LCALL   ?Subroutine105 & 0xFFFF
   1148          		pTxData[sdCnt++] = ((1<<pConfig->slvRcd)-1)&0xFF;//(1<<pTxData[2])-1;//0x01;
   \                     ??CrossCallReturnLabel_180:
   \   0000E5   E8           MOV     A,R0
   \   0000E6   FE           MOV     R6,A
   \   0000E7   E9           MOV     A,R1
   \   0000E8   FF           MOV     R7,A
   \   0000E9   75..01       MOV     ?V0 + 0,#0x1
   \   0000EC   75..00       MOV     ?V0 + 1,#0x0
   \   0000EF   8E82         MOV     DPL,R6
   \   0000F1   8F83         MOV     DPH,R7
   \   0000F3   E0           MOVX    A,@DPTR
   \   0000F4   78..         MOV     R0,#?V0 + 0
   \   0000F6   12....       LCALL   ?S_SHL
   \   0000F9   E5..         MOV     A,?V0 + 0
   \   0000FB   14           DEC     A
   \   0000FC   90....       MOV     DPTR,#pTxData + 4
   \   0000FF   12....       LCALL   ??Subroutine327_0 & 0xFFFF
   1149          		pTxData[sdCnt++] = 0x00;
   1150          		pTxData[sdCnt++] = ((1<<pConfig->slvRcd)-1)&0xFF;//pConfig->slvRcd;
   \                     ??CrossCallReturnLabel_728:
   \   000102   75..01       MOV     ?V0 + 0,#0x1
   \   000105   F5..         MOV     ?V0 + 1,A
   \   000107   8E82         MOV     DPL,R6
   \   000109   8F83         MOV     DPH,R7
   \   00010B   E0           MOVX    A,@DPTR
   \   00010C   78..         MOV     R0,#?V0 + 0
   \   00010E   12....       LCALL   ?S_SHL
   \   000111   E5..         MOV     A,?V0 + 0
   \   000113   14           DEC     A
   \   000114   90....       MOV     DPTR,#pTxData + 6
   \   000117   12....       LCALL   ?Subroutine140 & 0xFFFF
   1151          		pTxData[sdCnt++] = (0xFF00>>(pConfig->mstRcd+1))&0xFF;
   \                     ??CrossCallReturnLabel_258:
   \   00011A   12....       LCALL   ?US_SHR
   \   00011D   E5..         MOV     A,?V0 + 0
   \   00011F   90....       MOV     DPTR,#pTxData + 7
   \   000122   F0           MOVX    @DPTR,A
   \   000123   7908         MOV     R1,#0x8
   1152          		for(cn=0;cn<pConfig->mstRcd;cn++)
   \   000125   7800         MOV     R0,#0x0
   \   000127   8013         SJMP    ??macRollPolingProc_12
   1153          		{
   1154          			pTxData[sdCnt++] = 0x0E-cn;
   \                     ??macRollPolingProc_13:
   \   000129   740E         MOV     A,#0xe
   \   00012B   C3           CLR     C
   \   00012C   98           SUBB    A,R0
   \   00012D   C0E0         PUSH    A
   \   00012F   12....       LCALL   ?Subroutine239 & 0xFFFF
   1155          		}
   \                     ??CrossCallReturnLabel_926:
   \   000132   74..         MOV     A,#(pTxData >> 8) & 0xff
   \   000134   12....       LCALL   ??Subroutine312_0 & 0xFFFF
   \                     ??CrossCallReturnLabel_614:
   \   000137   D0E0         POP     A
   \   000139   F0           MOVX    @DPTR,A
   \   00013A   09           INC     R1
   \   00013B   08           INC     R0
   \                     ??macRollPolingProc_12:
   \   00013C   8C82         MOV     DPL,R4
   \   00013E   8D83         MOV     DPH,R5
   \   000140   E0           MOVX    A,@DPTR
   \   000141   FE           MOV     R6,A
   \   000142   E8           MOV     A,R0
   \   000143   C3           CLR     C
   \   000144   9E           SUBB    A,R6
   \   000145   40E2         JC      ??macRollPolingProc_13
   1156          		//pTxData[sdCnt++] = 0x80;
   1157          		//g_sendLen = 8;
   1158          		//macRfSendPacket(pConfig->destAddr, pTxData, sdCnt,NULL,0);
   1159          		macRfSendPacket(pConfig->destAddr, pTxData, sdCnt,NULL,0,SEND_MODE_UNSLOTTED);
   \   000147                ; Setup parameters for call to function macRfSendPacket
   \   000147   75..01       MOV     ?V0 + 0,#0x1
   \   00014A   78..         MOV     R0,#?V0 + 0
   \   00014C   12....       LCALL   ?PUSH_XSTACK_I_ONE
   \   00014F   75..00       MOV     ?V0 + 0,#0x0
   \   000152   78..         MOV     R0,#?V0 + 0
   \   000154   12....       LCALL   ?PUSH_XSTACK_I_ONE
   \   000157   E4           CLR     A
   \   000158   F5..         MOV     ?V0 + 1,A
   \   00015A   78..         MOV     R0,#?V0 + 0
   \   00015C   12....       LCALL   ?PUSH_XSTACK_I_TWO
   \   00015F   7C..         MOV     R4,#pTxData & 0xff
   \   000161   7D..         MOV     R5,#(pTxData >> 8) & 0xff
   \   000163   8A82         MOV     DPL,R2
   \   000165   8B83         MOV     DPH,R3
   \   000167   12....       LCALL   ??Subroutine323_0 & 0xFFFF
   \                     ??CrossCallReturnLabel_696:
   \   00016A   12....       LCALL   ?DEALLOC_XSTACK8
   1160          		veriPckSendCallback = &macRollPolingProc;
   \   00016D   12....       LCALL   ?Subroutine138 & 0xFFFF
   1161          		osal_start_timerEx( macEx_taskId, MACEX_VERI_SEND_INQURE, 1000+(osal_rand()&0x0f));
   \                     ??CrossCallReturnLabel_254:
   \   000170   24E8         ADD     A,#-0x18
   \   000172   FC           MOV     R4,A
   \   000173   E4           CLR     A
   \   000174   3403         ADDC    A,#0x3
   \   000176   FD           MOV     R5,A
   \                     ??macRollPolingProc_11:
   \   000177   12....       LCALL   ??Subroutine340_0 & 0xFFFF
   1162          		break;
   1163          
   1164          		case CMD_MODE_OFF:
   1165          		break;
   1166          
   1167          /*
   1168          		default:
   1169          		pConfig->frameHead = 0x8841;
   1170          		pConfig->destAddr = 0xFFFF;
   1171          		//pConfig->myAddr = 0x000F;
   1172          		pTxData[0] = 0x9A;
   1173          		pTxData[1] = pConfig->evtCnt;//0x01;
   1174          		pTxData[2] = pConfig->totalDev;//0x01;
   1175          		pTxData[3] = 0x01;
   1176          		pTxData[4] = (1<<pTxData[2])-1;//0x01;
   1177          		pTxData[5] = 0x00;
   1178          		pTxData[6] = pTxData[4];
   1179          		pTxData[7] = 0x80;
   1180          		g_sendLen = 8;
   1181          		macRfSendPacket(pConfig->destAddr, pTxData, g_sendLen,0);
   1182          		veriPckSendCallback = &macRollPolingProc;
   1183          		osal_start_timerEx( macEx_taskId, MACEX_VERI_SEND_INQURE, 1000);
   1184          		break;
   1185          */
   1186          	}
   1187          #ifdef DEBUG_TRACE	
   1188          	//DeviceInfoPrint();
   1189          #endif
   1190          /*
   1191          	if(MSTDEV_MODE_DEV==g_isMaster)
   1192          	{
   1193          		basicRfConfig.ackRequest = 0;
   1194          		pConfig->frameHead = 0xc801;
   1195          		pConfig->destAddr = 0x000f;
   1196          		pConfig->myAddr = 0xFFFF;
   1197          		osal_cpyExtAddr(pTxData,g_extAddr);
   1198          		//pConfig->myAddr = ADDR;
   1199          		pTxData[8]=0x91;
   1200          		pTxData[9]=0x00;
   1201          		//pTxData[10]=0x30;
   1202          		//pTxData[11]=0x00;
   1203          		pTxData[10]=(uint8)((pConfig->panId)>>8);
   1204          		pTxData[11]=(pConfig->panId)&0xFF;
   1205          		g_sendLen = 12;
   1206          		macRfSendPacket(pConfig->destAddr, pTxData, g_sendLen,0);	
   1207          	}else
   1208          	{
   1209          		pConfig->frameHead = 0x8841;
   1210          		pConfig->destAddr = 0xFFFF;
   1211          		//pConfig->myAddr = 0x000F;
   1212          		pTxData[0] = 0x9A;
   1213          		pTxData[1] = pConfig->evtCnt;//0x01;
   1214          		pTxData[2] = pConfig->totalDev;//0x01;
   1215          		pTxData[3] = 0x01;
   1216          		pTxData[4] = (1<<pTxData[2])-1;//0x01;
   1217          		pTxData[5] = 0x00;
   1218          		pTxData[6] = pTxData[4];
   1219          		pTxData[7] = 0x80;
   1220          		g_sendLen = 8;
   1221          		macRfSendPacket(pConfig->destAddr, pTxData, g_sendLen,0);
   1222          		
   1223          	} 
   1224          	veriPckSendCallback = &macRollPolingProc;
   1225          	osal_start_timerEx( macEx_taskId, MACEX_VERI_SEND_INQURE, 1000);
   1226          */
   1227          }
   \                     ??CrossCallReturnLabel_817:
   \   00017A   02....       LJMP    ??Subroutine318_0 & 0xFFFF

   \                                 In  segment BANKED_CODE, align 1, keep-with-next
   \                     ?Subroutine85:
   \   000000   12....       LCALL   ?Subroutine221 & 0xFFFF
   \                     ??CrossCallReturnLabel_864:
   \   000003   240B         ADD     A,#0xb
   \   000005                REQUIRE ??Subroutine280_0
   \   000005                ; // Fall through to label ??Subroutine280_0

   \                                 In  segment BANKED_CODE, align 1, keep-with-next
   \                     ??Subroutine280_0:
   \   000000   12....       LCALL   ?Subroutine198 & 0xFFFF
   \                     ??CrossCallReturnLabel_846:
   \   000003   22           RET

   \                                 In  segment BANKED_CODE, align 1, keep-with-next
   \                     ?Subroutine158:
   \   000000   12....       LCALL   ?Subroutine229 & 0xFFFF
   \                     ??CrossCallReturnLabel_392:
   \   000003   22           RET

   \                                 In  segment BANKED_CODE, align 1, keep-with-next
   \                     ?Subroutine99:
   \   000000   F0           MOVX    @DPTR,A
   \   000001   18           DEC     R0
   \   000002   18           DEC     R0
   \   000003   90....       MOV     DPTR,#pConfig + 1
   \   000006   12....       LCALL   ??Subroutine319_0 & 0xFFFF
   \                     ??CrossCallReturnLabel_660:
   \   000009   22           RET

   \                                 In  segment BANKED_CODE, align 1, keep-with-next
   \                     ?Subroutine82:
   \   000000   12....       LCALL   ?Subroutine197 & 0xFFFF
   \                     ??CrossCallReturnLabel_913:
   \   000003   22           RET

   \                                 In  segment BANKED_CODE, align 1, keep-with-next
   \                     ?Subroutine252:
   \   000000   90....       MOV     DPTR,#pConfig
   \   000003   E0           MOVX    A,@DPTR
   \   000004   28           ADD     A,R0
   \   000005   F8           MOV     R0,A
   \   000006   A3           INC     DPTR
   \   000007   E0           MOVX    A,@DPTR
   \   000008   39           ADDC    A,R1
   \   000009   F9           MOV     R1,A
   \   00000A   E8           MOV     A,R0
   \   00000B   22           RET

   \                                 In  segment BANKED_CODE, align 1, keep-with-next
   \                     ??Subroutine285_0:
   \   000000   12....       LCALL   ?Subroutine188 & 0xFFFF
   \                     ??CrossCallReturnLabel_535:
   \   000003   6401         XRL     A,#0x1
   \   000005   22           RET

   \                                 In  segment BANKED_CODE, align 1, keep-with-next
   \                     ?Subroutine188:
   \   000000   75F00F       MOV     B,#0xf
   \   000003   A4           MUL     AB
   \   000004   F8           MOV     R0,A
   \   000005   A9F0         MOV     R1,B
   \   000007                REQUIRE ??Subroutine293_0
   \   000007                ; // Fall through to label ??Subroutine293_0

   \                                 In  segment BANKED_CODE, align 1, keep-with-next
   \                     ??Subroutine293_0:
   \   000000   12....       LCALL   ?Subroutine252 & 0xFFFF
   \                     ??CrossCallReturnLabel_539:
   \   000003   12....       LCALL   ?Subroutine258 & 0xFFFF
   \                     ??CrossCallReturnLabel_782:
   \   000006   E0           MOVX    A,@DPTR
   \   000007   22           RET

   \                                 In  segment BANKED_CODE, align 1, keep-with-next
   \                     ?Subroutine167:
   \   000000   12....       LCALL   ?Subroutine221 & 0xFFFF
   \                     ??CrossCallReturnLabel_866:
   \   000003   24FD         ADD     A,#-0x3
   \   000005   18           DEC     R0
   \   000006   22           RET

   \                                 In  segment BANKED_CODE, align 1, keep-with-next
   \                     ?Subroutine140:
   \   000000   F0           MOVX    @DPTR,A
   \   000001   75..00       MOV     ?V0 + 0,#0x0
   \   000004   75..FF       MOV     ?V0 + 1,#-0x1
   \   000007   8C82         MOV     DPL,R4
   \   000009   8D83         MOV     DPH,R5
   \   00000B   E0           MOVX    A,@DPTR
   \   00000C   04           INC     A
   \   00000D   78..         MOV     R0,#?V0 + 0
   \   00000F   22           RET

   \                                 In  segment BANKED_CODE, align 1, keep-with-next
   \                     ?Subroutine105:
   \   000000   12....       LCALL   ?Subroutine221 & 0xFFFF
   \                     ??CrossCallReturnLabel_867:
   \   000003   2401         ADD     A,#0x1
   \   000005   08           INC     R0
   \   000006   A3           INC     DPTR
   \   000007   E0           MOVX    A,@DPTR
   \   000008   3401         ADDC    A,#0x1
   \   00000A   F9           MOV     R1,A
   \   00000B   22           RET

   \                                 In  segment BANKED_CODE, align 1, keep-with-next
   \                     ?Subroutine50:
   \   000000   12....       LCALL   ?Subroutine221 & 0xFFFF
   \                     ??CrossCallReturnLabel_868:
   \   000003   2400         ADD     A,#0x0
   \   000005   08           INC     R0
   \   000006   08           INC     R0
   \   000007   08           INC     R0
   \   000008   A3           INC     DPTR
   \   000009   E0           MOVX    A,@DPTR
   \   00000A   3401         ADDC    A,#0x1
   \   00000C   F9           MOV     R1,A
   \   00000D   E8           MOV     A,R0
   \   00000E   FC           MOV     R4,A
   \   00000F   E9           MOV     A,R1
   \   000010   FD           MOV     R5,A
   \   000011   8C82         MOV     DPL,R4
   \   000013   8D83         MOV     DPH,R5
   \   000015   E0           MOVX    A,@DPTR
   \   000016   04           INC     A
   \   000017   22           RET

   \                                 In  segment BANKED_CODE, align 1, keep-with-next
   \                     ??Subroutine303_0:
   \   000000   12....       LCALL   ??Subroutine304_0 & 0xFFFF
   \                     ??CrossCallReturnLabel_587:
   \   000003   540F         ANL     A,#0xf
   \   000005   22           RET

   \                                 In  segment BANKED_CODE, align 1, keep-with-next
   \                     ?Subroutine154:
   \   000000   90....       MOV     DPTR,#veriPckSendCallback
   \   000003                REQUIRE ??Subroutine324_0
   \   000003                ; // Fall through to label ??Subroutine324_0

   \                                 In  segment BANKED_CODE, align 1, keep-with-next
   \                     ??Subroutine327_0:
   \   000000   12....       LCALL   ??Subroutine343_0 & 0xFFFF
   \                     ??CrossCallReturnLabel_835:
   \   000003   22           RET

   \                                 In  segment BANKED_CODE, align 1, keep-with-next
   \                     ?Subroutine20:
   \   000000   12....       LCALL   ?Subroutine183 & 0xFFFF
   \                     ??CrossCallReturnLabel_349:
   \   000003   22           RET

   \                                 In  segment BANKED_CODE, align 1, keep-with-next
   \                     ?Subroutine198:
   \   000000   12....       LCALL   ?Subroutine262 & 0xFFFF
   \                     ??CrossCallReturnLabel_920:
   \   000003   22           RET

   \                                 In  segment BANKED_CODE, align 1, keep-with-next
   \                     ?Subroutine22:
   \   000000   12....       LCALL   ?Subroutine184 & 0xFFFF
   \                     ??CrossCallReturnLabel_351:
   \   000003                ; Setup parameters for call to function sAddrExtCpy
   \   000003                ; Setup parameters for call to function sAddrExtCpy
   \   000003   7C..         MOV     R4,#g_extAddr & 0xff
   \   000005   7D..         MOV     R5,#(g_extAddr >> 8) & 0xff
   \   000007   7A..         MOV     R2,#pTxData & 0xff
   \   000009   7B..         MOV     R3,#(pTxData >> 8) & 0xff
   \   00000B   12....       LCALL   ??sAddrExtCpy?relay
   \   00000E   90....       MOV     DPTR,#pTxData + 8
   \   000011   22           RET

   \                                 In  segment BANKED_CODE, align 1, keep-with-next
   \                     ?Subroutine239:
   \   000000   89..         MOV     ?V0 + 0,R1
   \   000002   74..         MOV     A,#pTxData & 0xff
   \   000004                REQUIRE ??Subroutine354_0
   \   000004                ; // Fall through to label ??Subroutine354_0

   \                                 In  segment BANKED_CODE, align 1, keep-with-next
   \                     ??Subroutine354_0:
   \   000000   25..         ADD     A,?V0 + 0
   \   000002   F582         MOV     DPL,A
   \   000004   22           RET
   1228          
   1229          #ifndef SEND_UNIFIED
   1230          MAC_DATAREQ_API static void LinkedModeRollPoling(macRx_t* pck)
   1231          {
   1232          	pConfig->frameHead = 0x8841;
   1233          	pConfig->destAddr = 0xFFFF;
   1234          	//pConfig->myAddr = 0x000F;
   1235          	pTxData[0] = 0x9A;
   1236          	pTxData[1] = pConfig->evtCnt;//0x01;
   1237          	pTxData[2] = pConfig->totalDev;//0x01;
   1238          	pTxData[3] = 0x02;
   1239          	pTxData[4] = pConfig->mstRcd;//pConfig->mstRcd;//0x00;//0x01;
   1240          	pTxData[5] = 0x00;
   1241          	pTxData[6] = pConfig->totalDev-pConfig->mstRcd;//0x00;
   1242          	pTxData[7] = 0xC0;
   1243          	pTxData[8] = 0x0E;
   1244          	g_sendLen = 9;
   1245          	//macRfSendPacket(pConfig->destAddr, pTxData, g_sendLen,NULL,0);
   1246          	macRfSendPacket(pConfig->destAddr, pTxData, g_sendLen,NULL,0,SEND_MODE_UNSLOTTED);
   1247          	veriPckSendCallback = &LinkedModeRollPoling;
   1248          	osal_start_timerEx( macEx_taskId, MACEX_VERI_SEND_INQURE, 1000);
   1249          
   1250          }
   1251          #endif
   1252          
   1253          static void PortInit(void)
   1254          {
   1255          	//LED_RED_ON();
   1256          	LED_INS_ALLOFF();
   1257          #ifdef LED_TOGGLE_DEBUG
   1258          	osal_start_timerEx( macEx_taskId, MACEX_LED_FLASH, 500);
   1259          #endif
   1260          
   1261          }
   1262          

   \                                 In  segment BANKED_CODE, align 1, keep-with-next
   1263          static void macExRxEnable(void)
   \                     macExRxEnable:
   1264          {
   \   000000   C082         PUSH    DPL
   \   000002   C083         PUSH    DPH
   \   000004                ; Saved register size: 2
   \   000004                ; Auto size: 0
   1265          	//static int8 rxFlag=0;
   1266          	//macRxEnable(1);
   1267          
   1268          	if(!s_rxFlag)
   \   000004   90....       MOV     DPTR,#s_rxFlag
   \   000007   E0           MOVX    A,@DPTR
   \   000008   700B         JNZ     ??macExRxEnable_0
   1269          	{
   1270          		macRxEnable(1);
   \   00000A                ; Setup parameters for call to function macRxEnable
   \   00000A   7901         MOV     R1,#0x1
   \   00000C   12....       LCALL   ??macRxEnable?relay
   1271          		s_rxFlag = 1;
   \   00000F   90....       MOV     DPTR,#s_rxFlag
   \   000012   7401         MOV     A,#0x1
   \   000014   F0           MOVX    @DPTR,A
   1272          	}
   1273          }
   \                     ??macExRxEnable_0:
   \   000015   02....       LJMP    ??Subroutine299_0 & 0xFFFF
   1274          

   \                                 In  segment BANKED_CODE, align 1, keep-with-next
   1275          static void macExRxDisable(void)
   \                     macExRxDisable:
   1276          {
   \   000000   C082         PUSH    DPL
   \   000002   C083         PUSH    DPH
   \   000004                ; Saved register size: 2
   \   000004                ; Auto size: 0
   1277          	//macRxDisable(1);
   1278          
   1279          	if(s_rxFlag)
   \   000004   90....       MOV     DPTR,#s_rxFlag
   \   000007   E0           MOVX    A,@DPTR
   \   000008   600A         JZ      ??macExRxDisable_0
   1280          	{
   1281          		//macRxEnable(1);
   1282          		//S1CON = 0x00;
   1283          		macRxDisable(1);
   \   00000A                ; Setup parameters for call to function macRxDisable
   \   00000A   7901         MOV     R1,#0x1
   \   00000C   12....       LCALL   ??macRxDisable?relay
   1284          		s_rxFlag = 0;
   \   00000F   90....       MOV     DPTR,#s_rxFlag
   \   000012   E4           CLR     A
   \   000013   F0           MOVX    @DPTR,A
   1285          	}
   1286          }
   \                     ??macExRxDisable_0:
   \   000014   02....       LJMP    ??Subroutine299_0 & 0xFFFF
   1287          

   \                                 In  segment BANKED_CODE, align 1, keep-with-next
   \                     ?Subroutine4:
   \   000000   7414         MOV     A,#0x14
   \   000002                REQUIRE ??Subroutine278_0
   \   000002                ; // Fall through to label ??Subroutine278_0

   \                                 In  segment BANKED_CODE, align 1, keep-with-next
   \                     ??Subroutine278_0:
   \   000000   12....       LCALL   ?DEALLOC_XSTACK8
   \   000003                REQUIRE ??Subroutine279_0
   \   000003                ; // Fall through to label ??Subroutine279_0

   \                                 In  segment BANKED_CODE, align 1, keep-with-next
   1288          static void VeriKeyInitial(void)
   \                     VeriKeyInitial:
   1289          {
   \   000000   74F5         MOV     A,#-0xb
   \   000002   12....       LCALL   ?BANKED_ENTER_XDATA
   \   000005                ; Saved register size: 11
   \   000005                ; Auto size: 20
   \   000005   74EC         MOV     A,#-0x14
   \   000007   12....       LCALL   ?ALLOC_XSTACK8
   1290            	uint16 *cpuIdAddr;
   1291          	uint8 veriBuf[20];
   1292          	char *decKey = "MakeTomorrowBest";
   1293          
   1294          	HalFlashRead(CPUID_VERI_ADDR / HAL_FLASH_PAGE_SIZE,
   1295                         CPUID_VERI_ADDR % HAL_FLASH_PAGE_SIZE,
   1296                         veriBuf, sizeof(veriBuf));
   \   00000A                ; Setup parameters for call to function HalFlashRead
   \   00000A   75..14       MOV     ?V0 + 0,#0x14
   \   00000D   75..00       MOV     ?V0 + 1,#0x0
   \   000010   78..         MOV     R0,#?V0 + 0
   \   000012   12....       LCALL   ?PUSH_XSTACK_I_TWO
   \   000015   7402         MOV     A,#0x2
   \   000017   12....       LCALL   ?XSTACK_DISP0_8
   \   00001A   AC82         MOV     R4,DPL
   \   00001C   AD83         MOV     R5,DPH
   \   00001E   7AF0         MOV     R2,#-0x10
   \   000020   7B07         MOV     R3,#0x7
   \   000022   7903         MOV     R1,#0x3
   \   000024   12....       LCALL   ??HalFlashRead?relay
   \   000027   7402         MOV     A,#0x2
   \   000029   12....       LCALL   ?DEALLOC_XSTACK8
   1297          
   1298          	halAesLoadKeyOrInitVector(decKey, TRUE);
                 	                          ^
Warning[Pe167]: argument of type "char *" is incompatible with parameter of
          type "BYTE *"
   \   00002C                ; Setup parameters for call to function halAesLoadKeyOrInitVector
   \   00002C   7901         MOV     R1,#0x1
   \   00002E   7A..         MOV     R2,#`?<Constant "MakeTomorrowBest">` & 0xff
   \   000030   7B..         MOV     R3,#(`?<Constant "MakeTomorrowBest">` >> 8) & 0xff
   \   000032   12....       LCALL   ??halAesLoadKeyOrInitVector?relay
   1299          
   1300          	halAesEncrDecr((BYTE *)veriBuf, CPUID_VERI_LEN, (BYTE *)veriBuf/*, ucLDR_Message.com_data*/, DECRYPT); 
   \   000035                ; Setup parameters for call to function halAesEncrDecr
   \   000035   85..82       MOV     DPL,?XSP + 0
   \   000038   85..83       MOV     DPH,?XSP + 1
   \   00003B   8582..       MOV     ?V0 + 0,DPL
   \   00003E   8583..       MOV     ?V0 + 1,DPH
   \   000041   78..         MOV     R0,#?V0 + 0
   \   000043   12....       LCALL   ?PUSH_XSTACK_I_TWO
   \   000046   7901         MOV     R1,#0x1
   \   000048   7C10         MOV     R4,#0x10
   \   00004A   7D00         MOV     R5,#0x0
   \   00004C   7402         MOV     A,#0x2
   \   00004E   12....       LCALL   ?XSTACK_DISP0_8
   \   000051   AA82         MOV     R2,DPL
   \   000053   AB83         MOV     R3,DPH
   \   000055   12....       LCALL   ??halAesEncrDecr?relay
   \   000058   7402         MOV     A,#0x2
   \   00005A   12....       LCALL   ?DEALLOC_XSTACK8
   1301          
   1302          	osal_memcpy(g_extAddrSrc, veriBuf+4, 8);
   \   00005D                ; Setup parameters for call to function osal_memcpy
   \   00005D   7404         MOV     A,#0x4
   \   00005F   12....       LCALL   ?XSTACK_DISP0_8
   \   000062   A982         MOV     R1,DPL
   \   000064   AA83         MOV     R2,DPH
   \   000066   89..         MOV     ?V0 + 0,R1
   \   000068   8A..         MOV     ?V0 + 1,R2
   \   00006A   75..00       MOV     ?V0 + 2,#0x0
   \   00006D   78..         MOV     R0,#?V0 + 0
   \   00006F   12....       LCALL   ?PUSH_XSTACK_I_THREE
   \   000072   7C08         MOV     R4,#0x8
   \   000074   7D00         MOV     R5,#0x0
   \   000076   7A..         MOV     R2,#g_extAddrSrc & 0xff
   \   000078   7B..         MOV     R3,#(g_extAddrSrc >> 8) & 0xff
   \   00007A   12....       LCALL   ??Subroutine338_0 & 0xFFFF
   \                     ??CrossCallReturnLabel_807:
   \   00007D   12....       LCALL   ?DEALLOC_XSTACK8
   1303          	
   1304          	halAesLoadKeyOrInitVector((BYTE*)cpuIdKey, TRUE);
   \   000080                ; Setup parameters for call to function halAesLoadKeyOrInitVector
   \   000080   7901         MOV     R1,#0x1
   \   000082   7A..         MOV     R2,#cpuIdKey & 0xff
   \   000084   7B..         MOV     R3,#(cpuIdKey >> 8) & 0xff
   \   000086   12....       LCALL   ??halAesLoadKeyOrInitVector?relay
   1305          	halAesEncrDecr(cpuIdRst, 16, cpuIdRst, DECRYPT);
                 	               ^
Warning[Pe167]: argument of type "char *" is incompatible with parameter of
          type "BYTE *"

  	halAesEncrDecr(cpuIdRst, 16, cpuIdRst, DECRYPT);
  	                             ^
"C:\Users\freeman\Documents\work\NBK\Canon\Nbk600EX - RF\Components\mac\low_level\srf04\mac_rf.c",1305  Warning[Pe167]: 
          argument of type "char *" is incompatible with parameter of type
          "BYTE *"
   \   000089                ; Setup parameters for call to function halAesEncrDecr
   \   000089   75....       MOV     ?V0 + 0,#cpuIdRst & 0xff
   \   00008C   75....       MOV     ?V0 + 1,#(cpuIdRst >> 8) & 0xff
   \   00008F   78..         MOV     R0,#?V0 + 0
   \   000091   12....       LCALL   ?PUSH_XSTACK_I_TWO
   \   000094   7901         MOV     R1,#0x1
   \   000096   7C10         MOV     R4,#0x10
   \   000098   7D00         MOV     R5,#0x0
   \   00009A   7A..         MOV     R2,#cpuIdRst & 0xff
   \   00009C   7B..         MOV     R3,#(cpuIdRst >> 8) & 0xff
   \   00009E   12....       LCALL   ??halAesEncrDecr?relay
   \   0000A1   7402         MOV     A,#0x2
   \   0000A3   12....       LCALL   ?DEALLOC_XSTACK8
   1306          	cpuIdAddr = (uint16*)(cpuIdRst+2);
   1307          	MemReadRam((macRam_t *)(PXREG(*cpuIdAddr)),g_extAddrVef, 8);	
   \   0000A6   7A..         MOV     R2,#g_extAddrVef & 0xff
   \   0000A8   7B..         MOV     R3,#(g_extAddrVef >> 8) & 0xff
   \   0000AA   90....       MOV     DPTR,#cpuIdRst + 2
   \   0000AD   12....       LCALL   ?Subroutine94 & 0xFFFF
   \                     ??CrossCallReturnLabel_152:
   \   0000B0   7C08         MOV     R4,#0x8
   \                     ??VeriKeyInitial_0:
   \   0000B2   8882         MOV     DPL,R0
   \   0000B4   8983         MOV     DPH,R1
   \   0000B6   E0           MOVX    A,@DPTR
   \   0000B7   8A82         MOV     DPL,R2
   \   0000B9   8B83         MOV     DPH,R3
   \   0000BB   12....       LCALL   ?Subroutine158 & 0xFFFF
   \                     ??CrossCallReturnLabel_297:
   \   0000BE   A882         MOV     R0,DPL
   \   0000C0   A983         MOV     R1,DPH
   \   0000C2   8A82         MOV     DPL,R2
   \   0000C4   8B83         MOV     DPH,R3
   \   0000C6   A3           INC     DPTR
   \   0000C7   AA82         MOV     R2,DPL
   \   0000C9   AB83         MOV     R3,DPH
   \   0000CB   1C           DEC     R4
   \   0000CC   EC           MOV     A,R4
   \   0000CD   70E3         JNZ     ??VeriKeyInitial_0
   1308          }
   \   0000CF   02....       LJMP    ?Subroutine4 & 0xFFFF
   1309          
   1310          //extern macTx_t *pMacDataTx;

   \                                 In  segment BANKED_CODE, align 1, keep-with-next
   1311          void macTaskInitEx(uint8 taskId)
   \                     macTaskInitEx:
   1312          {
   \   000000   74F6         MOV     A,#-0xa
   \   000002   12....       LCALL   ?BANKED_ENTER_XDATA
   \   000005                ; Saved register size: 10
   \   000005                ; Auto size: 16
   \   000005   74F0         MOV     A,#-0x10
   \   000007   12....       LCALL   ?ALLOC_XSTACK8
   \   00000A   E9           MOV     A,R1
   1313          	//uint8 buf[8];
   1314          	uint8 rssiBuf[16];
   1315          	uint8 dev=0;
   1316          	uint8 i = 0;
   1317          
   1318          	macEx_taskId = taskId;
   \   00000B   90....       MOV     DPTR,#macEx_taskId
   \   00000E   F0           MOVX    @DPTR,A
   1319          	pConfig = &basicRfConfig;
   \   00000F   90....       MOV     DPTR,#pConfig
   \   000012   74..         MOV     A,#basicRfConfig & 0xff
   \   000014   F0           MOVX    @DPTR,A
   \   000015   A3           INC     DPTR
   \   000016   74..         MOV     A,#(basicRfConfig >> 8) & 0xff
   \   000018   F0           MOVX    @DPTR,A
   1320          	
   1321          #ifdef DEBUG_TRACE
   1322          	macDataTx.msdu.p = pTxData;
   1323          	pMacDataTx = &macDataTx;
   1324          	
   1325          #endif
   1326          	
   1327          	//MAC_AUTO_CRC_ACK();
   1328          	//MAC_RECOMMEND_SETTING();
   1329          	//macEnableRxInterrupt();
   1330          	macLowLevelInit();
   \   000019                ; Setup parameters for call to function macLowLevelInit
   \   000019   12....       LCALL   ??macLowLevelInit?relay
   1331          #ifdef DEBUG_TRACE
   1332          	g_isMaster = CMD_MODE_RF_MST;
   1333          	macRxEnable(1);
   1334          #endif
   1335          
   1336          #ifdef DEBUG_NOTRACE
   1337          	//g_isMaster = CMD_MODE_RF_MST;
   1338          	g_isMaster = CMD_MODE_RF_SLA;
   1339          	pConfig->group = 0;
   1340          	macRxEnable(1);
   1341          	RfModCheck(g_isMaster);
   1342          #endif
   1343          
   1344          //#if((defined HAL_UART_DMA)&&(HAL_UART_DMA==1))
   1345          	//macExUartIntSet();		//this set should take effort after initialization
   1346          //#endif
   1347          	macExUartInit();
   \   00001C                ; Setup parameters for call to function macExUartInit
   \   00001C   12....       LCALL   ??macExUartInit?relay
   1348          	PortInit();
   \   00001F   D292         SETB    0x90.2
   \   000021   D293         SETB    0x90.3
   1349          	//macRadioSetTxPower(0xF5);
   1350          	//macRadioSetTxPower(0x05);
   1351          #ifdef HAL_MAC_USE_REGISTER_POWER_VALUES
   1352          	macRadioSetTxPower(0xf5);
   \   000023                ; Setup parameters for call to function macRadioSetTxPower
   \   000023   79F5         MOV     R1,#-0xb
   \   000025   12....       LCALL   ??macRadioSetTxPower?relay
   1353          #endif
   1354          
   1355          	//FRMCTRL0 |= 0x10;
   1356          
   1357          	//CalcEachRssi(rssiBuf,1,0);
   1358          	//pConfig->autoChan = RF_CHANNEL;
   1359          	macMemReadRam((macRam_t *) TI_EXTADDR, g_extAddr, 8);
   \   000028                ; Setup parameters for call to function macMemReadRam
   \   000028   7908         MOV     R1,#0x8
   \   00002A   7C..         MOV     R4,#g_extAddr & 0xff
   \   00002C   7D..         MOV     R5,#(g_extAddr >> 8) & 0xff
   \   00002E   7A0C         MOV     R2,#0xc
   \   000030   7B78         MOV     R3,#0x78
   \   000032   12....       LCALL   ??macMemReadRam?relay
   1360          #ifdef DEBUG_TRACE
   1361          	Printf("ExtAddr: ");
   1362          	BufferPrint(g_extAddr, 8);
   1363          #endif
   1364          	MAC_RADIO_SET_IEEE_ADDR(g_extAddr);
   \   000035                ; Setup parameters for call to function macMemWriteRam
   \   000035   7908         MOV     R1,#0x8
   \   000037   7C..         MOV     R4,#g_extAddr & 0xff
   \   000039   7D..         MOV     R5,#(g_extAddr >> 8) & 0xff
   \   00003B   7A6A         MOV     R2,#0x6a
   \   00003D   7B61         MOV     R3,#0x61
   \   00003F   12....       LCALL   ??macMemWriteRam?relay
   1365          
   1366          	VeriKeyInitial();
   \   000042                ; Setup parameters for call to function VeriKeyInitial
   \   000042   12....       LCALL   ??VeriKeyInitial?relay
   1367          	
   1368          #ifdef DEBUG_TRACE
   1369          	Printf("ExtAddrSrc: ");
   1370                 BufferPrint(g_extAddrSrc, 8);
   1371          	Printf("\r\nExtAddrVef: ");
   1372          	BufferPrint(g_extAddrVef, 8);
   1373          	if(TRUE==osal_memcmp(g_extAddrSrc,g_extAddrVef,8))
   1374          	{
   1375          		Printf("\r\ncheck ok ");
   1376          	}
   1377          #endif
   1378          	
   1379          	
   1380          /*
   1381          	HalFlashInit();
   1382          	HalFlashErase(20);
   1383          	HalFlashWrite(20, g_extAddr, 8);
   1384          	HalFlashRead(20,0,buf,8);*/
   1385          	//macRxOn();
   1386          
   1387          	//g_linkedMode = 1;
   1388          	//g_linkedMode = 0;				//linked mode
   1389          	// Config basicRF
   1390          	//if((MSTDEV_MODE_MLINK==g_isMaster)||(MSTDEV_MODE_SLINK==g_isMaster))
   1391          
   1392          	basicRfConfig.panId = 0x3000;
   \   000045   90....       MOV     DPTR,#basicRfConfig + 2
   \   000048   E4           CLR     A
   \   000049   F0           MOVX    @DPTR,A
   \   00004A   A3           INC     DPTR
   \   00004B   7430         MOV     A,#0x30
   \   00004D   F0           MOVX    @DPTR,A
   1393          
   1394          	basicRfConfig.channel = RF_CHANNEL;
   \   00004E   A3           INC     DPTR
   \   00004F   740B         MOV     A,#0xb
   \   000051   12....       LCALL   ?Subroutine160 & 0xFFFF
   1395          	//basicRfConfig.ackRequest = 0;//TRUE;
   1396          	if(CMD_MODE_RF_SLA==g_isMaster)
   \                     ??CrossCallReturnLabel_302:
   \   000054   6402         XRL     A,#0x2
   \   000056   90....       MOV     DPTR,#basicRfConfig
   \   000059   7004         JNZ     ??macTaskInitEx_0
   1397          	{
   1398          		//basicRfConfig.myAddr = ADDR; 
   1399          		//basicRfConfig.myAddr = 0xFFFF; 
   1400          		basicRfConfig.myAddr = 0x00FF; 
   \   00005B   74FF         MOV     A,#-0x1
   \   00005D   8002         SJMP    ??macTaskInitEx_1
   1401          	}else
   1402          	{
   1403          		basicRfConfig.myAddr = ADDR; 
   \                     ??macTaskInitEx_0:
   \   00005F   740F         MOV     A,#0xf
   1404          	}
   \                     ??macTaskInitEx_1:
   \   000061   12....       LCALL   ??Subroutine327_0 & 0xFFFF
   1405          	basicRfConfig.extAddr = g_extAddr;
   \                     ??CrossCallReturnLabel_735:
   \   000064   90....       MOV     DPTR,#basicRfConfig + 7
   \   000067   74..         MOV     A,#g_extAddr & 0xff
   \   000069   F0           MOVX    @DPTR,A
   \   00006A   A3           INC     DPTR
   \   00006B   74..         MOV     A,#(g_extAddr >> 8) & 0xff
   \   00006D   F0           MOVX    @DPTR,A
   1406          	pCurrentDev = (void *)NULL;
   \   00006E   90....       MOV     DPTR,#pCurrentDev
   \   000071   E4           CLR     A
   \   000072   F0           MOVX    @DPTR,A
   \   000073   A3           INC     DPTR
   \   000074   F0           MOVX    @DPTR,A
   1407          	//basicRfConfig.devHead = deviceInfo;
   1408          	basicRfConfig.totalDev = 0;
   \   000075   90....       MOV     DPTR,#basicRfConfig + 253
   \   000078   F0           MOVX    @DPTR,A
   1409          	basicRfConfig.evtCnt = 0;
   \   000079   A3           INC     DPTR
   \   00007A   F0           MOVX    @DPTR,A
   1410          	basicRfConfig.mstRcd = 0;
   \   00007B   90....       MOV     DPTR,#basicRfConfig + 256
   \   00007E   F0           MOVX    @DPTR,A
   1411          	basicRfConfig.slvRcd = 0;
   \   00007F   A3           INC     DPTR
   \   000080   F0           MOVX    @DPTR,A
   1412          	osal_memset(basicRfConfig.idInGroup, 0x00, 16);
   \   000081                ; Setup parameters for call to function osal_memset
   \   000081   7C10         MOV     R4,#0x10
   \   000083   FD           MOV     R5,A
   \   000084   F9           MOV     R1,A
   \   000085   7A..         MOV     R2,#(basicRfConfig + 7) & 0xff
   \   000087   7B..         MOV     R3,#((basicRfConfig + 263) >> 8) & 0xff
   \   000089   12....       LCALL   ??osal_memset?relay
   1413          	osal_memset(basicRfConfig.arrCnt, 0x00, 5);
   \   00008C                ; Setup parameters for call to function osal_memset
   \   00008C   7C05         MOV     R4,#0x5
   \   00008E   7D00         MOV     R5,#0x0
   \   000090   7900         MOV     R1,#0x0
   \   000092   7A..         MOV     R2,#(basicRfConfig + 2) & 0xff
   \   000094   7B..         MOV     R3,#((basicRfConfig + 258) >> 8) & 0xff
   \   000096   12....       LCALL   ??osal_memset?relay
   1414          	osal_memset(basicRfConfig.isIdOccupied,0x00,16);
   \   000099                ; Setup parameters for call to function osal_memset
   \   000099   7C10         MOV     R4,#0x10
   \   00009B   7D00         MOV     R5,#0x0
   \   00009D   7900         MOV     R1,#0x0
   \   00009F   7A..         MOV     R2,#(basicRfConfig + 23) & 0xff
   \   0000A1   7B..         MOV     R3,#((basicRfConfig + 279) >> 8) & 0xff
   \   0000A3   12....       LCALL   ??osal_memset?relay
   1415          	//basicRfConfig.group = 1;
   1416          
   1417          	for(dev=0;dev<DEVICE_TOTAL;dev++)
   \   0000A6   7C00         MOV     R4,#0x0
   1418          	{
   1419          		pConfig->devHead[dev].veriFlag = DEVICE_UNVERIFIED;
   \                     ??macTaskInitEx_2:
   \   0000A8   EC           MOV     A,R4
   \   0000A9   12....       LCALL   ?Subroutine60 & 0xFFFF
   \                     ??CrossCallReturnLabel_541:
   \   0000AC   12....       LCALL   ?Subroutine131 & 0xFFFF
   \                     ??CrossCallReturnLabel_226:
   \   0000AF   EB           MOV     A,R3
   \   0000B0   12....       LCALL   ??Subroutine290_0 & 0xFFFF
   1420          		pConfig->devHead[dev].ready = 0;
   \                     ??CrossCallReturnLabel_502:
   \   0000B3   12....       LCALL   ??Subroutine297_0 & 0xFFFF
   \                     ??CrossCallReturnLabel_540:
   \   0000B6   2419         ADD     A,#0x19
   \   0000B8   F582         MOV     DPL,A
   \   0000BA   EB           MOV     A,R3
   \   0000BB   12....       LCALL   ??Subroutine290_0 & 0xFFFF
   1421          		pConfig->devHead[dev].shortAddr = 0x0F;
   \                     ??CrossCallReturnLabel_503:
   \   0000BE   12....       LCALL   ?Subroutine65 & 0xFFFF
   \                     ??CrossCallReturnLabel_96:
   \   0000C1   12....       LCALL   ?Subroutine165 & 0xFFFF
   1422          		pConfig->devHead[dev].info = 0;
   \                     ??CrossCallReturnLabel_740:
   \   0000C4   E8           MOV     A,R0
   \   0000C5   241B         ADD     A,#0x1b
   \   0000C7   F582         MOV     DPL,A
   \   0000C9   E9           MOV     A,R1
   \   0000CA   12....       LCALL   ??Subroutine290_0 & 0xFFFF
   1423          	}
   \                     ??CrossCallReturnLabel_504:
   \   0000CD   0C           INC     R4
   \   0000CE   EC           MOV     A,R4
   \   0000CF   C3           CLR     C
   \   0000D0   940F         SUBB    A,#0xf
   \   0000D2   40D4         JC      ??macTaskInitEx_2
   1424          
   1425          	//basicRfConfig.panId = 6666;
   1426          
   1427          	//RfModCheck(g_isMaster);
   1428          
   1429          	txState.txDone = 0;
   \   0000D4   90....       MOV     DPTR,#txState + 2
   \   0000D7   E4           CLR     A
   \   0000D8   F0           MOVX    @DPTR,A
   1430          
   1431          	//pConfig = &basicRfConfig;
   1432          	rxi.pPayload   = NULL;
   \   0000D9   90....       MOV     DPTR,#rxi + 6
   \   0000DC   F0           MOVX    @DPTR,A
   \   0000DD   A3           INC     DPTR
   \   0000DE   F0           MOVX    @DPTR,A
   1433          	txState.receiveOn = TRUE;
   \   0000DF   90....       MOV     DPTR,#txState + 3
   \   0000E2   04           INC     A
   \   0000E3   F0           MOVX    @DPTR,A
   1434          	txState.frameCounter = 0;
   \   0000E4   90....       MOV     DPTR,#__Constant_0
   \   0000E7   12....       LCALL   ?XLOAD_R2345
   \   0000EA   90....       MOV     DPTR,#txState + 4
   \   0000ED   12....       LCALL   ?XSTORE_R2345
   1435          
   1436          	ipRsv.mst = 0x0E;
   \   0000F0   12....       LCALL   ?Subroutine164 & 0xFFFF
   1437          	ipRsv.sla = 0x00;
   1438          
   1439          	macParameterSet();
   \                     ??CrossCallReturnLabel_317:
   \   0000F3                ; Setup parameters for call to function macParameterSet
   \   0000F3   12....       LCALL   ??macParameterSet?relay
   1440          
   1441          	//pConfig->autoChan = RF_CHANNEL;
   1442          
   1443          	CalcEachRssi(rssiBuf,50,10);
                 	             ^
Warning[Pe167]: argument of type "unsigned char *" is incompatible with
          parameter of type "int8 *"

  	uint8 i = 0;
  	      ^
"C:\Users\freeman\Documents\work\NBK\Canon\Nbk600EX - RF\Components\mac\low_level\srf04\mac_rf.c",1316  Warning[Pe177]: 
          variable "i" was declared but never referenced
   \   0000F6                ; Setup parameters for call to function CalcEachRssi
   \   0000F6   75..0A       MOV     ?V0 + 0,#0xa
   \   0000F9   75..00       MOV     ?V0 + 1,#0x0
   \   0000FC   78..         MOV     R0,#?V0 + 0
   \   0000FE   12....       LCALL   ?PUSH_XSTACK_I_TWO
   \   000101   7C32         MOV     R4,#0x32
   \   000103   7D00         MOV     R5,#0x0
   \   000105   7402         MOV     A,#0x2
   \   000107   12....       LCALL   ?XSTACK_DISP0_8
   \   00010A   AA82         MOV     R2,DPL
   \   00010C   AB83         MOV     R3,DPH
   \   00010E   12....       LCALL   ??CalcEachRssi?relay
   \   000111   7402         MOV     A,#0x2
   \   000113   12....       LCALL   ?DEALLOC_XSTACK8
   1444          	//macExRxEnable();
   1445          
   1446          	//macRfReceiveOn();
   1447          	g_initCheck = 0;
   \   000116   90....       MOV     DPTR,#g_initCheck
   \   000119   E4           CLR     A
   \   00011A   F0           MOVX    @DPTR,A
   1448          	
   1449          #ifndef DEBUG_NOTRACE
   1450          	UartSctSend(UART_CC_INIT,1,0);
   \   00011B                ; Setup parameters for call to function UartSctSend
   \   00011B   FB           MOV     R3,A
   \   00011C   7A01         MOV     R2,#0x1
   \   00011E   79C4         MOV     R1,#-0x3c
   \   000120   12....       LCALL   ??UartSctSend?relay
   1451          	osal_start_timerEx(macEx_taskId, MACEX_INIT_CHECK, 1000);
   \   000123                ; Setup parameters for call to function osal_start_timerEx
   \   000123   7CE8         MOV     R4,#-0x18
   \   000125   7D03         MOV     R5,#0x3
   \   000127   7A10         MOV     R2,#0x10
   \   000129   12....       LCALL   ??Subroutine341_0 & 0xFFFF
   1452          #endif
   1453          
   1454          #ifdef LED_TOGGLE_DEBUG
   1455          	osal_start_timerEx( macEx_taskId, MACEX_LED_FLASH, 500);
   1456          #endif	
   1457          
   1458          	//macNetCheck();
   1459          	
   1460          	//osal_start_timerEx(macEx_taskId,MACEX_ROLL_POLING_EVENT,30);
   1461          	macNetCheck(callbackPara);
   \                     ??CrossCallReturnLabel_819:
   \   00012C                ; Setup parameters for call to function macNetCheck
   \   00012C   90....       MOV     DPTR,#callbackPara
   \   00012F   12....       LCALL   ??Subroutine320_0 & 0xFFFF
   \                     ??CrossCallReturnLabel_667:
   \   000132   12....       LCALL   ??macNetCheck?relay
   1462          	
   1463          	
   1464          }
   \   000135   7410         MOV     A,#0x10
   \   000137   02....       LJMP    ?Subroutine8 & 0xFFFF
   \   00013A                REQUIRE _A_P1

   \                                 In  segment BANKED_CODE, align 1, keep-with-next
   \                     ?Subroutine191:
   \   000000   12....       LCALL   ?Subroutine252 & 0xFFFF
   \                     ??CrossCallReturnLabel_538:
   \   000003   22           RET

   \                                 In  segment BANKED_CODE, align 1, keep-with-next
   \                     ?Subroutine164:
   \   000000   90....       MOV     DPTR,#ipRsv
   \   000003   740E         MOV     A,#0xe
   \   000005   12....       LCALL   ??Subroutine343_0 & 0xFFFF
   \                     ??CrossCallReturnLabel_838:
   \   000008   A3           INC     DPTR
   \   000009   F0           MOVX    @DPTR,A
   \   00000A   A3           INC     DPTR
   \   00000B   F0           MOVX    @DPTR,A
   \   00000C   22           RET

   \                                 In  segment BANKED_CODE, align 1, keep-with-next
   \                     ?Subroutine65:
   \   000000   12....       LCALL   ?Subroutine191 & 0xFFFF
   \                     ??CrossCallReturnLabel_481:
   \   000003   12....       LCALL   ?Subroutine220 & 0xFFFF
   \                     ??CrossCallReturnLabel_527:
   \   000006   22           RET

   \                                 In  segment BANKED_CODE, align 1, keep-with-next
   \                     ?Subroutine60:
   \   000000   75F00F       MOV     B,#0xf
   \   000003   A4           MUL     AB
   \   000004   F8           MOV     R0,A
   \   000005   A9F0         MOV     R1,B
   \   000007                REQUIRE ??Subroutine297_0
   \   000007                ; // Fall through to label ??Subroutine297_0

   \                                 In  segment BANKED_CODE, align 1, keep-with-next
   \                     ??Subroutine297_0:
   \   000000   12....       LCALL   ?Subroutine218 & 0xFFFF
   \                     ??CrossCallReturnLabel_545:
   \   000003   22           RET

   \                                 In  segment BANKED_CODE, align 1, keep-with-next
   \                     ?Subroutine218:
   \   000000   12....       LCALL   ?Subroutine253 & 0xFFFF
   \                     ??CrossCallReturnLabel_547:
   \   000003   22           RET

   \                                 In  segment BANKED_CODE, align 1, keep-with-next
   \                     ?Subroutine253:
   \   000000   90....       MOV     DPTR,#pConfig
   \   000003   E0           MOVX    A,@DPTR
   \   000004   28           ADD     A,R0
   \   000005   FA           MOV     R2,A
   \   000006   A3           INC     DPTR
   \   000007   E0           MOVX    A,@DPTR
   \   000008   39           ADDC    A,R1
   \   000009   FB           MOV     R3,A
   \   00000A   EA           MOV     A,R2
   \   00000B   22           RET

   \                                 In  segment BANKED_CODE, align 1, keep-with-next
   \                     ?Subroutine220:
   \   000000   240E         ADD     A,#0xe
   \   000002   12....       LCALL   ??Subroutine288_0 & 0xFFFF
   \                     ??CrossCallReturnLabel_780:
   \   000005   22           RET

   \                                 In  segment BANKED_CODE, align 1, keep-with-next
   \                     ?Subroutine160:
   \   000000   F0           MOVX    @DPTR,A
   \   000001   90....       MOV     DPTR,#g_isMaster
   \   000004   E0           MOVX    A,@DPTR
   \   000005   22           RET

   \                                 In  segment BANKED_CODE, align 1, keep-with-next
   \                     ?Subroutine165:
   \   000000   740F         MOV     A,#0xf
   \   000002                REQUIRE ??Subroutine327_0
   \   000002                ; // Fall through to label ??Subroutine327_0
   1465          

   \                                 In  segment BANKED_CODE, align 1, keep-with-next
   1466          MAC_DATAREQ_API static void VerfiInqure(macRx_t* pck)
   \                     VerfiInqure:
   1467          {
   \   000000   74F6         MOV     A,#-0xa
   \   000002   12....       LCALL   ?BANKED_ENTER_XDATA
   \   000005                ; Saved register size: 10
   \   000005                ; Auto size: 0
   1468          #if 0
   1469          	static uint8 veriCnt=0;
   1470          	if(veriCnt++<2)
   1471          	{
   1472          		pConfig->frameHead = 0x8C21;
   1473          		pConfig->destAddr = 0xffff;
   1474          		pTxData[0]=0x92;
   1475          		pTxData[1]=((pConfig->panId)&0xFF);//0x00;
   1476          		pTxData[2]=((pConfig->panId)>>8);
   1477          		//pTxData[2]=0x30;
   1478          		/*
   1479          		if(g_linkedMode)
   1480          		{
   1481          			pTxData[2]=((pConfig->panId)>>8);
   1482          		}else
   1483          		{
   1484          			pTxData[2]=((pConfig->panId)>>8);
   1485          		}*/
   1486          		if(RF_CHAN_AUTO==pConfig->channel)
   1487          		{
   1488          			pTxData[3]=0x01;
   1489          		}else
   1490          		{
   1491          			pTxData[3]=0x00;
   1492          		}
   1493          		g_sendLen = 4;
   1494          		//macRfSendPacket(pConfig->destAddr, pTxData, g_sendLen,1);
   1495          		macRfSendPacket(pConfig->destAddr, pTxData, g_sendLen,1);
   1496          		veriPckSendCallback = &VerfiInqure;
   1497          		osal_start_timerEx(macEx_taskId, MACEX_VERI_SEND_INQURE,10);
   1498          	}else
   1499          	{
   1500          		veriCnt = 0;
   1501          		g_quireFlag = 0;
   1502          		RemoveCurrent();
   1503          		veriPckSendCallback = &macRollPolingProc;
   1504          		osal_start_timerEx(macEx_taskId, MACEX_VERI_SEND_INQURE,500);
   1505          	}
   1506          #endif
   1507          
   1508          	uint8 dev = 0;
   1509          	for(dev=0;dev<DEVICE_TOTAL;dev++)
   \   000005   7E00         MOV     R6,#0x0
   1510          	{
   1511          		if(DEVICE_ONVERI==pConfig->devHead[dev].veriFlag)
   \                     ??VerfiInqure_0:
   \   000007   12....       LCALL   ?Subroutine29 & 0xFFFF
   \                     ??CrossCallReturnLabel_484:
   \   00000A   7005         JNZ     ??VerfiInqure_1
   1512          		{
   1513          			pConfig->devHead[dev].veriFlag = DEVICE_RESPOND;
   \   00000C   7402         MOV     A,#0x2
   \   00000E   F0           MOVX    @DPTR,A
   1514          			break;
   \   00000F   8007         SJMP    ??VerfiInqure_2
   1515          		}
   1516          	}
   \                     ??VerfiInqure_1:
   \   000011   0E           INC     R6
   \   000012   EE           MOV     A,R6
   \   000013   C3           CLR     C
   \   000014   940F         SUBB    A,#0xf
   \   000016   40EF         JC      ??VerfiInqure_0
   1517          
   1518          	if(dev>=DEVICE_TOTAL)
   \                     ??VerfiInqure_2:
   \   000018   EE           MOV     A,R6
   \   000019   C3           CLR     C
   \   00001A   940F         SUBB    A,#0xf
   \   00001C   4009         JC      ??VerfiInqure_3
   1519          	{
   1520          		//veriPckSendCallback = &macRollPolingProc;
   1521          		veriPckSendCallback = &VeriAndAllocID;
   \   00001E   12....       LCALL   ?Subroutine157 & 0xFFFF
   1522          		//osal_start_timerEx(macEx_taskId, MACEX_VERI_SEND_INQURE,300+(osal_rand()&0x0f));
   1523          		osal_start_timerEx(macEx_taskId, MACEX_VERI_SEND_INQURE,100+(osal_rand()&0x0f));
   1524          	}else
   \                     ??CrossCallReturnLabel_294:
   \   000021   540F         ANL     A,#0xf
   \   000023   2464         ADD     A,#0x64
   \   000025   805B         SJMP    ??CrossCallReturnLabel_231
   1525          	{
   1526          		pConfig->frameHead = 0x8C21;
   \                     ??VerfiInqure_3:
   \   000027   12....       LCALL   ?Subroutine59 & 0xFFFF
   \                     ??CrossCallReturnLabel_87:
   \   00002A   12....       LCALL   ?Subroutine42 & 0xFFFF
   1527          		pConfig->destAddr = 0xffff;
   1528          		pTxData[0]=0x92;
   \                     ??CrossCallReturnLabel_58:
   \   00002D   7492         MOV     A,#-0x6e
   \   00002F   12....       LCALL   ?Subroutine82 & 0xFFFF
   1529          		pTxData[1]=((pConfig->panId)&0xFF);//0x00;
   \                     ??CrossCallReturnLabel_133:
   \   000032   90....       MOV     DPTR,#pTxData + 1
   \   000035   12....       LCALL   ?Subroutine158 & 0xFFFF
   1530          		pTxData[2]=((pConfig->panId)>>8);
   \                     ??CrossCallReturnLabel_298:
   \   000038   E0           MOVX    A,@DPTR
   \   000039   90....       MOV     DPTR,#pTxData + 2
   \   00003C   12....       LCALL   ?Subroutine99 & 0xFFFF
   1531          		//pTxData[2]=0x30;
   1532          		if(RF_CHAN_AUTO==pConfig->channel)
   \                     ??CrossCallReturnLabel_166:
   \   00003F   90....       MOV     DPTR,#pTxData + 3
   \   000042   7004         JNZ     ??VerfiInqure_4
   1533          		{
   1534          			pTxData[3]=0x01;
   \   000044   7401         MOV     A,#0x1
   \   000046   8001         SJMP    ??VerfiInqure_5
   1535          		}else
   1536          		{
   1537          			pTxData[3]=0x00;
   \                     ??VerfiInqure_4:
   \   000048   E4           CLR     A
   1538          		}
   \                     ??VerfiInqure_5:
   \   000049   12....       LCALL   ?Subroutine134 & 0xFFFF
   1539          		g_sendLen = 4;
   1540          		//macRfSendPacket(pConfig->destAddr, pTxData, g_sendLen,1);
   1541          		//macRfSendPacket(pConfig->destAddr, pTxData, g_sendLen,pConfig->devHead[dev].extAddr,1);
   1542          		macRfSendPacket(pConfig->destAddr, pTxData, g_sendLen,pConfig->devHead[dev].extAddr,1,SEND_MODE_UNSLOTTED);
   \                     ??CrossCallReturnLabel_850:
   \   00004C   12....       LCALL   ?PUSH_XSTACK_I_ONE
   \   00004F   78..         MOV     R0,#?V0 + 0
   \   000051   12....       LCALL   ?PUSH_XSTACK_I_ONE
   \   000054   EE           MOV     A,R6
   \   000055   12....       LCALL   ?Subroutine66 & 0xFFFF
   \                     ??CrossCallReturnLabel_477:
   \   000058   2410         ADD     A,#0x10
   \   00005A   F5..         MOV     ?V0 + 0,A
   \   00005C   E9           MOV     A,R1
   \   00005D   3400         ADDC    A,#0x0
   \   00005F   F5..         MOV     ?V0 + 1,A
   \   000061   78..         MOV     R0,#?V0 + 0
   \   000063   12....       LCALL   ?PUSH_XSTACK_I_TWO
   \   000066   7904         MOV     R1,#0x4
   \   000068   7C..         MOV     R4,#pTxData & 0xff
   \   00006A   7D..         MOV     R5,#(pTxData >> 8) & 0xff
   \   00006C   8A82         MOV     DPL,R2
   \   00006E   8B83         MOV     DPH,R3
   \   000070   12....       LCALL   ??Subroutine323_0 & 0xFFFF
   \                     ??CrossCallReturnLabel_697:
   \   000073   12....       LCALL   ?DEALLOC_XSTACK8
   1543          		veriPckSendCallback = &VerfiInqure;
   \   000076   90....       MOV     DPTR,#veriPckSendCallback
   \   000079   74..         MOV     A,#??VerfiInqure?relay & 0xff
   \   00007B   F0           MOVX    @DPTR,A
   \   00007C   A3           INC     DPTR
   \   00007D   74..         MOV     A,#(??VerfiInqure?relay >> 8) & 0xff
   \   00007F   12....       LCALL   ?Subroutine133 & 0xFFFF
   1544          		//osal_start_timerEx(macEx_taskId, MACEX_VERI_SEND_INQURE,10+(osal_rand()&0x07));
   1545          		osal_start_timerEx(macEx_taskId, MACEX_VERI_SEND_INQURE, 5+(osal_rand()&0x03));
   1546          	}
   \                     ??CrossCallReturnLabel_231:
   \   000082   02....       LJMP    ?Subroutine7 & 0xFFFF
   1547          	
   1548          	
   1549          }

   \                                 In  segment BANKED_CODE, align 1, keep-with-next
   \                     ?Subroutine66:
   \   000000   75F00F       MOV     B,#0xf
   \   000003   A4           MUL     AB
   \   000004                REQUIRE ??Subroutine283_0
   \   000004                ; // Fall through to label ??Subroutine283_0

   \                                 In  segment BANKED_CODE, align 1, keep-with-next
   \                     ??Subroutine283_0:
   \   000000   F8           MOV     R0,A
   \   000001   A9F0         MOV     R1,B
   \   000003                REQUIRE ??Subroutine284_0
   \   000003                ; // Fall through to label ??Subroutine284_0

   \                                 In  segment BANKED_CODE, align 1, keep-with-next
   \                     ??Subroutine284_0:
   \   000000   12....       LCALL   ?Subroutine191 & 0xFFFF
   \                     ??CrossCallReturnLabel_482:
   \   000003   22           RET

   \                                 In  segment BANKED_CODE, align 1, keep-with-next
   \                     ?Subroutine29:
   \   000000   EE           MOV     A,R6
   \   000001                REQUIRE ??Subroutine285_0
   \   000001                ; // Fall through to label ??Subroutine285_0

   \                                 In  segment BANKED_CODE, align 1, keep-with-next
   \                     ?Subroutine42:
   \   000000   12....       LCALL   ?Subroutine201 & 0xFFFF
   \                     ??CrossCallReturnLabel_365:
   \   000003   12....       LCALL   ?Subroutine228 & 0xFFFF
   \                     ??CrossCallReturnLabel_510:
   \   000006   22           RET

   \                                 In  segment BANKED_CODE, align 1, keep-with-next
   \                     ?Subroutine228:
   \   000000   8A82         MOV     DPL,R2
   \   000002   8B83         MOV     DPH,R3
   \   000004                REQUIRE ??Subroutine291_0
   \   000004                ; // Fall through to label ??Subroutine291_0

   \                                 In  segment BANKED_CODE, align 1, keep-with-next
   \                     ??Subroutine291_0:
   \   000000   74FF         MOV     A,#-0x1
   \   000002   F0           MOVX    @DPTR,A
   \   000003   A3           INC     DPTR
   \   000004   F0           MOVX    @DPTR,A
   \   000005   90....       MOV     DPTR,#pTxData
   \   000008   22           RET

   \                                 In  segment BANKED_CODE, align 1, keep-with-next
   \                     ?Subroutine59:
   \   000000   12....       LCALL   ?Subroutine187 & 0xFFFF
   \                     ??CrossCallReturnLabel_355:
   \   000003   7421         MOV     A,#0x21
   \   000005   F0           MOVX    @DPTR,A
   \   000006   A3           INC     DPTR
   \   000007   748C         MOV     A,#-0x74
   \   000009   22           RET

   \                                 In  segment BANKED_CODE, align 1, keep-with-next
   \                     ?Subroutine157:
   \   000000   90....       MOV     DPTR,#veriPckSendCallback
   \   000003   74..         MOV     A,#??VeriAndAllocID?relay & 0xff
   \   000005   F0           MOVX    @DPTR,A
   \   000006   A3           INC     DPTR
   \   000007   74..         MOV     A,#(??VeriAndAllocID?relay >> 8) & 0xff
   \   000009   12....       LCALL   ?Subroutine241 & 0xFFFF
   \                     ??CrossCallReturnLabel_583:
   \   00000C   22           RET

   \                                 In  segment BANKED_CODE, align 1, keep-with-next
   \                     ?Subroutine133:
   \   000000   12....       LCALL   ?Subroutine226 & 0xFFFF
   \                     ??CrossCallReturnLabel_387:
   \   000003   2405         ADD     A,#0x5
   \   000005   22           RET

   \                                 In  segment BANKED_CODE, align 1, keep-with-next
   \                     ?Subroutine226:
   \   000000   F0           MOVX    @DPTR,A
   \   000001                ; Setup parameters for call to function osal_rand
   \   000001                ; Setup parameters for call to function osal_rand
   \   000001                ; Setup parameters for call to function osal_rand
   \   000001                ; Setup parameters for call to function osal_rand
   \   000001                ; Setup parameters for call to function osal_rand
   \   000001                ; Setup parameters for call to function osal_rand
   \   000001                ; Setup parameters for call to function osal_rand
   \   000001                ; Setup parameters for call to function osal_rand
   \   000001                ; Setup parameters for call to function osal_rand
   \   000001                ; Setup parameters for call to function osal_rand
   \   000001   12....       LCALL   ??osal_rand?relay
   \   000004                ; Setup parameters for call to function osal_start_timerEx
   \   000004                ; Setup parameters for call to function osal_start_timerEx
   \   000004                ; Setup parameters for call to function osal_start_timerEx
   \   000004                ; Setup parameters for call to function osal_start_timerEx
   \   000004                ; Setup parameters for call to function osal_start_timerEx
   \   000004                ; Setup parameters for call to function osal_start_timerEx
   \   000004                ; Setup parameters for call to function osal_start_timerEx
   \   000004                ; Setup parameters for call to function osal_start_timerEx
   \   000004                ; Setup parameters for call to function osal_start_timerEx
   \   000004                ; Setup parameters for call to function osal_start_timerEx
   \   000004   EA           MOV     A,R2
   \   000005   5403         ANL     A,#0x3
   \   000007   22           RET

   \                                 In  segment BANKED_CODE, align 1, keep-with-next
   \                     ?Subroutine201:
   \   000000   12....       LCALL   ?Subroutine263 & 0xFFFF
   \                     ??CrossCallReturnLabel_430:
   \   000003   22           RET
   1550          

   \                                 In  segment BANKED_CODE, align 1, keep-with-next
   1551          static uint8 macMallocNewDev(uint8* extAddr)
   \                     macMallocNewDev:
   1552          {
   \   000000   74F5         MOV     A,#-0xb
   \   000002   12....       LCALL   ?BANKED_ENTER_XDATA
   \   000005                ; Saved register size: 11
   \   000005                ; Auto size: 0
   \   000005   EA           MOV     A,R2
   \   000006   FE           MOV     R6,A
   \   000007   EB           MOV     A,R3
   \   000008   FF           MOV     R7,A
   1553          	//MSGpkt = (afIncomingMSGPacket_t *)osal_msg_allocate( len );
   1554          	uint8 dev=0;
   1555          	//DeviceInfo *newDevice;
   1556          	//newDevice = (DeviceInfo*)osal_mem_alloc(sizeof(DeviceInfo));
   1557          	//newDevice ->pNext= NULL;
   1558          	//newDevice->pFront = NULL;
   1559          	//newDevice->veriFlag = DEVICE_UNVERIFIED;
   1560          
   1561          
   1562          	if(pConfig->totalDev>=DEVICE_TOTAL)
   \   000009   12....       LCALL   ??Subroutine353_0 & 0xFFFF
   \                     ??CrossCallReturnLabel_911:
   \   00000C   C3           CLR     C
   \   00000D   940F         SUBB    A,#0xf
   \   00000F   4004         JC      ??macMallocNewDev_0
   1563          	{
   1564          		return ALLOC_FULL;
   \   000011   7901         MOV     R1,#0x1
   \   000013   807F         SJMP    ??macMallocNewDev_1
   1565          	}
   1566          
   1567          	for(dev=0;dev<DEVICE_TOTAL;dev++)
   \                     ??macMallocNewDev_0:
   \   000015   75..00       MOV     ?V0 + 2,#0x0
   1568          	{
   1569          		if(TRUE==osal_ExtAddrEqual(extAddr, pConfig->devHead[dev].extAddr))
   \                     ??macMallocNewDev_2:
   \   000018   E5..         MOV     A,?V0 + 2
   \   00001A   12....       LCALL   ?Subroutine57 & 0xFFFF
   \                     ??CrossCallReturnLabel_494:
   \   00001D   2410         ADD     A,#0x10
   \   00001F   FC           MOV     R4,A
   \   000020   E9           MOV     A,R1
   \   000021   3400         ADDC    A,#0x0
   \   000023   FD           MOV     R5,A
   \   000024   EE           MOV     A,R6
   \   000025   FA           MOV     R2,A
   \   000026   EF           MOV     A,R7
   \   000027   FB           MOV     R3,A
   \   000028   12....       LCALL   ??sAddrExtCmp?relay
   \   00002B   E9           MOV     A,R1
   \   00002C   6401         XRL     A,#0x1
   \   00002E   7032         JNZ     ??macMallocNewDev_3
   1570          		{
   1571          			//pConfig->devHead[dev].veriFlag = DEVICE_ONVERI;
   1572          			if(DEVICE_UNVERIFIED==pConfig->devHead[dev].veriFlag)
   \   000030   12....       LCALL   ?Subroutine54 & 0xFFFF
   \                     ??CrossCallReturnLabel_81:
   \   000033   7008         JNZ     ??macMallocNewDev_4
   1573          			{
   1574          				//RemoveDevice(dev);
   1575          				pConfig->devHead[dev].veriFlag = DEVICE_ONVERI;
   \                     ??macMallocNewDev_5:
   \   000035   7401         MOV     A,#0x1
   1576          				pConfig->totalDev++;
   1577          			}else if(DEVICE_VERIFIED==pConfig->devHead[dev].veriFlag)
   \   000037   12....       LCALL   ??Subroutine352_0 & 0xFFFF
   \                     ??CrossCallReturnLabel_908:
   \   00003A   04           INC     A
   \   00003B   8020         SJMP    ??macMallocNewDev_6
   \                     ??macMallocNewDev_4:
   \   00003D   6404         XRL     A,#0x4
   \   00003F   701A         JNZ     ??macMallocNewDev_7
   1578          			{
   1579          				RemoveDevice(pConfig->devHead[dev].shortAddr);
   \   000041                ; Setup parameters for call to function RemoveDevice
   \   000041   12....       LCALL   ?Subroutine58 & 0xFFFF
   1580          				osal_cpyExtAddr(pConfig->devHead[dev].extAddr, extAddr);
   \                     ??CrossCallReturnLabel_486:
   \   000044                ; Setup parameters for call to function sAddrExtCpy
   \   000044   EE           MOV     A,R6
   \   000045   FC           MOV     R4,A
   \   000046   EF           MOV     A,R7
   \   000047   FD           MOV     R5,A
   \   000048   12....       LCALL   ?Subroutine210 & 0xFFFF
   \                     ??CrossCallReturnLabel_495:
   \   00004B   E8           MOV     A,R0
   \   00004C   2410         ADD     A,#0x10
   \   00004E   FA           MOV     R2,A
   \   00004F   E9           MOV     A,R1
   \   000050   3400         ADDC    A,#0x0
   \   000052   FB           MOV     R3,A
   \   000053   12....       LCALL   ??sAddrExtCpy?relay
   1581          				pConfig->devHead[dev].veriFlag = DEVICE_ONVERI;
   1582          				pConfig->totalDev++;
   1583          			}else			
   \                     ??macMallocNewDev_8:
   \   000056   12....       LCALL   ?Subroutine56 & 0xFFFF
   \                     ??CrossCallReturnLabel_86:
   \   000059   80DA         SJMP    ??macMallocNewDev_5
   1584          			{
   1585          				pConfig->devHead[dev].veriFlag = DEVICE_ONVERI;
   \                     ??macMallocNewDev_7:
   \   00005B   7401         MOV     A,#0x1
   \                     ??macMallocNewDev_6:
   \   00005D   F0           MOVX    @DPTR,A
   1586          			}
   1587          			return ALLOC_SUCCESS;
   \   00005E   7900         MOV     R1,#0x0
   \   000060   8032         SJMP    ??macMallocNewDev_1
   1588          		}
   1589          	}
   \                     ??macMallocNewDev_3:
   \   000062   05..         INC     ?V0 + 2
   \   000064   E5..         MOV     A,?V0 + 2
   \   000066   C3           CLR     C
   \   000067   940F         SUBB    A,#0xf
   \   000069   40AD         JC      ??macMallocNewDev_2
   1590          
   1591          	for(dev=0;dev<DEVICE_TOTAL;dev++)
   \   00006B   75..00       MOV     ?V0 + 2,#0x0
   1592          	{
   1593          		if(DEVICE_UNVERIFIED==pConfig->devHead[dev].veriFlag)
   \                     ??macMallocNewDev_9:
   \   00006E   E5..         MOV     A,?V0 + 2
   \   000070   75F00F       MOV     B,#0xf
   \   000073   A4           MUL     AB
   \   000074   F5..         MOV     ?V0 + 0,A
   \   000076   E5F0         MOV     A,B
   \   000078   F5..         MOV     ?V0 + 1,A
   \   00007A   12....       LCALL   ?Subroutine54 & 0xFFFF
   \                     ??CrossCallReturnLabel_82:
   \   00007D   700A         JNZ     ??macMallocNewDev_10
   1594          		{
   1595          			if(NULL!=extAddr)
   \   00007F   EE           MOV     A,R6
   \   000080   4F           ORL     A,R7
   \   000081   60D3         JZ      ??macMallocNewDev_8
   1596          			{
   1597          				osal_cpyExtAddr(pConfig->devHead[dev].extAddr, extAddr);
   \   000083                ; Setup parameters for call to function sAddrExtCpy
   \   000083   EE           MOV     A,R6
   \   000084   FC           MOV     R4,A
   \   000085   EF           MOV     A,R7
   \   000086   FD           MOV     R5,A
   \   000087   80C2         SJMP    ??CrossCallReturnLabel_495
   1598          			}
   1599          
   1600          			pConfig->devHead[dev].veriFlag = DEVICE_ONVERI;
   1601          			pConfig->totalDev++;
   1602          #ifdef DEBUG_TRACE
   1603          			Printf("dev %d\r\n",dev);
   1604          			Printf("total %d\r\n",pConfig->totalDev);
   1605          #endif
   1606          			return ALLOC_SUCCESS;
   1607          		}
   1608          	}
   \                     ??macMallocNewDev_10:
   \   000089   05..         INC     ?V0 + 2
   \   00008B   E5..         MOV     A,?V0 + 2
   \   00008D   C3           CLR     C
   \   00008E   940F         SUBB    A,#0xf
   \   000090   40DC         JC      ??macMallocNewDev_9
   1609          
   1610          	return ALLOC_ERROR;
   \   000092   7902         MOV     R1,#0x2
   \                     ??macMallocNewDev_1:
   \   000094   02....       LJMP    ??Subroutine279_0 & 0xFFFF
   1611          
   1612          	
   1613          #if 0	
   1614          	if(NULL!=extAddr)
   1615          	{
   1616          		osal_cpyExtAddr(newDevice->extAddr,extAddr);
   1617          	}
   1618          #ifdef DEBUG_TRACE
   1619          		Printf("pCurrentDev %x\r\n",pCurrentDev);
   1620          		Printf("newDevice %x\r\n",newDevice);
   1621          #endif
   1622          	//if(NULL==pCurrentDev)
   1623          	if(!pConfig->totalDev)
   1624          	{
   1625          		pCurrentDev = newDevice;
   1626          		pConfig->devHead = newDevice;
   1627          		newDevice->pFront = NULL;
   1628          #ifdef DEBUG_TRACE
   1629          	Printf("first dev %x\r\n",pCurrentDev);
   1630          #endif
   1631          		//pConfig->devRear = newDevice;
   1632          	}else
   1633          	{
   1634          		//pConfig->pCurrentDev->pNext= newDevice;
   1635          		//newDevice->pFront = pConfig->pCurrentDev;
   1636          		//(pConfig->devRear) ->pNext = pConfig->pCurrentDev;
   1637          #ifdef DEBUG_TRACE
   1638          		Printf("pCurrentDev %x\r\n",pCurrentDev);
   1639          		Printf("newDevice %x\r\n",newDevice);
   1640          #endif
   1641          		newDevice ->pFront = pCurrentDev;
   1642          		pCurrentDev->pNext = newDevice;
   1643          		pCurrentDev = newDevice;
   1644          	}
   1645          #ifdef DEBUG_TRACE
   1646          	Printf("pCurrentDev %x\r\n",pCurrentDev);
   1647          	Printf("pCurrentDev->pNext %x\r\n",pCurrentDev->pNext);
   1648          #endif
   1649          #endif
   1650          
   1651          }

   \                                 In  segment BANKED_CODE, align 1, keep-with-next
   \                     ?Subroutine58:
   \   000000   E8           MOV     A,R0
   \   000001   12....       LCALL   ?Subroutine220 & 0xFFFF
   \                     ??CrossCallReturnLabel_526:
   \   000004                REQUIRE ??Subroutine286_0
   \   000004                ; // Fall through to label ??Subroutine286_0

   \                                 In  segment BANKED_CODE, align 1, keep-with-next
   \                     ??Subroutine286_0:
   \   000000   12....       LCALL   ?Subroutine204 & 0xFFFF
   \                     ??CrossCallReturnLabel_712:
   \   000003   12....       LCALL   ??RemoveDevice?relay
   \   000006   22           RET

   \                                 In  segment BANKED_CODE, align 1, keep-with-next
   \                     ?Subroutine54:
   \   000000   12....       LCALL   ?Subroutine190 & 0xFFFF
   \                     ??CrossCallReturnLabel_358:
   \   000003   E0           MOVX    A,@DPTR
   \   000004   22           RET
   1652          

   \                                 In  segment BANKED_CODE, align 1, keep-with-next
   1653          static void macDeleteAllDevice(void)
   \                     macDeleteAllDevice:
   1654          {
   \   000000   74F7         MOV     A,#-0x9
   \   000002   12....       LCALL   ?BANKED_ENTER_XDATA
   \   000005                ; Saved register size: 9
   \   000005                ; Auto size: 0
   1655          	uint8 pDev;
   1656          	for(pDev=0;pDev<DEVICE_TOTAL;pDev++)
   \   000005   75..00       MOV     ?V0 + 0,#0x0
   1657          	{
   1658          		pConfig->devHead[pDev].attribute = 0;
   \                     ??macDeleteAllDevice_0:
   \   000008   E5..         MOV     A,?V0 + 0
   \   00000A   75F00F       MOV     B,#0xf
   \   00000D   A4           MUL     AB
   \   00000E   FE           MOV     R6,A
   \   00000F   AFF0         MOV     R7,B
   \   000011   12....       LCALL   ?Subroutine100 & 0xFFFF
   \                     ??CrossCallReturnLabel_167:
   \   000014   12....       LCALL   ?Subroutine126 & 0xFFFF
   1659          		osal_memset(pConfig->devHead[pDev].extAddr,0,8);
   \                     ??CrossCallReturnLabel_222:
   \   000017   12....       LCALL   ?Subroutine115 & 0xFFFF
   \                     ??CrossCallReturnLabel_199:
   \   00001A   12....       LCALL   ?Subroutine125 & 0xFFFF
   1660          		pConfig->devHead[pDev].shortAddr = 0x0F;
   \                     ??CrossCallReturnLabel_434:
   \   00001D   12....       LCALL   ?Subroutine102 & 0xFFFF
   \                     ??CrossCallReturnLabel_171:
   \   000020   12....       LCALL   ?Subroutine119 & 0xFFFF
   \                     ??CrossCallReturnLabel_207:
   \   000023   12....       LCALL   ?Subroutine165 & 0xFFFF
   1661          		pConfig->devHead[pDev].group = 0x00;
   \                     ??CrossCallReturnLabel_741:
   \   000026   E8           MOV     A,R0
   \   000027   2418         ADD     A,#0x18
   \   000029   F582         MOV     DPL,A
   \   00002B   E9           MOV     A,R1
   \   00002C   12....       LCALL   ??Subroutine290_0 & 0xFFFF
   1662          		pConfig->devHead[pDev].info = 0;
   \                     ??CrossCallReturnLabel_505:
   \   00002F   12....       LCALL   ?Subroutine102 & 0xFFFF
   1663          	}
   \                     ??CrossCallReturnLabel_172:
   \   000032   241B         ADD     A,#0x1b
   \   000034   F582         MOV     DPL,A
   \   000036   E9           MOV     A,R1
   \   000037   12....       LCALL   ?Subroutine127 & 0xFFFF
   \                     ??CrossCallReturnLabel_223:
   \   00003A   E5..         MOV     A,?V0 + 0
   \   00003C   C3           CLR     C
   \   00003D   940F         SUBB    A,#0xf
   \   00003F   40C7         JC      ??macDeleteAllDevice_0
   1664          	pConfig->totalDev = 0;
   \   000041   90....       MOV     DPTR,#pConfig
   \   000044   E0           MOVX    A,@DPTR
   \   000045   24FD         ADD     A,#-0x3
   \   000047   12....       LCALL   ?Subroutine75 & 0xFFFF
   1665          	pConfig->slvRcd = 0;
   \                     ??CrossCallReturnLabel_116:
   \   00004A   90....       MOV     DPTR,#pConfig
   \   00004D   E0           MOVX    A,@DPTR
   \   00004E   2401         ADD     A,#0x1
   \   000050   12....       LCALL   ?Subroutine84 & 0xFFFF
   1666          	pConfig->mstRcd = 0;
   \                     ??CrossCallReturnLabel_134:
   \   000053   2400         ADD     A,#0x0
   \   000055   12....       LCALL   ?Subroutine84 & 0xFFFF
   1667          	//pConfig->isRflsCoordinator = 0;
   1668          	pConfig->evtCnt = 0;
   \                     ??CrossCallReturnLabel_135:
   \   000058   24FE         ADD     A,#-0x2
   \   00005A   12....       LCALL   ?Subroutine75 & 0xFFFF
   1669          
   1670          	ipRsv.mst = 0x0E;
   \                     ??CrossCallReturnLabel_117:
   \   00005D   12....       LCALL   ?Subroutine164 & 0xFFFF
   1671          	ipRsv.sla = 0x00;
   1672          
   1673          	s_ready = 3;
   \                     ??CrossCallReturnLabel_318:
   \   000060   90....       MOV     DPTR,#s_ready
   \   000063   7403         MOV     A,#0x3
   \   000065   F0           MOVX    @DPTR,A
   1674          
   1675          	osal_memset(pConfig->arrCnt,0,5);
   \   000066                ; Setup parameters for call to function osal_memset
   \   000066   7C05         MOV     R4,#0x5
   \   000068   7D00         MOV     R5,#0x0
   \   00006A   7900         MOV     R1,#0x0
   \   00006C   90....       MOV     DPTR,#pConfig
   \   00006F   E0           MOVX    A,@DPTR
   \   000070   2402         ADD     A,#0x2
   \   000072   12....       LCALL   ?Subroutine116 & 0xFFFF
   1676          	osal_memset(pConfig->isIdOccupied, 0, 16);
   \                     ??CrossCallReturnLabel_201:
   \   000075                ; Setup parameters for call to function osal_memset
   \   000075   7C10         MOV     R4,#0x10
   \   000077   7D00         MOV     R5,#0x0
   \   000079   7900         MOV     R1,#0x0
   \   00007B   90....       MOV     DPTR,#pConfig
   \   00007E   E0           MOVX    A,@DPTR
   \   00007F   2417         ADD     A,#0x17
   \   000081   12....       LCALL   ?Subroutine116 & 0xFFFF
   1677          	if((CMD_MODE_RF_MST==g_isMaster)||(CMD_MODE_RF_SLA==g_isMaster)
   1678          		||(CMD_MODE_RFLS_MST==g_isMaster)||(CMD_MODE_RFLS_SLA==g_isMaster))
   \                     ??CrossCallReturnLabel_202:
   \   000084   90....       MOV     DPTR,#g_isMaster
   \   000087   E0           MOVX    A,@DPTR
   \   000088   6401         XRL     A,#0x1
   \   00008A   600F         JZ      ??macDeleteAllDevice_1
   \   00008C   E0           MOVX    A,@DPTR
   \   00008D   6402         XRL     A,#0x2
   \   00008F   600A         JZ      ??macDeleteAllDevice_1
   \   000091   E0           MOVX    A,@DPTR
   \   000092   6406         XRL     A,#0x6
   \   000094   6005         JZ      ??macDeleteAllDevice_1
   \   000096   E0           MOVX    A,@DPTR
   \   000097   6405         XRL     A,#0x5
   \   000099   7004         JNZ     ??macDeleteAllDevice_2
   1679          	{
   1680          		LED_INS_UNLINK();
   \                     ??macDeleteAllDevice_1:
   \   00009B   D292         SETB    0x90.2
   \   00009D   C293         CLR     0x90.3
   1681          	}
   1682          }
   \                     ??macDeleteAllDevice_2:
   \   00009F   02....       LJMP    ?Subroutine2 & 0xFFFF
   \   0000A2                REQUIRE _A_P1

   \                                 In  segment BANKED_CODE, align 1, keep-with-next
   \                     ?Subroutine116:
   \   000000   FA           MOV     R2,A
   \   000001   A3           INC     DPTR
   \   000002   E0           MOVX    A,@DPTR
   \   000003   3401         ADDC    A,#0x1
   \   000005   FB           MOV     R3,A
   \   000006   12....       LCALL   ??osal_memset?relay
   \   000009   22           RET

   \                                 In  segment BANKED_CODE, align 1, keep-with-next
   \                     ?Subroutine84:
   \   000000   12....       LCALL   ?Subroutine265 & 0xFFFF
   \                     ??CrossCallReturnLabel_876:
   \   000003   E4           CLR     A
   \   000004   12....       LCALL   ?Subroutine221 & 0xFFFF
   \                     ??CrossCallReturnLabel_865:
   \   000007   22           RET

   \                                 In  segment BANKED_CODE, align 1, keep-with-next
   \                     ?Subroutine115:
   \   000000   90....       MOV     DPTR,#pConfig
   \   000003   E0           MOVX    A,@DPTR
   \   000004   2E           ADD     A,R6
   \   000005   FA           MOV     R2,A
   \   000006   A3           INC     DPTR
   \   000007   E0           MOVX    A,@DPTR
   \   000008   3F           ADDC    A,R7
   \   000009   FB           MOV     R3,A
   \   00000A   EA           MOV     A,R2
   \   00000B   22           RET

   \                                 In  segment BANKED_CODE, align 1, keep-with-next
   \                     ?Subroutine102:
   \   000000   12....       LCALL   ?Subroutine186 & 0xFFFF
   \                     ??CrossCallReturnLabel_524:
   \   000003   22           RET

   \                                 In  segment BANKED_CODE, align 1, keep-with-next
   \                     ?Subroutine100:
   \   000000   12....       LCALL   ?Subroutine186 & 0xFFFF
   \                     ??CrossCallReturnLabel_522:
   \   000003   241A         ADD     A,#0x1a
   \   000005   22           RET

   \                                 In  segment BANKED_CODE, align 1, keep-with-next
   \                     ?Subroutine119:
   \   000000   12....       LCALL   ?Subroutine220 & 0xFFFF
   \                     ??CrossCallReturnLabel_528:
   \   000003   22           RET

   \                                 In  segment BANKED_CODE, align 1, keep-with-next
   \                     ?Subroutine75:
   \   000000   12....       LCALL   ?Subroutine198 & 0xFFFF
   \                     ??CrossCallReturnLabel_845:
   \   000003   E4           CLR     A
   \   000004   F0           MOVX    @DPTR,A
   \   000005   22           RET

   \                                 In  segment BANKED_CODE, align 1, keep-with-next
   \                     ?Subroutine127:
   \   000000   12....       LCALL   ?Subroutine236 & 0xFFFF
   \                     ??CrossCallReturnLabel_507:
   \   000003   05..         INC     ?V0 + 0
   \   000005   22           RET
   1683          
   1684          #if 0
   1685          static void macDeleteAllDevice(void)
   1686          {
   1687          	DeviceInfo *fDev;
   1688          	DeviceInfo *bDev;
   1689          	fDev = pConfig->devHead;
   1690          	bDev = fDev;
   1691          	if(fDev!=NULL)
   1692          	{
   1693          		while(fDev->pNext!=NULL)
   1694          		{
   1695          			bDev = fDev;
   1696          			fDev = fDev->pNext;
   1697          			osal_mem_free(bDev);
   1698          		}
   1699          	}
   1700          	if(fDev!=NULL)
   1701          	{
   1702          		osal_mem_free(fDev);
   1703          	}
   1704          	/*
   1705          	if(pConfig->devHead!=NULL)
   1706          	{
   1707          		while(pDev!=NULL)
   1708          		{
   1709          			pCurrentDev = pDev->pFront;
   1710          			osal_mem_free(pDev);
   1711          			pDev = pCurrentDev;
   1712          		}
   1713          		pConfig->devHead=NULL;
   1714          	}*/
   1715          
   1716          	pCurrentDev = pConfig->devHead=NULL;
   1717          	pConfig->totalDev = 0;
   1718          	pConfig->slvRcd = 0;
   1719          	pConfig->mstRcd = 0;
   1720          	//pConfig->isRflsCoordinator = 0;
   1721          	pConfig->evtCnt = 0;
   1722          
   1723          	ipRsv.mst = 0x0E;
   1724          	ipRsv.sla = 0x00;
   1725          
   1726          	s_ready = 3;
   1727          
   1728          	osal_memset(pConfig->arrCnt,0,5);
   1729          	osal_memset(pConfig->isIdOccupied, 0, 16);
   1730          	LED_INS_UNLINK();
   1731          	
   1732          }
   1733          #endif
   1734          
   1735          static void VeriFailedProc(void)
   1736          {
   1737          }
   1738          
   1739          #if 0
   1740          MAC_DATAREQ_API static void DevReadyInfo(macRx_t* pck)
   1741          {
   1742          	static uint8 sr=2;
   1743          
   1744          	if(sr!=s_ready)
   1745          	{
   1746          		UartSctSend(UART_CC_READY,s_ready,0);
   1747          		sr = s_ready;
   1748          	}
   1749          
   1750          #ifdef SEND_UNIFIED
   1751          	veriPckSendCallback = &macRollPolingProc;
   1752          #else
   1753          	if(0X01==pCurrentDev->group)
   1754          	{
   1755          		veriPckSendCallback = &LinkedModeRollPoling;
   1756          	}else
   1757          	{
   1758          		veriPckSendCallback = &macRollPolingProc;
   1759          	}
   1760          #endif
   1761          
   1762          	osal_start_timerEx(macEx_taskId, MACEX_VERI_SEND_INQURE,10);
   1763          	
   1764          }
   1765          #endif
   1766          

   \                                 In  segment BANKED_CODE, align 1, keep-with-next
   1767          MAC_DATAREQ_API static void BridgedMstReadyRes(macRx_t* pck)
   \                     BridgedMstReadyRes:
   1768          {
   \   000000   74F6         MOV     A,#-0xa
   \   000002   12....       LCALL   ?BANKED_ENTER_XDATA
   \   000005                ; Saved register size: 10
   \   000005                ; Auto size: 0
   1769          	pConfig->frameHead = 0x8841;
   \   000005   12....       LCALL   ?Subroutine19 & 0xFFFF
   1770          	pConfig->destAddr = 0xFFFF;	
   1771          	//pConfig->myAddr = 0x000F;
   1772          	pTxData[0] = 0x05;
   1773          	pTxData[1] = 0x00;
   1774          	pTxData[2] = 0xFF;
   \                     ??CrossCallReturnLabel_14:
   \   000008   12....       LCALL   ?Subroutine132 & 0xFFFF
   1775          	pTxData[3] = 0x32;
   1776          	pTxData[4] = 0x01;//0x01;//0xAA;//0x01;
   1777          	g_sendLen = 5;
   1778          	//macRfSendPacket(pConfig->destAddr, pTxData, g_sendLen,NULL,0);
   1779          	macRfSendPacket(pConfig->destAddr, pTxData, g_sendLen,NULL,0,SEND_MODE_UNSLOTTED);
   \                     ??CrossCallReturnLabel_878:
   \   00000B   12....       LCALL   ?PUSH_XSTACK_I_ONE
   \   00000E   75..00       MOV     ?V0 + 0,#0x0
   \   000011   78..         MOV     R0,#?V0 + 0
   \   000013   12....       LCALL   ?PUSH_XSTACK_I_ONE
   \   000016   E4           CLR     A
   \   000017   F5..         MOV     ?V0 + 1,A
   \   000019   78..         MOV     R0,#?V0 + 0
   \   00001B   12....       LCALL   ?PUSH_XSTACK_I_TWO
   \   00001E   7905         MOV     R1,#0x5
   \   000020   7C..         MOV     R4,#pTxData & 0xff
   \   000022   7D..         MOV     R5,#(pTxData >> 8) & 0xff
   \   000024   8A82         MOV     DPL,R2
   \   000026   8B83         MOV     DPH,R3
   \   000028   12....       LCALL   ??Subroutine323_0 & 0xFFFF
   \                     ??CrossCallReturnLabel_698:
   \   00002B   12....       LCALL   ?DEALLOC_XSTACK8
   1780          	veriPckSendCallback = &macRollPolingProc;
   \   00002E   12....       LCALL   ?Subroutine153 & 0xFFFF
   1781          	osal_start_timerEx(macEx_taskId, MACEX_VERI_SEND_INQURE,8+(osal_rand()&0x07));
   \                     ??CrossCallReturnLabel_286:
   \   000031   5407         ANL     A,#0x7
   \   000033   2408         ADD     A,#0x8
   \   000035   02....       LJMP    ?Subroutine7 & 0xFFFF
   1782          	
   1783          
   1784          }

   \                                 In  segment BANKED_CODE, align 1, keep-with-next
   \                     ?Subroutine153:
   \   000000   12....       LCALL   ?Subroutine223 & 0xFFFF
   \                     ??CrossCallReturnLabel_383:
   \   000003   22           RET

   \                                 In  segment BANKED_CODE, align 1, keep-with-next
   \                     ?Subroutine19:
   \   000000   12....       LCALL   ?Subroutine182 & 0xFFFF
   \                     ??CrossCallReturnLabel_345:
   \   000003   A3           INC     DPTR
   \   000004   22           RET

   \                                 In  segment BANKED_CODE, align 1, keep-with-next
   \                     ?Subroutine132:
   \   000000   74FF         MOV     A,#-0x1
   \   000002   F0           MOVX    @DPTR,A
   \   000003   A3           INC     DPTR
   \   000004   7432         MOV     A,#0x32
   \   000006                REQUIRE ??Subroutine348_0
   \   000006                ; // Fall through to label ??Subroutine348_0

   \                                 In  segment BANKED_CODE, align 1, keep-with-next
   \                     ??Subroutine348_0:
   \   000000   F0           MOVX    @DPTR,A
   \   000001   A3           INC     DPTR
   \   000002   7401         MOV     A,#0x1
   \   000004                REQUIRE ??Subroutine349_0
   \   000004                ; // Fall through to label ??Subroutine349_0

   \                                 In  segment BANKED_CODE, align 1, keep-with-next
   \                     ??Subroutine349_0:
   \   000000   12....       LCALL   ?Subroutine225 & 0xFFFF
   \                     ??CrossCallReturnLabel_892:
   \   000003   7405         MOV     A,#0x5
   \   000005   12....       LCALL   ?Subroutine232 & 0xFFFF
   \                     ??CrossCallReturnLabel_895:
   \   000008   22           RET

   \                                 In  segment BANKED_CODE, align 1, keep-with-next
   \                     ?Subroutine182:
   \   000000   12....       LCALL   ?Subroutine243 & 0xFFFF
   \                     ??CrossCallReturnLabel_414:
   \   000003   7405         MOV     A,#0x5
   \   000005   12....       LCALL   ??Subroutine343_0 & 0xFFFF
   \                     ??CrossCallReturnLabel_837:
   \   000008   22           RET
   1785          
   1786          
   1787          #if 0
   1788          MAC_DATAREQ_API static void DeviceReadyRespond(macRx_t* pck)
   1789          {
   1790          	static uint8 rspMk=0;
   1791          	//DeviceInfo *pDevice;
   1792          	uint8 pDevice=0;
   1793          	pDevice = SearchForDevice(pck->mac.srcAddr.addr.shortAddr);
   1794          	//pDevice->ready = pck->msdu.p[4];
   1795          	pConfig->devHead[pDevice].ready = pck->msdu.p[4];
   1796          
   1797          	//if(pDevice->ready)
   1798          	if(pConfig->devHead[pDevice].ready)
   1799          	{
   1800          		rspMk = 0;
   1801          		pConfig->frameHead = 0x8841;
   1802          		pConfig->destAddr = 0xFFFF;	
   1803          		//pConfig->myAddr = 0x000F;
   1804          		pTxData[0] = 0x05;
   1805          		pTxData[1] = 0x00;
   1806          		pTxData[2] = 0xFF;
   1807          		pTxData[3] = 0x32;
   1808          		pTxData[4] = pConfig->devHead[pDevice].ready;//pDevice->ready;//0x01;//0xAA;//0x01;
   1809          		g_sendLen = 5;
   1810          		macRfSendPacket(pConfig->destAddr, pTxData, g_sendLen,NULL,0);
   1811          	}else if(!rspMk)
   1812          	{
   1813          		rspMk = 1;
   1814          		pConfig->frameHead = 0x8841;
   1815          		pConfig->destAddr = 0xFFFF;	
   1816          		//pConfig->myAddr = 0x000F;
   1817          		pTxData[0] = 0x05;
   1818          		pTxData[1] = 0x00;
   1819          		pTxData[2] = 0xFF;
   1820          		pTxData[3] = 0x32;
   1821          		pTxData[4] = pConfig->devHead[pDevice].ready;//pDevice->ready;//0x01;//0xAA;//0x01;
   1822          		g_sendLen = 5;
   1823          		macRfSendPacket(pConfig->destAddr, pTxData, g_sendLen,NULL,0);
   1824          	}
   1825          
   1826          	//while(!(RFIRQF1 & IRQ_TXDONE) );				//failed
   1827          	//UartSctSend(UART_CC_READY,pDevice->ready,0);
   1828          	//s_ready = pDevice->ready;
   1829          	s_ready = pConfig->devHead[pDevice].ready;
   1830          	veriPckSendCallback = &DevReadyInfo;
   1831          
   1832          /*
   1833          	if(0X01==pCurrentDev->group)
   1834          	{
   1835          		veriPckSendCallback = &LinkedModeRollPoling;
   1836          
   1837          	}else
   1838          	{
   1839          		veriPckSendCallback = &macRollPolingProc;
   1840          
   1841          	}
   1842          */
   1843          
   1844          	
   1845          	osal_start_timerEx(macEx_taskId, MACEX_VERI_SEND_INQURE,4+(osal_rand()&0x03));
   1846          
   1847          	
   1848          }
   1849          #else

   \                                 In  segment BANKED_CODE, align 1, keep-with-next
   1850          MAC_DATAREQ_API static void DeviceReadyRespond(macRx_t* pck)
   \                     DeviceReadyRespond:
   1851          {
   \   000000   74F6         MOV     A,#-0xa
   \   000002   12....       LCALL   ?BANKED_ENTER_XDATA
   \   000005                ; Saved register size: 10
   \   000005                ; Auto size: 0
   \   000005   8A..         MOV     ?V0 + 0,R2
   \   000007   8B..         MOV     ?V0 + 1,R3
   1852          	static uint8 rspMk=0;
                 	             ^
Warning[Pe177]: variable "rspMk" was declared but never referenced
   1853          	uint8 dev=0;
   1854          	//DeviceInfo *pDevice;
   1855          	uint8 pDevice=0;
   1856          	pDevice = SearchForDevice(pck->mac.srcAddr.addr.shortAddr);
   \   000009                ; Setup parameters for call to function SearchForDevice
   \   000009   EA           MOV     A,R2
   \   00000A   2412         ADD     A,#0x12
   \   00000C   F582         MOV     DPL,A
   \   00000E   EB           MOV     A,R3
   \   00000F   12....       LCALL   ??Subroutine312_0 & 0xFFFF
   \                     ??CrossCallReturnLabel_615:
   \   000012   12....       LCALL   ??Subroutine305_0 & 0xFFFF
   1857          	//pDevice->ready = pck->msdu.p[4];
   1858          	if(pConfig->devHead[pDevice].ready!=pck->msdu.p[4])
   \                     ??CrossCallReturnLabel_593:
   \   000015   FE           MOV     R6,A
   \   000016   AFF0         MOV     R7,B
   \   000018   12....       LCALL   ?Subroutine101 & 0xFFFF
   \                     ??CrossCallReturnLabel_169:
   \   00001B   F8           MOV     R0,A
   \   00001C   E9           MOV     A,R1
   \   00001D   3400         ADDC    A,#0x0
   \   00001F   F9           MOV     R1,A
   \   000020   85..82       MOV     DPL,?V0 + 0
   \   000023   85..83       MOV     DPH,?V0 + 1
   \   000026   A3           INC     DPTR
   \   000027   A3           INC     DPTR
   \   000028   E0           MOVX    A,@DPTR
   \   000029   2404         ADD     A,#0x4
   \   00002B   FA           MOV     R2,A
   \   00002C   A3           INC     DPTR
   \   00002D   E0           MOVX    A,@DPTR
   \   00002E   3400         ADDC    A,#0x0
   \   000030   FB           MOV     R3,A
   \   000031   8882         MOV     DPL,R0
   \   000033   8983         MOV     DPH,R1
   \   000035   E0           MOVX    A,@DPTR
   \   000036   FC           MOV     R4,A
   \   000037   8A82         MOV     DPL,R2
   \   000039   8B83         MOV     DPH,R3
   \   00003B   E0           MOVX    A,@DPTR
   \   00003C   6C           XRL     A,R4
   \   00003D   6019         JZ      ??DeviceReadyRespond_0
   1859          	{
   1860          		pConfig->devHead[pDevice].ready = pck->msdu.p[4];
   \   00003F   E0           MOVX    A,@DPTR
   \   000040   8882         MOV     DPL,R0
   \   000042   8983         MOV     DPH,R1
   \   000044   F0           MOVX    @DPTR,A
   1861          		//if(pConfig->devHead[pDevice].ready>0)
   1862          		//{
   1863          		//	pConfig->devHead[pDevice].info = 1;
   1864          		//}
   1865          		//UartSctSend(UART_CC_READY,pConfig->devHead[pDevice].ready,0);
   1866          		UartSctSend(UART_CC_READY, pConfig->devHead[pDevice].group, pConfig->devHead[pDevice].ready);
   \   000045   12....       LCALL   ?Subroutine101 & 0xFFFF
   1867          	}
   \                     ??CrossCallReturnLabel_170:
   \   000048   12....       LCALL   ??Subroutine330_0 & 0xFFFF
   \                     ??CrossCallReturnLabel_763:
   \   00004B   FB           MOV     R3,A
   \   00004C   E8           MOV     A,R0
   \   00004D   2418         ADD     A,#0x18
   \   00004F   12....       LCALL   ??Subroutine330_0 & 0xFFFF
   \                     ??CrossCallReturnLabel_764:
   \   000052   FA           MOV     R2,A
   \   000053   79C2         MOV     R1,#-0x3e
   \   000055   12....       LCALL   ??UartSctSend?relay
   1868          
   1869          	for(dev=0;dev<DEVICE_TOTAL;dev++)
   \                     ??DeviceReadyRespond_0:
   \   000058   7B00         MOV     R3,#0x0
   1870          	{
   1871          		if((DEVICE_VERIFIED==pConfig->devHead[dev].veriFlag)
   1872          			&&(!pConfig->devHead[dev].info))
   \                     ??DeviceReadyRespond_1:
   \   00005A   12....       LCALL   ?Subroutine34 & 0xFFFF
   1873          		{
   1874          			break;
   1875          		}
   1876          	}
   \                     ??CrossCallReturnLabel_513:
   \   00005D   6404         XRL     A,#0x4
   \   00005F   7005         JNZ     ??DeviceReadyRespond_2
   \   000061   12....       LCALL   ?Subroutine121 & 0xFFFF
   \                     ??CrossCallReturnLabel_770:
   \   000064   6007         JZ      ??DeviceReadyRespond_3
   \                     ??DeviceReadyRespond_2:
   \   000066   0B           INC     R3
   \   000067   EB           MOV     A,R3
   \   000068   C3           CLR     C
   \   000069   940F         SUBB    A,#0xf
   \   00006B   40ED         JC      ??DeviceReadyRespond_1
   1877          
   1878          	//if(dev<DEVICE_TOTAL)
   1879          	if((dev<DEVICE_TOTAL)||(!pConfig->devHead[pDevice].ready))
   \                     ??DeviceReadyRespond_3:
   \   00006D   12....       LCALL   ?Subroutine251 & 0xFFFF
   \                     ??CrossCallReturnLabel_417:
   \   000070   EB           MOV     A,R3
   \   000071   C3           CLR     C
   \   000072   940F         SUBB    A,#0xf
   \   000074   400D         JC      ??DeviceReadyRespond_4
   \   000076   12....       LCALL   ?Subroutine115 & 0xFFFF
   \                     ??CrossCallReturnLabel_200:
   \   000079   2419         ADD     A,#0x19
   \   00007B   F582         MOV     DPL,A
   \   00007D   EB           MOV     A,R3
   \   00007E   12....       LCALL   ??Subroutine331_0 & 0xFFFF
   \                     ??CrossCallReturnLabel_753:
   \   000081   7059         JNZ     ??DeviceReadyRespond_5
   1880          	{
   1881          		//rspMk = 1;
   1882          		pConfig->frameHead = 0x8841;
   \                     ??DeviceReadyRespond_4:
   \   000083   8882         MOV     DPL,R0
   \   000085   8983         MOV     DPH,R1
   \   000087   7441         MOV     A,#0x41
   \   000089   F0           MOVX    @DPTR,A
   \   00008A   A3           INC     DPTR
   \   00008B   7488         MOV     A,#-0x78
   \   00008D   12....       LCALL   ??Subroutine300_0 & 0xFFFF
   1883          		pConfig->destAddr = 0xFFFF;	
   \                     ??CrossCallReturnLabel_564:
   \   000090   2409         ADD     A,#0x9
   \   000092   FA           MOV     R2,A
   \   000093   A3           INC     DPTR
   \   000094   E0           MOVX    A,@DPTR
   \   000095   3400         ADDC    A,#0x0
   \   000097   FB           MOV     R3,A
   \   000098   12....       LCALL   ?Subroutine228 & 0xFFFF
   1884          		//pConfig->myAddr = 0x000F;
   1885          		pTxData[0] = 0x05;
   \                     ??CrossCallReturnLabel_509:
   \   00009B   7405         MOV     A,#0x5
   \   00009D   12....       LCALL   ?Subroutine156 & 0xFFFF
   1886          		pTxData[1] = 0x00;
   1887          		pTxData[2] = 0xFF;
   1888          		pTxData[3] = 0x32;
   \                     ??CrossCallReturnLabel_292:
   \   0000A0   7432         MOV     A,#0x32
   \   0000A2   F0           MOVX    @DPTR,A
   1889          		pTxData[4] = 0x00;//pDevice->ready;//0x01;//0xAA;//0x01;
   \   0000A3   A3           INC     DPTR
   \   0000A4   E4           CLR     A
   \   0000A5   12....       LCALL   ??Subroutine349_0 & 0xFFFF
   1890          		g_sendLen = 5;
   1891          		//macRfSendPacket(pConfig->destAddr, pTxData, g_sendLen,NULL,0);
   1892          		macRfSendPacket(pConfig->destAddr, pTxData, g_sendLen,NULL,0,SEND_MODE_UNSLOTTED);
   \                     ??CrossCallReturnLabel_881:
   \   0000A8   12....       LCALL   ?PUSH_XSTACK_I_ONE
   \   0000AB   75..00       MOV     ?V0 + 0,#0x0
   \   0000AE   78..         MOV     R0,#?V0 + 0
   \   0000B0   12....       LCALL   ?PUSH_XSTACK_I_ONE
   \   0000B3   E4           CLR     A
   \   0000B4   F5..         MOV     ?V0 + 1,A
   \   0000B6   78..         MOV     R0,#?V0 + 0
   \   0000B8   12....       LCALL   ?PUSH_XSTACK_I_TWO
   \   0000BB   7905         MOV     R1,#0x5
   \   0000BD   7C..         MOV     R4,#pTxData & 0xff
   \   0000BF   7D..         MOV     R5,#(pTxData >> 8) & 0xff
   \   0000C1   8A82         MOV     DPL,R2
   \   0000C3   8B83         MOV     DPH,R3
   \   0000C5   12....       LCALL   ??Subroutine323_0 & 0xFFFF
   \                     ??CrossCallReturnLabel_699:
   \   0000C8   12....       LCALL   ?DEALLOC_XSTACK8
   1893          		veriPckSendCallback = &macRollPolingProc;
   \   0000CB   12....       LCALL   ?Subroutine142 & 0xFFFF
   1894          		osal_start_timerEx(macEx_taskId, MACEX_VERI_SEND_INQURE,10+(osal_rand()&0x03));
   1895          		osal_start_timerEx(macEx_taskId,MACEX_INFO_INQ,60+(osal_rand()&0x03));
   1896          	}else
   \                     ??CrossCallReturnLabel_264:
   \   0000CE   12....       LCALL   ?Subroutine106 & 0xFFFF
   \                     ??CrossCallReturnLabel_182:
   \   0000D1   5403         ANL     A,#0x3
   \   0000D3   243C         ADD     A,#0x3c
   \   0000D5   FC           MOV     R4,A
   \   0000D6   7D00         MOV     R5,#0x0
   \   0000D8   7A20         MOV     R2,#0x20
   \   0000DA   8040         SJMP    ??DeviceReadyRespond_6
   1897          	{
   1898          		//rspMk = 1;
   1899          		pConfig->frameHead = 0x8841;
   \                     ??DeviceReadyRespond_5:
   \   0000DC   8882         MOV     DPL,R0
   \   0000DE   8983         MOV     DPH,R1
   \   0000E0   7441         MOV     A,#0x41
   \   0000E2   F0           MOVX    @DPTR,A
   \   0000E3   A3           INC     DPTR
   \   0000E4   7488         MOV     A,#-0x78
   \   0000E6   12....       LCALL   ?Subroutine42 & 0xFFFF
   1900          		pConfig->destAddr = 0xFFFF;	
   1901          		//pConfig->myAddr = 0x000F;
   1902          		pTxData[0] = 0x05;
   \                     ??CrossCallReturnLabel_59:
   \   0000E9   7405         MOV     A,#0x5
   \   0000EB   12....       LCALL   ??Subroutine327_0 & 0xFFFF
   1903          		pTxData[1] = 0x00;
   1904          		pTxData[2] = 0xFF;
   \                     ??CrossCallReturnLabel_729:
   \   0000EE   A3           INC     DPTR
   \   0000EF   12....       LCALL   ?Subroutine132 & 0xFFFF
   1905          		pTxData[3] = 0x32;
   1906          		pTxData[4] = 0x01;//pDevice->ready;//0x01;//0xAA;//0x01;
   1907          		g_sendLen = 5;
   1908          		//macRfSendPacket(pConfig->destAddr, pTxData, g_sendLen,NULL,0);
   1909          		macRfSendPacket(pConfig->destAddr, pTxData, g_sendLen,NULL,0,SEND_MODE_UNSLOTTED);
   \                     ??CrossCallReturnLabel_879:
   \   0000F2   12....       LCALL   ?PUSH_XSTACK_I_ONE
   \   0000F5   75..00       MOV     ?V0 + 0,#0x0
   \   0000F8   78..         MOV     R0,#?V0 + 0
   \   0000FA   12....       LCALL   ?PUSH_XSTACK_I_ONE
   \   0000FD   E4           CLR     A
   \   0000FE   F5..         MOV     ?V0 + 1,A
   \   000100   78..         MOV     R0,#?V0 + 0
   \   000102   12....       LCALL   ?PUSH_XSTACK_I_TWO
   \   000105   7905         MOV     R1,#0x5
   \   000107   7C..         MOV     R4,#pTxData & 0xff
   \   000109   7D..         MOV     R5,#(pTxData >> 8) & 0xff
   \   00010B   8A82         MOV     DPL,R2
   \   00010D   8B83         MOV     DPH,R3
   \   00010F   12....       LCALL   ??Subroutine323_0 & 0xFFFF
   \                     ??CrossCallReturnLabel_700:
   \   000112   12....       LCALL   ?DEALLOC_XSTACK8
   1910          		veriPckSendCallback = &macRollPolingProc;
   \   000115   12....       LCALL   ?Subroutine142 & 0xFFFF
   1911          		osal_start_timerEx(macEx_taskId, MACEX_VERI_SEND_INQURE,10+(osal_rand()&0x03));
   1912          	}
   \                     ??CrossCallReturnLabel_265:
   \   000118   7D00         MOV     R5,#0x0
   \   00011A   7A02         MOV     R2,#0x2
   \                     ??DeviceReadyRespond_6:
   \   00011C   02....       LJMP    ??Subroutine335_0 & 0xFFFF
   1913          
   1914          /*	//if(pDevice->ready)
   1915          	if(pConfig->devHead[pDevice].ready)
   1916          	{
   1917          		rspMk = 0;
   1918          		pConfig->frameHead = 0x8841;
   1919          		pConfig->destAddr = 0xFFFF;	
   1920          		//pConfig->myAddr = 0x000F;
   1921          		pTxData[0] = 0x05;
   1922          		pTxData[1] = 0x00;
   1923          		pTxData[2] = 0xFF;
   1924          		pTxData[3] = 0x32;
   1925          		pTxData[4] = pConfig->devHead[pDevice].ready;//pDevice->ready;//0x01;//0xAA;//0x01;
   1926          		g_sendLen = 5;
   1927          		macRfSendPacket(pConfig->destAddr, pTxData, g_sendLen,NULL,0);
   1928          	}else if(!rspMk)
   1929          	{
   1930          		rspMk = 1;
   1931          		pConfig->frameHead = 0x8841;
   1932          		pConfig->destAddr = 0xFFFF;	
   1933          		//pConfig->myAddr = 0x000F;
   1934          		pTxData[0] = 0x05;
   1935          		pTxData[1] = 0x00;
   1936          		pTxData[2] = 0xFF;
   1937          		pTxData[3] = 0x32;
   1938          		pTxData[4] = pConfig->devHead[pDevice].ready;//pDevice->ready;//0x01;//0xAA;//0x01;
   1939          		g_sendLen = 5;
   1940          		macRfSendPacket(pConfig->destAddr, pTxData, g_sendLen,NULL,0);
   1941          	}
   1942          
   1943          	//while(!(RFIRQF1 & IRQ_TXDONE) );				//failed
   1944          	//UartSctSend(UART_CC_READY,pDevice->ready,0);
   1945          	//s_ready = pDevice->ready;
   1946          	s_ready = pConfig->devHead[pDevice].ready;
   1947          	veriPckSendCallback = &DevReadyInfo;
   1948          	
   1949          	osal_start_timerEx(macEx_taskId, MACEX_VERI_SEND_INQURE,4+(osal_rand()&0x03));
   1950          */
   1951          	
   1952          }

   \                                 In  segment BANKED_CODE, align 1, keep-with-next
   \                     ?Subroutine142:
   \   000000   12....       LCALL   ?Subroutine223 & 0xFFFF
   \                     ??CrossCallReturnLabel_382:
   \   000003   5403         ANL     A,#0x3
   \   000005   240A         ADD     A,#0xa
   \   000007   FC           MOV     R4,A
   \   000008   22           RET

   \                                 In  segment BANKED_CODE, align 1, keep-with-next
   \                     ?Subroutine101:
   \   000000   12....       LCALL   ?Subroutine186 & 0xFFFF
   \                     ??CrossCallReturnLabel_523:
   \   000003   2419         ADD     A,#0x19
   \   000005   22           RET

   \                                 In  segment BANKED_CODE, align 1, keep-with-next
   \                     ?Subroutine34:
   \   000000   EB           MOV     A,R3
   \   000001                REQUIRE ??Subroutine292_0
   \   000001                ; // Fall through to label ??Subroutine292_0

   \                                 In  segment BANKED_CODE, align 1, keep-with-next
   \                     ??Subroutine292_0:
   \   000000   12....       LCALL   ?Subroutine188 & 0xFFFF
   \                     ??CrossCallReturnLabel_536:
   \   000003   22           RET

   \                                 In  segment BANKED_CODE, align 1, keep-with-next
   \                     ?Subroutine106:
   \   000000   7D00         MOV     R5,#0x0
   \   000002   7A02         MOV     R2,#0x2
   \   000004   7B00         MOV     R3,#0x0
   \   000006   90....       MOV     DPTR,#macEx_taskId
   \   000009   E0           MOVX    A,@DPTR
   \   00000A   F9           MOV     R1,A
   \   00000B   12....       LCALL   ??osal_start_timerEx?relay
   \   00000E                ; Setup parameters for call to function osal_rand
   \   00000E                ; Setup parameters for call to function osal_rand
   \   00000E   12....       LCALL   ??Subroutine304_0 & 0xFFFF
   \                     ??CrossCallReturnLabel_586:
   \   000011   22           RET

   \                                 In  segment BANKED_CODE, align 1, keep-with-next
   \                     ??Subroutine300_0:
   \   000000   12....       LCALL   ?Subroutine221 & 0xFFFF
   \                     ??CrossCallReturnLabel_871:
   \   000003   22           RET

   \                                 In  segment BANKED_CODE, align 1, keep-with-next
   \                     ??Subroutine305_0:
   \   000000   12....       LCALL   ?Subroutine200 & 0xFFFF
   \                     ??CrossCallReturnLabel_594:
   \   000003   22           RET

   \                                 In  segment BANKED_CODE, align 1, keep-with-next
   \                     ?Subroutine200:
   \   000000   E0           MOVX    A,@DPTR
   \   000001   FA           MOV     R2,A
   \   000002   A3           INC     DPTR
   \   000003   E0           MOVX    A,@DPTR
   \   000004   FB           MOV     R3,A
   \   000005   12....       LCALL   ??SearchForDevice?relay
   \   000008   E9           MOV     A,R1
   \   000009   75F00F       MOV     B,#0xf
   \   00000C   A4           MUL     AB
   \   00000D   22           RET

   \                                 In  segment BANKED_CODE, align 1, keep-with-next
   \                     ?Subroutine121:
   \   000000   E8           MOV     A,R0
   \   000001                REQUIRE ??Subroutine329_0
   \   000001                ; // Fall through to label ??Subroutine329_0

   \                                 In  segment BANKED_CODE, align 1, keep-with-next
   \                     ??Subroutine329_0:
   \   000000   241B         ADD     A,#0x1b
   \   000002                REQUIRE ??Subroutine330_0
   \   000002                ; // Fall through to label ??Subroutine330_0

   \                                 In  segment BANKED_CODE, align 1, keep-with-next
   \                     ?Subroutine156:
   \   000000   12....       LCALL   ??Subroutine343_0 & 0xFFFF
   \                     ??CrossCallReturnLabel_836:
   \   000003   A3           INC     DPTR
   \   000004   74FF         MOV     A,#-0x1
   \   000006   F0           MOVX    @DPTR,A
   \   000007   A3           INC     DPTR
   \   000008   22           RET
   1953          #endif
   1954          
   1955          //uint16 devCnt=0;
   1956          static uint16 FirstCheckAndAlloc(void)
   1957          {
   1958          	pConfig->evtCnt++;
   1959          	pConfig->totalDev++;
   1960          	return 0x0000;
   1961          }
   1962          
   1963          

   \                                 In  segment BANKED_CODE, align 1, keep-with-next
   1964          MAC_DATAREQ_API static void CheckEachDeviceAlloc(macRx_t* pck)
   \                     CheckEachDeviceAlloc:
   1965          {
   \   000000   74F4         MOV     A,#-0xc
   \   000002   12....       LCALL   ?BANKED_ENTER_XDATA
   \   000005                ; Saved register size: 12
   \   000005                ; Auto size: 0
   1966          	uint8 pDev=0;
   1967          	if(g_devCheck.checkCount++<MACEX_DEVICE_CHECK_NUM)
   \   000005   90....       MOV     DPTR,#g_devCheck + 2
   \   000008   12....       LCALL   ?Subroutine199 & 0xFFFF
   \                     ??CrossCallReturnLabel_362:
   \   00000B   9408         SUBB    A,#0x8
   \   00000D   90....       MOV     DPTR,#pConfig
   \   000010   E0           MOVX    A,@DPTR
   \   000011   5057         JNC     ??CheckEachDeviceAlloc_0
   1968          	{
   1969          		pConfig->frameHead = 0x8861;
   \   000013   12....       LCALL   ?Subroutine35 & 0xFFFF
   1970          		//pConfig->destAddr = (DEVICE_ATTRIBUTE_MAST==g_devCheck.pChk->attribute)?(0x0E-g_devCheck.checkTurn):g_devCheck.checkTurn;
   1971          		//pConfig->destAddr = g_devCheck.pChk->shortAddr;//(DEVICE_ATTRIBUTE_SLAVE==g_devCheck.pChk->attribute)?g_devCheck.checkTurn:(0x0E-g_devCheck.checkTurn);
   1972          		pConfig->destAddr = pConfig->devHead[g_devCheck.checkTurn].shortAddr;
   \                     ??CrossCallReturnLabel_48:
   \   000016   12....       LCALL   ?Subroutine92 & 0xFFFF
   \                     ??CrossCallReturnLabel_144:
   \   000019   ACF0         MOV     R4,B
   \   00001B   75F00F       MOV     B,#0xf
   \   00001E   E9           MOV     A,R1
   \   00001F   A4           MUL     AB
   \   000020   2C           ADD     A,R4
   \   000021   F9           MOV     R1,A
   \   000022   12....       LCALL   ?Subroutine65 & 0xFFFF
   \                     ??CrossCallReturnLabel_97:
   \   000025   12....       LCALL   ?Subroutine94 & 0xFFFF
   \                     ??CrossCallReturnLabel_153:
   \   000028   8A82         MOV     DPL,R2
   \   00002A   8B83         MOV     DPH,R3
   \   00002C   12....       LCALL   ?Subroutine163 & 0xFFFF
   1973          		pTxData[0] = 0x9B;
   \                     ??CrossCallReturnLabel_314:
   \   00002F   90....       MOV     DPTR,#pTxData
   \   000032   749B         MOV     A,#-0x65
   \   000034   12....       LCALL   ?Subroutine148 & 0xFFFF
   1974          		g_sendLen = 1;
   1975          		//macRfSendPacket(pConfig->destAddr, pTxData, g_sendLen,NULL,0);
   1976          		macRfSendPacket(pConfig->destAddr, pTxData, g_sendLen,NULL,0,SEND_MODE_UNSLOTTED);
   \                     ??CrossCallReturnLabel_278:
   \   000037   12....       LCALL   ?PUSH_XSTACK_I_ONE
   \   00003A   75..00       MOV     ?V0 + 0,#0x0
   \   00003D   78..         MOV     R0,#?V0 + 0
   \   00003F   12....       LCALL   ?PUSH_XSTACK_I_ONE
   \   000042   E4           CLR     A
   \   000043   F5..         MOV     ?V0 + 1,A
   \   000045   78..         MOV     R0,#?V0 + 0
   \   000047   12....       LCALL   ?PUSH_XSTACK_I_TWO
   \   00004A   7901         MOV     R1,#0x1
   \   00004C   7C..         MOV     R4,#pTxData & 0xff
   \   00004E   7D..         MOV     R5,#(pTxData >> 8) & 0xff
   \   000050   8A82         MOV     DPL,R2
   \   000052   8B83         MOV     DPH,R3
   \   000054   12....       LCALL   ??Subroutine323_0 & 0xFFFF
   \                     ??CrossCallReturnLabel_701:
   \   000057   12....       LCALL   ?DEALLOC_XSTACK8
   1977          		veriPckSendCallback = &CheckEachDeviceAlloc;
   \   00005A   90....       MOV     DPTR,#veriPckSendCallback
   \   00005D   74..         MOV     A,#??CheckEachDeviceAlloc?relay & 0xff
   \   00005F   F0           MOVX    @DPTR,A
   \   000060   A3           INC     DPTR
   \   000061   74..         MOV     A,#(??CheckEachDeviceAlloc?relay >> 8) & 0xff
   \   000063   12....       LCALL   ?Subroutine155 & 0xFFFF
   1978          		//osal_start_timerEx(macEx_taskId, MACEX_VERI_SEND_INQURE,8);	
   1979          		osal_start_timerEx(macEx_taskId, MACEX_VERI_SEND_INQURE,8+(osal_rand()&0x07));
   1980          	}else
   \                     ??CrossCallReturnLabel_288:
   \   000066   2408         ADD     A,#0x8
   \   000068   804E         SJMP    ??CrossCallReturnLabel_232
   1981          	{
   1982          	
   1983          		pConfig->evtCnt++;
   \                     ??CheckEachDeviceAlloc_0:
   \   00006A   12....       LCALL   ??Subroutine275_0 & 0xFFFF
   \                     ??CrossCallReturnLabel_470:
   \   00006D   04           INC     A
   \   00006E   F0           MOVX    @DPTR,A
   1984          
   1985          //		RemoveDevice(g_devCheck.checkTurn);
   1986          		RemoveDevice(pConfig->devHead[g_devCheck.checkTurn].shortAddr);
   \   00006F                ; Setup parameters for call to function RemoveDevice
   \   00006F   12....       LCALL   ?Subroutine92 & 0xFFFF
   \                     ??CrossCallReturnLabel_145:
   \   000072   AAF0         MOV     R2,B
   \   000074   75F00F       MOV     B,#0xf
   \   000077   E9           MOV     A,R1
   \   000078   A4           MUL     AB
   \   000079   2A           ADD     A,R2
   \   00007A   F9           MOV     R1,A
   \   00007B   90....       MOV     DPTR,#pConfig
   \   00007E   E0           MOVX    A,@DPTR
   \   00007F   28           ADD     A,R0
   \   000080   F8           MOV     R0,A
   \   000081   A3           INC     DPTR
   \   000082   E0           MOVX    A,@DPTR
   \   000083   39           ADDC    A,R1
   \   000084   F9           MOV     R1,A
   \   000085   12....       LCALL   ?Subroutine58 & 0xFFFF
   1987          		
   1988          		while(g_devCheck.checkTurn<DEVICE_TOTAL)
   \                     ??CrossCallReturnLabel_487:
   \   000088   12....       LCALL   ?Subroutine49 & 0xFFFF
   \                     ??CrossCallReturnLabel_71:
   \   00008B   5005         JNC     ??CheckEachDeviceAlloc_1
   1989          		{
   1990          			g_devCheck.checkTurn++;
   \   00008D   12....       LCALL   ?Subroutine12 & 0xFFFF
   1991          			if(DEVICE_VERIFIED==pConfig->devHead[g_devCheck.checkTurn].veriFlag)
   1992          			{
   1993          				break;
   1994          			}
   1995          		}
   \                     ??CrossCallReturnLabel_530:
   \   000090   70F6         JNZ     ??CrossCallReturnLabel_487
   1996          		//g_devCheck.checkTurn++;
   1997          		if(g_devCheck.checkTurn>=DEVICE_TOTAL)
   \                     ??CheckEachDeviceAlloc_1:
   \   000092   12....       LCALL   ?Subroutine49 & 0xFFFF
   \                     ??CrossCallReturnLabel_72:
   \   000095   401B         JC      ??CheckEachDeviceAlloc_2
   1998          		{
   1999          			for(pDev=0;pDev<DEVICE_TOTAL;pDev++)
   \   000097   75..00       MOV     ?V0 + 0,#0x0
   2000          			{
   2001          				if(DEVICE_WAITIP==pConfig->devHead[pDev].veriFlag)
   \                     ??CheckEachDeviceAlloc_3:
   \   00009A   E5..         MOV     A,?V0 + 0
   \   00009C   12....       LCALL   ?Subroutine55 & 0xFFFF
   \                     ??CrossCallReturnLabel_83:
   \   00009F   7003         JNZ     ??CrossCallReturnLabel_515
   2002          				{
   2003          					pConfig->devHead[pDev].shortAddr= NoneUsedShortAddrSearch(pConfig->devHead[pDev].attribute);
   \   0000A1                ; Setup parameters for call to function NoneUsedShortAddrSearch
   \   0000A1   12....       LCALL   ?Subroutine16 & 0xFFFF
   2004          				}
   2005          			}
   \                     ??CrossCallReturnLabel_515:
   \   0000A4   05..         INC     ?V0 + 0
   \   0000A6   E5..         MOV     A,?V0 + 0
   \   0000A8   C3           CLR     C
   \   0000A9   940F         SUBB    A,#0xf
   \   0000AB   40ED         JC      ??CheckEachDeviceAlloc_3
   2006          			veriPckSendCallback = &VeriAndAllocID;
   \   0000AD   12....       LCALL   ?Subroutine136 & 0xFFFF
   2007          			osal_start_timerEx( macEx_taskId, MACEX_VERI_SEND_INQURE, 3+(osal_rand()&0x03));
   2008          		}else
   \                     ??CrossCallReturnLabel_246:
   \   0000B0   8006         SJMP    ??CrossCallReturnLabel_232
   2009          		{
   2010          			g_devCheck.checkCount = 0;
   \                     ??CheckEachDeviceAlloc_2:
   \   0000B2   12....       LCALL   ?Subroutine139 & 0xFFFF
   2011          			veriPckSendCallback = &CheckEachDeviceAlloc;
   2012          			osal_start_timerEx( macEx_taskId, MACEX_VERI_SEND_INQURE, 5+(osal_rand()&0x03));
   2013          		}
   2014          #if 0
   2015          		//g_devCheck.checkTurn++;
   2016          		//if(g_devCheck.checkTurn>=pConfig->totalDev)
   2017          		//if(NULL==g_devCheck.pChk->pNext)
   2018          		if(pCurrentDev==g_devCheck.pChk->pNext)
   2019          		{
   2020          			//pCurrentDev->shortAddr = g_devCheck.checkTurn;
   2021          			RemoveDevice(g_devCheck.pChk->shortAddr);
   2022          			pConfig->totalDev++;
   2023          			pCurrentDev->shortAddr = NoneUsedShortAddrSearch(pCurrentDev->attribute);
   2024          			VeriAndAllocID(pck);
   2025          			LED_INS_LINKED();
   2026          		}else
   2027          		{
   2028          
   2029          			RemoveDevice(g_devCheck.pChk->shortAddr);
   2030          			g_devCheck.checkCount = 0;
   2031          			g_devCheck.pChk = g_devCheck.pChk->pNext;
   2032          			veriPckSendCallback = &CheckEachDeviceAlloc;
   2033          			osal_start_timerEx( macEx_taskId, MACEX_VERI_SEND_INQURE, 5);
   2034          		}
   2035          #endif
   2036          		
   2037          	}
   \                     ??CrossCallReturnLabel_255:
   \   0000B5   12....       LCALL   ?Subroutine133 & 0xFFFF
   \                     ??CrossCallReturnLabel_232:
   \   0000B8   FC           MOV     R4,A
   \   0000B9   7D00         MOV     R5,#0x0
   \   0000BB   7A02         MOV     R2,#0x2
   \   0000BD   02....       LJMP    ?Subroutine5 & 0xFFFF
   2038          	
   2039          }

   \                                 In  segment BANKED_CODE, align 1, keep-with-next
   \                     ?Subroutine92:
   \   000000   12....       LCALL   ?Subroutine202 & 0xFFFF
   \                     ??CrossCallReturnLabel_533:
   \   000003   22           RET

   \                                 In  segment BANKED_CODE, align 1, keep-with-next
   \                     ?Subroutine202:
   \   000000   90....       MOV     DPTR,#g_devCheck
   \   000003   E0           MOVX    A,@DPTR
   \   000004   F8           MOV     R0,A
   \   000005   A3           INC     DPTR
   \   000006   E0           MOVX    A,@DPTR
   \   000007   F9           MOV     R1,A
   \   000008   E8           MOV     A,R0
   \   000009   75F00F       MOV     B,#0xf
   \   00000C   A4           MUL     AB
   \   00000D   F8           MOV     R0,A
   \   00000E   22           RET

   \                                 In  segment BANKED_CODE, align 1, keep-with-next
   \                     ?Subroutine16:
   \   000000   E8           MOV     A,R0
   \   000001   241A         ADD     A,#0x1a
   \   000003   12....       LCALL   ?Subroutine237 & 0xFFFF
   \                     ??CrossCallReturnLabel_773:
   \   000006   F9           MOV     R1,A
   \   000007   12....       LCALL   ??NoneUsedShortAddrSearch?relay
   \   00000A                REQUIRE ??Subroutine294_0
   \   00000A                ; // Fall through to label ??Subroutine294_0

   \                                 In  segment BANKED_CODE, align 1, keep-with-next
   \                     ??Subroutine294_0:
   \   000000   12....       LCALL   ?Subroutine186 & 0xFFFF
   \                     ??CrossCallReturnLabel_525:
   \   000003   12....       LCALL   ?Subroutine220 & 0xFFFF
   \                     ??CrossCallReturnLabel_529:
   \   000006   EA           MOV     A,R2
   \   000007   F0           MOVX    @DPTR,A
   \   000008   A3           INC     DPTR
   \   000009   EB           MOV     A,R3
   \   00000A   F0           MOVX    @DPTR,A
   \   00000B   22           RET

   \                                 In  segment BANKED_CODE, align 1, keep-with-next
   \                     ?Subroutine237:
   \   000000   F582         MOV     DPL,A
   \   000002   E9           MOV     A,R1
   \   000003                REQUIRE ??Subroutine295_0
   \   000003                ; // Fall through to label ??Subroutine295_0

   \                                 In  segment BANKED_CODE, align 1, keep-with-next
   \                     ?Subroutine12:
   \   000000   90....       MOV     DPTR,#g_devCheck
   \   000003   12....       LCALL   ?Subroutine209 & 0xFFFF
   \                     ??CrossCallReturnLabel_442:
   \   000006                REQUIRE ??Subroutine296_0
   \   000006                ; // Fall through to label ??Subroutine296_0

   \                                 In  segment BANKED_CODE, align 1, keep-with-next
   \                     ??Subroutine296_0:
   \   000000   12....       LCALL   ?Subroutine202 & 0xFFFF
   \                     ??CrossCallReturnLabel_534:
   \   000003   AAF0         MOV     R2,B
   \   000005   75F00F       MOV     B,#0xf
   \   000008   E9           MOV     A,R1
   \   000009   A4           MUL     AB
   \   00000A   2A           ADD     A,R2
   \   00000B   F9           MOV     R1,A
   \   00000C   12....       LCALL   ??Subroutine293_0 & 0xFFFF
   \                     ??CrossCallReturnLabel_537:
   \   00000F   6404         XRL     A,#0x4
   \   000011   22           RET

   \                                 In  segment BANKED_CODE, align 1, keep-with-next
   \                     ?Subroutine136:
   \   000000   90....       MOV     DPTR,#veriPckSendCallback
   \   000003   74..         MOV     A,#??VeriAndAllocID?relay & 0xff
   \   000005   F0           MOVX    @DPTR,A
   \   000006   A3           INC     DPTR
   \   000007   74..         MOV     A,#(??VeriAndAllocID?relay >> 8) & 0xff
   \   000009   12....       LCALL   ?Subroutine226 & 0xFFFF
   \                     ??CrossCallReturnLabel_386:
   \   00000C   2403         ADD     A,#0x3
   \   00000E   22           RET

   \                                 In  segment BANKED_CODE, align 1, keep-with-next
   \                     ?Subroutine139:
   \   000000   A3           INC     DPTR
   \   000001   E4           CLR     A
   \   000002   F0           MOVX    @DPTR,A
   \   000003   90....       MOV     DPTR,#veriPckSendCallback
   \   000006   74..         MOV     A,#??CheckEachDeviceAlloc?relay & 0xff
   \   000008   F0           MOVX    @DPTR,A
   \   000009   A3           INC     DPTR
   \   00000A   74..         MOV     A,#(??CheckEachDeviceAlloc?relay >> 8) & 0xff
   \   00000C   22           RET

   \                                 In  segment BANKED_CODE, align 1, keep-with-next
   \                     ?Subroutine55:
   \   000000   75F00F       MOV     B,#0xf
   \   000003   A4           MUL     AB
   \   000004   FE           MOV     R6,A
   \   000005   AFF0         MOV     R7,B
   \   000007   12....       LCALL   ?Subroutine186 & 0xFFFF
   \                     ??CrossCallReturnLabel_520:
   \   00000A   240D         ADD     A,#0xd
   \   00000C   12....       LCALL   ?Subroutine237 & 0xFFFF
   \                     ??CrossCallReturnLabel_774:
   \   00000F   6403         XRL     A,#0x3
   \   000011   22           RET

   \                                 In  segment BANKED_CODE, align 1, keep-with-next
   \                     ?Subroutine49:
   \   000000   90....       MOV     DPTR,#g_devCheck
   \   000003   C3           CLR     C
   \   000004   E0           MOVX    A,@DPTR
   \   000005   940F         SUBB    A,#0xf
   \   000007   A3           INC     DPTR
   \   000008   E0           MOVX    A,@DPTR
   \   000009   9400         SUBB    A,#0x0
   \   00000B   22           RET

   \                                 In  segment BANKED_CODE, align 1, keep-with-next
   \                     ?Subroutine163:
   \   000000   E8           MOV     A,R0
   \   000001   F0           MOVX    @DPTR,A
   \   000002   A3           INC     DPTR
   \   000003   E9           MOV     A,R1
   \   000004   F0           MOVX    @DPTR,A
   \   000005   22           RET

   \                                 In  segment BANKED_CODE, align 1, keep-with-next
   \                     ?Subroutine155:
   \   000000   12....       LCALL   ?Subroutine241 & 0xFFFF
   \                     ??CrossCallReturnLabel_585:
   \   000003   5407         ANL     A,#0x7
   \   000005   22           RET

   \                                 In  segment BANKED_CODE, align 1, keep-with-next
   \                     ?Subroutine5:
   \   000000   12....       LCALL   ??Subroutine341_0 & 0xFFFF
   \                     ??CrossCallReturnLabel_828:
   \   000003                REQUIRE ??Subroutine326_0
   \   000003                ; // Fall through to label ??Subroutine326_0

   \                                 In  segment BANKED_CODE, align 1, keep-with-next
   \                     ??Subroutine326_0:
   \   000000   7F04         MOV     R7,#0x4
   \   000002   02....       LJMP    ?BANKED_LEAVE_XDATA

   \                                 In  segment BANKED_CODE, align 1, keep-with-next
   \                     ?Subroutine148:
   \   000000   12....       LCALL   ?Subroutine225 & 0xFFFF
   \                     ??CrossCallReturnLabel_891:
   \   000003   7401         MOV     A,#0x1
   \   000005   F0           MOVX    @DPTR,A
   \   000006                ; Setup parameters for call to function macRfSendPacket
   \   000006                ; Setup parameters for call to function macRfSendPacket
   \   000006   F5..         MOV     ?V0 + 0,A
   \   000008   78..         MOV     R0,#?V0 + 0
   \   00000A   22           RET

   \                                 In  segment BANKED_CODE, align 1, keep-with-next
   \                     ?Subroutine35:
   \   000000   240B         ADD     A,#0xb
   \   000002   12....       LCALL   ?Subroutine198 & 0xFFFF
   \                     ??CrossCallReturnLabel_844:
   \   000005   7461         MOV     A,#0x61
   \   000007   F0           MOVX    @DPTR,A
   \   000008   A3           INC     DPTR
   \   000009   7488         MOV     A,#-0x78
   \   00000B   12....       LCALL   ?Subroutine201 & 0xFFFF
   \                     ??CrossCallReturnLabel_366:
   \   00000E   22           RET
   2040          
   2041          #ifndef SEND_UNIFIED
   2042          MAC_DATAREQ_API static void VeriResponse(macRx_t* pck)
   2043          {
   2044          	pConfig->frameHead = 0x8C21;
   2045          	pConfig->destAddr = 0xffff;
   2046          	pTxData[0]=0x96;
   2047          	pTxData[1]=0x00;
   2048          	pTxData[2]=(pCurrentDev->shortAddr&0xFF);
   2049          	pTxData[3]=pTxData[2];
   2050          	pTxData[4]=0x00;
   2051          	pTxData[5]=pTxData[2]+1;
   2052          	pTxData[6] = pTxData[5];
   2053          	pTxData[7] = 0x01;
   2054          	pTxData[8] = (1<<pTxData[6]) - 1;
   2055          	pTxData[9]=0x00;
   2056          	pTxData[10]= pTxData[8];
   2057          	pTxData[11]=0x80;	
   2058          	g_sendLen = 12;
   2059          	//macRfSendPacket(pConfig->destAddr, pTxData, g_sendLen,1);
   2060          	macRfSendPacket(pConfig->destAddr, pTxData, g_sendLen,1,SEND_MODE_UNSLOTTED);
   2061          #ifdef SEND_UNIFIED
   2062          	veriPckSendCallback = &macRollPolingProc;
   2063          #else
   2064          	if(pConfig->mstRcd>0)
   2065          	{
   2066          		veriPckSendCallback = &LinkedModeRollPoling;
   2067          	}else
   2068          	{
   2069          		veriPckSendCallback = &macRollPolingProc;
   2070          	}
   2071          #endif
   2072          	osal_start_timerEx(macEx_taskId, MACEX_VERI_SEND_INQURE,5);
   2073          }
   2074          #endif
   2075          
   2076          

   \                                 In  segment BANKED_CODE, align 1, keep-with-next
   2077          MAC_DATAREQ_API static void VeriAndAllocID(macRx_t* pck)
   \                     VeriAndAllocID:
   2078          {
   \   000000   74F4         MOV     A,#-0xc
   \   000002   12....       LCALL   ?BANKED_ENTER_XDATA
   \   000005                ; Saved register size: 12
   \   000005                ; Auto size: 0
   2079          /*
   2080          	uint8 sdCnt=0;
   2081          	uint8 cn=0;
   2082          	pConfig->frameHead = 0x8C21;
   2083          	pConfig->destAddr = 0xffff;
   2084          	pTxData[sdCnt++]=0x96;
   2085          	pTxData[sdCnt++]=0x00;
   2086          	pTxData[sdCnt++]=(pCurrentDev->shortAddr&0xFF);
   2087          	pTxData[sdCnt++]=(pCurrentDev->shortAddr&0xFF);
   2088          	pTxData[sdCnt++]=0x00;
   2089          	pTxData[sdCnt++]=pConfig->evtCnt;
   2090          	pTxData[sdCnt++]=(pConfig->totalDev>0)?pConfig->totalDev:1;
   2091          	pTxData[sdCnt++]=pConfig->mstRcd+1;
   2092          	pTxData[sdCnt++]=((1<<pConfig->slvRcd)-1)&0xFF;
   2093          	pTxData[sdCnt++]=0x00;
   2094          	pTxData[sdCnt++]=pConfig->slvRcd;
   2095          	pTxData[sdCnt++]=(0xFF00>>(pConfig->mstRcd+1))&0xFF;	
   2096          	for(cn=0;cn<pConfig->mstRcd;cn++)
   2097          	{
   2098          		pTxData[sdCnt++]=0x0E-cn;
   2099          	}	
   2100          	//g_sendLen = 12;
   2101          	macRfSendPacket(pConfig->destAddr, pTxData, sdCnt,NULL,1);
   2102          	veriPckSendCallback = &macRollPolingProc;
   2103          	osal_start_timerEx(macEx_taskId, MACEX_VERI_SEND_INQURE,5);
   2104          */
   2105          
   2106          	uint8 dev=0;
   2107          	uint8 sdCnt=0;
   2108          	uint8 cn=0;
   2109          	static uint8 devRsv;
   2110          	static uint8 waitAckFlag=0;
   2111          
   2112          	if(waitAckFlag>0)
   \   000005   90....       MOV     DPTR,#??waitAckFlag
   \   000008   E0           MOVX    A,@DPTR
   \   000009   601E         JZ      ??VeriAndAllocID_0
   2113          	{
   2114          		if(TXSTATE_TXACKDONE_RCVD == txState.ackReceived)
   \   00000B   90....       MOV     DPTR,#txState + 1
   \   00000E   E0           MOVX    A,@DPTR
   \   00000F   6401         XRL     A,#0x1
   \   000011   7011         JNZ     ??VeriAndAllocID_1
   2115          		{
   2116          			pConfig->devHead[devRsv].veriFlag = DEVICE_VERIFIED;
   \   000013   90....       MOV     DPTR,#??devRsv
   \   000016   E0           MOVX    A,@DPTR
   \   000017   12....       LCALL   ?Subroutine66 & 0xFFFF
   2117          		}
   \                     ??CrossCallReturnLabel_478:
   \   00001A   12....       LCALL   ?Subroutine131 & 0xFFFF
   \                     ??CrossCallReturnLabel_227:
   \   00001D   E9           MOV     A,R1
   \   00001E   12....       LCALL   ??Subroutine312_0 & 0xFFFF
   \                     ??CrossCallReturnLabel_616:
   \   000021   7404         MOV     A,#0x4
   \   000023   F0           MOVX    @DPTR,A
   2118          		waitAckFlag = 0;
   \                     ??VeriAndAllocID_1:
   \   000024   90....       MOV     DPTR,#??waitAckFlag
   \   000027   E4           CLR     A
   \   000028   F0           MOVX    @DPTR,A
   2119          	}
   2120          
   2121          	for(dev=0;dev<DEVICE_TOTAL;dev++)
   \                     ??VeriAndAllocID_0:
   \   000029   7E00         MOV     R6,#0x0
   2122          	{
   2123          		if(DEVICE_ONVERI==pConfig->devHead[dev].veriFlag)
   \                     ??VeriAndAllocID_2:
   \   00002B   12....       LCALL   ?Subroutine29 & 0xFFFF
   \                     ??CrossCallReturnLabel_485:
   \   00002E   700F         JNZ     ??VeriAndAllocID_3
   2124          		{
   2125          			veriPckSendCallback = &VerfiInqure;
   \   000030   90....       MOV     DPTR,#veriPckSendCallback
   \   000033   74..         MOV     A,#??VerfiInqure?relay & 0xff
   \   000035   F0           MOVX    @DPTR,A
   \   000036   A3           INC     DPTR
   \   000037   74..         MOV     A,#(??VerfiInqure?relay >> 8) & 0xff
   \   000039   F0           MOVX    @DPTR,A
   2126          			osal_start_timerEx(macEx_taskId, MACEX_VERI_SEND_INQURE,0);
   \   00003A                ; Setup parameters for call to function osal_start_timerEx
   \   00003A   7C00         MOV     R4,#0x0
   \   00003C   02....       LJMP    ??VeriAndAllocID_4 & 0xFFFF
   2127          			return;
   2128          		}
   2129          	}
   \                     ??VeriAndAllocID_3:
   \   00003F   0E           INC     R6
   \   000040   EE           MOV     A,R6
   \   000041   C3           CLR     C
   \   000042   940F         SUBB    A,#0xf
   \   000044   40E5         JC      ??VeriAndAllocID_2
   2130          	
   2131          	for(dev=0;dev<DEVICE_TOTAL;dev++)
   \   000046   7E00         MOV     R6,#0x0
   2132          	{
   2133          		if(DEVICE_WAITIP==pConfig->devHead[dev].veriFlag)
   \                     ??VeriAndAllocID_5:
   \   000048   EE           MOV     A,R6
   \   000049   12....       LCALL   ??Subroutine292_0 & 0xFFFF
   2134          		{
   2135          			//pConfig->devHead[dev].veriFlag = DEVICE_VERIFIED;//2015/08/26
   2136          			break;
   2137          		}
   2138          	}
   \                     ??CrossCallReturnLabel_512:
   \   00004C   6403         XRL     A,#0x3
   \   00004E   6007         JZ      ??VeriAndAllocID_6
   \   000050   0E           INC     R6
   \   000051   EE           MOV     A,R6
   \   000052   C3           CLR     C
   \   000053   940F         SUBB    A,#0xf
   \   000055   40F1         JC      ??VeriAndAllocID_5
   2139          
   2140          	if(dev>=DEVICE_TOTAL)
   \                     ??VeriAndAllocID_6:
   \   000057   EE           MOV     A,R6
   \   000058   C3           CLR     C
   \   000059   940F         SUBB    A,#0xf
   \   00005B   400E         JC      ??VeriAndAllocID_7
   2141          	{
   2142          		veriPckSendCallback = &macRollPolingProc;
   \   00005D   12....       LCALL   ?Subroutine154 & 0xFFFF
   2143          		//osal_start_timerEx(macEx_taskId, MACEX_VERI_SEND_INQURE,5+(osal_rand()&0x03));
   2144          		osal_start_timerEx(macEx_taskId, MACEX_VERI_SEND_INQURE,3);
   \                     ??CrossCallReturnLabel_717:
   \   000060                ; Setup parameters for call to function osal_start_timerEx
   \   000060   7C03         MOV     R4,#0x3
   \   000062   12....       LCALL   ?Subroutine106 & 0xFFFF
   2145          		osal_start_timerEx(macEx_taskId,MACEX_INFO_INQ,60+(osal_rand()&0x0f));
   2146          		//osal_start_timerEx(macEx_taskId, MACEX_VERI_SEND_INQURE,2);
   2147          	}else
   \                     ??CrossCallReturnLabel_183:
   \   000065   12....       LCALL   ?Subroutine174 & 0xFFFF
   \                     ??CrossCallReturnLabel_331:
   \   000068   02....       LJMP    ??VeriAndAllocID_8 & 0xFFFF
   2148          	{
   2149          		pConfig->frameHead = 0x8C21;
   \                     ??VeriAndAllocID_7:
   \   00006B   12....       LCALL   ?Subroutine59 & 0xFFFF
   \                     ??CrossCallReturnLabel_88:
   \   00006E   F0           MOVX    @DPTR,A
   2150          		pConfig->destAddr = 0xffff;
   \   00006F   12....       LCALL   ?Subroutine45 & 0xFFFF
   \                     ??CrossCallReturnLabel_63:
   \   000072   A3           INC     DPTR
   \   000073   A3           INC     DPTR
   \   000074   A3           INC     DPTR
   \   000075   A3           INC     DPTR
   \   000076   12....       LCALL   ??Subroutine291_0 & 0xFFFF
   2151          		pTxData[sdCnt++]=0x96;
   \                     ??CrossCallReturnLabel_511:
   \   000079   7496         MOV     A,#-0x6a
   \   00007B   12....       LCALL   ??Subroutine327_0 & 0xFFFF
   2152          		pTxData[sdCnt++]=0x00;
   2153          		pTxData[sdCnt++]=(pConfig->devHead[dev].shortAddr&0xFF);
   \                     ??CrossCallReturnLabel_730:
   \   00007E   EE           MOV     A,R6
   \   00007F   12....       LCALL   ?Subroutine60 & 0xFFFF
   \                     ??CrossCallReturnLabel_542:
   \   000082   240E         ADD     A,#0xe
   \   000084   F8           MOV     R0,A
   \   000085   EB           MOV     A,R3
   \   000086   12....       LCALL   ??Subroutine269_0 & 0xFFFF
   \                     ??CrossCallReturnLabel_436:
   \   000089   90....       MOV     DPTR,#pTxData + 2
   \   00008C   12....       LCALL   ?Subroutine135 & 0xFFFF
   2154          		pTxData[sdCnt++]=(pConfig->devHead[dev].shortAddr&0xFF);
   \                     ??CrossCallReturnLabel_237:
   \   00008F   90....       MOV     DPTR,#pTxData + 3
   \   000092   F0           MOVX    @DPTR,A
   2155          		pTxData[sdCnt++]=0x00;
   \   000093   A3           INC     DPTR
   \   000094   E4           CLR     A
   \   000095   12....       LCALL   ?Subroutine83 & 0xFFFF
   2156          		pTxData[sdCnt++]=pConfig->evtCnt;
   \                     ??CrossCallReturnLabel_466:
   \   000098   90....       MOV     DPTR,#pTxData + 5
   \   00009B   12....       LCALL   ?Subroutine167 & 0xFFFF
   2157          		pTxData[sdCnt++]=(pConfig->totalDev>0)?pConfig->totalDev:1;
   \                     ??CrossCallReturnLabel_322:
   \   00009E   12....       LCALL   ??Subroutine277_0 & 0xFFFF
   \                     ??CrossCallReturnLabel_468:
   \   0000A1   90....       MOV     DPTR,#pTxData + 6
   \   0000A4   7002         JNZ     ??VeriAndAllocID_9
   \   0000A6   7401         MOV     A,#0x1
   \                     ??VeriAndAllocID_9:
   \   0000A8   12....       LCALL   ?Subroutine50 & 0xFFFF
   2158          		pTxData[sdCnt++]=pConfig->mstRcd+1;
   \                     ??CrossCallReturnLabel_78:
   \   0000AB   90....       MOV     DPTR,#pTxData + 7
   \   0000AE   12....       LCALL   ?Subroutine105 & 0xFFFF
   2159          		pTxData[sdCnt++]=((1<<pConfig->slvRcd)-1)&0xFF;
   \                     ??CrossCallReturnLabel_181:
   \   0000B1   88..         MOV     ?V0 + 0,R0
   \   0000B3   75..01       MOV     ?V0 + 2,#0x1
   \   0000B6   75..00       MOV     ?V0 + 3,#0x0
   \   0000B9   8882         MOV     DPL,R0
   \   0000BB   F583         MOV     DPH,A
   \   0000BD   E0           MOVX    A,@DPTR
   \   0000BE   78..         MOV     R0,#?V0 + 2
   \   0000C0   12....       LCALL   ?S_SHL
   \   0000C3   E5..         MOV     A,?V0 + 2
   \   0000C5   14           DEC     A
   \   0000C6   90....       MOV     DPTR,#pTxData + 8
   \   0000C9   12....       LCALL   ??Subroutine327_0 & 0xFFFF
   2160          		pTxData[sdCnt++]=0x00;
   2161          		pTxData[sdCnt++]=pConfig->slvRcd;
   \                     ??CrossCallReturnLabel_731:
   \   0000CC   85..82       MOV     DPL,?V0 + 0
   \   0000CF   8983         MOV     DPH,R1
   \   0000D1   E0           MOVX    A,@DPTR
   \   0000D2   90....       MOV     DPTR,#pTxData + 10
   \   0000D5   12....       LCALL   ?Subroutine140 & 0xFFFF
   2162          		pTxData[sdCnt++]=(0xFF00>>(pConfig->mstRcd+1))&0xFF;	
   \                     ??CrossCallReturnLabel_259:
   \   0000D8   12....       LCALL   ?US_SHR
   \   0000DB   E5..         MOV     A,?V0 + 0
   \   0000DD   90....       MOV     DPTR,#pTxData + 11
   \   0000E0   F0           MOVX    @DPTR,A
   \   0000E1   790C         MOV     R1,#0xc
   2163          		for(cn=0;cn<pConfig->mstRcd;cn++)
   \   0000E3   7800         MOV     R0,#0x0
   \   0000E5   8013         SJMP    ??VeriAndAllocID_10
   2164          		{
   2165          			pTxData[sdCnt++]=0x0E-cn;
   \                     ??VeriAndAllocID_11:
   \   0000E7   740E         MOV     A,#0xe
   \   0000E9   C3           CLR     C
   \   0000EA   98           SUBB    A,R0
   \   0000EB   C0E0         PUSH    A
   \   0000ED   12....       LCALL   ?Subroutine239 & 0xFFFF
   2166          		}	
   \                     ??CrossCallReturnLabel_927:
   \   0000F0   74..         MOV     A,#(pTxData >> 8) & 0xff
   \   0000F2   12....       LCALL   ??Subroutine312_0 & 0xFFFF
   \                     ??CrossCallReturnLabel_617:
   \   0000F5   D0E0         POP     A
   \   0000F7   F0           MOVX    @DPTR,A
   \   0000F8   09           INC     R1
   \   0000F9   08           INC     R0
   \                     ??VeriAndAllocID_10:
   \   0000FA   8C82         MOV     DPL,R4
   \   0000FC   8D83         MOV     DPH,R5
   \   0000FE   E0           MOVX    A,@DPTR
   \   0000FF   FF           MOV     R7,A
   \   000100   E8           MOV     A,R0
   \   000101   C3           CLR     C
   \   000102   9F           SUBB    A,R7
   \   000103   40E2         JC      ??VeriAndAllocID_11
   2167          		//g_sendLen = 12;
   2168          		//macRfSendPacket(NULL, pTxData, sdCnt,pConfig->devHead[dev].extAddr,1);
   2169          		macRfSendPacket(NULL, pTxData, sdCnt,pConfig->devHead[dev].extAddr,1,SEND_MODE_UNSLOTTED);
   \   000105                ; Setup parameters for call to function macRfSendPacket
   \   000105   75..01       MOV     ?V0 + 0,#0x1
   \   000108   78..         MOV     R0,#?V0 + 0
   \   00010A   12....       LCALL   ?PUSH_XSTACK_I_ONE
   \   00010D   78..         MOV     R0,#?V0 + 0
   \   00010F   12....       LCALL   ?PUSH_XSTACK_I_ONE
   \   000112   EA           MOV     A,R2
   \   000113   2410         ADD     A,#0x10
   \   000115   F5..         MOV     ?V0 + 0,A
   \   000117   EB           MOV     A,R3
   \   000118   3400         ADDC    A,#0x0
   \   00011A   F5..         MOV     ?V0 + 1,A
   \   00011C   78..         MOV     R0,#?V0 + 0
   \   00011E   12....       LCALL   ?PUSH_XSTACK_I_TWO
   \   000121   7C..         MOV     R4,#pTxData & 0xff
   \   000123   7D..         MOV     R5,#(pTxData >> 8) & 0xff
   \   000125   7A00         MOV     R2,#0x0
   \   000127   7B00         MOV     R3,#0x0
   \   000129   12....       LCALL   ??macRfSendPacket?relay
   \   00012C   7404         MOV     A,#0x4
   \   00012E   12....       LCALL   ?DEALLOC_XSTACK8
   2170          		txState.ackReceived = TXSTATE_TXACKDONE_WAIT;
   \   000131   90....       MOV     DPTR,#txState + 1
   \   000134   E4           CLR     A
   \   000135   F0           MOVX    @DPTR,A
   2171          		devRsv = dev;
   \   000136   EE           MOV     A,R6
   \   000137   90....       MOV     DPTR,#??devRsv
   \   00013A   F0           MOVX    @DPTR,A
   2172          		waitAckFlag = 1;
   \   00013B   90....       MOV     DPTR,#??waitAckFlag
   \   00013E   7401         MOV     A,#0x1
   \   000140   F0           MOVX    @DPTR,A
   2173          		veriPckSendCallback = &VeriAndAllocID;
   \   000141   12....       LCALL   ?Subroutine136 & 0xFFFF
   2174          		osal_start_timerEx(macEx_taskId, MACEX_VERI_SEND_INQURE,3+(osal_rand()&0x03));
   2175          		//osal_start_timerEx(macEx_taskId, MACEX_VERI_SEND_INQURE,3);
   2176          	}
   \                     ??CrossCallReturnLabel_247:
   \   000144   FC           MOV     R4,A
   \                     ??VeriAndAllocID_4:
   \   000145   7D00         MOV     R5,#0x0
   \   000147   7A02         MOV     R2,#0x2
   \                     ??VeriAndAllocID_8:
   \   000149   02....       LJMP    ?Subroutine5 & 0xFFFF
   2177          }

   \                                 In  segment BANKED_CODE, align 1, keep-with-next
   \                     ?Subroutine135:
   \   000000   12....       LCALL   ?Subroutine230 & 0xFFFF
   \                     ??CrossCallReturnLabel_396:
   \   000003   E0           MOVX    A,@DPTR
   \   000004   22           RET

   \                                 In  segment BANKED_CODE, align 1, keep-with-next
   \                     ?Subroutine174:
   \   000000   540F         ANL     A,#0xf
   \   000002   243C         ADD     A,#0x3c
   \   000004   FC           MOV     R4,A
   \   000005   7D00         MOV     R5,#0x0
   \   000007   7A20         MOV     R2,#0x20
   \   000009   22           RET

   \                                 In  segment XDATA_Z, align 1, keep-with-next
   \                     ??devRsv:
   \   000000                DS 1
   \   000001                REQUIRE __INIT_XDATA_Z

   \                                 In  segment XDATA_Z, align 1, keep-with-next
   \                     ??waitAckFlag:
   \   000000                DS 1
   \   000001                REQUIRE __INIT_XDATA_Z
   2178          
   2179          
   2180          #ifndef SEND_UNIFIED
   2181          MAC_DATAREQ_API static void LinkedModeShortAddrAlloc(macRx_t* pck)
   2182          {
   2183          	pConfig->frameHead = 0x8C21;
   2184          	pConfig->destAddr = 0xffff;
   2185          	pTxData[0]=0x96;
   2186          	pTxData[1]=0x00;
   2187          	pTxData[2]=0x0E-(pCurrentDev->shortAddr&0xFF);
   2188          	pTxData[3]=pTxData[2];
   2189          	pTxData[4]=0x00;
   2190          	pTxData[5]=(pCurrentDev->shortAddr&0xFF)+1;
   2191          	pTxData[6] = pTxData[5];
   2192          	pTxData[7] = 0x02;
   2193          	pTxData[8] = 0x00;
   2194          	pTxData[9]=0x00;
   2195          	pTxData[10]= 0x00;
   2196          	pTxData[11]=0xC0;	
   2197          	pTxData[12]=0x0E;
   2198          	g_sendLen = 13;
   2199          	//macRfSendPacket(pConfig->destAddr, pTxData, g_sendLen,1);
   2200          	macRfSendPacket(pConfig->destAddr, pTxData, g_sendLen,1,SEND_MODE_UNSLOTTED);
   2201          #ifdef SEND_UNIFIED
   2202          	veriPckSendCallback = &macRollPolingProc;
   2203          #else
   2204          	veriPckSendCallback = &LinkedModeRollPoling;
   2205          #endif
   2206          	osal_start_timerEx(macEx_taskId, MACEX_VERI_SEND_INQURE,5);
   2207          }
   2208          #endif
   2209          
   2210          #ifndef SEND_UNIFIED
   2211          MAC_DATAREQ_API static void LinkModeResp(macRx_t* pck)
   2212          {
   2213          	pConfig->frameHead = 0xc821;
   2214          	pConfig->destAddr = 0x000f;
   2215          	pConfig->myAddr = 0xFFFF;//ADDR;			aviod wrong receive
   2216          	//halRfSetShortAddr(pConfig->myAddr);
   2217          	osal_cpyExtAddr(pTxData,g_extAddr);
   2218          	pTxData[8]=0x95;
   2219          	//pTxData[9]=0x02;
   2220          	//pTxData[9]=basicRfConfig.group+2;
   2221          	pTxData[9]=0x01;
   2222          	g_sendLen = 10;
   2223          	//macRfSendPacket(pConfig->destAddr, pTxData, g_sendLen,0);
   2224          	macRfSendPacket(pConfig->destAddr, pTxData, g_sendLen,0,SEND_MODE_UNSLOTTED);
   2225          	pConfig->myAddr = 0xFFFE;//ADDR;			aviod wrong receive
   2226          	MAC_RADIO_SET_SHORT_ADDR(pConfig->myAddr);
   2227          	veriPckSendCallback = NULL;
   2228          	osal_start_timerEx(macEx_taskId, MACEX_LINK_TIMEOUT_EVENT,5000);	
   2229          }
   2230          #endif
   2231          
   2232          static bool SearchDevByMac(uint8* extAddr,uint8* devIndex)
   2233          {
   2234          	uint8 dev=0;
   2235          	for(dev=0;dev<DEVICE_TOTAL;dev++)
   2236          	{
   2237          		if(TRUE == osal_ExtAddrEqual(extAddr,pConfig->devHead[dev].extAddr))
   2238          		{
   2239          			*devIndex = dev;
   2240          			return TRUE;
   2241          		}
   2242          	}
   2243          
   2244          	return FALSE;
   2245          }
   2246          

   \                                 In  segment BANKED_CODE, align 1, keep-with-next
   2247          static uint8 MstDevInfoSend(void)
   \                     MstDevInfoSend:
   2248          {
   \   000000   C082         PUSH    DPL
   \   000002   C083         PUSH    DPH
   \   000004                ; Saved register size: 2
   \   000004                ; Auto size: 20
   \   000004   74EC         MOV     A,#-0x14
   \   000006   12....       LCALL   ?ALLOC_XSTACK8
   2249          	uint8 bufIndex=0;
   2250          	//uint8 devSBuf[20];
   2251          	uint8 devSBuf[20]={0};	
   \   000009   85..82       MOV     DPL,?XSP + 0
   \   00000C   85..83       MOV     DPH,?XSP + 1
   \   00000F   AC82         MOV     R4,DPL
   \   000011   AD83         MOV     R5,DPH
   \   000013   7583..       MOV     DPH,#(`?<Constant {0}>` >> 8) & 0xff
   \   000016   7582..       MOV     DPL,#`?<Constant {0}>` & 0xff
   \   000019   7414         MOV     A,#0x14
   \   00001B   12....       LCALL   ?MOVE_LONG8_XDATA_XDATA
   2252          
   2253          	bufIndex = 0;
   2254          	devSBuf[bufIndex++] = 0xAA;			//
   \   00001E   85..82       MOV     DPL,?XSP + 0
   \   000021   85..83       MOV     DPH,?XSP + 1
   \   000024   74AA         MOV     A,#-0x56
   \   000026   F0           MOVX    @DPTR,A
   2255          	devSBuf[bufIndex++] = 7;	
   \   000027   7401         MOV     A,#0x1
   \   000029   12....       LCALL   ?XSTACK_DISP0_8
   \   00002C   7407         MOV     A,#0x7
   \   00002E   F0           MOVX    @DPTR,A
   2256          	devSBuf[bufIndex++] = UART_CC_DEV;//SAI_INFO_HEAD;//0xA2;				
   \   00002F   7402         MOV     A,#0x2
   \   000031   12....       LCALL   ?XSTACK_DISP0_8
   \   000034   12....       LCALL   ?Subroutine53 & 0xFFFF
   2257          
   2258          	devSBuf[bufIndex++] = pConfig->arrCnt[0];
   \                     ??CrossCallReturnLabel_548:
   \   000037   C0E0         PUSH    A
   \   000039   7403         MOV     A,#0x3
   \   00003B   12....       LCALL   ?XSTACK_DISP0_8
   \   00003E   D0E0         POP     A
   \   000040   12....       LCALL   ??Subroutine300_0 & 0xFFFF
   2259          	devSBuf[bufIndex++] = pConfig->arrCnt[1];
   \                     ??CrossCallReturnLabel_565:
   \   000043   2403         ADD     A,#0x3
   \   000045   12....       LCALL   ??Subroutine298_0 & 0xFFFF
   \                     ??CrossCallReturnLabel_553:
   \   000048   C0E0         PUSH    A
   \   00004A   7404         MOV     A,#0x4
   \   00004C   12....       LCALL   ?XSTACK_DISP0_8
   \   00004F   D0E0         POP     A
   \   000051   12....       LCALL   ??Subroutine300_0 & 0xFFFF
   2260          	devSBuf[bufIndex++] = pConfig->arrCnt[2];
   \                     ??CrossCallReturnLabel_566:
   \   000054   2404         ADD     A,#0x4
   \   000056   12....       LCALL   ??Subroutine298_0 & 0xFFFF
   \                     ??CrossCallReturnLabel_554:
   \   000059   C0E0         PUSH    A
   \   00005B   7405         MOV     A,#0x5
   \   00005D   12....       LCALL   ?XSTACK_DISP0_8
   \   000060   D0E0         POP     A
   \   000062   12....       LCALL   ?Subroutine147 & 0xFFFF
   2261          	devSBuf[bufIndex++] = pConfig->arrCnt[3];
   \                     ??CrossCallReturnLabel_276:
   \   000065   12....       LCALL   ??Subroutine298_0 & 0xFFFF
   \                     ??CrossCallReturnLabel_555:
   \   000068   C0E0         PUSH    A
   \   00006A   7406         MOV     A,#0x6
   \   00006C   12....       LCALL   ?XSTACK_DISP0_8
   \   00006F   D0E0         POP     A
   \   000071   12....       LCALL   ??Subroutine300_0 & 0xFFFF
   2262          	devSBuf[bufIndex++] = pConfig->arrCnt[4];
   \                     ??CrossCallReturnLabel_567:
   \   000074   2406         ADD     A,#0x6
   \   000076   12....       LCALL   ??Subroutine298_0 & 0xFFFF
   \                     ??CrossCallReturnLabel_556:
   \   000079   C0E0         PUSH    A
   \   00007B   7407         MOV     A,#0x7
   \   00007D   12....       LCALL   ?XSTACK_DISP0_8
   \   000080   D0E0         POP     A
   \   000082   F0           MOVX    @DPTR,A
   2263          
   2264          	devSBuf[bufIndex++] = CalcSum(devSBuf+2,6);
   \   000083                ; Setup parameters for call to function CalcSum
   \   000083   7906         MOV     R1,#0x6
   \   000085   7402         MOV     A,#0x2
   \   000087   12....       LCALL   ?XSTACK_DISP0_8
   \   00008A   AA82         MOV     R2,DPL
   \   00008C   AB83         MOV     R3,DPH
   \   00008E   12....       LCALL   ??CalcSum?relay
   \   000091   7408         MOV     A,#0x8
   \   000093   12....       LCALL   ?XSTACK_DISP0_8
   \   000096   E9           MOV     A,R1
   \   000097   F0           MOVX    @DPTR,A
   2265          	
   2266          	UartBulkSend(devSBuf,bufIndex);
   \   000098                ; Setup parameters for call to function UartBulkSend
   \   000098   7909         MOV     R1,#0x9
   \   00009A   85..82       MOV     DPL,?XSP + 0
   \   00009D   85..83       MOV     DPH,?XSP + 1
   \   0000A0   AA82         MOV     R2,DPL
   \   0000A2   AB83         MOV     R3,DPH
   \   0000A4   12....       LCALL   ??UartBulkSend?relay
   2267          	
   2268          }
                 ^
Warning[Pe940]: missing return statement at end of non-void function
          "MstDevInfoSend"
   \   0000A7   7414         MOV     A,#0x14
   \   0000A9                REQUIRE ?Subroutine6
   \   0000A9                ; // Fall through to label ?Subroutine6

   \                                 In  segment BANKED_CODE, align 1, keep-with-next
   \                     ?Subroutine6:
   \   000000   12....       LCALL   ?DEALLOC_XSTACK8
   \   000003   80..         SJMP    ??Subroutine299_0

   \                                 In  segment BANKED_CODE, align 1, keep-with-next
   \                     ?Subroutine53:
   \   000000   74C1         MOV     A,#-0x3f
   \   000002   12....       LCALL   ?Subroutine221 & 0xFFFF
   \                     ??CrossCallReturnLabel_870:
   \   000005   2402         ADD     A,#0x2
   \   000007                REQUIRE ??Subroutine298_0
   \   000007                ; // Fall through to label ??Subroutine298_0
   2269          

   \                                 In  segment BANKED_CODE, align 1, keep-with-next
   2270          static uint8 MstDevInfoSendEx(uint8 gr, uint8 isReady)
   \                     MstDevInfoSendEx:
   2271          {
   \   000000   74F7         MOV     A,#-0x9
   \   000002   12....       LCALL   ?BANKED_ENTER_XDATA
   \   000005                ; Saved register size: 9
   \   000005                ; Auto size: 20
   \   000005   74EC         MOV     A,#-0x14
   \   000007   12....       LCALL   ?ALLOC_XSTACK8
   \   00000A   E9           MOV     A,R1
   \   00000B   FE           MOV     R6,A
   2272          	uint8 bufIndex=0;
   2273          	//uint8 devSBuf[20];
   2274          	uint8 devSBuf[20]={0};	
   \   00000C   85..82       MOV     DPL,?XSP + 0
   \   00000F   85..83       MOV     DPH,?XSP + 1
   \   000012   AC82         MOV     R4,DPL
   \   000014   AD83         MOV     R5,DPH
   \   000016   7583..       MOV     DPH,#(`?<Constant {0}>_1` >> 8) & 0xff
   \   000019   7582..       MOV     DPL,#`?<Constant {0}>_1` & 0xff
   \   00001C   7414         MOV     A,#0x14
   \   00001E   12....       LCALL   ?MOVE_LONG8_XDATA_XDATA
   2275          
   2276          	bufIndex = 0;
   2277          	devSBuf[bufIndex++] = 0xAA;			//
   \   000021   85..82       MOV     DPL,?XSP + 0
   \   000024   85..83       MOV     DPH,?XSP + 1
   \   000027   74AA         MOV     A,#-0x56
   \   000029   F0           MOVX    @DPTR,A
   2278          	devSBuf[bufIndex++] = 7+3;	
   \   00002A   7401         MOV     A,#0x1
   \   00002C   12....       LCALL   ?XSTACK_DISP0_8
   \   00002F   740A         MOV     A,#0xa
   \   000031   F0           MOVX    @DPTR,A
   2279          	devSBuf[bufIndex++] = UART_CC_DEV;//SAI_INFO_HEAD;//0xA2;				
   \   000032   7402         MOV     A,#0x2
   \   000034   12....       LCALL   ?XSTACK_DISP0_8
   \   000037   12....       LCALL   ?Subroutine53 & 0xFFFF
   2280          
   2281          	devSBuf[bufIndex++] = pConfig->arrCnt[0];
   \                     ??CrossCallReturnLabel_549:
   \   00003A   C0E0         PUSH    A
   \   00003C   7403         MOV     A,#0x3
   \   00003E   12....       LCALL   ?XSTACK_DISP0_8
   \   000041   D0E0         POP     A
   \   000043   12....       LCALL   ??Subroutine300_0 & 0xFFFF
   2282          	devSBuf[bufIndex++] = pConfig->arrCnt[1];
   \                     ??CrossCallReturnLabel_568:
   \   000046   2403         ADD     A,#0x3
   \   000048   12....       LCALL   ??Subroutine298_0 & 0xFFFF
   \                     ??CrossCallReturnLabel_557:
   \   00004B   C0E0         PUSH    A
   \   00004D   7404         MOV     A,#0x4
   \   00004F   12....       LCALL   ?XSTACK_DISP0_8
   \   000052   D0E0         POP     A
   \   000054   12....       LCALL   ??Subroutine300_0 & 0xFFFF
   2283          	devSBuf[bufIndex++] = pConfig->arrCnt[2];
   \                     ??CrossCallReturnLabel_569:
   \   000057   2404         ADD     A,#0x4
   \   000059   12....       LCALL   ??Subroutine298_0 & 0xFFFF
   \                     ??CrossCallReturnLabel_558:
   \   00005C   C0E0         PUSH    A
   \   00005E   7405         MOV     A,#0x5
   \   000060   12....       LCALL   ?XSTACK_DISP0_8
   \   000063   D0E0         POP     A
   \   000065   12....       LCALL   ?Subroutine147 & 0xFFFF
   2284          	devSBuf[bufIndex++] = pConfig->arrCnt[3];
   \                     ??CrossCallReturnLabel_277:
   \   000068   12....       LCALL   ??Subroutine298_0 & 0xFFFF
   \                     ??CrossCallReturnLabel_559:
   \   00006B   C0E0         PUSH    A
   \   00006D   7406         MOV     A,#0x6
   \   00006F   12....       LCALL   ?XSTACK_DISP0_8
   \   000072   D0E0         POP     A
   \   000074   12....       LCALL   ??Subroutine300_0 & 0xFFFF
   2285          	devSBuf[bufIndex++] = pConfig->arrCnt[4];
   \                     ??CrossCallReturnLabel_570:
   \   000077   2406         ADD     A,#0x6
   \   000079   12....       LCALL   ??Subroutine298_0 & 0xFFFF
   \                     ??CrossCallReturnLabel_560:
   \   00007C   C0E0         PUSH    A
   \   00007E   7407         MOV     A,#0x7
   \   000080   12....       LCALL   ?XSTACK_DISP0_8
   \   000083   D0E0         POP     A
   \   000085   F0           MOVX    @DPTR,A
   2286          
   2287          	devSBuf[bufIndex++] = UART_CC_READY;
   \   000086   7408         MOV     A,#0x8
   \   000088   12....       LCALL   ?XSTACK_DISP0_8
   \   00008B   74C2         MOV     A,#-0x3e
   \   00008D   F0           MOVX    @DPTR,A
   2288          	devSBuf[bufIndex++] = gr;
   \   00008E   7409         MOV     A,#0x9
   \   000090   12....       LCALL   ?XSTACK_DISP0_8
   \   000093   EE           MOV     A,R6
   \   000094   F0           MOVX    @DPTR,A
   2289          	devSBuf[bufIndex++] = isReady;
   \   000095   740A         MOV     A,#0xa
   \   000097   12....       LCALL   ?XSTACK_DISP0_8
   \   00009A   EA           MOV     A,R2
   \   00009B   F0           MOVX    @DPTR,A
   2290          
   2291          	devSBuf[bufIndex++] = CalcSum(devSBuf+2,6+3);
   \   00009C                ; Setup parameters for call to function CalcSum
   \   00009C   7909         MOV     R1,#0x9
   \   00009E   7402         MOV     A,#0x2
   \   0000A0   12....       LCALL   ?XSTACK_DISP0_8
   \   0000A3   AA82         MOV     R2,DPL
   \   0000A5   AB83         MOV     R3,DPH
   \   0000A7   12....       LCALL   ??CalcSum?relay
   \   0000AA   740B         MOV     A,#0xb
   \   0000AC   12....       LCALL   ?XSTACK_DISP0_8
   \   0000AF   E9           MOV     A,R1
   \   0000B0   F0           MOVX    @DPTR,A
   2292          	
   2293          	UartBulkSend(devSBuf,bufIndex);
   \   0000B1                ; Setup parameters for call to function UartBulkSend
   \   0000B1   790C         MOV     R1,#0xc
   \   0000B3   85..82       MOV     DPL,?XSP + 0
   \   0000B6   85..83       MOV     DPH,?XSP + 1
   \   0000B9   AA82         MOV     R2,DPL
   \   0000BB   AB83         MOV     R3,DPH
   \   0000BD   12....       LCALL   ??UartBulkSend?relay
   2294          }
                 ^
Warning[Pe940]: missing return statement at end of non-void function
          "MstDevInfoSendEx"
   \   0000C0   7414         MOV     A,#0x14
   \   0000C2   12....       LCALL   ?DEALLOC_XSTACK8
   \   0000C5                REQUIRE ?Subroutine2
   \   0000C5                ; // Fall through to label ?Subroutine2
   2295          
   2296          //UartSctSend(UART_CC_READY, pConfig->devHead[pDevice].group, pConfig->devHead[pDevice].ready);
   2297          
   2298          /*
   2299          static bool SetStateByMac(uint8* extAddr,uint8 state)
   2300          {
   2301          	uint8 dev=0;
   2302          	for(dev=0;dev<DEVICE_TOTAL;dev++)
   2303          	{
   2304          		if(TRUE == osal_ExtAddrEqual(extAddr,pConfig->devHead[dev].extAddr))
   2305          		{
   2306          			pConfig->devHead[dev].veriFlag = state;
   2307          			return TRUE;
   2308          		}
   2309          	}
   2310          
   2311          	return FALSE;
   2312          }*/
   2313          
   2314          //pRxBuf->mac.dstAddr.addr.extAddr

   \                                 In  segment BANKED_CODE, align 1, keep-with-next
   2315          static void MstVerifyProc(macRx_t *payload)
   \                     MstVerifyProc:
   2316          {
   \   000000   74F0         MOV     A,#-0x10
   \   000002   12....       LCALL   ?BANKED_ENTER_XDATA
   \   000005                ; Saved register size: 16
   \   000005                ; Auto size: 0
   \   000005   EA           MOV     A,R2
   \   000006   FE           MOV     R6,A
   \   000007   EB           MOV     A,R3
   \   000008   FF           MOV     R7,A
   2317          	static uint8 relCmdCnt=0; 
   2318          	static uint8 slaCmdRel=0;
   2319          	static uint8 slaCmdModel=0;
   2320          	static uint8 slaCmdTest=0;
   2321          	//static uint8 veriFlag=0;
   2322          	//static uint8 quireFlag=0;
   2323          	//static uint16 rsvAddr;
   2324          	//static uint8 readyFlag=0;
   2325          	//DeviceInfo *pDev;
   2326          	uint8 pDev=0;
   \   000009   75..00       MOV     ?V0 + 4,#0x0
   2327          
   2328          	//if((veriFlag>0)&&((payload->msdu.p[0]!=0x9c)||(rsvAddr!=payload->mac.srcAddr.addr.shortAddr)))
   2329          	//{
   2330          	//	veriFlag = 0;
   2331          	//}
   2332          
   2333          	//if((quireFlag>0)&&(payload->msdu.p[0]!=0x91))
   2334          	//{
   2335          	//	quireFlag = 0;
   2336          	//}
   2337          	//if((g_quireFlag>0)&&(payload->msdu.p[0]!=0x91))
   2338          	//{
   2339          	//	g_quireFlag = 0;
   2340          	//}
   2341          
   2342          	//rsvAddr = payload->mac.srcAddr.addr.shortAddr;
   2343          
   2344          	switch(payload->msdu.p[0])
   \   00000C   EE           MOV     A,R6
   \   00000D   2402         ADD     A,#0x2
   \   00000F   F5..         MOV     ?V0 + 2,A
   \   000011   EF           MOV     A,R7
   \   000012   3400         ADDC    A,#0x0
   \   000014   F5..         MOV     ?V0 + 3,A
   \   000016   85..82       MOV     DPL,?V0 + 2
   \   000019   F583         MOV     DPH,A
   \   00001B   12....       LCALL   ?Subroutine93 & 0xFFFF
   \                     ??CrossCallReturnLabel_147:
   \   00001E   FA           MOV     R2,A
   \   00001F   E9           MOV     A,R1
   \   000020   FB           MOV     R3,A
   \   000021   EE           MOV     A,R6
   \   000022   2412         ADD     A,#0x12
   \   000024   F5..         MOV     ?V0 + 0,A
   \   000026   EF           MOV     A,R7
   \   000027   3400         ADDC    A,#0x0
   \   000029   F5..         MOV     ?V0 + 1,A
   \   00002B   8A82         MOV     DPL,R2
   \   00002D   8B83         MOV     DPH,R3
   \   00002F   E0           MOVX    A,@DPTR
   \   000030   24FC         ADD     A,#-0x4
   \   000032   7003         JNZ     $+5
   \   000034   02....       LJMP    ??MstVerifyProc_0 & 0xFFFF
   \   000037   14           DEC     A
   \   000038   7003         JNZ     $+5
   \   00003A   02....       LJMP    ??MstVerifyProc_1 & 0xFFFF
   \   00003D   14           DEC     A
   \   00003E   7003         JNZ     $+5
   \   000040   02....       LJMP    ??MstVerifyProc_2 & 0xFFFF
   \   000043   2475         ADD     A,#0x75
   \   000045   6027         JZ      ??MstVerifyProc_3
   \   000047   14           DEC     A
   \   000048   7003         JNZ     $+5
   \   00004A   02....       LJMP    ??MstVerifyProc_4 & 0xFFFF
   \   00004D   24FD         ADD     A,#-0x3
   \   00004F   603A         JZ      ??MstVerifyProc_5
   \   000051   24FE         ADD     A,#-0x2
   \   000053   7003         JNZ     $+5
   \   000055   02....       LJMP    ??MstVerifyProc_6 & 0xFFFF
   \   000058   24FD         ADD     A,#-0x3
   \   00005A   7003         JNZ     $+5
   \   00005C   02....       LJMP    ??MstVerifyProc_7 & 0xFFFF
   \   00005F   14           DEC     A
   \   000060   7003         JNZ     $+5
   \   000062   02....       LJMP    ??MstVerifyProc_8 & 0xFFFF
   \   000065   14           DEC     A
   \   000066   7003         JNZ     $+5
   \   000068   02....       LJMP    ??MstVerifyProc_9 & 0xFFFF
   \   00006B   02....       LJMP    ??CrossCallReturnLabel_825 & 0xFFFF
   2345          	{
   2346          		case 0x91:
   2347          		//if((pConfig->panId+0x3000)==MAKEWORD(payload->msdu.p[2], payload->msdu.p[1]))
   2348          		//if(!quireFlag)
   2349          		if(ALLOC_SUCCESS==macMallocNewDev(payload->mac.srcAddr.addr.extAddr))
   \                     ??MstVerifyProc_3:
   \   00006E                ; Setup parameters for call to function macMallocNewDev
   \   00006E   AA..         MOV     R2,?V0 + 0
   \   000070   AB..         MOV     R3,?V0 + 1
   \   000072   12....       LCALL   ??macMallocNewDev?relay
   \   000075   E9           MOV     A,R1
   \   000076   6003         JZ      $+5
   \   000078   02....       LJMP    ??CrossCallReturnLabel_825 & 0xFFFF
   2350          		{
   2351          			veriPckSendCallback = &VerfiInqure;
   \   00007B   90....       MOV     DPTR,#veriPckSendCallback
   \   00007E   74..         MOV     A,#??VerfiInqure?relay & 0xff
   \   000080   F0           MOVX    @DPTR,A
   \   000081   A3           INC     DPTR
   \   000082   74..         MOV     A,#(??VerfiInqure?relay >> 8) & 0xff
   2352          			//osal_start_timerEx(macEx_taskId, MACEX_VERI_SEND_INQURE, 5);
   2353          			//osal_start_timerEx(macEx_taskId, MACEX_VERI_SEND_INQURE, 3+(osal_rand()&0x03));
   2354          			osal_start_timerEx(macEx_taskId, MACEX_VERI_SEND_INQURE, 5+(osal_rand()&0x03));
   2355          		}
   \                     ??MstVerifyProc_10:
   \   000084   12....       LCALL   ?Subroutine133 & 0xFFFF
   \                     ??CrossCallReturnLabel_233:
   \   000087   FC           MOV     R4,A
   \   000088   02....       LJMP    ??CrossCallReturnLabel_272 & 0xFFFF
   2356          		/*
   2357          		if(!g_quireFlag)
   2358          		{
   2359          			//quireFlag = 1;
   2360          			g_quireFlag = 1;
   2361          			macMallocNewDev(payload->mac.srcAddr.addr.extAddr);
   2362          			veriPckSendCallback = &VerfiInqure;
   2363          			osal_start_timerEx( macEx_taskId, MACEX_VERI_SEND_INQURE, 5);
   2364          			//VerfiInqure();
   2365          		}*/
   2366          		break;
   2367          
   2368          		case 0x95:
   2369          		//if(TRUE==osal_ExtAddrEqual(pCurrentDev->extAddr,payload->mac.srcAddr.addr.extAddr))
   2370          		if(TRUE==SearchDevByMac(payload->mac.srcAddr.addr.extAddr,&pDev))
   \                     ??MstVerifyProc_5:
   \   00008B   75..00       MOV     ?V0 + 5,#0x0
   \                     ??MstVerifyProc_11:
   \   00008E   E5..         MOV     A,?V0 + 5
   \   000090   75F00F       MOV     B,#0xf
   \   000093   A4           MUL     AB
   \   000094   FE           MOV     R6,A
   \   000095   AFF0         MOV     R7,B
   \   000097                ; Setup parameters for call to function sAddrExtCmp
   \   000097   12....       LCALL   ?Subroutine102 & 0xFFFF
   \                     ??CrossCallReturnLabel_173:
   \   00009A   2410         ADD     A,#0x10
   \   00009C   FC           MOV     R4,A
   \   00009D   E9           MOV     A,R1
   \   00009E   3400         ADDC    A,#0x0
   \   0000A0   FD           MOV     R5,A
   \   0000A1   AA..         MOV     R2,?V0 + 0
   \   0000A3   AB..         MOV     R3,?V0 + 1
   \   0000A5   12....       LCALL   ??sAddrExtCmp?relay
   \   0000A8   E9           MOV     A,R1
   \   0000A9   6401         XRL     A,#0x1
   \   0000AB   703F         JNZ     ??MstVerifyProc_12
   2371          		{
   2372          			//pCurrentDev->group = payload->msdu.p[1]-2;
   2373          
   2374          			pConfig->devHead[pDev].veriFlag = DEVICE_WAITIP;
   \   0000AD   12....       LCALL   ?Subroutine102 & 0xFFFF
   \                     ??CrossCallReturnLabel_174:
   \   0000B0   12....       LCALL   ?Subroutine131 & 0xFFFF
   \                     ??CrossCallReturnLabel_228:
   \   0000B3   E9           MOV     A,R1
   \   0000B4   12....       LCALL   ??Subroutine312_0 & 0xFFFF
   \                     ??CrossCallReturnLabel_618:
   \   0000B7   7403         MOV     A,#0x3
   \   0000B9   F0           MOVX    @DPTR,A
   2375          
   2376          			g_devCheck.checkTurn = 0;
   \   0000BA   90....       MOV     DPTR,#g_devCheck
   \   0000BD   E4           CLR     A
   \   0000BE   F0           MOVX    @DPTR,A
   \   0000BF   A3           INC     DPTR
   \   0000C0   F0           MOVX    @DPTR,A
   2377          
   2378          #ifdef DEBUG_TRACE
   2379          			Printf("checkTurn: %d\r\n",g_devCheck.checkTurn);
   2380          #endif
   2381          			
   2382          			while(g_devCheck.checkTurn<DEVICE_TOTAL)
   2383          			{
   2384          #ifdef DEBUG_TRACE
   2385          				Printf("%d,%d\r\n",g_devCheck.checkTurn,pConfig->devHead[g_devCheck.checkTurn].veriFlag);
   2386          #endif
   2387          				if(DEVICE_VERIFIED==pConfig->devHead[g_devCheck.checkTurn].veriFlag)
   \                     ??MstVerifyProc_13:
   \   0000C1   12....       LCALL   ??Subroutine296_0 & 0xFFFF
   \                     ??CrossCallReturnLabel_532:
   \   0000C4   600B         JZ      ??MstVerifyProc_14
   2388          				{
   2389          					break;
   2390          				}
   2391          				g_devCheck.checkTurn++;
   \   0000C6   90....       MOV     DPTR,#g_devCheck
   \   0000C9   12....       LCALL   ??Subroutine270_0 & 0xFFFF
   2392          			}
   \                     ??CrossCallReturnLabel_439:
   \   0000CC   12....       LCALL   ?Subroutine49 & 0xFFFF
   \                     ??CrossCallReturnLabel_73:
   \   0000CF   40F0         JC      ??MstVerifyProc_13
   2393          			
   2394          #ifdef DEBUG_TRACE
   2395          			Printf("checkTurn: %d\r\n",g_devCheck.checkTurn);
   2396          #endif
   2397          			
   2398          
   2399          			//if(pConfig->totalDev>0)
   2400          			if(g_devCheck.checkTurn<DEVICE_TOTAL)
   \                     ??MstVerifyProc_14:
   \   0000D1   12....       LCALL   ?Subroutine100 & 0xFFFF
   \                     ??CrossCallReturnLabel_168:
   \   0000D4   F8           MOV     R0,A
   \   0000D5   E9           MOV     A,R1
   \   0000D6   3400         ADDC    A,#0x0
   \   0000D8   F9           MOV     R1,A
   \   0000D9   12....       LCALL   ?Subroutine49 & 0xFFFF
   \                     ??CrossCallReturnLabel_74:
   \   0000DC   5023         JNC     ??MstVerifyProc_15
   2401          			{
   2402          				g_devCheck.checkCount = 0;
   \   0000DE   12....       LCALL   ?Subroutine139 & 0xFFFF
   2403          				//g_devCheck.checkTurn = 0;
   2404          				//g_devCheck.pChk = pConfig->devHead;
   2405          				//g_devCheck.pChk = 0;
   2406          #ifdef DEBUG_TRACE
   2407          				Printf("CHK DEV: %d\r\n",pConfig->devHead->shortAddr);
   2408          #endif
   2409          				veriPckSendCallback = &CheckEachDeviceAlloc;
   \                     ??CrossCallReturnLabel_256:
   \   0000E1   F0           MOVX    @DPTR,A
   2410          
   2411          				//if(0x01==pCurrentDev->group)
   2412          				if(0x01== payload->msdu.p[1])
   \   0000E2   12....       LCALL   ?Subroutine68 & 0xFFFF
   \                     ??CrossCallReturnLabel_100:
   \   0000E5   7013         JNZ     ??MstVerifyProc_16
   2413          				{
   2414          					//pCurrentDev->attribute = DEVICE_ATTRIBUTE_MAST;
   2415          					pConfig->devHead[pDev].attribute = DEVICE_ATTRIBUTE_MAST;
   \   0000E7   12....       LCALL   ?Subroutine28 & 0xFFFF
   2416          					pConfig->mstRcd++;
   2417          					//pCurrentDev->group = 0x0F;
   2418          					pConfig->devHead[pDev].group = 0x0F;
   2419          				}else
   \                     ??CrossCallReturnLabel_37:
   \   0000EA   8098         SJMP    ??MstVerifyProc_10
   \                     ??MstVerifyProc_12:
   \   0000EC   05..         INC     ?V0 + 5
   \   0000EE   E5..         MOV     A,?V0 + 5
   \   0000F0   C3           CLR     C
   \   0000F1   940F         SUBB    A,#0xf
   \   0000F3   4003         JC      $+5
   \   0000F5   02....       LJMP    ??CrossCallReturnLabel_825 & 0xFFFF
   \   0000F8   8094         SJMP    ??MstVerifyProc_11
   2420          				{
   2421          					//pCurrentDev->attribute = DEVICE_ATTRIBUTE_SLAVE;
   2422          					pConfig->devHead[pDev].attribute = DEVICE_ATTRIBUTE_SLAVE;
   \                     ??MstVerifyProc_16:
   \   0000FA   E4           CLR     A
   \   0000FB   F0           MOVX    @DPTR,A
   2423          					//pConfig->idInGroup[pCurrentDev->shortAddr] = payload->msdu.p[1]-2;    //2014/10/29
   2424          					//pConfig->arrCnt[payload->msdu.p[1]-2]++;							//2014/10/29
   2425          					pConfig->slvRcd++;
   \   0000FC   12....       LCALL   ?Subroutine52 & 0xFFFF
   2426          					g_grInfo = 1;
   2427          					//pCurrentDev->group = payload->msdu.p[1]-2;						//2014/10/29
   2428          					//UartSctSend(UART_CC_DEV,pCurrentDev->group,pConfig->arrCnt[pCurrentDev->group]);  //2014/10/29
   2429          				}
   2430          				
   2431          				//osal_start_timerEx( macEx_taskId, MACEX_VERI_SEND_INQURE, 5);
   2432          				osal_start_timerEx( macEx_taskId, MACEX_VERI_SEND_INQURE, 5+(osal_rand()&0x03));
   2433          			}else
   \                     ??CrossCallReturnLabel_79:
   \   0000FF   8083         SJMP    ??MstVerifyProc_10
   2434          			{
   2435          
   2436          				if(0x01==payload->msdu.p[1])				//the linking device is a master
   \                     ??MstVerifyProc_15:
   \   000101   12....       LCALL   ?Subroutine68 & 0xFFFF
   \                     ??CrossCallReturnLabel_101:
   \   000104   701B         JNZ     ??MstVerifyProc_17
   2437          				{
   2438          					//veriPckSendCallback = &LinkedModeShortAddrAlloc;
   2439          					//pCurrentDev->attribute = DEVICE_ATTRIBUTE_MAST;
   2440          					pConfig->devHead[pDev].attribute = DEVICE_ATTRIBUTE_MAST;
   \   000106   12....       LCALL   ?Subroutine28 & 0xFFFF
   2441          					pConfig->mstRcd++;
   2442          					//pCurrentDev->group = 0x0F;
   2443          					pConfig->devHead[pDev].group = 0x0F;
   \                     ??CrossCallReturnLabel_38:
   \   000109   F0           MOVX    @DPTR,A
   2444          					//pCurrentDev->shortAddr = 0x0E-FirstCheckAndAlloc();
   2445          					//pCurrentDev->shortAddr = ipRsv.mst;
   2446          					pConfig->devHead[pDev].shortAddr = ipRsv.mst;
   \   00010A   90....       MOV     DPTR,#ipRsv
   \   00010D   12....       LCALL   ??Subroutine320_0 & 0xFFFF
   \                     ??CrossCallReturnLabel_668:
   \   000110   12....       LCALL   ??Subroutine294_0 & 0xFFFF
   2447          					pConfig->isIdOccupied[ipRsv.mst] = 1;
   \                     ??CrossCallReturnLabel_517:
   \   000113   90....       MOV     DPTR,#ipRsv
   \   000116   12....       LCALL   ?Subroutine21 & 0xFFFF
   2448          					ipRsv.mst--;
   \                     ??CrossCallReturnLabel_20:
   \   000119   12....       LCALL   ?Subroutine112 & 0xFFFF
   2449          					pConfig->evtCnt++;
   2450          					//pConfig->devHead[pDev].veriFlag = DEVICE_WAITIP;
   2451          					//pConfig->totalDev++;
   2452          				}else
   \                     ??CrossCallReturnLabel_194:
   \   00011C   12....       LCALL   ?Subroutine41 & 0xFFFF
   \                     ??CrossCallReturnLabel_901:
   \   00011F   801A         SJMP    ??CrossCallReturnLabel_80
   2453          				{
   2454          					//veriPckSendCallback = &VeriResponse;
   2455          					//pCurrentDev->shortAddr = FirstCheckAndAlloc();
   2456          					//pCurrentDev->shortAddr = ipRsv.sla;
   2457          					pConfig->devHead[pDev].attribute = DEVICE_ATTRIBUTE_SLAVE;
   \                     ??MstVerifyProc_17:
   \   000121   E4           CLR     A
   \   000122   F0           MOVX    @DPTR,A
   2458          					//pConfig->devHead[pDev].veriFlag = DEVICE_WAITIP;
   2459          					pConfig->devHead[pDev].shortAddr = ipRsv.sla;
   \   000123   90....       MOV     DPTR,#ipRsv + 2
   \   000126   12....       LCALL   ??Subroutine320_0 & 0xFFFF
   \                     ??CrossCallReturnLabel_669:
   \   000129   12....       LCALL   ??Subroutine294_0 & 0xFFFF
   2460          					pConfig->isIdOccupied[ipRsv.sla] = 1; 
   \                     ??CrossCallReturnLabel_518:
   \   00012C   90....       MOV     DPTR,#ipRsv + 2
   \   00012F   12....       LCALL   ?Subroutine21 & 0xFFFF
   2461          					ipRsv.sla++;
   \                     ??CrossCallReturnLabel_21:
   \   000132   12....       LCALL   ?Subroutine71 & 0xFFFF
   2462          					pConfig->evtCnt++;
   \                     ??CrossCallReturnLabel_441:
   \   000135   12....       LCALL   ?Subroutine40 & 0xFFFF
   2463          					//pConfig->totalDev++;
   2464          					//pCurrentDev->attribute = DEVICE_ATTRIBUTE_SLAVE;
   2465          					pConfig->slvRcd++;
   \                     ??CrossCallReturnLabel_55:
   \   000138   12....       LCALL   ?Subroutine52 & 0xFFFF
   2466          					g_grInfo = 1;
   2467          					//pConfig->idInGroup[pCurrentDev->shortAddr]=payload->msdu.p[1]-2;
   2468          					//pConfig->arrCnt[payload->msdu.p[1]-2]++;
   2469          					//pCurrentDev->group = payload->msdu.p[1]-2;
   2470          					//UartSctSend(UART_CC_DEV,pCurrentDev->group,pConfig->arrCnt[pCurrentDev->group]);
   2471          				}
   \                     ??CrossCallReturnLabel_80:
   \   00013B   F0           MOVX    @DPTR,A
   2472          				LED_INS_LINKED();
   \   00013C   C292         CLR     0x90.2
   \   00013E   D293         SETB    0x90.3
   2473          				veriPckSendCallback = &VeriAndAllocID;
   \   000140   12....       LCALL   ?Subroutine157 & 0xFFFF
   2474          				//osal_start_timerEx( macEx_taskId, MACEX_VERI_SEND_INQURE, 5);
   2475          				osal_start_timerEx( macEx_taskId, MACEX_VERI_SEND_INQURE, 7+(osal_rand()&0x03));
   2476          				
   2477          			}
   2478          		}else
   \                     ??CrossCallReturnLabel_295:
   \   000143   5403         ANL     A,#0x3
   \   000145   2407         ADD     A,#0x7
   \   000147   02....       LJMP    ??CrossCallReturnLabel_233 & 0xFFFF
   2479          		{
   2480          			VeriFailedProc();
   2481          		}
   2482          		break;
   2483          
   2484          		case 0x05:
   2485          		switch(MAKEWORD(payload->msdu.p[1],payload->msdu.p[2]))
   \                     ??MstVerifyProc_1:
   \   00014A   12....       LCALL   ?Subroutine113 & 0xFFFF
   \                     ??CrossCallReturnLabel_195:
   \   00014D   E0           MOVX    A,@DPTR
   \   00014E   F5..         MOV     ?V0 + 6,A
   \   000150   E9           MOV     A,R1
   \   000151   F5..         MOV     ?V0 + 7,A
   \   000153   78..         MOV     R0,#?V0 + 6
   \   000155   12....       LCALL   ?US_SWITCH_SPARSE
   \                     `?<Jumptable for MstVerifyProc>_0`:
   \   000158   0000         DW        0
   \   00015A   0300         DW        3
   \   00015C   2000         DW        32
   \   00015E   ....         DW        ??MstVerifyProc_18
   \   000160   4900         DW        73
   \   000162   ....         DW        ??MstVerifyProc_19
   \   000164   FF00         DW        255
   \   000166   ....         DW        ??MstVerifyProc_20
   \   000168   ....         DW        ??CrossCallReturnLabel_825
   2486          		//if(g_linkedMode)
   2487          		{
   2488          			case 0x00FF:
   2489          				pDev = SearchForDevice(payload->mac.srcAddr.addr.shortAddr);
   \                     ??MstVerifyProc_20:
   \   00016A                ; Setup parameters for call to function SearchForDevice
   \   00016A   12....       LCALL   ?Subroutine44 & 0xFFFF
   2490          				if(!pConfig->devHead[pDev].info)
   \                     ??CrossCallReturnLabel_591:
   \   00016D   12....       LCALL   ??Subroutine283_0 & 0xFFFF
   \                     ??CrossCallReturnLabel_476:
   \   000170   12....       LCALL   ??Subroutine329_0 & 0xFFFF
   \                     ??CrossCallReturnLabel_769:
   \   000173   7003         JNZ     ??MstVerifyProc_21
   2491          				{	
   2492          					pConfig->devHead[pDev].info = 1;
   \   000175   7401         MOV     A,#0x1
   \   000177   F0           MOVX    @DPTR,A
   2493          				}
   2494          				veriPckSendCallback = &BridgedMstReadyRes;
   \                     ??MstVerifyProc_21:
   \   000178   90....       MOV     DPTR,#veriPckSendCallback
   \   00017B   74..         MOV     A,#??BridgedMstReadyRes?relay & 0xff
   \   00017D   F0           MOVX    @DPTR,A
   \   00017E   A3           INC     DPTR
   \   00017F   74..         MOV     A,#(??BridgedMstReadyRes?relay >> 8) & 0xff
   \                     ??MstVerifyProc_22:
   \   000181   F0           MOVX    @DPTR,A
   2495          				callbackPara = payload;
   \   000182   90....       MOV     DPTR,#callbackPara
   \   000185   EE           MOV     A,R6
   \   000186   F0           MOVX    @DPTR,A
   \   000187   A3           INC     DPTR
   \   000188   EF           MOV     A,R7
   \   000189   12....       LCALL   ?Subroutine175 & 0xFFFF
   2496          				//osal_start_timerEx( macEx_taskId, MACEX_VERI_SEND_INQURE, 6+(osal_rand()&0x07));
   2497          				osal_start_timerEx( macEx_taskId, MACEX_VERI_SEND_INQURE, 60+(osal_rand()&0x0F));
   \                     ??CrossCallReturnLabel_579:
   \   00018C   243C         ADD     A,#0x3c
   \   00018E   02....       LJMP    ??CrossCallReturnLabel_233 & 0xFFFF
   2498          			break;
   2499          			
   2500          			case 0x0020:
   2501          			//pConfig->devHead->ready = payload->msdu.p[4];	
   2502          			//pCurrentDev->ready = payload->msdu.p[4];
   2503          			pDev = SearchForDevice(payload->mac.srcAddr.addr.shortAddr);
   \                     ??MstVerifyProc_18:
   \   000191                ; Setup parameters for call to function SearchForDevice
   \   000191   12....       LCALL   ?Subroutine44 & 0xFFFF
   2504          			
   2505          			//if(g_grInfo>0)
   2506          			if(!pConfig->devHead[pDev].info)
   \                     ??CrossCallReturnLabel_592:
   \   000194   12....       LCALL   ?Subroutine206 & 0xFFFF
   \                     ??CrossCallReturnLabel_573:
   \   000197   12....       LCALL   ?Subroutine121 & 0xFFFF
   \                     ??CrossCallReturnLabel_771:
   \   00019A   7022         JNZ     ??MstVerifyProc_23
   2507          			{
   2508          				//g_grInfo = 0;
   2509          				pConfig->devHead[pDev].info = 1;
   \   00019C   7401         MOV     A,#0x1
   \   00019E   F0           MOVX    @DPTR,A
   2510          				//pConfig->idInGroup[payload->mac.srcAddr.addr.shortAddr] = payload->msdu.p[3];    //2014/10/29
   2511          				pConfig->devHead[pDev].group = payload->msdu.p[3];
   \   00019F   12....       LCALL   ?Subroutine38 & 0xFFFF
   \                     ??CrossCallReturnLabel_597:
   \   0001A2   C0E0         PUSH    A
   \   0001A4   12....       LCALL   ?Subroutine24 & 0xFFFF
   \                     ??CrossCallReturnLabel_28:
   \   0001A7   D0E0         POP     A
   \   0001A9   12....       LCALL   ?Subroutine30 & 0xFFFF
   2512          				pConfig->arrCnt[payload->msdu.p[3]]++;							//2014/10/29
   \                     ??CrossCallReturnLabel_39:
   \   0001AC   F0           MOVX    @DPTR,A
   2513          				pConfig->isIdOccupied[payload->mac.srcAddr.addr.shortAddr]= 1;
   \   0001AD   85..82       MOV     DPL,?V0 + 0
   \   0001B0   85..83       MOV     DPH,?V0 + 1
   \   0001B3   12....       LCALL   ?Subroutine94 & 0xFFFF
   2514          			//		pConfig->slvRcd++;
   2515          				//pCurrentDev->group = payload->msdu.p[1];						//2014/10/29
   2516          				//UartSctSend(UART_CC_DEV,pCurrentDev->group,pConfig->arrCnt[pCurrentDev->group]);  //2014/10/29
   2517          				//UartSctSend(UART_CC_DEV,pConfig->idInGroup[payload->mac.srcAddr.addr.shortAddr],pConfig->arrCnt[payload->msdu.p[3]]);
   2518          				//UartSctSend(UART_CC_DEV,pConfig->devHead[pDev].group,pConfig->arrCnt[payload->msdu.p[3]]);
   2519          				MstDevInfoSend();
   2520          			}
   \                     ??CrossCallReturnLabel_154:
   \   0001B6   12....       LCALL   ??Subroutine284_0 & 0xFFFF
   \                     ??CrossCallReturnLabel_474:
   \   0001B9   12....       LCALL   ?Subroutine240 & 0xFFFF
   \                     ??CrossCallReturnLabel_409:
   \   0001BC   803E         SJMP    ??CrossCallReturnLabel_40
   2521          			//if(pConfig->idInGroup[payload->mac.srcAddr.addr.shortAddr]!=payload->msdu.p[3])
   2522          			else if(pConfig->devHead[pDev].group!=payload->msdu.p[3])
   \                     ??MstVerifyProc_23:
   \   0001BE   E8           MOV     A,R0
   \   0001BF   2418         ADD     A,#0x18
   \   0001C1   F8           MOV     R0,A
   \   0001C2   E9           MOV     A,R1
   \   0001C3   12....       LCALL   ??Subroutine313_0 & 0xFFFF
   \                     ??CrossCallReturnLabel_641:
   \   0001C6   FC           MOV     R4,A
   \   0001C7   E9           MOV     A,R1
   \   0001C8   FD           MOV     R5,A
   \   0001C9   8C82         MOV     DPL,R4
   \   0001CB   8D83         MOV     DPH,R5
   \   0001CD   E0           MOVX    A,@DPTR
   \   0001CE   F9           MOV     R1,A
   \   0001CF   12....       LCALL   ?Subroutine38 & 0xFFFF
   \                     ??CrossCallReturnLabel_598:
   \   0001D2   69           XRL     A,R1
   \   0001D3   602B         JZ      ??MstVerifyProc_24
   2523          			{
   2524          				//if(pConfig->arrCnt[pConfig->idInGroup[payload->mac.srcAddr.addr.shortAddr]]>0)
   2525          				if(pConfig->arrCnt[pConfig->devHead[pDev].group]>0)
   \   0001D5   8C82         MOV     DPL,R4
   \   0001D7   8D83         MOV     DPH,R5
   \   0001D9   12....       LCALL   ?Subroutine31 & 0xFFFF
   \                     ??CrossCallReturnLabel_42:
   \   0001DC   6011         JZ      ??MstVerifyProc_25
   2526          				{
   2527          					//pConfig->arrCnt[pConfig->idInGroup[payload->mac.srcAddr.addr.shortAddr]]--;
   2528          					pConfig->arrCnt[pConfig->devHead[pDev].group]--;
   \   0001DE   8C82         MOV     DPL,R4
   \   0001E0   8D83         MOV     DPH,R5
   \   0001E2   E0           MOVX    A,@DPTR
   \   0001E3   F8           MOV     R0,A
   \   0001E4   90....       MOV     DPTR,#pConfig
   \   0001E7   E0           MOVX    A,@DPTR
   \   0001E8   28           ADD     A,R0
   \   0001E9   12....       LCALL   ?Subroutine170 & 0xFFFF
   2529          					//UartSctSend(UART_CC_DEV, pConfig->idInGroup[payload->mac.srcAddr.addr.shortAddr], pConfig->arrCnt[pConfig->idInGroup[payload->mac.srcAddr.addr.shortAddr]]);
   2530          					//UartSctSend(UART_CC_DEV,pConfig->devHead[pDev].group,pConfig->arrCnt[pConfig->devHead[pDev].group]);
   2531          					//MstDevInfoSend();
   2532          				}
   \                     ??CrossCallReturnLabel_327:
   \   0001EC   E0           MOVX    A,@DPTR
   \   0001ED   14           DEC     A
   \   0001EE   F0           MOVX    @DPTR,A
   2533          				
   2534          				//pConfig->idInGroup[payload->mac.srcAddr.addr.shortAddr] = payload->msdu.p[3];
   2535          				pConfig->devHead[pDev].group = payload->msdu.p[3];
   \                     ??MstVerifyProc_25:
   \   0001EF   12....       LCALL   ?Subroutine38 & 0xFFFF
   \                     ??CrossCallReturnLabel_599:
   \   0001F2   C0E0         PUSH    A
   \   0001F4   12....       LCALL   ?Subroutine24 & 0xFFFF
   \                     ??CrossCallReturnLabel_29:
   \   0001F7   D0E0         POP     A
   \   0001F9   12....       LCALL   ?Subroutine30 & 0xFFFF
   2536          				pConfig->arrCnt[payload->msdu.p[3]]++;
   \                     ??CrossCallReturnLabel_40:
   \   0001FC   F0           MOVX    @DPTR,A
   2537          				//UartSctSend(UART_CC_DEV, payload->msdu.p[3], pConfig->arrCnt[payload->msdu.p[3]]);
   2538          				MstDevInfoSend();
   \   0001FD                ; Setup parameters for call to function MstDevInfoSend
   \   0001FD   12....       LCALL   ??MstDevInfoSend?relay
   2539          				
   2540          			}
   2541          			//pConfig->devHead[pDev].info = 1;
   2542          			//if(readyFlag !=payload->msdu.p[4])
   2543          			//{
   2544          			//	readyFlag = payload->msdu.p[4];
   2545          			//	UartSctSend(UART_CC_READY,readyFlag,0);
   2546          			//}			
   2547          			veriPckSendCallback = &DeviceReadyRespond;
   \                     ??MstVerifyProc_24:
   \   000200   90....       MOV     DPTR,#veriPckSendCallback
   \   000203   74..         MOV     A,#??DeviceReadyRespond?relay & 0xff
   \   000205   F0           MOVX    @DPTR,A
   \   000206   A3           INC     DPTR
   \   000207   74..         MOV     A,#(??DeviceReadyRespond?relay >> 8) & 0xff
   \   000209   02....       LJMP    ??MstVerifyProc_22 & 0xFFFF
   2548          			callbackPara = payload;
   2549          			//osal_start_timerEx( macEx_taskId, MACEX_VERI_SEND_INQURE, 10);
   2550          			osal_start_timerEx( macEx_taskId, MACEX_VERI_SEND_INQURE, 60+(osal_rand()&0x0F));
   2551          			break;
   2552          
   2553          			case 0x0049:
   2554          				switch(payload->msdu.p[3])
   \                     ??MstVerifyProc_19:
   \   00020C   8A82         MOV     DPL,R2
   \   00020E   8B83         MOV     DPH,R3
   \   000210   A3           INC     DPTR
   \   000211   A3           INC     DPTR
   \   000212   A3           INC     DPTR
   \   000213   E0           MOVX    A,@DPTR
   \   000214   14           DEC     A
   \   000215   6009         JZ      ??MstVerifyProc_26
   \   000217   14           DEC     A
   \   000218   6040         JZ      ??MstVerifyProc_27
   \   00021A   14           DEC     A
   \   00021B   6066         JZ      ??MstVerifyProc_28
   \   00021D   02....       LJMP    ??CrossCallReturnLabel_825 & 0xFFFF
   2555          				{
   2556          					case 0x01:				//slave REL
   2557          					//veriPckSendCallback = NULL;	
   2558          					if((++slaCmdRel)>=9)
   \                     ??MstVerifyProc_26:
   \   000220   90....       MOV     DPTR,#??slaCmdRel
   \   000223   12....       LCALL   ?Subroutine78 & 0xFFFF
   \                     ??CrossCallReturnLabel_121:
   \   000226   5003         JNC     $+5
   \   000228   02....       LJMP    ??CrossCallReturnLabel_825 & 0xFFFF
   2559          					{
   2560          						//UartSctSend(UART_CC_REL,0,0);
   2561          						LED_INS_BRIGDE();
   \   00022B   C292         CLR     0x90.2
   \   00022D   C293         CLR     0x90.3
   2562          						UartSctSend(UART_CC_REL,UART_CC_REL_FLA,0);
   \   00022F                ; Setup parameters for call to function UartSctSend
   \   00022F   12....       LCALL   ?Subroutine176 & 0xFFFF
   2563          						if(BRIDGE_MST_NORMAL==g_mstHold)
   \                     ??CrossCallReturnLabel_575:
   \   000232   7015         JNZ     ??MstVerifyProc_29
   2564          						{
   2565          							//veriPckSendCallback = &macRollPolingProc;
   2566          							veriPckSendCallback = &LinkedShotShut;
   \   000234   90....       MOV     DPTR,#veriPckSendCallback
   \   000237   74..         MOV     A,#??LinkedShotShut?relay & 0xff
   \   000239   F0           MOVX    @DPTR,A
   \   00023A   A3           INC     DPTR
   \   00023B   74..         MOV     A,#(??LinkedShotShut?relay >> 8) & 0xff
   \   00023D   12....       LCALL   ?Subroutine175 & 0xFFFF
   2567          							osal_start_timerEx( macEx_taskId, MACEX_VERI_SEND_INQURE, 100+(osal_rand()&0x0f));
   2568          						}else
   \                     ??CrossCallReturnLabel_580:
   \   000240   2464         ADD     A,#0x64
   \   000242   FC           MOV     R4,A
   \   000243   7D00         MOV     R5,#0x0
   \   000245   7A02         MOV     R2,#0x2
   \   000247   8006         SJMP    ??MstVerifyProc_30
   2569          						{
   2570          							osal_start_timerEx(macEx_taskId, MACEX_LINK_TIMEOUT_EVENT,5000);
   \                     ??MstVerifyProc_29:
   \   000249                ; Setup parameters for call to function osal_start_timerEx
   \   000249   7C88         MOV     R4,#-0x78
   \   00024B   7D13         MOV     R5,#0x13
   \   00024D   7A04         MOV     R2,#0x4
   2571          						}
   \                     ??MstVerifyProc_30:
   \   00024F   12....       LCALL   ??Subroutine341_0 & 0xFFFF
   2572          						slaCmdRel = 0;
   \                     ??CrossCallReturnLabel_820:
   \   000252   90....       MOV     DPTR,#??slaCmdRel
   \                     ??MstVerifyProc_31:
   \   000255   E4           CLR     A
   \                     ??MstVerifyProc_32:
   \   000256   F0           MOVX    @DPTR,A
   \   000257   02....       LJMP    ??CrossCallReturnLabel_825 & 0xFFFF
   2573          					}
   2574          					//osal_start_timerEx( macEx_taskId, MACEX_VERI_SEND_INQURE, 500);
   2575          					break;
   2576          
   2577          					case 0x02:				//slave MODEL
   2578          					//veriPckSendCallback = NULL;
   2579          					if((++slaCmdModel)>=9)
   \                     ??MstVerifyProc_27:
   \   00025A   90....       MOV     DPTR,#??slaCmdModel
   \   00025D   12....       LCALL   ?Subroutine78 & 0xFFFF
   \                     ??CrossCallReturnLabel_122:
   \   000260   5003         JNC     $+5
   \   000262   02....       LJMP    ??CrossCallReturnLabel_825 & 0xFFFF
   2580          					{
   2581          						UartSctSend(UART_CC_SLACMD,UART_CC_SLACMD_MODEL,0);
   \   000265                ; Setup parameters for call to function UartSctSend
   \   000265   7B00         MOV     R3,#0x0
   \   000267   7A02         MOV     R2,#0x2
   \   000269   79C5         MOV     R1,#-0x3b
   \   00026B   12....       LCALL   ??Subroutine302_0 & 0xFFFF
   2582          						if(BRIDGE_MST_NORMAL==g_mstHold)
   \                     ??CrossCallReturnLabel_577:
   \   00026E   7005         JNZ     ??MstVerifyProc_33
   2583          						{
   2584          							veriPckSendCallback = &macRollPolingProc;
   \   000270   12....       LCALL   ?Subroutine154 & 0xFFFF
   2585          						}else
   \                     ??CrossCallReturnLabel_718:
   \   000273   8009         SJMP    ??CrossCallReturnLabel_821
   2586          						{
   2587          							osal_start_timerEx(macEx_taskId, MACEX_LINK_TIMEOUT_EVENT,5000);
   \                     ??MstVerifyProc_33:
   \   000275                ; Setup parameters for call to function osal_start_timerEx
   \   000275   7C88         MOV     R4,#-0x78
   \   000277   7D13         MOV     R5,#0x13
   \   000279   7A04         MOV     R2,#0x4
   \   00027B   12....       LCALL   ??Subroutine341_0 & 0xFFFF
   2588          						}
   2589          						slaCmdModel = 0;
   \                     ??CrossCallReturnLabel_821:
   \   00027E   90....       MOV     DPTR,#??slaCmdModel
   \   000281   80D2         SJMP    ??MstVerifyProc_31
   2590          					}
   2591          					//osal_start_timerEx( macEx_taskId, MACEX_VERI_SEND_INQURE, 500);
   2592          					break;
   2593          
   2594          					case 0x03:				//slave TEST
   2595          					//veriPckSendCallback = NULL;
   2596          					if((++slaCmdTest)>=9)
   \                     ??MstVerifyProc_28:
   \   000283   90....       MOV     DPTR,#??slaCmdTest
   \   000286   12....       LCALL   ?Subroutine78 & 0xFFFF
   \                     ??CrossCallReturnLabel_123:
   \   000289   5003         JNC     $+5
   \   00028B   02....       LJMP    ??CrossCallReturnLabel_825 & 0xFFFF
   2597          					{
   2598          						UartSctSend(UART_CC_SLACMD,UART_CC_SLACMD_TEST,0);
   \   00028E                ; Setup parameters for call to function UartSctSend
   \   00028E   7B00         MOV     R3,#0x0
   \   000290   7A03         MOV     R2,#0x3
   \   000292   79C5         MOV     R1,#-0x3b
   \   000294   12....       LCALL   ??Subroutine302_0 & 0xFFFF
   2599          						if(BRIDGE_MST_NORMAL==g_mstHold)
   \                     ??CrossCallReturnLabel_578:
   \   000297   7005         JNZ     ??MstVerifyProc_34
   2600          						{
   2601          							veriPckSendCallback = &macRollPolingProc;
   \   000299   12....       LCALL   ?Subroutine154 & 0xFFFF
   2602          						}else
   \                     ??CrossCallReturnLabel_719:
   \   00029C   8009         SJMP    ??CrossCallReturnLabel_822
   2603          						{
   2604          							osal_start_timerEx(macEx_taskId, MACEX_LINK_TIMEOUT_EVENT,5000);
   \                     ??MstVerifyProc_34:
   \   00029E                ; Setup parameters for call to function osal_start_timerEx
   \   00029E   7C88         MOV     R4,#-0x78
   \   0002A0   7D13         MOV     R5,#0x13
   \   0002A2   7A04         MOV     R2,#0x4
   \   0002A4   12....       LCALL   ??Subroutine341_0 & 0xFFFF
   2605          						}
   2606          						slaCmdTest = 0;
   \                     ??CrossCallReturnLabel_822:
   \   0002A7   90....       MOV     DPTR,#??slaCmdTest
   \   0002AA   80A9         SJMP    ??MstVerifyProc_31
   2607          					}
   2608          					//osal_start_timerEx( macEx_taskId, MACEX_VERI_SEND_INQURE, 500);
   2609          					break;
   2610          				}
   2611          			break;
   2612          
   2613          			
   2614          		}
   2615          		break;
   2616          
   2617          		case 0x04:				//slave switch the group
   2618          		if(CMD_MODE_RF_MST==g_isMaster)
   \                     ??MstVerifyProc_0:
   \   0002AC   90....       MOV     DPTR,#g_isMaster
   \   0002AF   E0           MOVX    A,@DPTR
   \   0002B0   6401         XRL     A,#0x1
   \   0002B2   7035         JNZ     ??MstVerifyProc_35
   2619          		{
   2620          			//pConfig->arrCnt[pConfig->idInGroup[payload->msdu.p[1]]]--; //assumed the msdu.p[1] is the short address
   2621          #ifdef DEBUG_TRACE
   2622          			Printf("\r\n");
   2623          			Printf("GR %x to %x\r\n", pConfig->idInGroup[payload->mac.srcAddr.addr.shortAddr],payload->msdu.p[3]);
   2624          			Printf("arrCnt: ");
   2625          			BufferPrint(pConfig->arrCnt, 5);
   2626          #endif
   2627          			pDev = SearchForDevice(payload->mac.srcAddr.addr.shortAddr);
   \   0002B4                ; Setup parameters for call to function SearchForDevice
   \   0002B4   85..82       MOV     DPL,?V0 + 0
   \   0002B7   85..83       MOV     DPH,?V0 + 1
   \   0002BA   12....       LCALL   ?Subroutine27 & 0xFFFF
   2628          			//pDev->group = payload->msdu.p[3];
   2629          			if(pConfig->devHead[pDev].group!=payload->msdu.p[3])
   \                     ??CrossCallReturnLabel_35:
   \   0002BD   85..82       MOV     DPL,?V0 + 2
   \   0002C0   85..83       MOV     DPH,?V0 + 3
   \   0002C3   12....       LCALL   ??Subroutine315_0 & 0xFFFF
   \                     ??CrossCallReturnLabel_654:
   \   0002C6   7003         JNZ     $+5
   \   0002C8   02....       LJMP    ??CrossCallReturnLabel_825 & 0xFFFF
   2630          			{
   2631          				if(pConfig->arrCnt[pConfig->devHead[pDev].group]>0)
   \   0002CB   12....       LCALL   ?Subroutine26 & 0xFFFF
   \                     ??CrossCallReturnLabel_32:
   \   0002CE   6003         JZ      ??CrossCallReturnLabel_25
   2632          				{
   2633          					pConfig->arrCnt[pConfig->devHead[pDev].group]--;
   \   0002D0   12....       LCALL   ?Subroutine23 & 0xFFFF
   2634          				}
   2635          				pConfig->devHead[pDev].group = payload->msdu.p[3];
   \                     ??CrossCallReturnLabel_25:
   \   0002D3   85..82       MOV     DPL,?V0 + 2
   \   0002D6   85..83       MOV     DPH,?V0 + 3
   \   0002D9   12....       LCALL   ??Subroutine314_0 & 0xFFFF
   2636          
   2637          				pConfig->arrCnt[pConfig->devHead[pDev].group]++;
   2638          			/*
   2639          				pConfig->devHead[pDev].group = payload->msdu.p[3];
   2640          				if(pConfig->arrCnt[pConfig->idInGroup[payload->mac.srcAddr.addr.shortAddr]]>0)
   2641          				{
   2642          					pConfig->arrCnt[pConfig->idInGroup[payload->mac.srcAddr.addr.shortAddr]]--;
   2643          				}
   2644          				//LoadUartSendBuf(UART_CC_DEV,pConfig->idInGroup[payload->msdu.p[1]],pConfig->arrCnt[pConfig->idInGroup[payload->msdu.p[1]]]);
   2645          				//LoadUartSendBuf(UART_CC_DEV,pConfig->idInGroup[payload->mac.srcAddr.addr.shortAddr],pConfig->arrCnt[pConfig->idInGroup[payload->mac.srcAddr.addr.shortAddr]]);
   2646          				pConfig->idInGroup[payload->mac.srcAddr.addr.shortAddr] = payload->msdu.p[3];
   2647          				pConfig->arrCnt[payload->msdu.p[3]]++;
   2648          				*/
   2649          				//Printf("GR %x to %x\r\n", pConfig->idInGroup[payload->mac.srcAddr.addr.shortAddr],payload->msdu.p[3]);
   2650          #ifdef DEBUG_TRACE
   2651          				Printf("totalDev: %d; ",pConfig->totalDev);
   2652          				Printf("arrCnt: ");
   2653          				BufferPrint(pConfig->arrCnt, 5);
   2654          				Printf("idInGroup: ");
   2655          				BufferPrint(pConfig->idInGroup, 16);
   2656          #endif
   2657          				//LoadUartSendBuf(UART_CC_DEV,payload->msdu.p[3],pConfig->arrCnt[payload->msdu.p[3]]);
   2658          				//TrigerUartSend();
   2659          				MstDevInfoSendEx(pConfig->devHead[pDev].group,1);
   2660          			}
   2661          		}else if(CMD_MODE_RFLS_MST==g_isMaster)//linked shot mode switch
   \                     ??CrossCallReturnLabel_647:
   \   0002DC   C0E0         PUSH    A
   \   0002DE   12....       LCALL   ?Subroutine37 & 0xFFFF
   \                     ??CrossCallReturnLabel_50:
   \   0002E1   D0E0         POP     A
   \   0002E3   12....       LCALL   ?Subroutine13 & 0xFFFF
   \                     ??CrossCallReturnLabel_6:
   \   0002E6   02....       LJMP    ??CrossCallReturnLabel_825 & 0xFFFF
   \                     ??MstVerifyProc_35:
   \   0002E9   E0           MOVX    A,@DPTR
   \   0002EA   6406         XRL     A,#0x6
   \   0002EC   6003         JZ      $+5
   \   0002EE   02....       LJMP    ??CrossCallReturnLabel_825 & 0xFFFF
   2662          		{
   2663          			if(0xFF4B==MAKEWORD(payload->msdu.p[2],payload->msdu.p[3]))
   \   0002F1   8A82         MOV     DPL,R2
   \   0002F3   8B83         MOV     DPH,R3
   \   0002F5   A3           INC     DPTR
   \   0002F6   12....       LCALL   ?Subroutine113 & 0xFFFF
   \                     ??CrossCallReturnLabel_196:
   \   0002F9   A3           INC     DPTR
   \   0002FA   E0           MOVX    A,@DPTR
   \   0002FB   F8           MOV     R0,A
   \   0002FC   744B         MOV     A,#0x4b
   \   0002FE   68           XRL     A,R0
   \   0002FF   7003         JNZ     ??MstVerifyProc_36
   \   000301   74FF         MOV     A,#-0x1
   \   000303   69           XRL     A,R1
   \                     ??MstVerifyProc_36:
   \   000304   6003         JZ      $+5
   \   000306   02....       LJMP    ??CrossCallReturnLabel_825 & 0xFFFF
   2664          			{
   2665          				g_isMaster = CMD_MODE_RFLS_SLA;
   \   000309   12....       LCALL   ?Subroutine150 & 0xFFFF
   2666          				UartSctSend(UART_CC_MSTSW,0,0);
   2667          			}
   2668          		}
   \                     ??CrossCallReturnLabel_280:
   \   00030C   02....       LJMP    ??CrossCallReturnLabel_825 & 0xFFFF
   2669          		break;
   2670          
   2671          		case 0x06:
   2672          		//veriPckSendCallback = NULL;	
   2673          		if((++relCmdCnt)>=9)
   \                     ??MstVerifyProc_2:
   \   00030F   90....       MOV     DPTR,#??relCmdCnt
   \   000312   12....       LCALL   ?Subroutine78 & 0xFFFF
   \                     ??CrossCallReturnLabel_124:
   \   000315   5003         JNC     $+5
   \   000317   02....       LJMP    ??CrossCallReturnLabel_825 & 0xFFFF
   2674          		{
   2675          			//UartSctSend(UART_CC_REL,0,0);
   2676          			UartSctSend(UART_CC_REL,UART_CC_REL_FLA,0);
   \   00031A                ; Setup parameters for call to function UartSctSend
   \   00031A   12....       LCALL   ?Subroutine176 & 0xFFFF
   2677          			if(BRIDGE_MST_NORMAL==g_mstHold)
   \                     ??CrossCallReturnLabel_576:
   \   00031D   7005         JNZ     ??MstVerifyProc_37
   2678          			{
   2679          				veriPckSendCallback = &macRollPolingProc;
   \   00031F   12....       LCALL   ?Subroutine154 & 0xFFFF
   2680          			}else
   \                     ??CrossCallReturnLabel_720:
   \   000322   8009         SJMP    ??CrossCallReturnLabel_823
   2681          			{
   2682          				osal_start_timerEx(macEx_taskId, MACEX_LINK_TIMEOUT_EVENT,5000);
   \                     ??MstVerifyProc_37:
   \   000324                ; Setup parameters for call to function osal_start_timerEx
   \   000324   7C88         MOV     R4,#-0x78
   \   000326   7D13         MOV     R5,#0x13
   \   000328   7A04         MOV     R2,#0x4
   \   00032A   12....       LCALL   ??Subroutine341_0 & 0xFFFF
   2683          			}
   2684          			relCmdCnt = 0;
   \                     ??CrossCallReturnLabel_823:
   \   00032D   90....       MOV     DPTR,#??relCmdCnt
   \   000330   02....       LJMP    ??MstVerifyProc_31 & 0xFFFF
   2685          		}
   2686          		//osal_start_timerEx( macEx_taskId, MACEX_VERI_SEND_INQURE, 500);
   2687          		break;
   2688          
   2689          		case 0x9C:
   2690          			g_devCheck.checkTurn = SearchForDevice(payload->mac.srcAddr.addr.shortAddr);
   \                     ??MstVerifyProc_9:
   \   000333                ; Setup parameters for call to function SearchForDevice
   \   000333   12....       LCALL   ?Subroutine89 & 0xFFFF
   \                     ??CrossCallReturnLabel_672:
   \   000336   12....       LCALL   ??SearchForDevice?relay
   \   000339   E9           MOV     A,R1
   \   00033A   90....       MOV     DPTR,#g_devCheck
   \   00033D   12....       LCALL   ??Subroutine327_0 & 0xFFFF
   2691          			
   2692          			while(g_devCheck.checkTurn<DEVICE_TOTAL)
   \                     ??CrossCallReturnLabel_736:
   \   000340   12....       LCALL   ?Subroutine49 & 0xFFFF
   \                     ??CrossCallReturnLabel_75:
   \   000343   5005         JNC     ??MstVerifyProc_38
   2693          			{
   2694          				g_devCheck.checkTurn++;
   \   000345   12....       LCALL   ?Subroutine12 & 0xFFFF
   2695          				if(DEVICE_VERIFIED==pConfig->devHead[g_devCheck.checkTurn].veriFlag)
   2696          				{
   2697          					break;
   2698          				}
   2699          			}
   \                     ??CrossCallReturnLabel_531:
   \   000348   70F6         JNZ     ??CrossCallReturnLabel_736
   2700          
   2701          			if(g_devCheck.checkTurn>=DEVICE_TOTAL)
   \                     ??MstVerifyProc_38:
   \   00034A   12....       LCALL   ?Subroutine49 & 0xFFFF
   \                     ??CrossCallReturnLabel_76:
   \   00034D   401C         JC      ??MstVerifyProc_39
   2702          			{
   2703          				for(pDev=0;pDev<DEVICE_TOTAL;pDev++)
   2704          				{
   2705          					if(DEVICE_WAITIP==pConfig->devHead[pDev].veriFlag)
   \                     ??MstVerifyProc_40:
   \   00034F   E5..         MOV     A,?V0 + 4
   \   000351   12....       LCALL   ?Subroutine55 & 0xFFFF
   \                     ??CrossCallReturnLabel_84:
   \   000354   7003         JNZ     ??CrossCallReturnLabel_516
   2706          					{
   2707          						pConfig->devHead[pDev].shortAddr= NoneUsedShortAddrSearch(pConfig->devHead[pDev].attribute);
   \   000356                ; Setup parameters for call to function NoneUsedShortAddrSearch
   \   000356   12....       LCALL   ?Subroutine16 & 0xFFFF
   2708          					}	
   2709          				}
   \                     ??CrossCallReturnLabel_516:
   \   000359   05..         INC     ?V0 + 4
   \   00035B   E5..         MOV     A,?V0 + 4
   \   00035D   C3           CLR     C
   \   00035E   940F         SUBB    A,#0xf
   \   000360   40ED         JC      ??MstVerifyProc_40
   2710          				pConfig->evtCnt++;
   \   000362   12....       LCALL   ?Subroutine40 & 0xFFFF
   2711          				veriPckSendCallback = &VeriAndAllocID;
   \                     ??CrossCallReturnLabel_56:
   \   000365   12....       LCALL   ?Subroutine136 & 0xFFFF
   2712          				//osal_start_timerEx( macEx_taskId, MACEX_VERI_SEND_INQURE, 1+(osal_rand()&0x03));
   2713          				osal_start_timerEx( macEx_taskId, MACEX_VERI_SEND_INQURE, 3+(osal_rand()&0x03));
   2714          			}else
   \                     ??CrossCallReturnLabel_248:
   \   000368   02....       LJMP    ??CrossCallReturnLabel_233 & 0xFFFF
   2715          			{
   2716          				g_devCheck.checkCount=0;
   \                     ??MstVerifyProc_39:
   \   00036B   12....       LCALL   ?Subroutine139 & 0xFFFF
   2717          				veriPckSendCallback = &CheckEachDeviceAlloc;
   2718          				osal_start_timerEx( macEx_taskId, MACEX_VERI_SEND_INQURE, 5+(osal_rand()&0x03));
   2719          			}
   \                     ??CrossCallReturnLabel_257:
   \   00036E   02....       LJMP    ??MstVerifyProc_10 & 0xFFFF
   2720          
   2721          #if 0			
   2722          			if(!veriFlag)
   2723          			{
   2724          				g_devCheck.checkTurn++;
   2725          				g_devCheck.checkCount=0;
   2726          				//g_devCheck.pChk = g_devCheck.pChk->pNext;
   2727          				//if(g_devCheck.checkTurn>=pConfig->totalDev)
   2728          				//if(NULL==g_devCheck.pChk->pNext)
   2729          				if(pCurrentDev==g_devCheck.pChk->pNext)
   2730          				{
   2731          					//pCurrentDev->shortAddr = g_devCheck.checkTurn;
   2732          					//pCurrentDev->shortAddr = (DEVICE_ATTRIBUTE_SLAVE==g_devCheck.pChk->attribute)?g_devCheck.checkTurn:(0x0E-g_devCheck.checkTurn);
   2733          					pCurrentDev->shortAddr = NoneUsedShortAddrSearch(pCurrentDev->attribute);//(DEVICE_ATTRIBUTE_SLAVE==pCurrentDev->attribute)?(pConfig->slvRcd-1):(0x0E-(pConfig->mstRcd-1));
   2734          					pConfig->totalDev++;
   2735          					pConfig->evtCnt++;
   2736          #ifdef SEND_UNIFIED	
   2737          					veriPckSendCallback = &VeriAndAllocID;
   2738          #else
   2739          					veriPckSendCallback = &VeriResponse;
   2740          #endif
   2741          					LED_INS_LINKED();
   2742          					osal_start_timerEx( macEx_taskId, MACEX_VERI_SEND_INQURE, 5);
   2743          				}else
   2744          				{
   2745          					//g_devCheck.pChk = pConfig->devHead;
   2746          					g_devCheck.pChk = g_devCheck.pChk->pNext;
   2747          					veriPckSendCallback = &CheckEachDeviceAlloc;
   2748          					osal_start_timerEx( macEx_taskId, MACEX_VERI_SEND_INQURE, 5);
   2749          				}
   2750          				veriFlag = 1;
   2751          			}
   2752          #endif
   2753          		break;
   2754          
   2755          		case 0x97:
   2756          			//if(0x02==payload->msdu.p[2])
   2757          			{
   2758          				//UartSctSend(UART_CC_DEV,pConfig->idInGroup[payload->mac.srcAddr.addr.shortAddr],pConfig->arrCnt[pConfig->idInGroup[payload->mac.srcAddr.addr.shortAddr]]);
   2759          				RemoveDevice(payload->mac.srcAddr.addr.shortAddr);
   \                     ??MstVerifyProc_6:
   \   000371                ; Setup parameters for call to function RemoveDevice
   \   000371   85..82       MOV     DPL,?V0 + 0
   \   000374   85..83       MOV     DPH,?V0 + 1
   \   000377   12....       LCALL   ??Subroutine286_0 & 0xFFFF
   2760          				//pConfig->totalDev--;
   2761          				pConfig->evtCnt++;
   \                     ??CrossCallReturnLabel_488:
   \   00037A   12....       LCALL   ??Subroutine351_0 & 0xFFFF
   2762          				//if(pConfig->arrCnt[pConfig->idInGroup[payload->mac.srcAddr.addr.shortAddr]]>0)
   2763          				//{
   2764          				//	pConfig->arrCnt[pConfig->idInGroup[payload->mac.srcAddr.addr.shortAddr]]--;
   2765          				//}
   2766          				//UartSctSend(UART_CC_DEV,pConfig->idInGroup[payload->mac.srcAddr.addr.shortAddr],pConfig->arrCnt[pConfig->idInGroup[payload->mac.srcAddr.addr.shortAddr]]);
   2767          				
   2768          			}
   \                     ??CrossCallReturnLabel_903:
   \   00037D   02....       LJMP    ??MstVerifyProc_32 & 0xFFFF
   2769          		break;
   2770          
   2771          		case 0x92:			//already have a master
   2772          			//if(pConfig->panId==MAKEWORD(payload->msdu.p[2],payload->msdu.p[3]))
   2773          			{
   2774          				veriPckSendCallback = &InqureConfirm;
   \                     ??MstVerifyProc_4:
   \   000380   90....       MOV     DPTR,#veriPckSendCallback
   \   000383   74..         MOV     A,#??InqureConfirm?relay & 0xff
   \   000385   F0           MOVX    @DPTR,A
   \   000386   A3           INC     DPTR
   \   000387   74..         MOV     A,#(??InqureConfirm?relay >> 8) & 0xff
   \   000389   F0           MOVX    @DPTR,A
   2775          				osal_start_timerEx( macEx_taskId, MACEX_VERI_SEND_INQURE, 5);
   \   00038A                ; Setup parameters for call to function osal_start_timerEx
   \   00038A   7C05         MOV     R4,#0x5
   \   00038C   12....       LCALL   ??Subroutine339_0 & 0xFFFF
   2776          				osal_start_timerEx(macEx_taskId, MACEX_LINK_TIMEOUT_EVENT,5000);
   \                     ??CrossCallReturnLabel_814:
   \   00038F                ; Setup parameters for call to function osal_start_timerEx
   \   00038F   7C88         MOV     R4,#-0x78
   \   000391   7D13         MOV     R5,#0x13
   \   000393   7A04         MOV     R2,#0x4
   \   000395   12....       LCALL   ??Subroutine341_0 & 0xFFFF
   2777          				pConfig->isRflsCoordinator = RFLS_COORDINATOR_S;
   \                     ??CrossCallReturnLabel_824:
   \   000398   12....       LCALL   ??Subroutine344_0 & 0xFFFF
   \                     ??CrossCallReturnLabel_843:
   \   00039B   7401         MOV     A,#0x1
   \   00039D   F0           MOVX    @DPTR,A
   2778          				g_mstHold = 1;
   \   00039E   90....       MOV     DPTR,#g_mstHold
   \   0003A1   F0           MOVX    @DPTR,A
   2779          				g_netStart = 0;
   \   0003A2   90....       MOV     DPTR,#g_netStart
   \   0003A5   E4           CLR     A
   \   0003A6   12....       LCALL   ?Subroutine160 & 0xFFFF
   2780          				if(CMD_MODE_RF_MST==g_isMaster)
   \                     ??CrossCallReturnLabel_303:
   \   0003A9   6401         XRL     A,#0x1
   \   0003AB   C292         CLR     0x90.2
   \   0003AD   7004         JNZ     ??MstVerifyProc_41
   2781          				{
   2782          					LED_INS_BRIGDE();
   \   0003AF   C293         CLR     0x90.3
   \   0003B1   801E         SJMP    ??CrossCallReturnLabel_825
   2783          				}else
   2784          				{
   2785          					LED_INS_LINKED();
   \                     ??MstVerifyProc_41:
   \   0003B3   D293         SETB    0x90.3
   \   0003B5   801A         SJMP    ??CrossCallReturnLabel_825
   2786          				}
   2787          			}				
   2788          		break;
   2789          
   2790          /*
   2791          		case 0x96:
   2792          			pConfig->myAddr = MAKEWORD(payload->msdu.p[1],payload->msdu.p[2]);
   2793          			MAC_RADIO_SET_SHORT_ADDR(pConfig->myAddr);
   2794          			veriPckSendCallback = NULL;
   2795          			//veriPckSendCallback=&ReadyInfo;
   2796          			//osal_start_timerEx( macEx_taskId, MACEX_VERI_SEND_INQURE, 10);	
   2797          			//osal_start_timerEx(macEx_taskId, MACEX_LINK_TIMEOUT_EVENT,5000);
   2798          			//g_mstHold = 1;
   2799          		break;
   2800          */
   2801          
   2802          		case 0x9A:
   2803          			if(1==g_mstHold)
   \                     ??MstVerifyProc_7:
   \   0003B7   90....       MOV     DPTR,#g_mstHold
   \   0003BA   E0           MOVX    A,@DPTR
   \   0003BB   6401         XRL     A,#0x1
   \   0003BD   7012         JNZ     ??CrossCallReturnLabel_825
   2804          			{
   2805          				osal_start_timerEx(macEx_taskId, MACEX_LINK_TIMEOUT_EVENT,5000);
   \   0003BF                ; Setup parameters for call to function osal_start_timerEx
   \   0003BF   7C88         MOV     R4,#-0x78
   \   0003C1   7D13         MOV     R5,#0x13
   \   0003C3   7A04         MOV     R2,#0x4
   \   0003C5   8007         SJMP    ??MstVerifyProc_42
   2806          			}
   2807          		break;
   2808          
   2809          		case 0x9B:
   2810          			veriPckSendCallback = &ReConfirm;
   \                     ??MstVerifyProc_8:
   \   0003C7   12....       LCALL   ?Subroutine146 & 0xFFFF
   2811          			osal_start_timerEx( macEx_taskId, MACEX_VERI_SEND_INQURE, 5);	
   \                     ??CrossCallReturnLabel_272:
   \   0003CA   7D00         MOV     R5,#0x0
   \   0003CC   7A02         MOV     R2,#0x2
   \                     ??MstVerifyProc_42:
   \   0003CE   12....       LCALL   ??Subroutine341_0 & 0xFFFF
   2812          		break;
   2813          
   2814          			
   2815          	}
   2816          }
   \                     ??CrossCallReturnLabel_825:
   \   0003D1   7F08         MOV     R7,#0x8
   \   0003D3   02....       LJMP    ?BANKED_LEAVE_XDATA
   \   0003D6                REQUIRE _A_P1

   \                                 In  segment BANKED_CODE, align 1, keep-with-next
   \                     ?Subroutine206:
   \   000000   FA           MOV     R2,A
   \   000001   ABF0         MOV     R3,B
   \   000003                REQUIRE ??Subroutine301_0
   \   000003                ; // Fall through to label ??Subroutine301_0

   \                                 In  segment BANKED_CODE, align 1, keep-with-next
   \                     ??Subroutine301_0:
   \   000000   90....       MOV     DPTR,#pConfig
   \   000003   E0           MOVX    A,@DPTR
   \   000004   2A           ADD     A,R2
   \   000005   F8           MOV     R0,A
   \   000006   A3           INC     DPTR
   \   000007   E0           MOVX    A,@DPTR
   \   000008   3B           ADDC    A,R3
   \   000009   F9           MOV     R1,A
   \   00000A   22           RET

   \                                 In  segment BANKED_CODE, align 1, keep-with-next
   \                     ?Subroutine176:
   \   000000   7B00         MOV     R3,#0x0
   \   000002   7A01         MOV     R2,#0x1
   \   000004   79C0         MOV     R1,#-0x40
   \   000006                REQUIRE ??Subroutine302_0
   \   000006                ; // Fall through to label ??Subroutine302_0

   \                                 In  segment BANKED_CODE, align 1, keep-with-next
   \                     ??Subroutine302_0:
   \   000000   12....       LCALL   ??UartSctSend?relay
   \   000003   90....       MOV     DPTR,#g_mstHold
   \   000006   E0           MOVX    A,@DPTR
   \   000007   22           RET

   \                                 In  segment BANKED_CODE, align 1, keep-with-next
   \                     ?Subroutine175:
   \   000000   F0           MOVX    @DPTR,A
   \   000001                ; Setup parameters for call to function osal_rand
   \   000001                ; Setup parameters for call to function osal_rand
   \   000001                REQUIRE ??Subroutine303_0
   \   000001                ; // Fall through to label ??Subroutine303_0

   \                                 In  segment BANKED_CODE, align 1, keep-with-next
   \                     ?Subroutine113:
   \   000000   A3           INC     DPTR
   \   000001   E0           MOVX    A,@DPTR
   \   000002   F9           MOV     R1,A
   \   000003   8A82         MOV     DPL,R2
   \   000005   8B83         MOV     DPH,R3
   \   000007   A3           INC     DPTR
   \   000008   A3           INC     DPTR
   \   000009   22           RET

   \                                 In  segment BANKED_CODE, align 1, keep-with-next
   \                     ?Subroutine68:
   \   000000   85..82       MOV     DPL,?V0 + 2
   \   000003   85..83       MOV     DPH,?V0 + 3
   \   000006   12....       LCALL   ?Subroutine212 & 0xFFFF
   \                     ??CrossCallReturnLabel_650:
   \   000009   E0           MOVX    A,@DPTR
   \   00000A   6401         XRL     A,#0x1
   \   00000C   8882         MOV     DPL,R0
   \   00000E   8983         MOV     DPH,R1
   \   000010   22           RET

   \                                 In  segment BANKED_CODE, align 1, keep-with-next
   \                     ?Subroutine52:
   \   000000   90....       MOV     DPTR,#pConfig
   \   000003   E0           MOVX    A,@DPTR
   \   000004   2401         ADD     A,#0x1
   \   000006   12....       LCALL   ?Subroutine205 & 0xFFFF
   \                     ??CrossCallReturnLabel_368:
   \   000009   90....       MOV     DPTR,#g_grInfo
   \   00000C   7401         MOV     A,#0x1
   \   00000E   22           RET

   \                                 In  segment BANKED_CODE, align 1, keep-with-next
   \                     ?Subroutine44:
   \   000000   85..82       MOV     DPL,?V0 + 0
   \   000003   85..83       MOV     DPH,?V0 + 1
   \   000006                REQUIRE ??Subroutine305_0
   \   000006                ; // Fall through to label ??Subroutine305_0

   \                                 In  segment BANKED_CODE, align 1, keep-with-next
   \                     ?Subroutine38:
   \   000000   85..82       MOV     DPL,?V0 + 2
   \   000003   85..83       MOV     DPH,?V0 + 3
   \   000006                REQUIRE ??Subroutine306_0
   \   000006                ; // Fall through to label ??Subroutine306_0

   \                                 In  segment BANKED_CODE, align 1, keep-with-next
   \                     ??Subroutine306_0:
   \   000000   12....       LCALL   ?Subroutine194 & 0xFFFF
   \                     ??CrossCallReturnLabel_602:
   \   000003   E0           MOVX    A,@DPTR
   \   000004   22           RET

   \                                 In  segment BANKED_CODE, align 1, keep-with-next
   \                     ?Subroutine30:
   \   000000   F0           MOVX    @DPTR,A
   \   000001   85..82       MOV     DPL,?V0 + 2
   \   000004   85..83       MOV     DPH,?V0 + 3
   \   000007   12....       LCALL   ?Subroutine194 & 0xFFFF
   \                     ??CrossCallReturnLabel_600:
   \   00000A   12....       LCALL   ?Subroutine189 & 0xFFFF
   \                     ??CrossCallReturnLabel_356:
   \   00000D   04           INC     A
   \   00000E   22           RET

   \                                 In  segment BANKED_CODE, align 1, keep-with-next
   \                     ?Subroutine28:
   \   000000   7401         MOV     A,#0x1
   \   000002   12....       LCALL   ?Subroutine221 & 0xFFFF
   \                     ??CrossCallReturnLabel_872:
   \   000005   2400         ADD     A,#0x0
   \   000007   12....       LCALL   ?Subroutine205 & 0xFFFF
   \                     ??CrossCallReturnLabel_367:
   \   00000A   12....       LCALL   ?Subroutine186 & 0xFFFF
   \                     ??CrossCallReturnLabel_519:
   \   00000D   12....       LCALL   ?Subroutine234 & 0xFFFF
   \                     ??CrossCallReturnLabel_406:
   \   000010   740F         MOV     A,#0xf
   \   000012   22           RET

   \                                 In  segment BANKED_CODE, align 1, keep-with-next
   \                     ?Subroutine205:
   \   000000   12....       LCALL   ?Subroutine250 & 0xFFFF
   \                     ??CrossCallReturnLabel_874:
   \   000003   04           INC     A
   \   000004   F0           MOVX    @DPTR,A
   \   000005   22           RET

   \                                 In  segment BANKED_CODE, align 1, keep-with-next
   \                     ?Subroutine146:
   \   000000   90....       MOV     DPTR,#veriPckSendCallback
   \   000003   74..         MOV     A,#??ReConfirm?relay & 0xff
   \   000005   F0           MOVX    @DPTR,A
   \   000006   A3           INC     DPTR
   \   000007   74..         MOV     A,#(??ReConfirm?relay >> 8) & 0xff
   \   000009   F0           MOVX    @DPTR,A
   \   00000A                ; Setup parameters for call to function osal_start_timerEx
   \   00000A                ; Setup parameters for call to function osal_start_timerEx
   \   00000A                ; Setup parameters for call to function osal_start_timerEx
   \   00000A   7C05         MOV     R4,#0x5
   \   00000C   22           RET

   \                                 In  segment BANKED_CODE, align 1, keep-with-next
   \                     ?Subroutine170:
   \   000000   12....       LCALL   ?Subroutine261 & 0xFFFF
   \                     ??CrossCallReturnLabel_427:
   \   000003   22           RET

   \                                 In  segment BANKED_CODE, align 1, keep-with-next
   \                     ?Subroutine150:
   \   000000   90....       MOV     DPTR,#g_isMaster
   \   000003   7405         MOV     A,#0x5
   \   000005   F0           MOVX    @DPTR,A
   \   000006                ; Setup parameters for call to function UartSctSend
   \   000006                ; Setup parameters for call to function UartSctSend
   \   000006   7B00         MOV     R3,#0x0
   \   000008   7A00         MOV     R2,#0x0
   \   00000A   79C6         MOV     R1,#-0x3a
   \   00000C   12....       LCALL   ??UartSctSend?relay
   \   00000F   22           RET

   \                                 In  segment BANKED_CODE, align 1, keep-with-next
   \                     ?Subroutine78:
   \   000000   E0           MOVX    A,@DPTR
   \   000001   04           INC     A
   \   000002   F0           MOVX    @DPTR,A
   \   000003   C3           CLR     C
   \   000004   9409         SUBB    A,#0x9
   \   000006   22           RET

   \                                 In  segment BANKED_CODE, align 1, keep-with-next
   \                     ??Subroutine314_0:
   \   000000   12....       LCALL   ?Subroutine212 & 0xFFFF
   \                     ??CrossCallReturnLabel_651:
   \   000003   A3           INC     DPTR
   \   000004   A3           INC     DPTR
   \   000005   E0           MOVX    A,@DPTR
   \   000006   22           RET

   \                                 In  segment BANKED_CODE, align 1, keep-with-next
   \                     ?Subroutine212:
   \   000000   12....       LCALL   ?Subroutine254 & 0xFFFF
   \                     ??CrossCallReturnLabel_653:
   \   000003   A3           INC     DPTR
   \   000004   22           RET

   \                                 In  segment BANKED_CODE, align 1, keep-with-next
   \                     ?Subroutine254:
   \   000000   E0           MOVX    A,@DPTR
   \   000001   FA           MOV     R2,A
   \   000002   A3           INC     DPTR
   \   000003   E0           MOVX    A,@DPTR
   \   000004   F583         MOV     DPH,A
   \   000006   8A82         MOV     DPL,R2
   \   000008   22           RET

   \                                 In  segment BANKED_CODE, align 1, keep-with-next
   \                     ??Subroutine315_0:
   \   000000   E0           MOVX    A,@DPTR
   \   000001   FC           MOV     R4,A
   \   000002   A3           INC     DPTR
   \   000003   E0           MOVX    A,@DPTR
   \   000004   F583         MOV     DPH,A
   \   000006   8C82         MOV     DPL,R4
   \   000008   A3           INC     DPTR
   \   000009   A3           INC     DPTR
   \   00000A   A3           INC     DPTR
   \   00000B   E0           MOVX    A,@DPTR
   \   00000C   6D           XRL     A,R5
   \   00000D   22           RET

   \                                 In  segment BANKED_CODE, align 1, keep-with-next
   \                     ?Subroutine40:
   \   000000   12....       LCALL   ?Subroutine196 & 0xFFFF
   \                     ??CrossCallReturnLabel_904:
   \   000003   F0           MOVX    @DPTR,A
   \   000004   22           RET

   \                                 In  segment BANKED_CODE, align 1, keep-with-next
   \                     ?Subroutine37:
   \   000000   12....       LCALL   ?Subroutine195 & 0xFFFF
   \                     ??CrossCallReturnLabel_361:
   \   000003   22           RET

   \                                 In  segment BANKED_CODE, align 1, keep-with-next
   \                     ?Subroutine195:
   \   000000   12....       LCALL   ?Subroutine253 & 0xFFFF
   \                     ??CrossCallReturnLabel_546:
   \   000003   2418         ADD     A,#0x18
   \   000005   F582         MOV     DPL,A
   \   000007   EB           MOV     A,R3
   \   000008   12....       LCALL   ??Subroutine289_0 & 0xFFFF
   \                     ??CrossCallReturnLabel_776:
   \   00000B   22           RET

   \                                 In  segment BANKED_CODE, align 1, keep-with-next
   \                     ?Subroutine27:
   \   000000   12....       LCALL   ?Subroutine200 & 0xFFFF
   \                     ??CrossCallReturnLabel_595:
   \   000003   F8           MOV     R0,A
   \   000004   A9F0         MOV     R1,B
   \   000006   12....       LCALL   ?Subroutine218 & 0xFFFF
   \                     ??CrossCallReturnLabel_544:
   \   000009   12....       LCALL   ?Subroutine235 & 0xFFFF
   \                     ??CrossCallReturnLabel_408:
   \   00000C   22           RET

   \                                 In  segment BANKED_CODE, align 1, keep-with-next
   \                     ?Subroutine235:
   \   000000   2418         ADD     A,#0x18
   \   000002   FA           MOV     R2,A
   \   000003   EB           MOV     A,R3
   \   000004   3400         ADDC    A,#0x0
   \   000006   FB           MOV     R3,A
   \   000007   8A82         MOV     DPL,R2
   \   000009   8B83         MOV     DPH,R3
   \   00000B   E0           MOVX    A,@DPTR
   \   00000C   FD           MOV     R5,A
   \   00000D   22           RET

   \                                 In  segment BANKED_CODE, align 1, keep-with-next
   \                     ?Subroutine26:
   \   000000   8A82         MOV     DPL,R2
   \   000002   8B83         MOV     DPH,R3
   \   000004   E0           MOVX    A,@DPTR
   \   000005   FC           MOV     R4,A
   \   000006   90....       MOV     DPTR,#pConfig
   \   000009   E0           MOVX    A,@DPTR
   \   00000A   2C           ADD     A,R4
   \   00000B   FC           MOV     R4,A
   \   00000C   A3           INC     DPTR
   \   00000D   E0           MOVX    A,@DPTR
   \   00000E   3400         ADDC    A,#0x0
   \   000010   FD           MOV     R5,A
   \   000011   EC           MOV     A,R4
   \   000012   2402         ADD     A,#0x2
   \   000014   F582         MOV     DPL,A
   \   000016   ED           MOV     A,R5
   \   000017   3401         ADDC    A,#0x1
   \   000019   F583         MOV     DPH,A
   \   00001B   E0           MOVX    A,@DPTR
   \   00001C   22           RET

   \                                 In  segment BANKED_CODE, align 1, keep-with-next
   \                     ?Subroutine24:
   \   000000   12....       LCALL   ??Subroutine301_0 & 0xFFFF
   \                     ??CrossCallReturnLabel_572:
   \   000003   E8           MOV     A,R0
   \   000004   12....       LCALL   ?Subroutine234 & 0xFFFF
   \                     ??CrossCallReturnLabel_405:
   \   000007   22           RET

   \                                 In  segment BANKED_CODE, align 1, keep-with-next
   \                     ?Subroutine234:
   \   000000   2418         ADD     A,#0x18
   \   000002   12....       LCALL   ??Subroutine288_0 & 0xFFFF
   \                     ??CrossCallReturnLabel_779:
   \   000005   22           RET

   \                                 In  segment BANKED_CODE, align 1, keep-with-next
   \                     ?Subroutine23:
   \   000000   8A82         MOV     DPL,R2
   \   000002   8B83         MOV     DPH,R3
   \   000004   12....       LCALL   ?Subroutine185 & 0xFFFF
   \                     ??CrossCallReturnLabel_659:
   \   000007   14           DEC     A
   \   000008   F0           MOVX    @DPTR,A
   \   000009   22           RET

   \                                 In  segment BANKED_CODE, align 1, keep-with-next
   \                     ?Subroutine185:
   \   000000   E0           MOVX    A,@DPTR
   \   000001                REQUIRE ??Subroutine316_0
   \   000001                ; // Fall through to label ??Subroutine316_0

   \                                 In  segment BANKED_CODE, align 1, keep-with-next
   \                     ?Subroutine21:
   \   000000   12....       LCALL   ?Subroutine203 & 0xFFFF
   \                     ??CrossCallReturnLabel_447:
   \   000003   12....       LCALL   ?Subroutine191 & 0xFFFF
   \                     ??CrossCallReturnLabel_480:
   \   000006   12....       LCALL   ?Subroutine240 & 0xFFFF
   \                     ??CrossCallReturnLabel_410:
   \   000009   F0           MOVX    @DPTR,A
   \   00000A   22           RET

   \                                 In  segment BANKED_CODE, align 1, keep-with-next
   \                     ?Subroutine240:
   \   000000   12....       LCALL   ?Subroutine259 & 0xFFFF
   \                     ??CrossCallReturnLabel_426:
   \   000003   7401         MOV     A,#0x1
   \   000005   22           RET

   \                                 In  segment BANKED_CODE, align 1, keep-with-next
   \                     ?Subroutine13:
   \   000000   F0           MOVX    @DPTR,A
   \   000001   12....       LCALL   ?Subroutine195 & 0xFFFF
   \                     ??CrossCallReturnLabel_360:
   \   000004   12....       LCALL   ?Subroutine185 & 0xFFFF
   \                     ??CrossCallReturnLabel_658:
   \   000007   04           INC     A
   \   000008   F0           MOVX    @DPTR,A
   \   000009                ; Setup parameters for call to function MstDevInfoSendEx
   \   000009                ; Setup parameters for call to function MstDevInfoSendEx
   \   000009   7A01         MOV     R2,#0x1
   \   00000B   12....       LCALL   ?Subroutine191 & 0xFFFF
   \                     ??CrossCallReturnLabel_479:
   \   00000E   12....       LCALL   ?Subroutine234 & 0xFFFF
   \                     ??CrossCallReturnLabel_404:
   \   000011   E0           MOVX    A,@DPTR
   \   000012   F9           MOV     R1,A
   \   000013   12....       LCALL   ??MstDevInfoSendEx?relay
   \   000016   22           RET

   \                                 In  segment BANKED_CODE, align 1, keep-with-next
   \                     ?Subroutine89:
   \   000000   85..82       MOV     DPL,?V0 + 0
   \   000003   85..83       MOV     DPH,?V0 + 1
   \   000006                REQUIRE ??Subroutine320_0
   \   000006                ; // Fall through to label ??Subroutine320_0

   \                                 In  segment BANKED_CODE, align 1, keep-with-next
   \                     ??Subroutine344_0:
   \   000000   90....       MOV     DPTR,#pConfig
   \   000003   E0           MOVX    A,@DPTR
   \   000004   24FF         ADD     A,#-0x1
   \   000006   12....       LCALL   ?Subroutine198 & 0xFFFF
   \                     ??CrossCallReturnLabel_847:
   \   000009   22           RET

   \                                 In  segment BANKED_CODE, align 1, keep-with-next
   \                     ?Subroutine41:
   \   000000   F0           MOVX    @DPTR,A
   \   000001                REQUIRE ??Subroutine351_0
   \   000001                ; // Fall through to label ??Subroutine351_0

   \                                 In  segment BANKED_CODE, align 1, keep-with-next
   \                     ??Subroutine351_0:
   \   000000   12....       LCALL   ?Subroutine196 & 0xFFFF
   \                     ??CrossCallReturnLabel_905:
   \   000003   22           RET

   \                                 In  segment BANKED_CODE, align 1, keep-with-next
   \                     ?Subroutine196:
   \   000000   90....       MOV     DPTR,#pConfig
   \   000003   E0           MOVX    A,@DPTR
   \   000004   24FE         ADD     A,#-0x2
   \   000006   F8           MOV     R0,A
   \   000007   12....       LCALL   ?Subroutine248 & 0xFFFF
   \                     ??CrossCallReturnLabel_917:
   \   00000A   04           INC     A
   \   00000B   22           RET

   \                                 In  segment XDATA_Z, align 1, keep-with-next
   \                     ??relCmdCnt:
   \   000000                DS 1
   \   000001                REQUIRE __INIT_XDATA_Z

   \                                 In  segment XDATA_Z, align 1, keep-with-next
   \                     ??slaCmdRel:
   \   000000                DS 1
   \   000001                REQUIRE __INIT_XDATA_Z

   \                                 In  segment XDATA_Z, align 1, keep-with-next
   \                     ??slaCmdModel:
   \   000000                DS 1
   \   000001                REQUIRE __INIT_XDATA_Z

   \                                 In  segment XDATA_Z, align 1, keep-with-next
   \                     ??slaCmdTest:
   \   000000                DS 1
   \   000001                REQUIRE __INIT_XDATA_Z
   2817          

   \                                 In  segment BANKED_CODE, align 1, keep-with-next
   2818          unsigned char RfMcodeInvert(unsigned char src, uint8 hpMod)
   \                     RfMcodeInvert:
   2819          {
   \   000000                ; Saved register size: 0
   \   000000                ; Auto size: 0
   \   000000   E9           MOV     A,R1
   \   000001   F8           MOV     R0,A
   2820          	if(!src)
   \   000002   7005         JNZ     ??RfMcodeInvert_0
   2821          	{
   2822          		return 0;
   \   000004   7900         MOV     R1,#0x0
   \                     ??RfMcodeInvert_1:
   \   000006   02....       LJMP    ?BRET
   2823          	}
   2824          	
   2825          	if(HP_FLASHMODE_OFF==hpMod)
   \                     ??RfMcodeInvert_0:
   \   000009   EA           MOV     A,R2
   \   00000A   701F         JNZ     ??RfMcodeInvert_2
   2826          	{
   2827          		//src = 0x38 -src;
   2828          		if(src>=0xC0)
   \   00000C   E8           MOV     A,R0
   \   00000D   C3           CLR     C
   \   00000E   94C0         SUBB    A,#-0x40
   \   000010   4004         JC      ??RfMcodeInvert_3
   2829          		{
   2830          			src = 0x38;			
   \                     ??RfMcodeInvert_4:
   \   000012   7838         MOV     R0,#0x38
   \   000014   800E         SJMP    ??RfMcodeInvert_5
   2831          		}else if(src>=0x88)
   \                     ??RfMcodeInvert_3:
   \   000016   E8           MOV     A,R0
   \   000017   C3           CLR     C
   \   000018   9488         SUBB    A,#-0x78
   \   00001A   4006         JC      ??RfMcodeInvert_6
   2832          		{
   2833          			src -= 0x88;
   \   00001C   7478         MOV     A,#0x78
   \                     ??RfMcodeInvert_7:
   \   00001E   28           ADD     A,R0
   \   00001F   F8           MOV     R0,A
   \   000020   8002         SJMP    ??RfMcodeInvert_5
   2834          		}else
   2835          		{
   2836          			src = 0x00;
   \                     ??RfMcodeInvert_6:
   \   000022   7800         MOV     R0,#0x0
   2837          		}
   2838          		//return (src + 0x88);
   2839          		return (0x38-src);
   \                     ??RfMcodeInvert_5:
   \   000024   7438         MOV     A,#0x38
   \   000026   C3           CLR     C
   \   000027   98           SUBB    A,R0
   \   000028   F9           MOV     R1,A
   \   000029   80DB         SJMP    ??RfMcodeInvert_1
   2840          	}else
   2841          	{
   2842          		//src = 0x38 -src;
   2843          		if(src>=0xA0)
   \                     ??RfMcodeInvert_2:
   \   00002B   E8           MOV     A,R0
   \   00002C   C3           CLR     C
   \   00002D   94A0         SUBB    A,#-0x60
   \   00002F   50E1         JNC     ??RfMcodeInvert_4
   2844          		{
   2845          			src = 0x38;
   2846          		}else if(src>=0x68)
   \   000031   E8           MOV     A,R0
   \   000032   C3           CLR     C
   \   000033   9468         SUBB    A,#0x68
   \   000035   40EB         JC      ??RfMcodeInvert_6
   2847          		{
   2848          			src -= 0x68;
   \   000037   7498         MOV     A,#-0x68
   \   000039   80E3         SJMP    ??RfMcodeInvert_7
   2849          		}else
   2850          		{
   2851          			src = 0x00;
   2852          		}
   2853          		//return (src + 0x68);
   2854          		return (0x38-src);
   2855          	}
   2856          }
   2857          
   2858          #pragma optimize=none
   2859          static void macExMcuWaitUs(uint16 usec)
   2860          {
   2861              usec>>= 1;
   2862              while(usec--)
   2863              {
   2864                  NOP();
   2865                  NOP();
   2866                  NOP();
   2867                  NOP();
   2868                  NOP();
   2869                  NOP();
   2870                  NOP();
   2871                  NOP();
   2872                  NOP();
   2873                  NOP();
   2874                  NOP();
   2875                  NOP();
   2876                  NOP();
   2877                  NOP();
   2878                  NOP();
   2879                  NOP();
   2880                  NOP();
   2881              }
   2882          }
   2883          /***********************************************************************************
   2884          * @fn          halMcuWaitMs
   2885          *
   2886          * @brief       Busy wait function. Waits the specified number of milliseconds. Use
   2887          *              assumptions about number of clock cycles needed for the various
   2888          *              instructions.
   2889          *
   2890          *              NB! This function is highly dependent on architecture and compiler!
   2891          *
   2892          * @param       uint16 millisec - number of milliseconds delay
   2893          *
   2894          * @return      none
   2895          */
   2896          #pragma optimize=none
   2897          static void macExMcuWaitMs(uint16 msec)
   2898          {
   2899              while(msec--)
   2900                  macExMcuWaitUs(1000);
   2901          }
   2902          
   2903          
   2904          
   2905          //#define UART_SEND_DELAY()    {macExMcuWaitMs(2);}
   2906          #define UART_SEND_DELAY()    //{macExMcuWaitMs(1);}
   2907          //#define UART_SEND_DELAY()     {macExMcuWaitUs(1500);}
   2908          
   2909          #define LOW_ASCII(x)  (((x)&0x0f)>9?((((x)&0x0f)-10)+'A'):(((x)&0x0f)+'0'))
   2910          #define HIGH_ASCII(x) (((x)>>4)>9?((((x)>>4)-10)+'A'):(((x)>>4)+'0'))
   2911          
   2912          //#define SN_DELAY_1   (600+90)//(600+190)//60//600
   2913          #define SN_DELAY_1   (600+90)
   2914          #define SN_DELAY_2 60

   \                                 In  segment BANKED_CODE, align 1, keep-with-next
   2915          static void DevParsInfo(uint8 *chicken, uint8 cnt)
   \                     DevParsInfo:
   2916          {
   \   000000   74F1         MOV     A,#-0xf
   \   000002   12....       LCALL   ?BANKED_ENTER_XDATA
   \   000005                ; Saved register size: 15
   \   000005                ; Auto size: 100
   \   000005   749C         MOV     A,#-0x64
   \   000007   12....       LCALL   ?ALLOC_XSTACK8
   \   00000A   E9           MOV     A,R1
   \   00000B   FE           MOV     R6,A
   2917          	uint8 i;
   2918          	uint8 preMask=0;
   \   00000C   75..00       MOV     ?V0 + 1,#0x0
   2919          	uint8 hpMask=0;
   \   00000F   75..00       MOV     ?V0 + 0,#0x0
   2920          	//uint8 tmp;
   2921          	uint8 bufIndex=0;
   2922          	//uint8 devSBuf[20];
   2923          	uint8 devSBuf[100]={0};
   \   000012   85..82       MOV     DPL,?XSP + 0
   \   000015   85..83       MOV     DPH,?XSP + 1
   \   000018   AC82         MOV     R4,DPL
   \   00001A   AD83         MOV     R5,DPH
   \   00001C   7583..       MOV     DPH,#(`?<Constant {0}>_2` >> 8) & 0xff
   \   00001F   7582..       MOV     DPL,#`?<Constant {0}>_2` & 0xff
   \   000022   7464         MOV     A,#0x64
   \   000024   12....       LCALL   ?MOVE_LONG8_XDATA_XDATA
   2924          	
   2925          	radioSet.shutter = chicken[4];
   \   000027   12....       LCALL   ?Subroutine33 & 0xFFFF
   2926          	radioSet.apert = chicken[5];
   2927          	radioSet.isoCmp = chicken[6];
   2928          
   2929          #if 0
   2930          	bufIndex = 0;
   2931          	devSBuf[bufIndex++] = 0xA2;
   2932          	devSBuf[bufIndex++] = LOW_ASCII(radioSet.apert);
   2933          	devSBuf[bufIndex++] = HIGH_ASCII(radioSet.apert);
   2934          	devSBuf[bufIndex++] = LOW_ASCII(radioSet.shutter);
   2935          	devSBuf[bufIndex++] = HIGH_ASCII(radioSet.shutter);
   2936          	devSBuf[bufIndex++] = LOW_ASCII(radioSet.isoCmp);
   2937          	devSBuf[bufIndex++] = HIGH_ASCII(radioSet.isoCmp);
   2938          	UartBulkSend(devSBuf,bufIndex);
   2939          	macExMcuWaitMs(1);
   2940          #endif
   2941          
   2942          	bufIndex = 0;
   2943          
   2944          	
   2945          	for(i=0;i<5;i++)
   \                     ??CrossCallReturnLabel_46:
   \   00002A   7F00         MOV     R7,#0x0
   2946          	{
   2947          		if((0x01==chicken[PARA_GR_A+i*3])&&(0xA0==chicken[PARA_GR_A+i*3+1])&&(0x04==chicken[PARA_GR_A+i*3+2]))
   \                     ??DevParsInfo_0:
   \   00002C   12....       LCALL   ?Subroutine171 & 0xFFFF
   \                     ??CrossCallReturnLabel_604:
   \   00002F   8882         MOV     DPL,R0
   \   000031   8983         MOV     DPH,R1
   \   000033   A3           INC     DPTR
   \   000034   A3           INC     DPTR
   \   000035   A3           INC     DPTR
   \   000036   A3           INC     DPTR
   \   000037   A3           INC     DPTR
   \   000038   A3           INC     DPTR
   \   000039   A3           INC     DPTR
   \   00003A   A3           INC     DPTR
   \   00003B   E0           MOVX    A,@DPTR
   \   00003C   6401         XRL     A,#0x1
   \   00003E   7035         JNZ     ??DevParsInfo_1
   \   000040   8882         MOV     DPL,R0
   \   000042   8983         MOV     DPH,R1
   \   000044   A3           INC     DPTR
   \   000045   A3           INC     DPTR
   \   000046   A3           INC     DPTR
   \   000047   A3           INC     DPTR
   \   000048   A3           INC     DPTR
   \   000049   A3           INC     DPTR
   \   00004A   A3           INC     DPTR
   \   00004B   A3           INC     DPTR
   \   00004C   A3           INC     DPTR
   \   00004D   E0           MOVX    A,@DPTR
   \   00004E   64A0         XRL     A,#0xa0
   \   000050   7023         JNZ     ??DevParsInfo_1
   \   000052   8882         MOV     DPL,R0
   \   000054   8983         MOV     DPH,R1
   \   000056   A3           INC     DPTR
   \   000057   A3           INC     DPTR
   \   000058   A3           INC     DPTR
   \   000059   A3           INC     DPTR
   \   00005A   A3           INC     DPTR
   \   00005B   A3           INC     DPTR
   \   00005C   A3           INC     DPTR
   \   00005D   A3           INC     DPTR
   \   00005E   A3           INC     DPTR
   \   00005F   A3           INC     DPTR
   \   000060   E0           MOVX    A,@DPTR
   \   000061   6404         XRL     A,#0x4
   \   000063   7010         JNZ     ??DevParsInfo_1
   2948          		{
   2949          			preMask |= (1<<i);			//preflash
   \   000065   75..01       MOV     ?V0 + 2,#0x1
   \   000068   75..00       MOV     ?V0 + 3,#0x0
   \   00006B   EF           MOV     A,R7
   \   00006C   78..         MOV     R0,#?V0 + 2
   \   00006E   12....       LCALL   ?S_SHL
   \   000071   E5..         MOV     A,?V0 + 2
   \   000073   42..         ORL     ?V0 + 1,A
   2950          		}
   2951          	}
   \                     ??DevParsInfo_1:
   \   000075   0F           INC     R7
   \   000076   EF           MOV     A,R7
   \   000077   C3           CLR     C
   \   000078   9405         SUBB    A,#0x5
   \   00007A   40B0         JC      ??DevParsInfo_0
   2952          
   2953          	if(preMask>0)	
   \   00007C   E5..         MOV     A,?V0 + 1
   \   00007E   607D         JZ      ??DevParsInfo_2
   2954          	{
   2955          		if(!cnt)
   \   000080   EE           MOV     A,R6
   \   000081   6003         JZ      $+5
   \   000083   02....       LJMP    ??DevParsInfo_3 & 0xFFFF
   2956          		{
   2957          			bufIndex = 0;
   2958          			devSBuf[bufIndex++] = 0xAA;			//
   \   000086   85..82       MOV     DPL,?XSP + 0
   \   000089   85..83       MOV     DPH,?XSP + 1
   \   00008C   74AA         MOV     A,#-0x56
   \   00008E   F0           MOVX    @DPTR,A
   2959          			devSBuf[bufIndex++] = 6;	
   \   00008F   7401         MOV     A,#0x1
   \   000091   12....       LCALL   ?XSTACK_DISP0_8
   \   000094   7406         MOV     A,#0x6
   \   000096   F0           MOVX    @DPTR,A
   2960          			devSBuf[bufIndex++] = UART_SLAVE_PRE;//SAI_INFO_HEAD;//0xA2;				
   \   000097   7402         MOV     A,#0x2
   \   000099   12....       LCALL   ?XSTACK_DISP0_8
   \   00009C   74C7         MOV     A,#-0x39
   \   00009E   F0           MOVX    @DPTR,A
   2961          /*
   2962          			devSBuf[bufIndex++] = LOW_ASCII(radioSet.apert);
   2963          			devSBuf[bufIndex++] = HIGH_ASCII(radioSet.apert);
   2964          			devSBuf[bufIndex++] = LOW_ASCII(radioSet.shutter);
   2965          			devSBuf[bufIndex++] = HIGH_ASCII(radioSet.shutter);
   2966          			devSBuf[bufIndex++] = LOW_ASCII(radioSet.isoCmp);
   2967          			devSBuf[bufIndex++] = HIGH_ASCII(radioSet.isoCmp);
   2968          */
   2969          			devSBuf[bufIndex++] = radioSet.apert;
   \   00009F   90....       MOV     DPTR,#radioSet + 6
   \   0000A2   E0           MOVX    A,@DPTR
   \   0000A3   C0E0         PUSH    A
   \   0000A5   7403         MOV     A,#0x3
   \   0000A7   12....       LCALL   ?XSTACK_DISP0_8
   \   0000AA   D0E0         POP     A
   \   0000AC   F0           MOVX    @DPTR,A
   2970          			devSBuf[bufIndex++] = radioSet.shutter;
   \   0000AD   90....       MOV     DPTR,#radioSet + 5
   \   0000B0   E0           MOVX    A,@DPTR
   \   0000B1   C0E0         PUSH    A
   \   0000B3   7404         MOV     A,#0x4
   \   0000B5   12....       LCALL   ?XSTACK_DISP0_8
   \   0000B8   D0E0         POP     A
   \   0000BA   F0           MOVX    @DPTR,A
   2971          			devSBuf[bufIndex++] = radioSet.isoCmp;
   \   0000BB   90....       MOV     DPTR,#radioSet + 4
   \   0000BE   E0           MOVX    A,@DPTR
   \   0000BF   C0E0         PUSH    A
   \   0000C1   7405         MOV     A,#0x5
   \   0000C3   12....       LCALL   ?XSTACK_DISP0_8
   \   0000C6   D0E0         POP     A
   \   0000C8   F0           MOVX    @DPTR,A
   2972          			devSBuf[bufIndex++] = preMask;
   \   0000C9   7406         MOV     A,#0x6
   \   0000CB   12....       LCALL   ?XSTACK_DISP0_8
   \   0000CE   E5..         MOV     A,?V0 + 1
   \   0000D0   F0           MOVX    @DPTR,A
   2973          
   2974          			devSBuf[bufIndex++] = CalcSum(devSBuf+2,5);
   \   0000D1                ; Setup parameters for call to function CalcSum
   \   0000D1   7905         MOV     R1,#0x5
   \   0000D3   7402         MOV     A,#0x2
   \   0000D5   12....       LCALL   ?XSTACK_DISP0_8
   \   0000D8   AA82         MOV     R2,DPL
   \   0000DA   AB83         MOV     R3,DPH
   \   0000DC   12....       LCALL   ??CalcSum?relay
   \   0000DF   7407         MOV     A,#0x7
   \   0000E1   12....       LCALL   ?XSTACK_DISP0_8
   \   0000E4   E9           MOV     A,R1
   \   0000E5   F0           MOVX    @DPTR,A
   2975          			
   2976          			UartBulkSend(devSBuf,bufIndex);
   \   0000E6                ; Setup parameters for call to function UartBulkSend
   \   0000E6   7908         MOV     R1,#0x8
   \   0000E8   85..82       MOV     DPL,?XSP + 0
   \   0000EB   85..83       MOV     DPH,?XSP + 1
   \   0000EE   AA82         MOV     R2,DPL
   \   0000F0   AB83         MOV     R3,DPH
   \   0000F2   12....       LCALL   ??UartBulkSend?relay
   2977          			//macExMcuWaitMs(1);
   2978          			UART_SEND_DELAY();
   2979          
   2980          #ifdef DEBUG_NOTRACE
   2981          			LED_GREEN_TOGGLE();
   2982          #endif
   2983          
   2984          			g_flaStatus = 0x01;
   \   0000F5   90....       MOV     DPTR,#g_flaStatus
   \                     ??DevParsInfo_4:
   \   0000F8   7401         MOV     A,#0x1
   \   0000FA   02....       LJMP    ??DevParsInfo_5 & 0xFFFF
   2985          #if 0			
   2986          			bufIndex = 0;
   2987          			
   2988          			g_flaStatus = 0x01;
   2989          			devSBuf[bufIndex++] = 0xAA;
   2990          			devSBuf[bufIndex++] = 4;	
   2991          			devSBuf[bufIndex++] = 0xB4;			/*0xB4*/
   2992          			//devSBuf[bufIndex++] = '3';
   2993          			switch(preMask)
   2994          			{
   2995          				case 0x07:
   2996          					//devSBuf[bufIndex++] = 0xB4;
   2997          					//devSBuf[bufIndex++] = '3';
   2998          					devSBuf[bufIndex++] = '2';
   2999          				break;
   3000          
   3001          				case 0x01:
   3002          					//devSBuf[bufIndex++] = 0xB4;
   3003          					//devSBuf[bufIndex++] = '3';
   3004          					devSBuf[bufIndex++] = '6';
   3005          				break;
   3006          
   3007          				case 0x02:
   3008          					//devSBuf[bufIndex++] = 0xB4;
   3009          					//devSBuf[bufIndex++] = '3';
   3010          					devSBuf[bufIndex++] = 'A';
   3011          				break;
   3012          
   3013          				case 0x04:
   3014          					//devSBuf[bufIndex++] = 0xB4;
   3015          					//devSBuf[bufIndex++] = '3';
   3016          					devSBuf[bufIndex++] = 'E';
   3017          				break;
   3018          
   3019          				case 0x08:
   3020          					//devSBuf[bufIndex++] = 0xB4;
   3021          					//devSBuf[bufIndex++] = '3';
   3022          					devSBuf[bufIndex++] = 'B';
   3023          				break;
   3024          
   3025          				//case 0x0A:
   3026          				case 0x10:
   3027          					//devSBuf[bufIndex++] = 0xB4;
   3028          					//devSBuf[bufIndex++] = '3';
   3029          					devSBuf[bufIndex++] = 'F';
   3030          				break;
   3031          				
   3032          			}
   3033          
   3034          			tmp = SN_DELAY_1&0xFF;
   3035          			devSBuf[bufIndex++] = LOW_ASCII(tmp);//devSBuf[bufIndex++] = '0'+(tmp&0x0f);
   3036          			devSBuf[bufIndex++] = HIGH_ASCII(tmp);//devSBuf[bufIndex++] = '0'+(tmp>>4);
   3037          			tmp = SN_DELAY_1>>8;
   3038          			devSBuf[bufIndex++] = LOW_ASCII(tmp);//'0'+(tmp&0x0f);
   3039          			devSBuf[bufIndex++] = HIGH_ASCII(tmp);//'0'+(tmp>>4);
   3040          			UartBulkSend(devSBuf,bufIndex);
   3041          #endif
   3042          		}
   3043          	}else				//not preflash
   3044          	{
   3045          		if(0==cnt)
   \                     ??DevParsInfo_2:
   \   0000FD   EE           MOV     A,R6
   \   0000FE   6003         JZ      $+5
   \   000100   02....       LJMP    ??DevParsInfo_3 & 0xFFFF
   3046          		{
   3047          			bufIndex = 0;
   3048          			//devSBuf[bufIndex++] = 0xA2;
   3049          			devSBuf[bufIndex++] = 0xAA;
   \   000103   85..82       MOV     DPL,?XSP + 0
   \   000106   85..83       MOV     DPH,?XSP + 1
   \   000109   74AA         MOV     A,#-0x56
   \   00010B   F0           MOVX    @DPTR,A
   3050          			devSBuf[bufIndex++] = 0x00;
   \   00010C   7401         MOV     A,#0x1
   \   00010E   12....       LCALL   ?XSTACK_DISP0_8
   \   000111   E4           CLR     A
   \   000112   F0           MOVX    @DPTR,A
   3051          			devSBuf[bufIndex++] = UART_SLAVE_FLA;//SAI_INFO_HEAD;
   \   000113   7402         MOV     A,#0x2
   \   000115   12....       LCALL   ?XSTACK_DISP0_8
   \   000118   74C8         MOV     A,#-0x38
   \   00011A   F0           MOVX    @DPTR,A
   3052          			
   3053          /*
   3054          			devSBuf[bufIndex++] = LOW_ASCII(radioSet.apert);
   3055          			devSBuf[bufIndex++] = HIGH_ASCII(radioSet.apert);
   3056          			devSBuf[bufIndex++] = LOW_ASCII(radioSet.shutter);
   3057          			devSBuf[bufIndex++] = HIGH_ASCII(radioSet.shutter);
   3058          			devSBuf[bufIndex++] = LOW_ASCII(radioSet.isoCmp);
   3059          			devSBuf[bufIndex++] = HIGH_ASCII(radioSet.isoCmp);
   3060          */
   3061          			//devSBuf[bufIndex++] = radioSet.adept;
   3062          			devSBuf[bufIndex++] = radioSet.apert;
   \   00011B   90....       MOV     DPTR,#radioSet + 6
   \   00011E   E0           MOVX    A,@DPTR
   \   00011F   C0E0         PUSH    A
   \   000121   7403         MOV     A,#0x3
   \   000123   12....       LCALL   ?XSTACK_DISP0_8
   \   000126   D0E0         POP     A
   \   000128   F0           MOVX    @DPTR,A
   3063          			devSBuf[bufIndex++] = radioSet.shutter;
   \   000129   90....       MOV     DPTR,#radioSet + 5
   \   00012C   E0           MOVX    A,@DPTR
   \   00012D   C0E0         PUSH    A
   \   00012F   7404         MOV     A,#0x4
   \   000131   12....       LCALL   ?XSTACK_DISP0_8
   \   000134   D0E0         POP     A
   \   000136   F0           MOVX    @DPTR,A
   3064          			devSBuf[bufIndex++] = radioSet.isoCmp;
   \   000137   90....       MOV     DPTR,#radioSet + 4
   \   00013A   E0           MOVX    A,@DPTR
   \   00013B   C0E0         PUSH    A
   \   00013D   7405         MOV     A,#0x5
   \   00013F   12....       LCALL   ?XSTACK_DISP0_8
   \   000142   D0E0         POP     A
   \   000144   F0           MOVX    @DPTR,A
   \   000145   75..06       MOV     ?V0 + 1,#0x6
   3065          
   3066          			g_flaStatus = 0x02;
   \   000148   90....       MOV     DPTR,#g_flaStatus
   \   00014B   7402         MOV     A,#0x2
   \   00014D   F0           MOVX    @DPTR,A
   3067          			//bufIndex = 0;
   3068          			//devSBuf[bufIndex++] = 0xA6;
   3069          			for(i=0;i<5;i++)
   \   00014E   7F00         MOV     R7,#0x0
   3070          			{
   3071          				if((0x06==chicken[PARA_GR_A+i*3+2])||(0x05==chicken[PARA_GR_A+i*3+2]))
   \                     ??DevParsInfo_6:
   \   000150   12....       LCALL   ?Subroutine171 & 0xFFFF
   \                     ??CrossCallReturnLabel_605:
   \   000153   E8           MOV     A,R0
   \   000154   240A         ADD     A,#0xa
   \   000156   12....       LCALL   ??Subroutine330_0 & 0xFFFF
   \                     ??CrossCallReturnLabel_765:
   \   000159   6406         XRL     A,#0x6
   \   00015B   6005         JZ      ??DevParsInfo_7
   \   00015D   E0           MOVX    A,@DPTR
   \   00015E   6405         XRL     A,#0x5
   \   000160   7010         JNZ     ??DevParsInfo_8
   3072          				{
   3073          					hpMask |= (1<<i);
   \                     ??DevParsInfo_7:
   \   000162   75..01       MOV     ?V0 + 2,#0x1
   \   000165   75..00       MOV     ?V0 + 3,#0x0
   \   000168   EF           MOV     A,R7
   \   000169   78..         MOV     R0,#?V0 + 2
   \   00016B   12....       LCALL   ?S_SHL
   \   00016E   E5..         MOV     A,?V0 + 2
   \   000170   42..         ORL     ?V0 + 0,A
   3074          				}
   3075          			}
   \                     ??DevParsInfo_8:
   \   000172   0F           INC     R7
   \   000173   EF           MOV     A,R7
   \   000174   C3           CLR     C
   \   000175   9405         SUBB    A,#0x5
   \   000177   40D7         JC      ??DevParsInfo_6
   3076          			for(i=0;i<5;i++)
   \   000179   7F00         MOV     R7,#0x0
   3077          			{
   3078          				//if((0x06==chicken[PARA_GR_A+i*3+2])||(0x05==chicken[PARA_GR_A+i*3+2]))
   3079          				//{
   3080          				//	hpMask |= (1<<i);
   3081          				//}
   3082          				if((0x01==chicken[PARA_GR_A+i*3])&&(chicken[PARA_GR_A+i*3+1]>0))
   \                     ??DevParsInfo_9:
   \   00017B   12....       LCALL   ?Subroutine171 & 0xFFFF
   \                     ??CrossCallReturnLabel_606:
   \   00017E   E8           MOV     A,R0
   \   00017F   2409         ADD     A,#0x9
   \   000181   FC           MOV     R4,A
   \   000182   E9           MOV     A,R1
   \   000183   3400         ADDC    A,#0x0
   \   000185   FD           MOV     R5,A
   \   000186   E8           MOV     A,R0
   \   000187   2408         ADD     A,#0x8
   \   000189   F8           MOV     R0,A
   \   00018A   E9           MOV     A,R1
   \   00018B   3400         ADDC    A,#0x0
   \   00018D   F9           MOV     R1,A
   \   00018E   85....       MOV     ?V0 + 2,?V0 + 1
   \   000191   85..82       MOV     DPL,?XSP + 0
   \   000194   85..83       MOV     DPH,?XSP + 1
   \   000197   E582         MOV     A,DPL
   \   000199   25..         ADD     A,?V0 + 2
   \   00019B   F5..         MOV     ?V0 + 2,A
   \   00019D   E583         MOV     A,DPH
   \   00019F   3400         ADDC    A,#0x0
   \   0001A1   85....       MOV     ?V0 + 4,?V0 + 2
   \   0001A4   F5..         MOV     ?V0 + 5,A
   \   0001A6   8882         MOV     DPL,R0
   \   0001A8   8983         MOV     DPH,R1
   \   0001AA   E0           MOVX    A,@DPTR
   \   0001AB   6401         XRL     A,#0x1
   \   0001AD   7046         JNZ     ??DevParsInfo_10
   \   0001AF   8C82         MOV     DPL,R4
   \   0001B1   8D83         MOV     DPH,R5
   \   0001B3   E0           MOVX    A,@DPTR
   \   0001B4   603F         JZ      ??DevParsInfo_10
   3083          				{
   3084          					devSBuf[bufIndex++] = 0x00 |((hpMask>0)<<7);
   \   0001B6   85....       MOV     ?V0 + 2,?V0 + 1
   \   0001B9   7401         MOV     A,#0x1
   \   0001BB   25..         ADD     A,?V0 + 2
   \   0001BD   F5..         MOV     ?V0 + 1,A
   \   0001BF   E5..         MOV     A,?V0 + 0
   \   0001C1   6004         JZ      ??DevParsInfo_11
   \   0001C3   D2F0         SETB    B.0
   \   0001C5   8002         SJMP    ??DevParsInfo_12
   \                     ??DevParsInfo_11:
   \   0001C7   C2F0         CLR     B.0
   \                     ??DevParsInfo_12:
   \   0001C9   A2F0         MOV     C,B.0
   \   0001CB   E4           CLR     A
   \   0001CC   33           RLC     A
   \   0001CD   13           RRC     A
   \   0001CE   13           RRC     A
   \                     ??DevParsInfo_13:
   \   0001CF   85..82       MOV     DPL,?V0 + 4
   \   0001D2   85..83       MOV     DPH,?V0 + 5
   \   0001D5   F0           MOVX    @DPTR,A
   3085          					devSBuf[bufIndex++] = chicken[PARA_GR_A+i*3+1];
   \                     ??DevParsInfo_14:
   \   0001D6   8C82         MOV     DPL,R4
   \   0001D8   8D83         MOV     DPH,R5
   \   0001DA   E0           MOVX    A,@DPTR
   \   0001DB   C0E0         PUSH    A
   \   0001DD   85....       MOV     ?V0 + 4,?V0 + 1
   \   0001E0   85..82       MOV     DPL,?XSP + 0
   \   0001E3   85..83       MOV     DPH,?XSP + 1
   \   0001E6   E582         MOV     A,DPL
   \   0001E8   25..         ADD     A,?V0 + 4
   \   0001EA   F582         MOV     DPL,A
   \   0001EC   E583         MOV     A,DPH
   3086          				}else if((0x02==chicken[PARA_GR_A+i*3])&&(chicken[PARA_GR_A+i*3+1]>0))
   \   0001EE   12....       LCALL   ??Subroutine312_0 & 0xFFFF
   \                     ??CrossCallReturnLabel_619:
   \   0001F1   D0E0         POP     A
   \   0001F3   8072         SJMP    ??CrossCallReturnLabel_609
   \                     ??DevParsInfo_10:
   \   0001F5   8882         MOV     DPL,R0
   \   0001F7   8983         MOV     DPH,R1
   \   0001F9   E0           MOVX    A,@DPTR
   \   0001FA   6402         XRL     A,#0x2
   \   0001FC   7024         JNZ     ??DevParsInfo_15
   \   0001FE   8C82         MOV     DPL,R4
   \   000200   8D83         MOV     DPH,R5
   \   000202   E0           MOVX    A,@DPTR
   \   000203   601D         JZ      ??DevParsInfo_15
   3087          				{
   3088          					devSBuf[bufIndex++] = 0x01|((hpMask>0)<<7);
   \   000205   85....       MOV     ?V0 + 3,?V0 + 1
   \   000208   7401         MOV     A,#0x1
   \   00020A   25..         ADD     A,?V0 + 3
   \   00020C   F5..         MOV     ?V0 + 1,A
   \   00020E   E5..         MOV     A,?V0 + 0
   \   000210   6004         JZ      ??DevParsInfo_16
   \   000212   D2F0         SETB    B.0
   \   000214   8002         SJMP    ??DevParsInfo_17
   \                     ??DevParsInfo_16:
   \   000216   C2F0         CLR     B.0
   \                     ??DevParsInfo_17:
   \   000218   A2F0         MOV     C,B.0
   \   00021A   E4           CLR     A
   \   00021B   33           RLC     A
   \   00021C   13           RRC     A
   \   00021D   13           RRC     A
   \   00021E   4401         ORL     A,#0x1
   \   000220   80AD         SJMP    ??DevParsInfo_13
   3089          					devSBuf[bufIndex++] = chicken[PARA_GR_A+i*3+1];
   3090          				}else if((0x06==chicken[PARA_GR_A+i*3])&&(chicken[PARA_GR_A+i*3+1]>0))
   \                     ??DevParsInfo_15:
   \   000222   8882         MOV     DPL,R0
   \   000224   8983         MOV     DPH,R1
   \   000226   E0           MOVX    A,@DPTR
   \   000227   6406         XRL     A,#0x6
   \   000229   7011         JNZ     ??DevParsInfo_18
   \   00022B   8C82         MOV     DPL,R4
   \   00022D   8D83         MOV     DPH,R5
   \   00022F   E0           MOVX    A,@DPTR
   \   000230   600A         JZ      ??DevParsInfo_18
   3091          				{
   3092          					devSBuf[bufIndex++] = 0x10;					//moulding
   \   000232   85..82       MOV     DPL,?V0 + 4
   \   000235   85..83       MOV     DPH,?V0 + 5
   \   000238   7410         MOV     A,#0x10
   \   00023A   8018         SJMP    ??DevParsInfo_19
   3093          					devSBuf[bufIndex++] = 0x00;
   3094          				}else if(0x08==chicken[PARA_GR_A+i*3])
   \                     ??DevParsInfo_18:
   \   00023C   8882         MOV     DPL,R0
   \   00023E   8983         MOV     DPH,R1
   \   000240   E0           MOVX    A,@DPTR
   \   000241   6408         XRL     A,#0x8
   \   000243   85..82       MOV     DPL,?V0 + 4
   \   000246   85..83       MOV     DPH,?V0 + 5
   \   000249   7007         JNZ     ??DevParsInfo_20
   3095          				{
   3096          					devSBuf[bufIndex++] = WORKINGMODE_EXTA;
   \   00024B   7404         MOV     A,#0x4
   \   00024D   F0           MOVX    @DPTR,A
   \   00024E   05..         INC     ?V0 + 1
   3097          					devSBuf[bufIndex++] = chicken[PARA_GR_A+i*3+1];	
   \   000250   8084         SJMP    ??DevParsInfo_14
   3098          				}
   3099          				else 
   3100          				{
   3101          					devSBuf[bufIndex++] = 0x07;
   \                     ??DevParsInfo_20:
   \   000252   7407         MOV     A,#0x7
   \                     ??DevParsInfo_19:
   \   000254   F0           MOVX    @DPTR,A
   \   000255   05..         INC     ?V0 + 1
   3102          					devSBuf[bufIndex++] = 0x00;
   \   000257   85....       MOV     ?V0 + 4,?V0 + 1
   \   00025A   85..82       MOV     DPL,?XSP + 0
   \   00025D   85..83       MOV     DPH,?XSP + 1
   \   000260   E582         MOV     A,DPL
   \   000262   25..         ADD     A,?V0 + 4
   \   000264   12....       LCALL   ?Subroutine129 & 0xFFFF
   3103          					//devSBuf[bufIndex++] = 0x00;
   3104          				}
   3105          				//if((0x06==chicken[PARA_GR_A+i*3+2])||(0x05==chicken[PARA_GR_A+i*3+2]))
   3106          				//{
   3107          				//	hpMask |= (1<<i);
   3108          				//}
   3109          			}
   \                     ??CrossCallReturnLabel_609:
   \   000267   F0           MOVX    @DPTR,A
   \   000268   05..         INC     ?V0 + 1
   \   00026A   0F           INC     R7
   \   00026B   EF           MOV     A,R7
   \   00026C   C3           CLR     C
   \   00026D   9405         SUBB    A,#0x5
   \   00026F   5003         JNC     $+5
   \   000271   02....       LJMP    ??DevParsInfo_9 & 0xFFFF
   3110          
   3111          			//devSBuf[bufIndex++] = CalcSum(devSBuf+2,bufIndex-3);
   3112          			devSBuf[bufIndex++] = CalcSum(devSBuf+2,bufIndex-2);
   \   000274                ; Setup parameters for call to function CalcSum
   \   000274   74FE         MOV     A,#-0x2
   \   000276   25..         ADD     A,?V0 + 1
   \   000278   F9           MOV     R1,A
   \   000279   7402         MOV     A,#0x2
   \   00027B   12....       LCALL   ?XSTACK_DISP0_8
   \   00027E   AA82         MOV     R2,DPL
   \   000280   AB83         MOV     R3,DPH
   \   000282   12....       LCALL   ??CalcSum?relay
   \   000285   85....       MOV     ?V0 + 4,?V0 + 1
   \   000288   85..82       MOV     DPL,?XSP + 0
   \   00028B   85..83       MOV     DPH,?XSP + 1
   \   00028E   E582         MOV     A,DPL
   \   000290   25..         ADD     A,?V0 + 4
   \   000292   F582         MOV     DPL,A
   \   000294   E583         MOV     A,DPH
   \   000296   12....       LCALL   ??Subroutine312_0 & 0xFFFF
   \                     ??CrossCallReturnLabel_620:
   \   000299   E9           MOV     A,R1
   \   00029A   F0           MOVX    @DPTR,A
   \   00029B   05..         INC     ?V0 + 1
   3113          
   3114          			devSBuf[1] = bufIndex-2;
   \   00029D   74FE         MOV     A,#-0x2
   \   00029F   25..         ADD     A,?V0 + 1
   \   0002A1   C0E0         PUSH    A
   \   0002A3   7401         MOV     A,#0x1
   \   0002A5   12....       LCALL   ?XSTACK_DISP0_8
   \   0002A8   D0E0         POP     A
   \   0002AA   F0           MOVX    @DPTR,A
   3115          			
   3116          			UartBulkSend(devSBuf,bufIndex);
   \   0002AB                ; Setup parameters for call to function UartBulkSend
   \   0002AB   A9..         MOV     R1,?V0 + 1
   \   0002AD   85..82       MOV     DPL,?XSP + 0
   \   0002B0   85..83       MOV     DPH,?XSP + 1
   \   0002B3   AA82         MOV     R2,DPL
   \   0002B5   AB83         MOV     R3,DPH
   \   0002B7   12....       LCALL   ??UartBulkSend?relay
   3117          			//macExMcuWaitMs(1);
   3118          			UART_SEND_DELAY();
   3119          
   3120          #ifdef DEBUG_NOTRACE
   3121          			LED_GREEN_TOGGLE();
   3122          #endif
   3123          			
   3124          			///bufIndex = 0;
   3125          			
   3126          			g_flaStatus = 0x02;
   \   0002BA   90....       MOV     DPTR,#g_flaStatus
   \   0002BD   7402         MOV     A,#0x2
   \   0002BF   F0           MOVX    @DPTR,A
   3127          			//bufIndex = 0;
   3128          			//devSBuf[bufIndex++] = 0xA6;
   3129          			//for(i=0;i<5;i++)
   3130          			//{
   3131          				//if((0x01==chicken[PARA_GR_A+i*3])&&(chicken[PARA_GR_A+i*3+1]>0))
   3132          				//{
   3133          				//	devSBuf[bufIndex++] = 0x00;
   3134          				//}else if((0x02==chicken[PARA_GR_A+i*3])&&(chicken[PARA_GR_A+i*3+1]>0))
   3135          				//{
   3136          				//	devSBuf[bufIndex++] = 0x01;
   3137          				//}else if((0x06==chicken[PARA_GR_A+i*3])&&(chicken[PARA_GR_A+i*3+1]>0))
   3138          				//{
   3139          				//	devSBuf[bufIndex++] = 0x05;					//moulding
   3140          				//}else 
   3141          				//{
   3142          				//	devSBuf[bufIndex++] = 0x07;
   3143          					//devSBuf[bufIndex++] = 0x00;
   3144          				//}
   3145          			//}
   3146          			//devSBuf[bufIndex++] = '0';
   3147          			//devSBuf[bufIndex++] = '0';
   3148          			//devSBuf[bufIndex++] = '0';
   3149          			//devSBuf[bufIndex++] = '0';			//Multi parameter
   3150          
   3151          			//devSBuf[bufIndex++] = 0x00;			//20141028
   3152          			//devSBuf[bufIndex++] = 0x00;
   3153          
   3154          			//UartBulkSend(devSBuf,bufIndex);
   3155          
   3156          			//halMcuWaitMs(1);
   3157          			//UpDelay(11);
   3158          			//macExMcuWaitMs(1);
   3159          			//UART_SEND_DELAY();
   3160          
   3161          			//bufIndex = 0;
   3162          
   3163          			//for(i=0;i<5;i++)
   3164          			//{
   3165          
   3166          				//if(chicken[PARA_GR_A+i*3+2]>0x04)
   3167          				//if((0x06==chicken[PARA_GR_A+i*3+2])||(0x05==chicken[PARA_GR_A+i*3+2]))
   3168          				//{
   3169          				//	hpMask |= (1<<i);
   3170          				//}
   3171          			//}
   3172          
   3173          			if(hpMask>0)
   \   0002C0   E5..         MOV     A,?V0 + 0
   \   0002C2   90....       MOV     DPTR,#g_hpFlag
   \   0002C5   6003         JZ      $+5
   \   0002C7   02....       LJMP    ??DevParsInfo_4 & 0xFFFF
   3174          			{
   3175          				g_hpFlag = HP_FLASHMODE_ON;
   3176          			}else
   3177          			{
   3178          				g_hpFlag = HP_FLASHMODE_OFF;
   \   0002CA   E4           CLR     A
   \                     ??DevParsInfo_5:
   \   0002CB   F0           MOVX    @DPTR,A
   3179          			}
   3180          
   3181          
   3182          			//devSBuf[bufIndex++] = 0xB2;
   3183          #if 0
   3184          
   3185          			for(i=0;i<5;i++)
   3186          			{
   3187          				if(0x01==chicken[PARA_GR_A+i*3])
   3188          				{
   3189          					devSBuf[bufIndex++] = LOW_ASCII(chicken[PARA_GR_A+i*3+1]);
   3190          					devSBuf[bufIndex++] = HIGH_ASCII(chicken[PARA_GR_A+i*3+1]);
   3191          					//devSBuf[bufIndex++] = LOW_ASCII(0x85);
   3192          					//devSBuf[bufIndex++] = HIGH_ASCII(0x85);
   3193          				}else if(0x02==chicken[PARA_GR_A+i*3])
   3194          				{
   3195          					tmp = RfMcodeInvert(chicken[PARA_GR_A+i*3+1],g_hpFlag)+1;
   3196          					devSBuf[bufIndex++] = LOW_ASCII(tmp);
   3197          					devSBuf[bufIndex++] = HIGH_ASCII(tmp);
   3198          				}else 
   3199          				{
   3200          					devSBuf[bufIndex++] = 0x00;
   3201          					devSBuf[bufIndex++] = 0x00;
   3202          				}
   3203          			}
   3204          
   3205          		//devSBuf[bufIndex++] = 0x00;		//20141028
   3206          		//devSBuf[bufIndex++] = 0x00;
   3207          
   3208          		UartBulkSend(devSBuf,bufIndex);
   3209          		
   3210          		//halMcuWaitMs(1);
   3211          		//macExMcuWaitMs(1);
   3212          		UART_SEND_DELAY();
   3213          
   3214          		bufIndex = 0;
   3215          
   3216          		devSBuf[bufIndex++] = 0xB4;
   3217          
   3218          /*
   3219          		for(i=0;i<5;i++)
   3220          		{
   3221          
   3222          			if(chicken[PARA_GR_A+i*3+2]>0x04)
   3223          			{
   3224          				hpMask |= (1<<i);
   3225          			}
   3226          		}
   3227          */
   3228          
   3229          		if(g_hpFlag>0)
   3230          		{
   3231          			devSBuf[bufIndex++] = '5';
   3232          			devSBuf[bufIndex++] = '2';
   3233          			//g_hpFlag = 1;
   3234          		}else
   3235          		{
   3236          			devSBuf[bufIndex++] = 'D';
   3237          			devSBuf[bufIndex++] = '2';
   3238          			//g_hpFlag = 0;
   3239          		}
   3240          
   3241          		devSBuf[bufIndex++] = LOW_ASCII(SN_DELAY_2&0xff);
   3242          		devSBuf[bufIndex++] = HIGH_ASCII(SN_DELAY_2&0xff);
   3243          
   3244          		devSBuf[bufIndex++] = LOW_ASCII(SN_DELAY_2>>8);
   3245          		devSBuf[bufIndex++] = HIGH_ASCII(SN_DELAY_2>>8);
   3246          
   3247          		UartBulkSend(devSBuf,bufIndex);	
   3248          #endif
   3249          
   3250          		
   3251          	}
   3252          	
   3253          }
   3254          }
   \                     ??DevParsInfo_3:
   \   0002CC   7464         MOV     A,#0x64
   \   0002CE   12....       LCALL   ?DEALLOC_XSTACK8
   \   0002D1   02....       LJMP    ??Subroutine272_0 & 0xFFFF

   \                                 In  segment BANKED_CODE, align 1, keep-with-next
   \                     ?Subroutine171:
   \   000000   EF           MOV     A,R7
   \   000001   75F003       MOV     B,#0x3
   \   000004   A4           MUL     AB
   \   000005   F8           MOV     R0,A
   \   000006   A9F0         MOV     R1,B
   \   000008                REQUIRE ??Subroutine307_0
   \   000008                ; // Fall through to label ??Subroutine307_0

   \                                 In  segment BANKED_CODE, align 1, keep-with-next
   \                     ??Subroutine307_0:
   \   000000   EA           MOV     A,R2
   \   000001   28           ADD     A,R0
   \   000002   F8           MOV     R0,A
   \   000003   EB           MOV     A,R3
   \   000004   39           ADDC    A,R1
   \   000005   F9           MOV     R1,A
   \   000006   22           RET

   \                                 In  segment BANKED_CODE, align 1, keep-with-next
   \                     ?Subroutine129:
   \   000000   F582         MOV     DPL,A
   \   000002   E583         MOV     A,DPH
   \   000004                REQUIRE ??Subroutine308_0
   \   000004                ; // Fall through to label ??Subroutine308_0

   \                                 In  segment BANKED_CODE, align 1, keep-with-next
   \                     ??Subroutine308_0:
   \   000000   12....       LCALL   ??Subroutine328_0 & 0xFFFF
   \                     ??CrossCallReturnLabel_748:
   \   000003   E4           CLR     A
   \   000004   22           RET

   \                                 In  segment BANKED_CODE, align 1, keep-with-next
   \                     ?Subroutine33:
   \   000000   8A82         MOV     DPL,R2
   \   000002   8B83         MOV     DPH,R3
   \   000004   A3           INC     DPTR
   \   000005   A3           INC     DPTR
   \   000006   A3           INC     DPTR
   \   000007   A3           INC     DPTR
   \   000008   E0           MOVX    A,@DPTR
   \   000009   90....       MOV     DPTR,#radioSet + 5
   \   00000C   12....       LCALL   ?Subroutine227 & 0xFFFF
   \                     ??CrossCallReturnLabel_389:
   \   00000F   E0           MOVX    A,@DPTR
   \   000010   90....       MOV     DPTR,#radioSet + 6
   \   000013   12....       LCALL   ?Subroutine227 & 0xFFFF
   \                     ??CrossCallReturnLabel_390:
   \   000016   A3           INC     DPTR
   \   000017   E0           MOVX    A,@DPTR
   \   000018   90....       MOV     DPTR,#radioSet + 4
   \   00001B   F0           MOVX    @DPTR,A
   \   00001C   22           RET

   \                                 In  segment BANKED_CODE, align 1, keep-with-next
   \                     ?Subroutine227:
   \   000000   12....       LCALL   ?Subroutine256 & 0xFFFF
   \                     ??CrossCallReturnLabel_419:
   \   000003   A3           INC     DPTR
   \   000004   A3           INC     DPTR
   \   000005   A3           INC     DPTR
   \   000006   A3           INC     DPTR
   \   000007   A3           INC     DPTR
   \   000008   22           RET

   \                                 In  segment BANKED_CODE, align 1, keep-with-next
   \                     ?Subroutine256:
   \   000000   F0           MOVX    @DPTR,A
   \   000001   8A82         MOV     DPL,R2
   \   000003   8B83         MOV     DPH,R3
   \   000005   22           RET
   3255          
   3256          static unsigned char WlMultiTimeConver(unsigned char rec)
   3257          {
   3258          	unsigned char recTmp;
   3259          	recTmp = rec;
   3260          	//recTmp =  ((rec>>4)*4+((rec&0x0f) - 0x08));
   3261          	//recTmp =  ((rec>>4)*4+(rec&0x0f));
   3262          	if(recTmp<20)
   3263          	{
   3264          		return recTmp;
   3265          	}else if(recTmp<26)
   3266          	{
   3267          		return (20 + 5*(recTmp-20));
   3268          	}else 
   3269          	{
   3270          		return (50+10*(recTmp-26));
   3271          	}
   3272          }
   3273          

   \                                 In  segment BANKED_CODE, align 1, keep-with-next
   3274          static void MultiInfoPars(uint8 *chicken, uint8 cnt)
   \                     MultiInfoPars:
   3275          {
   \   000000   74F5         MOV     A,#-0xb
   \   000002   12....       LCALL   ?BANKED_ENTER_XDATA
   \   000005                ; Saved register size: 11
   \   000005                ; Auto size: 20
   \   000005   74EC         MOV     A,#-0x14
   \   000007   12....       LCALL   ?ALLOC_XSTACK8
   \   00000A   E9           MOV     A,R1
   3276          	//uint8 tmp=0;
   3277          	uint8 i=0;
   3278          	uint8 bufIndex=0;
   3279          	uint8 devSBuf[20];
   3280          	
   3281          	if(0==cnt)
   \   00000B   6003         JZ      $+5
   \   00000D   02....       LJMP    ??MultiInfoPars_0 & 0xFFFF
   3282          	{
   3283          		radioSet.shutter = chicken[4];
   \   000010   12....       LCALL   ?Subroutine33 & 0xFFFF
   3284          		radioSet.apert = chicken[5];
   3285          		radioSet.isoCmp = chicken[6];
   3286          
   3287          		g_flaStatus = 0x02;
   \                     ??CrossCallReturnLabel_47:
   \   000013   90....       MOV     DPTR,#g_flaStatus
   \   000016   7402         MOV     A,#0x2
   \   000018   F0           MOVX    @DPTR,A
   3288          		g_hpFlag = HP_FLASHMODE_OFF;
   \   000019   90....       MOV     DPTR,#g_hpFlag
   \   00001C   E4           CLR     A
   \   00001D   12....       LCALL   ?Subroutine141 & 0xFFFF
   3289          
   3290          #if 1
   3291          		bufIndex = 0;
   3292          		//devSBuf[bufIndex++] = 0xA2;
   3293          		//devSBuf[bufIndex++] = SAI_INFO_HEAD;
   3294          		devSBuf[bufIndex++] = 0xAA;
   \                     ??CrossCallReturnLabel_260:
   \   000020   74AA         MOV     A,#-0x56
   \   000022   F0           MOVX    @DPTR,A
   3295          		devSBuf[bufIndex++] = 0;
   \   000023   7401         MOV     A,#0x1
   \   000025   12....       LCALL   ?XSTACK_DISP0_8
   \   000028   E4           CLR     A
   \   000029   F0           MOVX    @DPTR,A
   3296          		devSBuf[bufIndex++] = UART_SLAVE_MULFLA;
   \   00002A   7402         MOV     A,#0x2
   \   00002C   12....       LCALL   ?XSTACK_DISP0_8
   \   00002F   74C9         MOV     A,#-0x37
   \   000031   F0           MOVX    @DPTR,A
   3297          		//devSBuf[bufIndex++] = LOW_ASCII(radioSet.apert);
   3298          		//devSBuf[bufIndex++] = HIGH_ASCII(radioSet.apert);
   3299          		//devSBuf[bufIndex++] = LOW_ASCII(radioSet.shutter);
   3300          		//devSBuf[bufIndex++] = HIGH_ASCII(radioSet.shutter);
   3301          		//devSBuf[bufIndex++] = LOW_ASCII(radioSet.isoCmp);
   3302          		//devSBuf[bufIndex++] = HIGH_ASCII(radioSet.isoCmp);
   3303          		devSBuf[bufIndex++] = radioSet.adept;
   \   000032   90....       MOV     DPTR,#radioSet + 1
   \   000035   E0           MOVX    A,@DPTR
   \   000036   C0E0         PUSH    A
   \   000038   7403         MOV     A,#0x3
   \   00003A   12....       LCALL   ?XSTACK_DISP0_8
   \   00003D   D0E0         POP     A
   \   00003F   F0           MOVX    @DPTR,A
   3304          		devSBuf[bufIndex++] = radioSet.shutter;
   \   000040   90....       MOV     DPTR,#radioSet + 5
   \   000043   E0           MOVX    A,@DPTR
   \   000044   C0E0         PUSH    A
   \   000046   7404         MOV     A,#0x4
   \   000048   12....       LCALL   ?XSTACK_DISP0_8
   \   00004B   D0E0         POP     A
   \   00004D   F0           MOVX    @DPTR,A
   3305          		devSBuf[bufIndex++] = radioSet.isoCmp;
   \   00004E   90....       MOV     DPTR,#radioSet + 4
   \   000051   E0           MOVX    A,@DPTR
   \   000052   C0E0         PUSH    A
   \   000054   7405         MOV     A,#0x5
   \   000056   12....       LCALL   ?XSTACK_DISP0_8
   \   000059   D0E0         POP     A
   \   00005B   F0           MOVX    @DPTR,A
   \   00005C   7F06         MOV     R7,#0x6
   3306          
   3307          		for(i=0;i<5;i++)
   \   00005E   75..00       MOV     ?V0 + 2,#0x0
   3308          		{
   3309          			if(0x02==chicken[PARA_MULTI_A+i*2+1])
   \                     ??MultiInfoPars_1:
   \   000061   E5..         MOV     A,?V0 + 2
   \   000063   C3           CLR     C
   \   000064   33           RLC     A
   \   000065   F8           MOV     R0,A
   \   000066   E4           CLR     A
   \   000067   33           RLC     A
   \   000068   F9           MOV     R1,A
   \   000069   12....       LCALL   ??Subroutine307_0 & 0xFFFF
   \                     ??CrossCallReturnLabel_603:
   \   00006C   8F..         MOV     ?V0 + 0,R7
   \   00006E   85..82       MOV     DPL,?XSP + 0
   \   000071   85..83       MOV     DPH,?XSP + 1
   \   000074   E582         MOV     A,DPL
   \   000076   25..         ADD     A,?V0 + 0
   \   000078   FC           MOV     R4,A
   \   000079   E583         MOV     A,DPH
   \   00007B   3400         ADDC    A,#0x0
   \   00007D   FD           MOV     R5,A
   \   00007E   8882         MOV     DPL,R0
   \   000080   8983         MOV     DPH,R1
   \   000082   A3           INC     DPTR
   \   000083   A3           INC     DPTR
   \   000084   A3           INC     DPTR
   \   000085   A3           INC     DPTR
   \   000086   A3           INC     DPTR
   \   000087   A3           INC     DPTR
   \   000088   A3           INC     DPTR
   \   000089   A3           INC     DPTR
   \   00008A   E0           MOVX    A,@DPTR
   \   00008B   6402         XRL     A,#0x2
   \   00008D   8C82         MOV     DPL,R4
   \   00008F   8D83         MOV     DPH,R5
   \   000091   701C         JNZ     ??MultiInfoPars_2
   3310          			{
   3311          				devSBuf[bufIndex++] = WORKINGMODE_MULTI;
   \   000093   7402         MOV     A,#0x2
   \   000095   F0           MOVX    @DPTR,A
   \   000096   0F           INC     R7
   3312          				devSBuf[bufIndex++] = chicken[PARA_MULTI_A+i*2];
   \   000097   8882         MOV     DPL,R0
   \   000099   8983         MOV     DPH,R1
   \   00009B   A3           INC     DPTR
   \   00009C   A3           INC     DPTR
   \   00009D   A3           INC     DPTR
   \   00009E   A3           INC     DPTR
   \   00009F   A3           INC     DPTR
   \   0000A0   A3           INC     DPTR
   \   0000A1   A3           INC     DPTR
   \   0000A2   E0           MOVX    A,@DPTR
   \   0000A3   C0E0         PUSH    A
   \   0000A5   12....       LCALL   ?Subroutine169 & 0xFFFF
   3313          			}else
   \                     ??CrossCallReturnLabel_323:
   \   0000A8   12....       LCALL   ??Subroutine312_0 & 0xFFFF
   \                     ??CrossCallReturnLabel_621:
   \   0000AB   D0E0         POP     A
   \   0000AD   8013         SJMP    ??CrossCallReturnLabel_610
   3314          			{
   3315          				devSBuf[bufIndex++] = 0x07;
   \                     ??MultiInfoPars_2:
   \   0000AF   7407         MOV     A,#0x7
   \   0000B1   F0           MOVX    @DPTR,A
   \   0000B2   0F           INC     R7
   3316          				devSBuf[bufIndex++] = 0x00;
   \   0000B3   8F..         MOV     ?V0 + 0,R7
   \   0000B5   85..82       MOV     DPL,?XSP + 0
   \   0000B8   85..83       MOV     DPH,?XSP + 1
   \   0000BB   E582         MOV     A,DPL
   \   0000BD   25..         ADD     A,?V0 + 0
   \   0000BF   12....       LCALL   ?Subroutine129 & 0xFFFF
   3317          			}
   3318          			
   3319          		}
   \                     ??CrossCallReturnLabel_610:
   \   0000C2   F0           MOVX    @DPTR,A
   \   0000C3   0F           INC     R7
   \   0000C4   05..         INC     ?V0 + 2
   \   0000C6   E5..         MOV     A,?V0 + 2
   \   0000C8   C3           CLR     C
   \   0000C9   9405         SUBB    A,#0x5
   \   0000CB   4094         JC      ??MultiInfoPars_1
   3320          
   3321          		devSBuf[bufIndex++] = chicken[PARA_MULTI_HZ];
   \   0000CD   12....       LCALL   ?Subroutine118 & 0xFFFF
   \                     ??CrossCallReturnLabel_205:
   \   0000D0   C0E0         PUSH    A
   \   0000D2   12....       LCALL   ?Subroutine169 & 0xFFFF
   \                     ??CrossCallReturnLabel_324:
   \   0000D5   12....       LCALL   ??Subroutine312_0 & 0xFFFF
   \                     ??CrossCallReturnLabel_622:
   \   0000D8   D0E0         POP     A
   \   0000DA   F0           MOVX    @DPTR,A
   \   0000DB   0F           INC     R7
   3322          		devSBuf[bufIndex++] = chicken[PARA_MULTI_TM];
   \   0000DC   EA           MOV     A,R2
   \   0000DD   12....       LCALL   ?Subroutine131 & 0xFFFF
   \                     ??CrossCallReturnLabel_229:
   \   0000E0   EB           MOV     A,R3
   \   0000E1   12....       LCALL   ??Subroutine331_0 & 0xFFFF
   \                     ??CrossCallReturnLabel_754:
   \   0000E4   C0E0         PUSH    A
   \   0000E6   12....       LCALL   ?Subroutine169 & 0xFFFF
   \                     ??CrossCallReturnLabel_325:
   \   0000E9   12....       LCALL   ??Subroutine312_0 & 0xFFFF
   \                     ??CrossCallReturnLabel_623:
   \   0000EC   D0E0         POP     A
   \   0000EE   F0           MOVX    @DPTR,A
   \   0000EF   0F           INC     R7
   3323          
   3324          		//devSBuf[bufIndex++] = CalcSum(devSBuf+2,bufIndex-3);
   3325          		devSBuf[bufIndex++] = CalcSum(devSBuf+2,bufIndex-2);
   \   0000F0                ; Setup parameters for call to function CalcSum
   \   0000F0   74FE         MOV     A,#-0x2
   \   0000F2   2F           ADD     A,R7
   \   0000F3   F9           MOV     R1,A
   \   0000F4   7402         MOV     A,#0x2
   \   0000F6   12....       LCALL   ?XSTACK_DISP0_8
   \   0000F9   AA82         MOV     R2,DPL
   \   0000FB   AB83         MOV     R3,DPH
   \   0000FD   12....       LCALL   ??CalcSum?relay
   \   000100   12....       LCALL   ?Subroutine169 & 0xFFFF
   \                     ??CrossCallReturnLabel_326:
   \   000103   12....       LCALL   ??Subroutine312_0 & 0xFFFF
   \                     ??CrossCallReturnLabel_624:
   \   000106   E9           MOV     A,R1
   \   000107   F0           MOVX    @DPTR,A
   \   000108   0F           INC     R7
   3326          
   3327          		devSBuf[1] = bufIndex-2;
   \   000109   74FE         MOV     A,#-0x2
   \   00010B   2F           ADD     A,R7
   \   00010C   C0E0         PUSH    A
   \   00010E   7401         MOV     A,#0x1
   \   000110   12....       LCALL   ?XSTACK_DISP0_8
   \   000113   D0E0         POP     A
   \   000115   F0           MOVX    @DPTR,A
   3328          
   3329          		UartBulkSend(devSBuf,bufIndex);
   \   000116                ; Setup parameters for call to function UartBulkSend
   \   000116   EF           MOV     A,R7
   \   000117   F9           MOV     R1,A
   \   000118   85..82       MOV     DPL,?XSP + 0
   \   00011B   85..83       MOV     DPH,?XSP + 1
   \   00011E   AA82         MOV     R2,DPL
   \   000120   AB83         MOV     R3,DPH
   \   000122   12....       LCALL   ??UartBulkSend?relay
   3330          
   3331          		UART_SEND_DELAY();
   3332          		
   3333          
   3334          		
   3335          //		UartBulkSend(devSBuf,bufIndex);	
   3336          
   3337          		//macExMcuWaitMs(1);		
   3338          //		UART_SEND_DELAY();
   3339          #else
   3340          
   3341          		g_flaStatus = 0x02;
   3342          		bufIndex = 0;
   3343          		devSBuf[bufIndex++] = 0xA6;
   3344          		devSBuf[bufIndex++] = 0x02;
   3345          		devSBuf[bufIndex++] = 0x02;
   3346          		devSBuf[bufIndex++] = 0x02;
   3347          		devSBuf[bufIndex++] = 0x07;
   3348          		devSBuf[bufIndex++] = 0x07;
   3349          
   3350          		//tmp = WlMultiFrqConver(chicken[PARA_MULTI_HZ]);
   3351          		tmp = chicken[PARA_MULTI_HZ];
   3352          		devSBuf[bufIndex++] = LOW_ASCII(tmp);
   3353          		devSBuf[bufIndex++] = HIGH_ASCII(tmp);
   3354          
   3355          		tmp = WlMultiTimeConver(chicken[PARA_MULTI_TM]);
   3356          		if(!tmp)
   3357          		{
   3358          			tmp = 100;
   3359          		}
   3360          		devSBuf[bufIndex++] = LOW_ASCII(tmp);
   3361          		devSBuf[bufIndex++] = HIGH_ASCII(tmp);
   3362          
   3363          		//devSBuf[bufIndex++] = 0X00;
   3364          		//devSBuf[bufIndex++] = 0X00;
   3365          
   3366          		UartBulkSend(devSBuf,bufIndex);	
   3367          
   3368          		//macExMcuWaitMs(1);
   3369          		UART_SEND_DELAY();
   3370          
   3371          	       bufIndex = 0;
   3372          		devSBuf[bufIndex++] = 0xB2;
   3373          
   3374          		for(i=0;i<3;i++)
   3375          		{
   3376          			tmp = RfMcodeInvert(chicken[PARA_MULTI_A+i*2],HP_FLASHMODE_OFF)+1;
   3377          			devSBuf[bufIndex++] = LOW_ASCII(tmp);
   3378          			devSBuf[bufIndex++] = HIGH_ASCII(tmp);
   3379          		}
   3380          
   3381          		for(i=0;i<2;i++)
   3382          		{
   3383          			tmp = 0;
   3384          			devSBuf[bufIndex++] = LOW_ASCII(tmp);
   3385          			devSBuf[bufIndex++] = HIGH_ASCII(tmp);
   3386          		}
   3387          
   3388          		//devSBuf[bufIndex++] = 0X00;
   3389          		//devSBuf[bufIndex++] = 0X00;
   3390          
   3391          		UartBulkSend(devSBuf,bufIndex);	
   3392          		//macExMcuWaitMs(1);
   3393          		UART_SEND_DELAY();
   3394          
   3395          		bufIndex = 0;
   3396          
   3397          		devSBuf[bufIndex++] = 0xB4;
   3398          
   3399          		devSBuf[bufIndex++] = 'D';
   3400          		devSBuf[bufIndex++] = '2';
   3401          
   3402          		devSBuf[bufIndex++] = LOW_ASCII(SN_DELAY_2&0xff);
   3403          		devSBuf[bufIndex++] = HIGH_ASCII(SN_DELAY_2&0xff);
   3404          
   3405          		devSBuf[bufIndex++] = LOW_ASCII(SN_DELAY_2>>8);
   3406          		devSBuf[bufIndex++] = HIGH_ASCII(SN_DELAY_2>>8);
   3407          
   3408          		UartBulkSend(devSBuf,bufIndex);	
   3409          
   3410          		g_hpFlag = HP_FLASHMODE_OFF;
   3411          #endif
   3412          
   3413          	}
   3414          }
   \                     ??MultiInfoPars_0:
   \   000125   02....       LJMP    ?Subroutine4 & 0xFFFF

   \                                 In  segment BANKED_CODE, align 1, keep-with-next
   \                     ?Subroutine169:
   \   000000   8F..         MOV     ?V0 + 0,R7
   \   000002   85..82       MOV     DPL,?XSP + 0
   \   000005   85..83       MOV     DPH,?XSP + 1
   \   000008   E582         MOV     A,DPL
   \   00000A   12....       LCALL   ??Subroutine354_0 & 0xFFFF
   \                     ??CrossCallReturnLabel_925:
   \   00000D   E583         MOV     A,DPH
   \   00000F   22           RET

   \                                 In  segment BANKED_CODE, align 1, keep-with-next
   \                     ?Subroutine118:
   \   000000   EA           MOV     A,R2
   \   000001   240E         ADD     A,#0xe
   \   000003   F582         MOV     DPL,A
   \   000005   EB           MOV     A,R3
   \   000006   12....       LCALL   ??Subroutine295_0 & 0xFFFF
   \                     ??CrossCallReturnLabel_772:
   \   000009   22           RET

   \                                 In  segment BANKED_CODE, align 1, keep-with-next
   \                     ?Subroutine141:
   \   000000   F0           MOVX    @DPTR,A
   \   000001                ; Setup parameters for call to function HalUARTOpen
   \   000001                ; Setup parameters for call to function osal_memcpy
   \   000001   85..82       MOV     DPL,?XSP + 0
   \   000004   85..83       MOV     DPH,?XSP + 1
   \   000007   22           RET
   3415          
   3416          
   3417          

   \                                 In  segment BANKED_CODE, align 1, keep-with-next
   3418          DEVICE_DEFINE static void devJoinNetProc(macRx_t *payload)
   \                     devJoinNetProc:
   3419          {
   \   000000   74F6         MOV     A,#-0xa
   \   000002   12....       LCALL   ?BANKED_ENTER_XDATA
   \   000005                ; Saved register size: 10
   \   000005                ; Auto size: 0
   3420          	static int8 rcvCnt=0;
   3421          	static int8 flaFlag=0;
   3422          	switch(payload->msdu.p[0])
   \   000005   EA           MOV     A,R2
   \   000006   2402         ADD     A,#0x2
   \   000008   F8           MOV     R0,A
   \   000009   EB           MOV     A,R3
   \   00000A   12....       LCALL   ??Subroutine313_0 & 0xFFFF
   \                     ??CrossCallReturnLabel_642:
   \   00000D   FE           MOV     R6,A
   \   00000E   E9           MOV     A,R1
   \   00000F   FF           MOV     R7,A
   \   000010   8E82         MOV     DPL,R6
   \   000012   8F83         MOV     DPH,R7
   \   000014   12....       LCALL   ?Subroutine94 & 0xFFFF
   \                     ??CrossCallReturnLabel_155:
   \   000017   8882         MOV     DPL,R0
   \   000019   8983         MOV     DPH,R1
   \   00001B   E0           MOVX    A,@DPTR
   \   00001C   24FB         ADD     A,#-0x5
   \   00001E   7003         JNZ     $+5
   \   000020   02....       LJMP    ??devJoinNetProc_0 & 0xFFFF
   \   000023   24F6         ADD     A,#-0xa
   \   000025   7003         JNZ     $+5
   \   000027   02....       LJMP    ??devJoinNetProc_1 & 0xFFFF
   \   00002A   24F8         ADD     A,#-0x8
   \   00002C   7003         JNZ     $+5
   \   00002E   02....       LJMP    ??devJoinNetProc_2 & 0xFFFF
   \   000031   2487         ADD     A,#-0x79
   \   000033   607E         JZ      ??devJoinNetProc_3
   \   000035   24FE         ADD     A,#-0x2
   \   000037   6017         JZ      ??devJoinNetProc_4
   \   000039   24FC         ADD     A,#-0x4
   \   00003B   6027         JZ      ??devJoinNetProc_5
   \   00003D   14           DEC     A
   \   00003E   7003         JNZ     $+5
   \   000040   02....       LJMP    ??devJoinNetProc_6 & 0xFFFF
   \   000043   24FD         ADD     A,#-0x3
   \   000045   7003         JNZ     $+5
   \   000047   02....       LJMP    ??devJoinNetProc_7 & 0xFFFF
   \   00004A   14           DEC     A
   \   00004B   6058         JZ      ??devJoinNetProc_8
   \   00004D   02....       LJMP    ??CrossCallReturnLabel_826 & 0xFFFF
   3423          	{
   3424          		case 0x92:
   3425          			veriPckSendCallback = &InqureConfirm;
   \                     ??devJoinNetProc_4:
   \   000050   90....       MOV     DPTR,#veriPckSendCallback
   \   000053   74..         MOV     A,#??InqureConfirm?relay & 0xff
   \   000055   F0           MOVX    @DPTR,A
   \   000056   A3           INC     DPTR
   \   000057   74..         MOV     A,#(??InqureConfirm?relay >> 8) & 0xff
   \   000059   12....       LCALL   ?Subroutine133 & 0xFFFF
   3426          			//osal_start_timerEx( macEx_taskId, MACEX_VERI_SEND_INQURE, 5);	
   3427          			//osal_start_timerEx( macEx_taskId, MACEX_VERI_SEND_INQURE, 2);	
   3428          			//osal_start_timerEx( macEx_taskId, MACEX_VERI_SEND_INQURE, 5);	
   3429          			osal_start_timerEx( macEx_taskId, MACEX_VERI_SEND_INQURE, 5+(osal_rand()&0x03));	
   \                     ??CrossCallReturnLabel_234:
   \   00005C   FC           MOV     R4,A
   \                     ??devJoinNetProc_9:
   \   00005D   7D00         MOV     R5,#0x0
   \                     ??devJoinNetProc_10:
   \   00005F   7A02         MOV     R2,#0x2
   \   000061   02....       LJMP    ??devJoinNetProc_11 & 0xFFFF
   3430          		break;
   3431          
   3432          		case 0x96:
   3433          			//pConfig->myAddr = MAKEWORD(mpdu[1],mpdu[2]);
   3434          			pConfig->myAddr = MAKEWORD(payload->msdu.p[1],payload->msdu.p[2]);
   \                     ??devJoinNetProc_5:
   \   000064   12....       LCALL   ?Subroutine219 & 0xFFFF
   \                     ??CrossCallReturnLabel_377:
   \   000067   E0           MOVX    A,@DPTR
   \   000068   FA           MOV     R2,A
   \   000069   12....       LCALL   ??Subroutine321_0 & 0xFFFF
   \                     ??CrossCallReturnLabel_678:
   \   00006C   EA           MOV     A,R2
   \   00006D   F0           MOVX    @DPTR,A
   \   00006E   A3           INC     DPTR
   \   00006F   EB           MOV     A,R3
   \   000070   F0           MOVX    @DPTR,A
   3435          			//MAC_RADIO_SET_SHORT_ADDR(pConfig->myAddr);
   3436          			//macParameterSet();
   3437          			macSetShortAddr(pConfig->myAddr);
   \   000071   EA           MOV     A,R2
   \   000072   F8           MOV     R0,A
   \   000073   EB           MOV     A,R3
   \   000074   F9           MOV     R1,A
   \   000075   C2AF         CLR     0xa8.7
   \   000077   E8           MOV     A,R0
   \   000078   906174       MOV     DPTR,#0x6174
   \   00007B   F0           MOVX    @DPTR,A
   \   00007C   E9           MOV     A,R1
   \   00007D   A3           INC     DPTR
   \   00007E   F0           MOVX    @DPTR,A
   \   00007F   D2AF         SETB    0xa8.7
   3438          			g_devLinkFlag = 1;
   \   000081   90....       MOV     DPTR,#g_devLinkFlag
   \   000084   7401         MOV     A,#0x1
   \   000086   F0           MOVX    @DPTR,A
   3439          			//UartSendByte(0xA4);
   3440          			LED_INS_LINKED();
   \   000087   C292         CLR     0x90.2
   \   000089   D293         SETB    0x90.3
   3441          			UartSctSend(UART_SLAVE_LINKED,0x01,0);		//2015/10/25 for debug
   \   00008B                ; Setup parameters for call to function UartSctSend
   \   00008B   7B00         MOV     R3,#0x0
   \   00008D   FA           MOV     R2,A
   \   00008E   79CB         MOV     R1,#-0x35
   \   000090   12....       LCALL   ??UartSctSend?relay
   3442          			UART_INT_SET();				//2015/10/25 for debug
   \   000093   C284         CLR     0x80.4
   \   000095                ; Setup parameters for call to function macDelay
   \   000095   7A01         MOV     R2,#0x1
   \   000097   7B00         MOV     R3,#0x0
   \   000099   12....       LCALL   ??macDelay?relay
   \   00009C   D284         SETB    0x80.4
   3443          			veriPckSendCallback=&ReadyInfo;
   \   00009E   12....       LCALL   ?Subroutine137 & 0xFFFF
   3444          			//osal_start_timerEx( macEx_taskId, MACEX_VERI_SEND_INQURE, 7+(osal_rand()&0x03));
   3445          			osal_start_timerEx( macEx_taskId, MACEX_VERI_SEND_INQURE, 7+(osal_rand()&0x0f));
   \                     ??CrossCallReturnLabel_250:
   \   0000A1   2407         ADD     A,#0x7
   \   0000A3   80B7         SJMP    ??CrossCallReturnLabel_234
   3446          			//osal_start_timerEx(macEx_taskId, MACEX_LINK_TIMEOUT_EVENT,2000);
   3447          		break;
   3448          
   3449          		case 0x9B:
   3450          			if(g_devLinkFlag>0)
   \                     ??devJoinNetProc_8:
   \   0000A5   90....       MOV     DPTR,#g_devLinkFlag
   \   0000A8   E0           MOVX    A,@DPTR
   \   0000A9   7003         JNZ     $+5
   \   0000AB   02....       LJMP    ??CrossCallReturnLabel_826 & 0xFFFF
   3451          			{
   3452          				veriPckSendCallback = &ReConfirm;
   \   0000AE   12....       LCALL   ?Subroutine146 & 0xFFFF
   3453          				//osal_start_timerEx( macEx_taskId, MACEX_VERI_SEND_INQURE, 5+(osal_rand()&0x0F));	
   3454          				osal_start_timerEx( macEx_taskId, MACEX_VERI_SEND_INQURE, 5);	
   3455          			}
   \                     ??CrossCallReturnLabel_273:
   \   0000B1   80AA         SJMP    ??devJoinNetProc_9
   3456          		break;
   3457          
   3458          		case 0x90:
   3459          			//SIGNAL = !SIGNAL;
   3460          			//UartSendByte(0xAA);
   3461          #if 1
   3462          			if(0x0000==MAKEWORD(payload->msdu.p[2],payload->msdu.p[3]))
   \                     ??devJoinNetProc_3:
   \   0000B3   E8           MOV     A,R0
   \   0000B4   2403         ADD     A,#0x3
   \   0000B6   FA           MOV     R2,A
   \   0000B7   E9           MOV     A,R1
   \   0000B8   3400         ADDC    A,#0x0
   \   0000BA   FB           MOV     R3,A
   \   0000BB   E8           MOV     A,R0
   \   0000BC   2402         ADD     A,#0x2
   \   0000BE   08           INC     R0
   \   0000BF   08           INC     R0
   \   0000C0   12....       LCALL   ?Subroutine124 & 0xFFFF
   \                     ??CrossCallReturnLabel_438:
   \   0000C3   FD           MOV     R5,A
   \   0000C4   8A82         MOV     DPL,R2
   \   0000C6   8B83         MOV     DPH,R3
   \   0000C8   E0           MOVX    A,@DPTR
   \   0000C9   FE           MOV     R6,A
   \   0000CA   E4           CLR     A
   \   0000CB   2E           ADD     A,R6
   \   0000CC   4D           ORL     A,R5
   \   0000CD   7038         JNZ     ??devJoinNetProc_12
   3463          			{
   3464          				if(flaFlag>0)
   \   0000CF   90....       MOV     DPTR,#??flaFlag
   \   0000D2   E0           MOVX    A,@DPTR
   \   0000D3   9401         SUBB    A,#0x1
   \   0000D5   A2D2         MOV     C,0xD0 /* PSW */.2
   \   0000D7   65D0         XRL     A,PSW
   \   0000D9   33           RLC     A
   \   0000DA   4005         JC      ??devJoinNetProc_13
   3465          				{
   3466          					flaFlag = 0;
   \   0000DC   E4           CLR     A
   \                     ??devJoinNetProc_14:
   \   0000DD   F0           MOVX    @DPTR,A
   3467          					return;
   \   0000DE   02....       LJMP    ??CrossCallReturnLabel_826 & 0xFFFF
   3468          				}
   3469          				macExRxDisable();
   \                     ??devJoinNetProc_13:
   \   0000E1                ; Setup parameters for call to function macExRxDisable
   \   0000E1   12....       LCALL   ?Subroutine177 & 0xFFFF
   3470          				if(0x01==g_flaStatus)
   \                     ??CrossCallReturnLabel_333:
   \   0000E4   7016         JNZ     ??devJoinNetProc_15
   3471          				{
   3472          					//UartSendByte(0xAA);
   3473          					//UartSendByte(0x00);			//preflash
   3474          					UART_INT_SET();
   \                     ??devJoinNetProc_16:
   \   0000E6   C284         CLR     0x80.4
   \   0000E8                ; Setup parameters for call to function macDelay
   \   0000E8   7A01         MOV     R2,#0x1
   \   0000EA   7B00         MOV     R3,#0x0
   \   0000EC   12....       LCALL   ??macDelay?relay
   \   0000EF   D284         SETB    0x80.4
   3475          					
   3476          #ifdef DEBUG_NOTRACE
   3477          					LED_RED_TOGGLE();
   3478          #endif
   3479          					g_flaStatus = 0;
   \                     ??devJoinNetProc_17:
   \   0000F1   90....       MOV     DPTR,#g_flaStatus
   \   0000F4   E4           CLR     A
   \   0000F5   F0           MOVX    @DPTR,A
   3480          					rcvCnt = 0;
   \   0000F6   90....       MOV     DPTR,#??rcvCnt
   \   0000F9   F0           MOVX    @DPTR,A
   \   0000FA   8005         SJMP    ??devJoinNetProc_18
   3481          				}else if(0x02==g_flaStatus)
   \                     ??devJoinNetProc_15:
   \   0000FC   E0           MOVX    A,@DPTR
   \   0000FD   6402         XRL     A,#0x2
   \   0000FF   60E5         JZ      ??devJoinNetProc_16
   3482          				{
   3483          				/*
   3484          					if(g_hpFlag>0)
   3485          					{
   3486          						UartSendByte(0xAC);
   3487          						UartSendByte(0x00);		//high speed
   3488          					}else
   3489          					{
   3490          						UartSendByte(0xAB);
   3491          						UartSendByte(0x00);
   3492          					}
   3493          				*/
   3494          					UART_INT_SET();
   3495          				
   3496          #ifdef DEBUG_NOTRACE
   3497          					LED_RED_TOGGLE();
   3498          #endif
   3499          					g_flaStatus = 0;
   3500          					rcvCnt = 0;
   3501          				}
   3502          				macExRxEnable();
   \                     ??devJoinNetProc_18:
   \   000101                ; Setup parameters for call to function macExRxEnable
   \   000101   12....       LCALL   ??macExRxEnable?relay
   \   000104   02....       LJMP    ??CrossCallReturnLabel_826 & 0xFFFF
   3503          				//rcvCnt = 0;								
   3504          			}else if(0x03e8==MAKEWORD(payload->msdu.p[2],payload->msdu.p[3]))
   \                     ??devJoinNetProc_12:
   \   000107   EE           MOV     A,R6
   \   000108   FC           MOV     R4,A
   \   000109   74E8         MOV     A,#-0x18
   \   00010B   6C           XRL     A,R4
   \   00010C   7003         JNZ     ??devJoinNetProc_19
   \   00010E   7403         MOV     A,#0x3
   \   000110   6D           XRL     A,R5
   \                     ??devJoinNetProc_19:
   \   000111   701E         JNZ     ??devJoinNetProc_20
   3505          			{
   3506          				//macDelay(2);					//2015/7/1
   3507          				//macPreDelay(100);
   3508          				macExRxDisable();
   \   000113                ; Setup parameters for call to function macExRxDisable
   \   000113   12....       LCALL   ?Subroutine177 & 0xFFFF
   3509          				if(0x01==g_flaStatus)
   \                     ??CrossCallReturnLabel_334:
   \   000116   700B         JNZ     ??devJoinNetProc_21
   3510          				{
   3511          					//UartSendByte(0xAA);
   3512          					//UartSendByte(0x00);
   3513          					//UART_INT_SET();
   3514          					UartSctSend(UART_SLAVE_PREFLA, 0,0);
   \   000118                ; Setup parameters for call to function UartSctSend
   \   000118   7B00         MOV     R3,#0x0
   \   00011A   7A00         MOV     R2,#0x0
   \   00011C   79CA         MOV     R1,#-0x36
   \   00011E   12....       LCALL   ??UartSctSend?relay
   3515          #ifdef DEBUG_NOTRACE
   3516          					LED_RED_TOGGLE();
   3517          #endif
   3518          					g_flaStatus = 0;
   \   000121   80CE         SJMP    ??devJoinNetProc_17
   3519          					rcvCnt = 0;
   3520          				}else if(0x02==g_flaStatus)
   \                     ??devJoinNetProc_21:
   \   000123   E0           MOVX    A,@DPTR
   \   000124   6402         XRL     A,#0x2
   \   000126   70D9         JNZ     ??devJoinNetProc_18
   3521          				{
   3522          					macDelay(1);
   \   000128                ; Setup parameters for call to function macDelay
   \   000128   7A01         MOV     R2,#0x1
   \   00012A   7B00         MOV     R3,#0x0
   \   00012C   12....       LCALL   ??macDelay?relay
   3523          					if(g_hpFlag>0)
   3524          					{
   3525          						//UartSendByte(0xAC);
   3526          						//UartSendByte(0x00);
   3527          						UART_INT_SET();
   \   00012F   80B5         SJMP    ??devJoinNetProc_16
   3528          #ifdef DEBUG_NOTRACE
   3529          						LED_RED_TOGGLE();
   3530          #endif
   3531          					}else
   3532          					{
   3533          						//UartSendByte(0xAB);
   3534          						//UartSendByte(0x00);
   3535          						UART_INT_SET();
   3536          #ifdef DEBUG_NOTRACE
   3537          						LED_RED_TOGGLE();
   3538          #endif
   3539          					}
   3540          					g_flaStatus = 0;
   3541          					rcvCnt = 0;
   3542          				}
   3543          				macExRxEnable();
   3544          				//rcvCnt = 0;
   3545          			}else if(0x07d0==MAKEWORD(payload->msdu.p[2],payload->msdu.p[3]))
   \                     ??devJoinNetProc_20:
   \   000131   8882         MOV     DPL,R0
   \   000133   8983         MOV     DPH,R1
   \   000135   E0           MOVX    A,@DPTR
   \   000136   F9           MOV     R1,A
   \   000137   8A82         MOV     DPL,R2
   \   000139   8B83         MOV     DPH,R3
   \   00013B   E0           MOVX    A,@DPTR
   \   00013C   F8           MOV     R0,A
   \   00013D   74D0         MOV     A,#-0x30
   \   00013F   68           XRL     A,R0
   \   000140   7003         JNZ     ??devJoinNetProc_22
   \   000142   7407         MOV     A,#0x7
   \   000144   69           XRL     A,R1
   \                     ??devJoinNetProc_22:
   \   000145   6003         JZ      $+5
   \   000147   02....       LJMP    ??CrossCallReturnLabel_826 & 0xFFFF
   3546          			{	
   3547          				//macDelay(3);    //2015/7/1//debug		//7DII
   3548          				//macDelay(2);
   3549          				macDelay(1);
   \   00014A                ; Setup parameters for call to function macDelay
   \   00014A   7A01         MOV     R2,#0x1
   \   00014C   7B00         MOV     R3,#0x0
   \   00014E   12....       LCALL   ??macDelay?relay
   3550          				macExRxDisable();
   \   000151                ; Setup parameters for call to function macExRxDisable
   \   000151   12....       LCALL   ?Subroutine177 & 0xFFFF
   3551          				//LED_GREEN_TOGGLE();
   3552          				if(0x01==g_flaStatus)
   \                     ??CrossCallReturnLabel_335:
   \   000154   700B         JNZ     ??devJoinNetProc_23
   3553          				{
   3554          					//UartSendByte(0xAA);
   3555          					//UartSendByte(0x00);
   3556          					//UART_INT_SET();
   3557          					UartSctSend(UART_SLAVE_PREFLA, 0,0);
   \   000156                ; Setup parameters for call to function UartSctSend
   \   000156   7B00         MOV     R3,#0x0
   \   000158   7A00         MOV     R2,#0x0
   \   00015A   79CA         MOV     R1,#-0x36
   \   00015C   12....       LCALL   ??UartSctSend?relay
   3558          #ifdef DEBUG_NOTRACE
   3559          					LED_RED_TOGGLE();
   3560          #endif
   3561          					g_flaStatus = 0;
   \   00015F   8017         SJMP    ??devJoinNetProc_24
   3562          					rcvCnt = 0;
   3563          				}else if(0x02==g_flaStatus)
   \                     ??devJoinNetProc_23:
   \   000161   E0           MOVX    A,@DPTR
   \   000162   6402         XRL     A,#0x2
   \   000164   701B         JNZ     ??devJoinNetProc_25
   3564          				{
   3565          				/*
   3566          					if(g_hpFlag>0)
   3567          					{
   3568          						UartSendByte(0xAC);
   3569          						UartSendByte(0x00);
   3570          					}else
   3571          					{
   3572          						UartSendByte(0xAB);
   3573          						UartSendByte(0x00);
   3574          					}
   3575          				*/
   3576          					//macDelay(2);
   3577          					macDelay(2);
   \   000166                ; Setup parameters for call to function macDelay
   \   000166   7A02         MOV     R2,#0x2
   \   000168   7B00         MOV     R3,#0x0
   \   00016A   12....       LCALL   ??macDelay?relay
   3578          					UART_INT_SET();
   \   00016D   C284         CLR     0x80.4
   \   00016F                ; Setup parameters for call to function macDelay
   \   00016F   7A01         MOV     R2,#0x1
   \   000171   7B00         MOV     R3,#0x0
   \   000173   12....       LCALL   ??macDelay?relay
   \   000176   D284         SETB    0x80.4
   3579          #ifdef DEBUG_NOTRACE
   3580          					LED_RED_TOGGLE();
   3581          #endif
   3582          					g_flaStatus = 0;
   \                     ??devJoinNetProc_24:
   \   000178   90....       MOV     DPTR,#g_flaStatus
   \   00017B   E4           CLR     A
   \   00017C   F0           MOVX    @DPTR,A
   3583          					rcvCnt = 0;
   \   00017D   90....       MOV     DPTR,#??rcvCnt
   \   000180   F0           MOVX    @DPTR,A
   3584          				}
   3585          				macExRxEnable();
   \                     ??devJoinNetProc_25:
   \   000181                ; Setup parameters for call to function macExRxEnable
   \   000181   12....       LCALL   ??macExRxEnable?relay
   3586          				flaFlag = 1;
   \   000184   90....       MOV     DPTR,#??flaFlag
   \   000187   7401         MOV     A,#0x1
   \   000189   02....       LJMP    ??devJoinNetProc_14 & 0xFFFF
   3587          			}
   3588          			//rcvCnt = 0;
   3589          			//UartBulkSend("abcdefghij",sizeof("abcdefghij")-1);
   3590          #else
   3591          		g_flaStatus = 0;
   3592          #endif
   3593          		break;
   3594          
   3595          		case 0x05:
   3596          			if(g_devLinkFlag>0)
   \                     ??devJoinNetProc_0:
   \   00018C   90....       MOV     DPTR,#g_devLinkFlag
   \   00018F   E0           MOVX    A,@DPTR
   \   000190   7003         JNZ     $+5
   \   000192   02....       LJMP    ??CrossCallReturnLabel_826 & 0xFFFF
   3597          			{
   3598          				switch(MAKEWORD(payload->msdu.p[3],payload->msdu.p[4]))
   \   000195   8882         MOV     DPL,R0
   \   000197   8983         MOV     DPH,R1
   \   000199   A3           INC     DPTR
   \   00019A   A3           INC     DPTR
   \   00019B   12....       LCALL   ?Subroutine91 & 0xFFFF
   \                     ??CrossCallReturnLabel_142:
   \   00019E   A3           INC     DPTR
   \   00019F   A3           INC     DPTR
   \   0001A0   E0           MOVX    A,@DPTR
   \   0001A1   F5..         MOV     ?V0 + 0,A
   \   0001A3   EB           MOV     A,R3
   \   0001A4   F5..         MOV     ?V0 + 1,A
   \   0001A6   78..         MOV     R0,#?V0 + 0
   \   0001A8   12....       LCALL   ?US_SWITCH_SPARSE
   \                     `?<Jumptable for devJoinNetProc>_0`:
   \   0001AB   0000         DW        0
   \   0001AD   0300         DW        3
   \   0001AF   0032         DW        12800
   \   0001B1   ....         DW        ??devJoinNetProc_26
   \   0001B3   0132         DW        12801
   \   0001B5   ....         DW        ??devJoinNetProc_27
   \   0001B7   0033         DW        13056
   \   0001B9   ....         DW        ??devJoinNetProc_26
   \   0001BB   ....         DW        ??CrossCallReturnLabel_826
   3599          				{
   3600          					case 0x3200:
   3601          					case 0x3300:
   3602          					veriPckSendCallback=&ReadyInfo;
   \                     ??devJoinNetProc_26:
   \   0001BD   90....       MOV     DPTR,#veriPckSendCallback
   \   0001C0   74..         MOV     A,#??ReadyInfo?relay & 0xff
   \   0001C2   F0           MOVX    @DPTR,A
   \   0001C3   A3           INC     DPTR
   \   0001C4   74..         MOV     A,#(??ReadyInfo?relay >> 8) & 0xff
   \   0001C6   F0           MOVX    @DPTR,A
   3603          					osal_start_timerEx( macEx_taskId, MACEX_VERI_SEND_INQURE, 10);
   \   0001C7                ; Setup parameters for call to function osal_start_timerEx
   \   0001C7   7C0A         MOV     R4,#0xa
   \   0001C9   7D00         MOV     R5,#0x0
   \   0001CB   0A           INC     R2
   \   0001CC   0A           INC     R2
   \   0001CD   02....       LJMP    ??devJoinNetProc_11 & 0xFFFF
   3604          					break;
   3605          
   3606          					case 0x3201:
   3607          					veriPckSendCallback = NULL;
   \                     ??devJoinNetProc_27:
   \   0001D0   90....       MOV     DPTR,#veriPckSendCallback
   \   0001D3   E4           CLR     A
   \   0001D4   F0           MOVX    @DPTR,A
   \   0001D5   A3           INC     DPTR
   \   0001D6   02....       LJMP    ??devJoinNetProc_14 & 0xFFFF
   3608          					break;
   3609          					
   3610          					
   3611          				}
   3612          			}
   3613          			/*
   3614          			if(0x3200==MAKEWORD(payload->msdu.p[3],payload->msdu.p[4]))
   3615          			{
   3616          				veriPckSendCallback=&ReadyInfo;
   3617          				osal_start_timerEx( macEx_taskId, MACEX_VERI_SEND_INQURE, 10);	
   3618          			}*/
   3619          		break;
   3620          
   3621          		case 0x9A:
   3622          			//osal_stop_timerEx(macEx_taskId, MACEX_LINK_TIMEOUT_EVENT);
   3623          			/*
   3624          			if(payload->msdu.p[2]>0)
   3625          			{
   3626          				osal_start_timerEx(macEx_taskId, MACEX_LINK_TIMEOUT_EVENT,5000+(osal_rand()&0xFF));
   3627          			}else if(g_devLinkFlag>0)
   3628          			{
   3629          				g_devLinkFlag = 0;
   3630          				UartSendByte(0xA5);
   3631          				veriPckSendCallback=&macRollPolingProc;
   3632          				osal_start_timerEx( macEx_taskId, MACEX_VERI_SEND_INQURE, 200+(osal_rand()&0xFF));	
   3633          			}*/
   3634          			if(g_devLinkFlag>0)
   \                     ??devJoinNetProc_7:
   \   0001D9   90....       MOV     DPTR,#g_devLinkFlag
   \   0001DC   E0           MOVX    A,@DPTR
   \   0001DD   7003         JNZ     $+5
   \   0001DF   02....       LJMP    ??CrossCallReturnLabel_826 & 0xFFFF
   3635          			{
   3636          				if(payload->msdu.p[2]>0)
   \   0001E2   8882         MOV     DPL,R0
   \   0001E4   8983         MOV     DPH,R1
   \   0001E6   A3           INC     DPTR
   \   0001E7   A3           INC     DPTR
   \   0001E8   E0           MOVX    A,@DPTR
   \   0001E9   706F         JNZ     ??devJoinNetProc_28
   3637          				{
   3638          					osal_start_timerEx(macEx_taskId, MACEX_LINK_TIMEOUT_EVENT,5000+(osal_rand()&0xFF));
   \   0001EB                ; Setup parameters for call to function osal_rand
   3639          				}else
   3640          				{
   3641          					g_devLinkFlag = 0;
   \   0001EB   90....       MOV     DPTR,#g_devLinkFlag
   \   0001EE   E4           CLR     A
   \   0001EF   F0           MOVX    @DPTR,A
   3642          					//UartSendByte(0xA5);
   3643          					LED_INS_UNLINK();
   \   0001F0   D292         SETB    0x90.2
   \   0001F2   C293         CLR     0x90.3
   3644          					veriPckSendCallback=&macRollPolingProc;
   3645          					osal_start_timerEx( macEx_taskId, MACEX_VERI_SEND_INQURE, 200+(osal_rand()&0xFF));	
   3646          				}				
   3647          			}
   \                     ??devJoinNetProc_29:
   \   0001F4   12....       LCALL   ?Subroutine153 & 0xFFFF
   \                     ??CrossCallReturnLabel_287:
   \   0001F7   24C8         ADD     A,#-0x38
   \   0001F9   FC           MOV     R4,A
   \   0001FA   E4           CLR     A
   \   0001FB   3400         ADDC    A,#0x0
   \   0001FD   FD           MOV     R5,A
   \   0001FE   02....       LJMP    ??devJoinNetProc_10 & 0xFFFF
   3648          			//g_expireCounter = 0;
   3649          			//HalUARTWrite(0,&payload->msdu.p[0],1);
   3650          		break;
   3651          
   3652          		case 0x97:
   3653          			if(0x0FFE==MAKEWORD(payload->msdu.p[1],payload->msdu.p[2]))
   \                     ??devJoinNetProc_6:
   \   000201   12....       LCALL   ?Subroutine91 & 0xFFFF
   \                     ??CrossCallReturnLabel_143:
   \   000204   E0           MOVX    A,@DPTR
   \   000205   F8           MOV     R0,A
   \   000206   EB           MOV     A,R3
   \   000207   F9           MOV     R1,A
   \   000208   74FE         MOV     A,#-0x2
   \   00020A   68           XRL     A,R0
   \   00020B   7003         JNZ     ??devJoinNetProc_30
   \   00020D   740F         MOV     A,#0xf
   \   00020F   69           XRL     A,R1
   \                     ??devJoinNetProc_30:
   \   000210   7057         JNZ     ??CrossCallReturnLabel_826
   3654          			{
   3655          				g_devLinkFlag = 0;
   \   000212   90....       MOV     DPTR,#g_devLinkFlag
   \   000215   E4           CLR     A
   \   000216   F0           MOVX    @DPTR,A
   3656          				//UartSendByte(0xA5);
   3657          				LED_INS_UNLINK();
   \   000217   D292         SETB    0x90.2
   \   000219   C293         CLR     0x90.3
   3658          				UartSctSend(UART_SLAVE_LINKED,0x00,0);
   \   00021B                ; Setup parameters for call to function UartSctSend
   \   00021B   FB           MOV     R3,A
   \   00021C   79CB         MOV     R1,#-0x35
   \   00021E   12....       LCALL   ??UartSctSend?relay
   3659          				//MAC_RADIO_SET_SHORT_ADDR(ADDR);
   3660          				//HAL_DISABLE_INTERRUPTS();
   3661          				//macLowLevelReset();
   3662          				//HAL_ENABLE_INTERRUPTS();
   3663          				//MAC_RADIO_MCU_INIT();
   3664          				//MAC_RADIO_FLUSH_RX_FIFO();
   3665          				//MAC_RADIO_FLUSH_TX_FIFO();
   3666          				//macLowLevelInit();
   3667          				osal_stop_timerEx(macEx_taskId, MACEX_VERI_SEND_INQURE);
   \   000221                ; Setup parameters for call to function osal_stop_timerEx
   \   000221   7A02         MOV     R2,#0x2
   \   000223   7B00         MOV     R3,#0x0
   \   000225   90....       MOV     DPTR,#macEx_taskId
   \   000228   E0           MOVX    A,@DPTR
   \   000229   F9           MOV     R1,A
   \   00022A   12....       LCALL   ??osal_stop_timerEx?relay
   3668          				veriPckSendCallback=&macRollPolingProc;
   \   00022D   80C5         SJMP    ??devJoinNetProc_29
   3669          				//osal_start_timerEx( macEx_taskId, MACEX_VERI_SEND_INQURE, 200);	
   3670          				//osal_start_timerEx( macEx_taskId, MACEX_VERI_SEND_INQURE, osal_rand()&0xFF);
   3671          				//osal_start_timerEx( macEx_taskId, MACEX_VERI_SEND_INQURE, 200+pConfig->myAddr*200);
   3672          				osal_start_timerEx( macEx_taskId, MACEX_VERI_SEND_INQURE, 200+(osal_rand()&0xFF));
   3673          				//asm("LJMP 0x800\n");
   3674          			}
   3675          		break;
   3676          
   3677          		case 0x17:					//preflash and flash inform
   3678          			//UartSendByte(0xBB);
   3679          			if(0xFF47==MAKEWORD(payload->msdu.p[2],payload->msdu.p[3]))
   \                     ??devJoinNetProc_2:
   \   00022F   12....       LCALL   ?Subroutine86 & 0xFFFF
   \                     ??CrossCallReturnLabel_136:
   \   000232   7447         MOV     A,#0x47
   \   000234   68           XRL     A,R0
   \   000235   7003         JNZ     ??devJoinNetProc_31
   \   000237   74FF         MOV     A,#-0x1
   \   000239   69           XRL     A,R1
   \                     ??devJoinNetProc_31:
   \   00023A   702D         JNZ     ??CrossCallReturnLabel_826
   3680          			{
   3681          				//if(!rcvCnt)
   3682          				//{
   3683          					macExRxDisable();
   \   00023C                ; Setup parameters for call to function macExRxDisable
   \   00023C   12....       LCALL   ?Subroutine77 & 0xFFFF
   3684          					DevParsInfo(&(payload->msdu.p[0]),rcvCnt++);
   \                     ??CrossCallReturnLabel_119:
   \   00023F   12....       LCALL   ??DevParsInfo?relay
   3685          					macExRxEnable();
   \   000242                ; Setup parameters for call to function macExRxEnable
   \   000242   8013         SJMP    ??devJoinNetProc_32
   \   000244                ; Setup parameters for call to function osal_rand
   3686          					osal_start_timerEx(macEx_taskId, MACEX_LINK_TIMEOUT_EVENT,5000+(osal_rand()&0xFF));
   3687          					//rcvCnt++;
   3688          				//}								
   3689          			}
   3690          			//UartBulkSend("ABCDEFGHIJ",sizeof("ABCDEFGHIJ")-1);
   3691          		break;
   3692          
   3693          		case 0x0F:
   3694          			if(0xFF48==MAKEWORD(payload->msdu.p[2],payload->msdu.p[3]))
   \                     ??devJoinNetProc_1:
   \   000244   12....       LCALL   ?Subroutine86 & 0xFFFF
   \                     ??CrossCallReturnLabel_137:
   \   000247   7448         MOV     A,#0x48
   \   000249   68           XRL     A,R0
   \   00024A   7003         JNZ     ??devJoinNetProc_33
   \   00024C   74FF         MOV     A,#-0x1
   \   00024E   69           XRL     A,R1
   \                     ??devJoinNetProc_33:
   \   00024F   7018         JNZ     ??CrossCallReturnLabel_826
   3695          			{
   3696          				macExRxDisable();
   \   000251                ; Setup parameters for call to function macExRxDisable
   \   000251   12....       LCALL   ?Subroutine77 & 0xFFFF
   3697          				MultiInfoPars(&(payload->msdu.p[0]),rcvCnt++);
   \                     ??CrossCallReturnLabel_120:
   \   000254   12....       LCALL   ??MultiInfoPars?relay
   3698          				macExRxEnable();
   \   000257                ; Setup parameters for call to function macExRxEnable
   \                     ??devJoinNetProc_32:
   \   000257   12....       LCALL   ??macExRxEnable?relay
   3699          				osal_start_timerEx(macEx_taskId, MACEX_LINK_TIMEOUT_EVENT,5000+(osal_rand()&0xFF));
   \   00025A                ; Setup parameters for call to function osal_rand
   3700          			}
   3701          		break;
   3702          
   3703          		
   3704          	}
   \                     ??devJoinNetProc_28:
   \   00025A   12....       LCALL   ??Subroutine304_0 & 0xFFFF
   \                     ??CrossCallReturnLabel_588:
   \   00025D   2488         ADD     A,#-0x78
   \   00025F   FC           MOV     R4,A
   \   000260   E4           CLR     A
   \   000261   3413         ADDC    A,#0x13
   \   000263   FD           MOV     R5,A
   \   000264   7A04         MOV     R2,#0x4
   \                     ??devJoinNetProc_11:
   \   000266   12....       LCALL   ??Subroutine341_0 & 0xFFFF
   \                     ??CrossCallReturnLabel_826:
   \   000269   02....       LJMP    ??Subroutine318_0 & 0xFFFF
   \   00026C                REQUIRE _A_P1
   \   00026C                REQUIRE _A_P0
   \   00026C                REQUIRE _A_IEN0
   3705          }

   \                                 In  segment BANKED_CODE, align 1, keep-with-next
   \                     ?Subroutine177:
   \   000000   12....       LCALL   ??macExRxDisable?relay
   \   000003   90....       MOV     DPTR,#g_flaStatus
   \   000006   E0           MOVX    A,@DPTR
   \   000007   6401         XRL     A,#0x1
   \   000009   22           RET

   \                                 In  segment BANKED_CODE, align 1, keep-with-next
   \                     ?Subroutine91:
   \   000000   A3           INC     DPTR
   \   000001   12....       LCALL   ?Subroutine213 & 0xFFFF
   \                     ??CrossCallReturnLabel_370:
   \   000004   A3           INC     DPTR
   \   000005   A3           INC     DPTR
   \   000006   22           RET

   \                                 In  segment BANKED_CODE, align 1, keep-with-next
   \                     ?Subroutine86:
   \   000000   A3           INC     DPTR
   \   000001   12....       LCALL   ?Subroutine219 & 0xFFFF
   \                     ??CrossCallReturnLabel_378:
   \   000004   A3           INC     DPTR
   \   000005   E0           MOVX    A,@DPTR
   \   000006   F8           MOV     R0,A
   \   000007   EB           MOV     A,R3
   \   000008   F9           MOV     R1,A
   \   000009   22           RET

   \                                 In  segment BANKED_CODE, align 1, keep-with-next
   \                     ?Subroutine219:
   \   000000   A3           INC     DPTR
   \   000001   E0           MOVX    A,@DPTR
   \   000002   FB           MOV     R3,A
   \   000003   8882         MOV     DPL,R0
   \   000005   8983         MOV     DPH,R1
   \   000007   A3           INC     DPTR
   \   000008   A3           INC     DPTR
   \   000009   22           RET

   \                                 In  segment BANKED_CODE, align 1, keep-with-next
   \                     ?Subroutine77:
   \   000000   12....       LCALL   ??macExRxDisable?relay
   \   000003   90....       MOV     DPTR,#??rcvCnt
   \   000006   E0           MOVX    A,@DPTR
   \   000007   F9           MOV     R1,A
   \   000008   7401         MOV     A,#0x1
   \   00000A   29           ADD     A,R1
   \   00000B   F0           MOVX    @DPTR,A
   \   00000C                ; Setup parameters for call to function DevParsInfo
   \   00000C                ; Setup parameters for call to function MultiInfoPars
   \   00000C   8E82         MOV     DPL,R6
   \   00000E   8F83         MOV     DPH,R7
   \   000010   12....       LCALL   ?Subroutine204 & 0xFFFF
   \                     ??CrossCallReturnLabel_710:
   \   000013   22           RET

   \                                 In  segment BANKED_CODE, align 1, keep-with-next
   \                     ??Subroutine321_0:
   \   000000   12....       LCALL   ?Subroutine208 & 0xFFFF
   \                     ??CrossCallReturnLabel_682:
   \   000003   22           RET

   \                                 In  segment BANKED_CODE, align 1, keep-with-next
   \                     ?Subroutine213:
   \   000000   E0           MOVX    A,@DPTR
   \   000001   FA           MOV     R2,A
   \   000002   E4           CLR     A
   \   000003   CA           XCH     A,R2
   \   000004   FB           MOV     R3,A
   \   000005   8882         MOV     DPL,R0
   \   000007   8983         MOV     DPH,R1
   \   000009   22           RET

   \                                 In  segment XDATA_Z, align 1, keep-with-next
   \                     ??rcvCnt:
   \   000000                DS 1
   \   000001                REQUIRE __INIT_XDATA_Z

   \                                 In  segment XDATA_Z, align 1, keep-with-next
   \                     ??flaFlag:
   \   000000                DS 1
   \   000001                REQUIRE __INIT_XDATA_Z
   3706          
   3707          
   3708          static uint8 macMallocNoMac(void)
   3709          {
   3710          	uint8 pDev=0;
   3711          	for(pDev=0;pDev<DEVICE_TOTAL;pDev++)
   3712          	{
   3713          		if(DEVICE_UNVERIFIED==pConfig->devHead[pDev].veriFlag)
   3714          		{
   3715          			return pDev;
   3716          		}
   3717          	}
   3718          	return DEVICE_TOTAL;
   3719          }
   3720          

   \                                 In  segment BANKED_CODE, align 1, keep-with-next
   \                     ??Subroutine271_0:
   \   000000   12....       LCALL   ??Subroutine350_0 & 0xFFFF
   \                     ??CrossCallReturnLabel_897:
   \   000003   12....       LCALL   ?Subroutine203 & 0xFFFF
   \                     ??CrossCallReturnLabel_452:
   \   000006   22           RET

   \                                 In  segment BANKED_CODE, align 1, keep-with-next
   \                     ?Subroutine168:
   \   000000   04           INC     A
   \   000001                REQUIRE ??Subroutine300_0
   \   000001                ; // Fall through to label ??Subroutine300_0

   \                                 In  segment BANKED_CODE, align 1, keep-with-next
   3721          static void MstBridgeHandle(macRx_t *payload)
   \                     MstBridgeHandle:
   3722          {
   \   000000   74F5         MOV     A,#-0xb
   \   000002   12....       LCALL   ?BANKED_ENTER_XDATA
   \   000005                ; Saved register size: 11
   \   000005                ; Auto size: 0
   3723          
   3724          	static uint8 relCmdCnt=0; 
   3725          	uint16 tm;
   3726          	//DeviceInfo *pDev;
   3727          	uint8 pDev;
   3728          	
   3729          	switch(payload->msdu.p[0])
   \   000005   EA           MOV     A,R2
   \   000006   2402         ADD     A,#0x2
   \   000008   FE           MOV     R6,A
   \   000009   EB           MOV     A,R3
   \   00000A   3400         ADDC    A,#0x0
   \   00000C   FF           MOV     R7,A
   \   00000D   8E82         MOV     DPL,R6
   \   00000F   8F83         MOV     DPH,R7
   \   000011   12....       LCALL   ?Subroutine93 & 0xFFFF
   \                     ??CrossCallReturnLabel_148:
   \   000014   FC           MOV     R4,A
   \   000015   E9           MOV     A,R1
   \   000016   FD           MOV     R5,A
   \   000017   EA           MOV     A,R2
   \   000018   2412         ADD     A,#0x12
   \   00001A   F8           MOV     R0,A
   \   00001B   EB           MOV     A,R3
   \   00001C   3400         ADDC    A,#0x0
   \   00001E   F9           MOV     R1,A
   \   00001F   88..         MOV     ?V0 + 0,R0
   \   000021   89..         MOV     ?V0 + 1,R1
   \   000023   8C82         MOV     DPL,R4
   \   000025   8D83         MOV     DPH,R5
   \   000027   E0           MOVX    A,@DPTR
   \   000028   24FC         ADD     A,#-0x4
   \   00002A   7003         JNZ     $+5
   \   00002C   02....       LJMP    ??MstBridgeHandle_0 & 0xFFFF
   \   00002F   14           DEC     A
   \   000030   602D         JZ      ??MstBridgeHandle_1
   \   000032   14           DEC     A
   \   000033   7003         JNZ     $+5
   \   000035   02....       LJMP    ??MstBridgeHandle_2 & 0xFFFF
   \   000038   2470         ADD     A,#0x70
   \   00003A   7003         JNZ     $+5
   \   00003C   02....       LJMP    ??MstBridgeHandle_3 & 0xFFFF
   \   00003F   14           DEC     A
   \   000040   7003         JNZ     $+5
   \   000042   02....       LJMP    ??MstBridgeHandle_4 & 0xFFFF
   \   000045   24FD         ADD     A,#-0x3
   \   000047   7003         JNZ     $+5
   \   000049   02....       LJMP    ??MstBridgeHandle_5 & 0xFFFF
   \   00004C   14           DEC     A
   \   00004D   6003         JZ      $+5
   \   00004F   02....       LJMP    ??CrossCallReturnLabel_281 & 0xFFFF
   3730          	{
   3731          		case 0x9B:
   3732          			veriPckSendCallback = &ReConfirm;
   \   000052   12....       LCALL   ?Subroutine146 & 0xFFFF
   3733          			osal_start_timerEx( macEx_taskId, MACEX_VERI_SEND_INQURE, 5);	
   \                     ??CrossCallReturnLabel_274:
   \   000055   7D00         MOV     R5,#0x0
   \   000057   7A02         MOV     R2,#0x2
   \                     ??MstBridgeHandle_6:
   \   000059   12....       LCALL   ??Subroutine341_0 & 0xFFFF
   3734          		break;
   \                     ??CrossCallReturnLabel_827:
   \   00005C   02....       LJMP    ??CrossCallReturnLabel_281 & 0xFFFF
   3735          
   3736          		case 0x05:
   3737          			switch(MAKEWORD(payload->msdu.p[1],payload->msdu.p[2]))
   \                     ??MstBridgeHandle_1:
   \   00005F   12....       LCALL   ?Subroutine61 & 0xFFFF
   \                     ??CrossCallReturnLabel_89:
   \   000062   7420         MOV     A,#0x20
   \   000064   68           XRL     A,R0
   \   000065   7001         JNZ     ??MstBridgeHandle_7
   \   000067   E9           MOV     A,R1
   \                     ??MstBridgeHandle_7:
   \   000068   6003         JZ      $+5
   \   00006A   02....       LJMP    ??CrossCallReturnLabel_281 & 0xFFFF
   3738          			{
   3739          				case 0x0020:
   3740          					pDev = SearchForDevice(payload->mac.srcAddr.addr.shortAddr);
   \   00006D                ; Setup parameters for call to function SearchForDevice
   \   00006D   85..82       MOV     DPL,?V0 + 0
   \   000070   85..83       MOV     DPH,?V0 + 1
   \   000073   12....       LCALL   ?Subroutine88 & 0xFFFF
   3741          					if(pDev>=DEVICE_TOTAL)
   \                     ??CrossCallReturnLabel_139:
   \   000076   406D         JC      ??MstBridgeHandle_8
   3742          					{
   3743          						//NoneUsedShortAddrSearch()
   3744          						pDev = macMallocNoMac();
   \   000078   7B00         MOV     R3,#0x0
   \                     ??MstBridgeHandle_9:
   \   00007A   12....       LCALL   ?Subroutine34 & 0xFFFF
   \                     ??CrossCallReturnLabel_514:
   \   00007D   7004         JNZ     ??MstBridgeHandle_10
   \   00007F   8B..         MOV     ?V0 + 2,R3
   \   000081   800A         SJMP    ??MstBridgeHandle_11
   \                     ??MstBridgeHandle_10:
   \   000083   0B           INC     R3
   \   000084   EB           MOV     A,R3
   \   000085   C3           CLR     C
   \   000086   940F         SUBB    A,#0xf
   \   000088   40F0         JC      ??MstBridgeHandle_9
   \   00008A   75..0F       MOV     ?V0 + 2,#0xf
   3745          						pConfig->isIdOccupied[payload->mac.srcAddr.addr.shortAddr]= 1;
   \                     ??MstBridgeHandle_11:
   \   00008D   85..82       MOV     DPL,?V0 + 0
   \   000090   85..83       MOV     DPH,?V0 + 1
   \   000093   12....       LCALL   ?Subroutine21 & 0xFFFF
   3746          						pConfig->devHead[pDev].shortAddr = payload->mac.srcAddr.addr.shortAddr;
   \                     ??CrossCallReturnLabel_22:
   \   000096   E5..         MOV     A,?V0 + 2
   \   000098   75F00F       MOV     B,#0xf
   \   00009B   A4           MUL     AB
   \   00009C   12....       LCALL   ?Subroutine206 & 0xFFFF
   \                     ??CrossCallReturnLabel_574:
   \   00009F   85..82       MOV     DPL,?V0 + 0
   \   0000A2   85..83       MOV     DPH,?V0 + 1
   \   0000A5   E0           MOVX    A,@DPTR
   \   0000A6   FC           MOV     R4,A
   \   0000A7   A3           INC     DPTR
   \   0000A8   E0           MOVX    A,@DPTR
   \   0000A9   FD           MOV     R5,A
   \   0000AA   E8           MOV     A,R0
   \   0000AB   12....       LCALL   ?Subroutine119 & 0xFFFF
   \                     ??CrossCallReturnLabel_208:
   \   0000AE   EC           MOV     A,R4
   \   0000AF   F0           MOVX    @DPTR,A
   \   0000B0   A3           INC     DPTR
   \   0000B1   ED           MOV     A,R5
   \   0000B2   F0           MOVX    @DPTR,A
   3747          						pConfig->devHead[pDev].veriFlag = DEVICE_VERIFIED;
   \   0000B3   E8           MOV     A,R0
   \   0000B4   12....       LCALL   ?Subroutine131 & 0xFFFF
   \                     ??CrossCallReturnLabel_230:
   \   0000B7   E9           MOV     A,R1
   \   0000B8   12....       LCALL   ??Subroutine312_0 & 0xFFFF
   \                     ??CrossCallReturnLabel_625:
   \   0000BB   7404         MOV     A,#0x4
   \   0000BD   F0           MOVX    @DPTR,A
   3748          						pConfig->devHead[pDev].group = payload->msdu.p[3]; 
   \   0000BE   8E82         MOV     DPL,R6
   \   0000C0   8F83         MOV     DPH,R7
   \   0000C2   12....       LCALL   ??Subroutine306_0 & 0xFFFF
   \                     ??CrossCallReturnLabel_596:
   \   0000C5   C0E0         PUSH    A
   \   0000C7   12....       LCALL   ?Subroutine24 & 0xFFFF
   \                     ??CrossCallReturnLabel_30:
   \   0000CA   D0E0         POP     A
   \   0000CC   F0           MOVX    @DPTR,A
   3749          						pConfig->arrCnt[pConfig->devHead[pDev].group]++;
   \   0000CD   12....       LCALL   ?Subroutine24 & 0xFFFF
   3750          						pConfig->slvRcd++;
   3751          						pConfig->totalDev++;
   3752          						MstDevInfoSend();
   3753          					}else if(pConfig->devHead[pDev].group!=payload->msdu.p[3])
   \                     ??CrossCallReturnLabel_31:
   \   0000D0   12....       LCALL   ?Subroutine31 & 0xFFFF
   \                     ??CrossCallReturnLabel_43:
   \   0000D3   12....       LCALL   ?Subroutine168 & 0xFFFF
   \                     ??CrossCallReturnLabel_562:
   \   0000D6   2401         ADD     A,#0x1
   \   0000D8   12....       LCALL   ??Subroutine298_0 & 0xFFFF
   \                     ??CrossCallReturnLabel_561:
   \   0000DB   12....       LCALL   ?Subroutine168 & 0xFFFF
   \                     ??CrossCallReturnLabel_563:
   \   0000DE   24FD         ADD     A,#-0x3
   \   0000E0   12....       LCALL   ??Subroutine280_0 & 0xFFFF
   \                     ??CrossCallReturnLabel_473:
   \   0000E3   802D         SJMP    ??CrossCallReturnLabel_328
   \                     ??MstBridgeHandle_8:
   \   0000E5   E9           MOV     A,R1
   \   0000E6   12....       LCALL   ?Subroutine60 & 0xFFFF
   \                     ??CrossCallReturnLabel_543:
   \   0000E9   12....       LCALL   ?Subroutine235 & 0xFFFF
   \                     ??CrossCallReturnLabel_407:
   \   0000EC   12....       LCALL   ?Subroutine48 & 0xFFFF
   \                     ??CrossCallReturnLabel_655:
   \   0000EF   6027         JZ      ??MstBridgeHandle_12
   3754          					{
   3755          						if(pConfig->arrCnt[pConfig->devHead[pDev].group]>0)
   \   0000F1   12....       LCALL   ?Subroutine26 & 0xFFFF
   \                     ??CrossCallReturnLabel_33:
   \   0000F4   6003         JZ      ??CrossCallReturnLabel_26
   3756          						{
   3757          							pConfig->arrCnt[pConfig->devHead[pDev].group]--;
   \   0000F6   12....       LCALL   ?Subroutine23 & 0xFFFF
   3758          						}
   3759          						pConfig->devHead[pDev].group = payload->msdu.p[3];
   \                     ??CrossCallReturnLabel_26:
   \   0000F9   12....       LCALL   ?Subroutine51 & 0xFFFF
   \                     ??CrossCallReturnLabel_648:
   \   0000FC   C0E0         PUSH    A
   \   0000FE   12....       LCALL   ?Subroutine37 & 0xFFFF
   \                     ??CrossCallReturnLabel_51:
   \   000101   D0E0         POP     A
   \   000103   F0           MOVX    @DPTR,A
   3760          						pConfig->arrCnt[pConfig->devHead[pDev].group]++;
   \   000104   12....       LCALL   ??Subroutine284_0 & 0xFFFF
   \                     ??CrossCallReturnLabel_475:
   \   000107   2418         ADD     A,#0x18
   \   000109   12....       LCALL   ??Subroutine330_0 & 0xFFFF
   \                     ??CrossCallReturnLabel_766:
   \   00010C   12....       LCALL   ?Subroutine249 & 0xFFFF
   \                     ??CrossCallReturnLabel_415:
   \   00010F   12....       LCALL   ?Subroutine170 & 0xFFFF
   \                     ??CrossCallReturnLabel_328:
   \   000112   E0           MOVX    A,@DPTR
   \   000113   04           INC     A
   \   000114   F0           MOVX    @DPTR,A
   3761          						MstDevInfoSend();
   \   000115                ; Setup parameters for call to function MstDevInfoSend
   \   000115   12....       LCALL   ??MstDevInfoSend?relay
   3762          					}/*
   3763          					//UartSctSend(payload->mac.srcAddr.addr.shortAddr,payload->msdu.p[3],pConfig->arrCnt[payload->msdu.p[3]]);
   3764          					if(!pConfig->isIdOccupied[payload->mac.srcAddr.addr.shortAddr])
   3765          					{
   3766          #ifdef DEBUG_TRACE
   3767          						Printf("BRG %x,%x",payload->mac.srcAddr.addr.shortAddr,payload->msdu.p[3]);
   3768          #endif
   3769          						//UartSctSend(payload->mac.srcAddr.addr.shortAddr,payload->msdu.p[3],pConfig->arrCnt[payload->msdu.p[3]]);
   3770          						pConfig->isIdOccupied[payload->mac.srcAddr.addr.shortAddr]= 1;
   3771          						macMallocNewDev(NULL);
   3772          						//UartSctSend(payload->mac.srcAddr.addr.shortAddr,payload->msdu.p[3],pConfig->arrCnt[payload->msdu.p[3]]);
   3773          						pCurrentDev->shortAddr = payload->mac.srcAddr.addr.shortAddr;
   3774          						pCurrentDev->veriFlag = DEVICE_VERIFIED;
   3775          						pConfig->idInGroup[payload->mac.srcAddr.addr.shortAddr] = payload->msdu.p[3];    //2014/10/29
   3776          						pConfig->arrCnt[payload->msdu.p[3]]++;							//2014/10/29
   3777          						pConfig->slvRcd++;
   3778          						pConfig->totalDev++;
   3779          						//pCurrentDev->group = payload->msdu.p[1];						//2014/10/29
   3780          						//UartSctSend(UART_CC_DEV,pCurrentDev->group,pConfig->arrCnt[pCurrentDev->group]);  //2014/10/29
   3781          						//UartSctSend(UART_CC_DEV,pConfig->idInGroup[payload->mac.srcAddr.addr.shortAddr],pConfig->arrCnt[payload->msdu.p[3]]);
   3782          						MstDevInfoSend();
   3783          						//UartSctSend(payload->mac.srcAddr.addr.shortAddr,payload->msdu.p[3],pConfig->arrCnt[payload->msdu.p[3]]);
   3784          						//veriPckSendCallback=&ReadyInfo;
   3785          						//osal_start_timerEx( macEx_taskId, MACEX_VERI_SEND_INQURE, 10);	
   3786          					}*/
   3787          					//UartSctSend(UART_CC_READY,payload->msdu.p[4],0);
   3788          					veriPckSendCallback=&ReadyInfo;
   \                     ??MstBridgeHandle_12:
   \   000118   90....       MOV     DPTR,#veriPckSendCallback
   \   00011B   74..         MOV     A,#??ReadyInfo?relay & 0xff
   \   00011D   F0           MOVX    @DPTR,A
   \   00011E   A3           INC     DPTR
   \   00011F   74..         MOV     A,#(??ReadyInfo?relay >> 8) & 0xff
   \   000121   12....       LCALL   ?Subroutine155 & 0xFFFF
   3789          					//osal_start_timerEx( macEx_taskId, MACEX_VERI_SEND_INQURE, 10);	
   3790          					//osal_start_timerEx( macEx_taskId, MACEX_VERI_SEND_INQURE, 10+(osal_rand()&0x07));	
   3791          					osal_start_timerEx( macEx_taskId, MACEX_VERI_SEND_INQURE, 60+(osal_rand()&0x07));	
   3792          				break;
   3793          			}/*
   \                     ??CrossCallReturnLabel_289:
   \   000124   243C         ADD     A,#0x3c
   \                     ??MstBridgeHandle_13:
   \   000126   FC           MOV     R4,A
   \   000127   02....       LJMP    ??CrossCallReturnLabel_274 & 0xFFFF
   3794          			if(0x3200==MAKEWORD(payload->msdu.p[3],payload->msdu.p[4]))
   3795          			{
   3796          				if(!pConfig->isIdOccupied[payload->mac.srcAddr.addr.shortAddr])
   3797          				{
   3798          					macMallocNewDev(payload->mac.srcAddr.addr.extAddr);
   3799          					pCurrentDev->shortAddr = payload->mac.srcAddr.addr.shortAddr;
   3800          					pCurrentDev->veriFlag = DEVICE_VERIFIED;
   3801          					pConfig->idInGroup[payload->mac.srcAddr.addr.shortAddr] = payload->msdu.p[3];    //2014/10/29
   3802          					pConfig->arrCnt[payload->msdu.p[3]]++;							//2014/10/29
   3803          					pConfig->slvRcd++;
   3804          					pConfig->totalDev++;
   3805          					pConfig->isIdOccupied[payload->mac.srcAddr.addr.shortAddr]= 1;
   3806          					//pCurrentDev->group = payload->msdu.p[1];						//2014/10/29
   3807          					//UartSctSend(UART_CC_DEV,pCurrentDev->group,pConfig->arrCnt[pCurrentDev->group]);  //2014/10/29
   3808          					UartSctSend(UART_CC_DEV,pConfig->idInGroup[payload->mac.srcAddr.addr.shortAddr],pConfig->arrCnt[payload->msdu.p[3]]);
   3809          				}
   3810          				//veriPckSendCallback=&ReadyInfo;
   3811          				//osal_start_timerEx( macEx_taskId, MACEX_VERI_SEND_INQURE, 10);	
   3812          			}*/
   3813          		break;
   3814          
   3815          		case 0x06:
   3816          		veriPckSendCallback = NULL;
   \                     ??MstBridgeHandle_2:
   \   00012A   90....       MOV     DPTR,#veriPckSendCallback
   \   00012D   E4           CLR     A
   \   00012E   F0           MOVX    @DPTR,A
   \   00012F   A3           INC     DPTR
   \   000130   F0           MOVX    @DPTR,A
   3817          		if((++relCmdCnt)>=9)
   \   000131   90....       MOV     DPTR,#??relCmdCnt_1
   \   000134   12....       LCALL   ?Subroutine78 & 0xFFFF
   \                     ??CrossCallReturnLabel_125:
   \   000137   400E         JC      ??MstBridgeHandle_14
   3818          		{
   3819          			//UartSctSend(UART_CC_REL,0,0);
   3820          			UartSctSend(UART_CC_REL,UART_CC_REL_FLA,0);
   \   000139                ; Setup parameters for call to function UartSctSend
   \   000139   7B00         MOV     R3,#0x0
   \   00013B   7A01         MOV     R2,#0x1
   \   00013D   79C0         MOV     R1,#-0x40
   \   00013F   12....       LCALL   ??UartSctSend?relay
   3821          			relCmdCnt = 0;
   \   000142   90....       MOV     DPTR,#??relCmdCnt_1
   \   000145   E4           CLR     A
   \   000146   F0           MOVX    @DPTR,A
   3822          		}
   3823          		osal_start_timerEx( macEx_taskId, MACEX_VERI_SEND_INQURE, 500);
   \                     ??MstBridgeHandle_14:
   \   000147                ; Setup parameters for call to function osal_start_timerEx
   \   000147   7CF4         MOV     R4,#-0xc
   \   000149   7D01         MOV     R5,#0x1
   \   00014B   7A02         MOV     R2,#0x2
   \                     ??MstBridgeHandle_15:
   \   00014D   02....       LJMP    ??MstBridgeHandle_6 & 0xFFFF
   3824          		break;
   3825          
   3826          		case 0x9A:
   3827          			if(1==g_mstHold)
   \                     ??MstBridgeHandle_5:
   \   000150   90....       MOV     DPTR,#g_mstHold
   \   000153   E0           MOVX    A,@DPTR
   \   000154   6401         XRL     A,#0x1
   \   000156   6003         JZ      $+5
   \   000158   02....       LJMP    ??CrossCallReturnLabel_281 & 0xFFFF
   3828          			{
   3829          				if(payload->msdu.p[2]>0)
   \   00015B   8C82         MOV     DPL,R4
   \   00015D   8D83         MOV     DPH,R5
   \   00015F   A3           INC     DPTR
   \   000160   A3           INC     DPTR
   \   000161   E0           MOVX    A,@DPTR
   \   000162   6009         JZ      ??MstBridgeHandle_16
   3830          				{
   3831          					osal_start_timerEx(macEx_taskId, MACEX_LINK_TIMEOUT_EVENT,5000);
   \   000164                ; Setup parameters for call to function osal_start_timerEx
   \   000164   7C88         MOV     R4,#-0x78
   \   000166   7D13         MOV     R5,#0x13
   \   000168   7A04         MOV     R2,#0x4
   \   00016A   02....       LJMP    ??MstBridgeHandle_6 & 0xFFFF
   3832          				}else
   3833          				{
   3834          					if(payload->mac.srcAddr.addr.shortAddr>pConfig->myAddr)
   \                     ??MstBridgeHandle_16:
   \   00016D   12....       LCALL   ?Subroutine89 & 0xFFFF
   \                     ??CrossCallReturnLabel_673:
   \   000170   12....       LCALL   ??Subroutine321_0 & 0xFFFF
   \                     ??CrossCallReturnLabel_679:
   \   000173   C3           CLR     C
   \   000174   E0           MOVX    A,@DPTR
   \   000175   9A           SUBB    A,R2
   \   000176   A3           INC     DPTR
   \   000177   E0           MOVX    A,@DPTR
   \   000178   9B           SUBB    A,R3
   \   000179   502C         JNC     ??MstBridgeHandle_17
   3835          					{
   3836          						tm = 50+(payload->mac.srcAddr.addr.shortAddr-pConfig->myAddr-1)*1000;
   \   00017B   90....       MOV     DPTR,#pConfig + 1
   \   00017E   12....       LCALL   ??Subroutine271_0 & 0xFFFF
   3837          					}else
   \                     ??CrossCallReturnLabel_446:
   \   000181   EA           MOV     A,R2
   \   000182   C3           CLR     C
   \   000183   98           SUBB    A,R0
   \   000184   F8           MOV     R0,A
   \   000185   EB           MOV     A,R3
   \   000186   99           SUBB    A,R1
   \   000187   F9           MOV     R1,A
   \   000188   E8           MOV     A,R0
   \   000189   75F0E8       MOV     B,#-0x18
   \   00018C   A4           MUL     AB
   \   00018D   C8           XCH     A,R0
   \   00018E   AAF0         MOV     R2,B
   \   000190   75F003       MOV     B,#0x3
   \   000193   A4           MUL     AB
   \   000194   2A           ADD     A,R2
   \   000195   FA           MOV     R2,A
   \   000196   75F0E8       MOV     B,#-0x18
   \   000199   E9           MOV     A,R1
   \   00019A   A4           MUL     AB
   \   00019B   2A           ADD     A,R2
   \   00019C   F9           MOV     R1,A
   \   00019D   E8           MOV     A,R0
   \   00019E   244A         ADD     A,#0x4a
   \   0001A0   FC           MOV     R4,A
   \   0001A1   E9           MOV     A,R1
   \   0001A2   34FC         ADDC    A,#-0x4
   \   0001A4   FD           MOV     R5,A
   \   0001A5   8004         SJMP    ??MstBridgeHandle_18
   3838          					{
   3839          						tm = 50;
   \                     ??MstBridgeHandle_17:
   \   0001A7   7C32         MOV     R4,#0x32
   \   0001A9   7D00         MOV     R5,#0x0
   3840          					}
   3841          					osal_start_timerEx(macEx_taskId, MACEX_LINK_TIMEOUT_EVENT,tm);
   \                     ??MstBridgeHandle_18:
   \   0001AB                ; Setup parameters for call to function osal_start_timerEx
   \   0001AB   7A04         MOV     R2,#0x4
   \   0001AD   809E         SJMP    ??MstBridgeHandle_15
   3842          				}
   3843          			}
   3844          		break;		
   3845          
   3846          		case 0x96:
   3847          			pConfig->myAddr = MAKEWORD(payload->msdu.p[1],payload->msdu.p[2]);
   \                     ??MstBridgeHandle_3:
   \   0001AF   12....       LCALL   ?Subroutine61 & 0xFFFF
   \                     ??CrossCallReturnLabel_90:
   \   0001B2   90....       MOV     DPTR,#pConfig
   \   0001B5   12....       LCALL   ?Subroutine254 & 0xFFFF
   \                     ??CrossCallReturnLabel_652:
   \   0001B8   12....       LCALL   ?Subroutine163 & 0xFFFF
   3848          			MAC_RADIO_SET_SHORT_ADDR(pConfig->myAddr);
   \                     ??CrossCallReturnLabel_315:
   \   0001BB   90....       MOV     DPTR,#pConfig
   \   0001BE   E0           MOVX    A,@DPTR
   \   0001BF   F8           MOV     R0,A
   \   0001C0   A3           INC     DPTR
   \   0001C1   12....       LCALL   ??Subroutine273_0 & 0xFFFF
   3849          			//veriPckSendCallback = NULL;
   3850          			veriPckSendCallback=&MstBridgeInfoInqure;
   \                     ??CrossCallReturnLabel_455:
   \   0001C4   90....       MOV     DPTR,#veriPckSendCallback
   \   0001C7   74..         MOV     A,#??MstBridgeInfoInqure?relay & 0xff
   \   0001C9   F0           MOVX    @DPTR,A
   \   0001CA   A3           INC     DPTR
   \   0001CB   74..         MOV     A,#(??MstBridgeInfoInqure?relay >> 8) & 0xff
   \   0001CD   12....       LCALL   ?Subroutine133 & 0xFFFF
   3851          			osal_start_timerEx( macEx_taskId, MACEX_VERI_SEND_INQURE, 5+(osal_rand()&0x03));	
   \                     ??CrossCallReturnLabel_235:
   \   0001D0   02....       LJMP    ??MstBridgeHandle_13 & 0xFFFF
   3852          			//osal_start_timerEx(macEx_taskId, MACEX_LINK_TIMEOUT_EVENT,5000);
   3853          			//g_mstHold = 1;
   3854          		break;
   3855          
   3856          		case 0x97:
   3857          			if(0x0FFE==MAKEWORD(payload->msdu.p[1],payload->msdu.p[2]))
   \                     ??MstBridgeHandle_4:
   \   0001D3   12....       LCALL   ?Subroutine61 & 0xFFFF
   \                     ??CrossCallReturnLabel_91:
   \   0001D6   74FE         MOV     A,#-0x2
   \   0001D8   68           XRL     A,R0
   \   0001D9   7003         JNZ     ??MstBridgeHandle_19
   \   0001DB   740F         MOV     A,#0xf
   \   0001DD   69           XRL     A,R1
   \                     ??MstBridgeHandle_19:
   \   0001DE   608D         JZ      ??MstBridgeHandle_16
   3858          			{
   3859          				if(payload->mac.srcAddr.addr.shortAddr>pConfig->myAddr)
   3860          				{
   3861          					tm = 50+(payload->mac.srcAddr.addr.shortAddr-pConfig->myAddr-1)*1000;
   3862          				}else
   3863          				{
   3864          					tm = 50;
   3865          				}
   3866          				osal_start_timerEx(macEx_taskId, MACEX_LINK_TIMEOUT_EVENT,tm);
   3867          			}else
   3868          			{
   3869          				//when exit the network, the device send information to the coordinater, it is a problem to handle this
   3870          				RemoveDevice(payload->mac.srcAddr.addr.shortAddr);		
   \   0001E0                ; Setup parameters for call to function RemoveDevice
   \   0001E0   85..82       MOV     DPL,?V0 + 0
   \   0001E3   85..83       MOV     DPH,?V0 + 1
   \   0001E6   12....       LCALL   ??Subroutine286_0 & 0xFFFF
   3871          				//pConfig->totalDev--;
   3872          				pConfig->evtCnt++;
   \                     ??CrossCallReturnLabel_489:
   \   0001E9   12....       LCALL   ?Subroutine40 & 0xFFFF
   3873          			}
   \                     ??CrossCallReturnLabel_57:
   \   0001EC   8048         SJMP    ??CrossCallReturnLabel_281
   3874          		break;
   3875          
   3876          		case 0x04:
   3877          		if(CMD_MODE_RF_MST==g_isMaster)
   \                     ??MstBridgeHandle_0:
   \   0001EE   90....       MOV     DPTR,#g_isMaster
   \   0001F1   E0           MOVX    A,@DPTR
   \   0001F2   6401         XRL     A,#0x1
   \   0001F4   7023         JNZ     ??MstBridgeHandle_20
   3878          		{
   3879          			//pConfig->arrCnt[pConfig->idInGroup[payload->msdu.p[1]]]--; //assumed the msdu.p[1] is the short address
   3880          #ifdef DEBUG_TRACE
   3881          			Printf("\r\n");
   3882          			Printf("GR %x to %x\r\n", pConfig->idInGroup[payload->mac.srcAddr.addr.shortAddr],payload->msdu.p[3]);
   3883          			Printf("arrCnt: ");
   3884          			BufferPrint(pConfig->arrCnt, 5);
   3885          #endif
   3886          			pDev = SearchForDevice(payload->mac.srcAddr.addr.shortAddr);
   \   0001F6                ; Setup parameters for call to function SearchForDevice
   \   0001F6   8882         MOV     DPL,R0
   \   0001F8   8983         MOV     DPH,R1
   \   0001FA   12....       LCALL   ?Subroutine27 & 0xFFFF
   3887          			if(pConfig->devHead[pDev].group!=payload->msdu.p[3])
   \                     ??CrossCallReturnLabel_36:
   \   0001FD   12....       LCALL   ?Subroutine48 & 0xFFFF
   \                     ??CrossCallReturnLabel_656:
   \   000200   6034         JZ      ??CrossCallReturnLabel_281
   3888          			{
   3889          				//pDev->group = payload->msdu.p[3];
   3890          				if(pConfig->arrCnt[pConfig->devHead[pDev].group]>0)
   \   000202   12....       LCALL   ?Subroutine26 & 0xFFFF
   \                     ??CrossCallReturnLabel_34:
   \   000205   6003         JZ      ??CrossCallReturnLabel_27
   3891          				{
   3892          					pConfig->arrCnt[pConfig->devHead[pDev].group]--;
   \   000207   12....       LCALL   ?Subroutine23 & 0xFFFF
   3893          				}
   3894          				pConfig->devHead[pDev].group = payload->msdu.p[3];
   \                     ??CrossCallReturnLabel_27:
   \   00020A   12....       LCALL   ?Subroutine51 & 0xFFFF
   3895          				pConfig->arrCnt[pConfig->devHead[pDev].group]++;
   3896          				/*
   3897          				if(pConfig->arrCnt[pConfig->idInGroup[payload->mac.srcAddr.addr.shortAddr]]>0)
   3898          				{
   3899          					pConfig->arrCnt[pConfig->idInGroup[payload->mac.srcAddr.addr.shortAddr]]--;
   3900          				}
   3901          				//LoadUartSendBuf(UART_CC_DEV,pConfig->idInGroup[payload->msdu.p[1]],pConfig->arrCnt[pConfig->idInGroup[payload->msdu.p[1]]]);
   3902          				//LoadUartSendBuf(UART_CC_DEV,pConfig->idInGroup[payload->mac.srcAddr.addr.shortAddr],pConfig->arrCnt[pConfig->idInGroup[payload->mac.srcAddr.addr.shortAddr]]);
   3903          				//MstDevInfoSend();
   3904          				pConfig->idInGroup[payload->mac.srcAddr.addr.shortAddr] = payload->msdu.p[3];
   3905          				pConfig->arrCnt[payload->msdu.p[3]]++;
   3906          				*/
   3907          				//Printf("GR %x to %x\r\n", pConfig->idInGroup[payload->mac.srcAddr.addr.shortAddr],payload->msdu.p[3]);
   3908          #ifdef DEBUG_TRACE
   3909          				Printf("totalDev: %d; ",pConfig->totalDev);
   3910          				Printf("arrCnt: ");
   3911          				BufferPrint(pConfig->arrCnt, 5);
   3912          				Printf("idInGroup: ");
   3913          				BufferPrint(pConfig->idInGroup, 16);
   3914          #endif
   3915          				//LoadUartSendBuf(UART_CC_DEV,payload->msdu.p[3],pConfig->arrCnt[payload->msdu.p[3]]);
   3916          				//TrigerUartSend();
   3917          				//MstDevInfoSend();
   3918          				MstDevInfoSendEx(pConfig->devHead[pDev].group,1);
   3919          			}
   3920          		}		else if(CMD_MODE_RFLS_MST==g_isMaster)//linked shot mode switch
   \                     ??CrossCallReturnLabel_649:
   \   00020D   C0E0         PUSH    A
   \   00020F   12....       LCALL   ?Subroutine37 & 0xFFFF
   \                     ??CrossCallReturnLabel_52:
   \   000212   D0E0         POP     A
   \   000214   12....       LCALL   ?Subroutine13 & 0xFFFF
   \                     ??CrossCallReturnLabel_7:
   \   000217   801D         SJMP    ??CrossCallReturnLabel_281
   \                     ??MstBridgeHandle_20:
   \   000219   E0           MOVX    A,@DPTR
   \   00021A   6406         XRL     A,#0x6
   \   00021C   7018         JNZ     ??CrossCallReturnLabel_281
   3921          		{
   3922          			if(0xFF4B==MAKEWORD(payload->msdu.p[2],payload->msdu.p[3]))
   \   00021E   8C82         MOV     DPL,R4
   \   000220   8D83         MOV     DPH,R5
   \   000222   A3           INC     DPTR
   \   000223   12....       LCALL   ?Subroutine217 & 0xFFFF
   \                     ??CrossCallReturnLabel_375:
   \   000226   A3           INC     DPTR
   \   000227   E0           MOVX    A,@DPTR
   \   000228   F8           MOV     R0,A
   \   000229   744B         MOV     A,#0x4b
   \   00022B   68           XRL     A,R0
   \   00022C   7003         JNZ     ??MstBridgeHandle_21
   \   00022E   74FF         MOV     A,#-0x1
   \   000230   69           XRL     A,R1
   \                     ??MstBridgeHandle_21:
   \   000231   7003         JNZ     ??CrossCallReturnLabel_281
   3923          			{
   3924          				g_isMaster = CMD_MODE_RFLS_SLA;
   \   000233   12....       LCALL   ?Subroutine150 & 0xFFFF
   3925          				UartSctSend(UART_CC_MSTSW,0,0);
   3926          			}
   3927          		}
   3928          		break;
   3929          
   3930          		
   3931          	}
   3932          }
   \                     ??CrossCallReturnLabel_281:
   \   000236   02....       LJMP    ??Subroutine279_0 & 0xFFFF

   \                                 In  segment BANKED_CODE, align 1, keep-with-next
   \                     ?Subroutine61:
   \   000000   12....       LCALL   ?Subroutine217 & 0xFFFF
   \                     ??CrossCallReturnLabel_376:
   \   000003   E0           MOVX    A,@DPTR
   \   000004   F8           MOV     R0,A
   \   000005   22           RET

   \                                 In  segment BANKED_CODE, align 1, keep-with-next
   \                     ?Subroutine217:
   \   000000   A3           INC     DPTR
   \   000001   E0           MOVX    A,@DPTR
   \   000002   F9           MOV     R1,A
   \   000003   8C82         MOV     DPL,R4
   \   000005   8D83         MOV     DPH,R5
   \   000007   A3           INC     DPTR
   \   000008   A3           INC     DPTR
   \   000009   22           RET

   \                                 In  segment BANKED_CODE, align 1, keep-with-next
   \                     ?Subroutine51:
   \   000000   8E82         MOV     DPL,R6
   \   000002   8F83         MOV     DPH,R7
   \   000004                REQUIRE ??Subroutine314_0
   \   000004                ; // Fall through to label ??Subroutine314_0

   \                                 In  segment BANKED_CODE, align 1, keep-with-next
   \                     ?Subroutine48:
   \   000000   8E82         MOV     DPL,R6
   \   000002   8F83         MOV     DPH,R7
   \   000004                REQUIRE ??Subroutine315_0
   \   000004                ; // Fall through to label ??Subroutine315_0

   \                                 In  segment XDATA_Z, align 1, keep-with-next
   \                     ??relCmdCnt_1:
   \   000000                DS 1
   \   000001                REQUIRE __INIT_XDATA_Z
   3933          
   3934          #if 0
   3935          DEVICE_DEFINE static void devJoinNetProc(macRx_t *payload)
   3936          {
   3937          	switch(payload->msdu.p[0])
   3938          	{
   3939          		case 0x92:
   3940          			veriPckSendCallback = &InqureConfirm;
   3941          			osal_start_timerEx( macEx_taskId, MACEX_VERI_SEND_INQURE, 5);		
   3942          		break;
   3943          
   3944          		case 0x96:
   3945          			//pConfig->myAddr = MAKEWORD(mpdu[1],mpdu[2]);
   3946          			pConfig->myAddr = MAKEWORD(payload->msdu.p[1],payload->msdu.p[2]);
   3947          			MAC_RADIO_SET_SHORT_ADDR(pConfig->myAddr);
   3948          			veriPckSendCallback=&ReadyInfo;
   3949          			osal_start_timerEx( macEx_taskId, MACEX_VERI_SEND_INQURE, 10);
   3950          			//osal_start_timerEx(macEx_taskId, MACEX_LINK_TIMEOUT_EVENT,2000);
   3951          		break;
   3952          
   3953          		case 0x9B:
   3954          			veriPckSendCallback = &ReConfirm;
   3955          			osal_start_timerEx( macEx_taskId, MACEX_VERI_SEND_INQURE, 5);	
   3956          		break;
   3957          
   3958          		case 0x05:
   3959          			switch(MAKEWORD(payload->msdu.p[3],payload->msdu.p[4]))
   3960          			{
   3961          				case 0x3200:
   3962          				case 0x3300:
   3963          				veriPckSendCallback=&ReadyInfo;
   3964          				osal_start_timerEx( macEx_taskId, MACEX_VERI_SEND_INQURE, 10);
   3965          				break;
   3966          				
   3967          			}
   3968          			/*
   3969          			if(0x3200==MAKEWORD(payload->msdu.p[3],payload->msdu.p[4]))
   3970          			{
   3971          				veriPckSendCallback=&ReadyInfo;
   3972          				osal_start_timerEx( macEx_taskId, MACEX_VERI_SEND_INQURE, 10);	
   3973          			}*/
   3974          		break;
   3975          
   3976          		case 0x9A:
   3977          			//osal_stop_timerEx(macEx_taskId, MACEX_LINK_TIMEOUT_EVENT);
   3978          			osal_start_timerEx(macEx_taskId, MACEX_LINK_TIMEOUT_EVENT,5000);
   3979          			//g_expireCounter = 0;
   3980          			//HalUARTWrite(0,&payload->msdu.p[0],1);
   3981          		break;
   3982          
   3983          		case 0x97:
   3984          			if(0x0FFE==MAKEWORD(payload->msdu.p[1],payload->msdu.p[2]))
   3985          			{
   3986          				veriPckSendCallback=&macRollPolingProc;
   3987          				osal_start_timerEx( macEx_taskId, MACEX_VERI_SEND_INQURE, 200);	
   3988          			}
   3989          		break;
   3990          
   3991          		
   3992          	}
   3993          }
   3994          #endif
   3995          
   3996          #ifndef SEND_UNIFIED
   3997          LINKMODE_DEFINE static void linkVeriProc(macRx_t *payload)
   3998          {
   3999          	static uint8 relCmdCnt=0; 
   4000          		
   4001          	switch(payload->msdu.p[0])
   4002          	{
   4003          
   4004          		case 0x91:
   4005          		macMallocNewDev(payload->mac.srcAddr.addr.extAddr);
   4006          		veriPckSendCallback = &VerfiInqure;
   4007          		osal_start_timerEx( macEx_taskId, MACEX_VERI_SEND_INQURE, 5);
   4008          		break;
   4009          
   4010          		case 0x95:
   4011          		if(TRUE==osal_ExtAddrEqual(pCurrentDev->extAddr,payload->mac.srcAddr.addr.extAddr))
   4012          		{
   4013          			pCurrentDev->group = payload->msdu.p[1];
   4014          #ifdef SEND_UNIFIED
   4015          			if(pConfig->totalDev>0)
   4016          			{
   4017          				g_devCheck.checkCount = 0;
   4018          				g_devCheck.checkTurn = 0;
   4019          				g_devCheck.pChk = pConfig->devHead;
   4020          				veriPckSendCallback = &CheckEachDeviceAlloc;
   4021          				osal_start_timerEx( macEx_taskId, MACEX_VERI_SEND_INQURE, 5);
   4022          			}else
   4023          			{
   4024          
   4025          				pCurrentDev->shortAddr = 0x0E-FirstCheckAndAlloc();
   4026          				veriPckSendCallback = &VeriAndAllocID;
   4027          				osal_start_timerEx( macEx_taskId, MACEX_VERI_SEND_INQURE, 5);
   4028          			}
   4029          #else
   4030          			if(pConfig->totalDev>0)
   4031          			{
   4032          				g_devCheck.checkCount = 0;
   4033          				g_devCheck.checkTurn = 0;
   4034          				g_devCheck.pChk = pConfig->devHead;
   4035          				veriPckSendCallback = &CheckEachDeviceAlloc;
   4036          				osal_start_timerEx( macEx_taskId, MACEX_VERI_SEND_INQURE, 5);
   4037          			}else
   4038          			{
   4039          
   4040          				pCurrentDev->shortAddr = FirstCheckAndAlloc();
   4041          				veriPckSendCallback = &LinkedModeShortAddrAlloc;		
   4042          				osal_start_timerEx( macEx_taskId, MACEX_VERI_SEND_INQURE, 5);
   4043          			}
   4044          #endif
   4045          			
   4046          		}else
   4047          		{
   4048          			VeriFailedProc();
   4049          		}
   4050          		break;
   4051          	
   4052          		case 0x92:
   4053          		veriPckSendCallback = &LinkModeResp;
   4054          		osal_start_timerEx( macEx_taskId, MACEX_VERI_SEND_INQURE, 5);	
   4055          		pConfig->isRflsCoordinator = RFLS_COORDINATOR_S;
   4056          		break;
   4057          
   4058          		case 0x96:
   4059          		pConfig->myAddr = MAKEWORD(payload->msdu.p[1],payload->msdu.p[2]);
   4060          		MAC_RADIO_SET_SHORT_ADDR(pConfig->myAddr);
   4061          		veriPckSendCallback = NULL;
   4062          		
   4063          		break;
   4064          
   4065          		case 0x9B:
   4066          		veriPckSendCallback = &ReConfirm;
   4067          		osal_start_timerEx( macEx_taskId, MACEX_VERI_SEND_INQURE, 5);
   4068          		break;
   4069          
   4070          		case 0x9A:
   4071          		veriPckSendCallback = NULL;	
   4072          		osal_start_timerEx(macEx_taskId, MACEX_LINK_TIMEOUT_EVENT,5000);		
   4073          		break;
   4074          
   4075          		case 0x06:
   4076          		if((++relCmdCnt)>=9)
   4077          		{
   4078          			UartSctSend(UART_CC_REL,0,0);
   4079          			veriPckSendCallback = NULL;	
   4080          			relCmdCnt = 0;
   4081          		}
   4082          		break;
   4083          	}
   4084          
   4085          }
   4086          #endif
   4087          
   4088          #ifndef SEND_UNIFIED
   4089          LINKMODE_DEFINE void linkedNoneCoordinatorProc(macRx_t *payload)
   4090          {
   4091          	static uint8 relCmdCnt=0; 
   4092          		
   4093          	switch(payload->msdu.p[0])
   4094          	{
   4095          	
   4096          		case 0x92:
   4097          		veriPckSendCallback = &LinkModeResp;
   4098          		osal_start_timerEx( macEx_taskId, MACEX_VERI_SEND_INQURE, 5);	
   4099          		pConfig->isRflsCoordinator = RFLS_COORDINATOR_S;
   4100          		break;
   4101          
   4102          		case 0x96:
   4103          		pConfig->myAddr = MAKEWORD(payload->msdu.p[1],payload->msdu.p[2]);
   4104          		MAC_RADIO_SET_SHORT_ADDR(pConfig->myAddr);
   4105          		veriPckSendCallback = NULL;
   4106          		
   4107          		break;
   4108          
   4109          		case 0x9B:
   4110          		veriPckSendCallback = &ReConfirm;
   4111          		osal_start_timerEx( macEx_taskId, MACEX_VERI_SEND_INQURE, 5);
   4112          		break;
   4113          
   4114          		case 0x9A:
   4115          		veriPckSendCallback = NULL;	
   4116          		osal_start_timerEx(macEx_taskId, MACEX_LINK_TIMEOUT_EVENT,5000);		
   4117          		break;
   4118          
   4119          		case 0x06:
   4120          		if((++relCmdCnt)>=9)
   4121          		{
   4122          			UartSctSend(UART_CC_REL,0,0);
   4123          			veriPckSendCallback = NULL;	
   4124          			relCmdCnt = 0;
   4125          		}
   4126          		break;
   4127          	}
   4128          
   4129          }
   4130          //macMsg_t *MsgPkt;
   4131          #endif
   4132          

   \                                 In  segment BANKED_CODE, align 1, keep-with-next
   4133          MAC_INTERNAL_API void macRxCompleteCallbackEx(macRx_t *pMsg)
   \                     macRxCompleteCallbackEx:
   4134          {
   \   000000   74F6         MOV     A,#-0xa
   \   000002   12....       LCALL   ?BANKED_ENTER_XDATA
   \   000005                ; Saved register size: 10
   \   000005                ; Auto size: 0
   \   000005   EA           MOV     A,R2
   \   000006   FE           MOV     R6,A
   \   000007   EB           MOV     A,R3
   \   000008   FF           MOV     R7,A
   4135          	macMsg_t *MsgPkt;
   4136          	MsgPkt = (macMsg_t *)osal_msg_allocate( sizeof(macRx_t));
   \   000009                ; Setup parameters for call to function osal_msg_allocate
   \   000009   7A32         MOV     R2,#0x32
   \   00000B   7B00         MOV     R3,#0x0
   \   00000D   12....       LCALL   ??osal_msg_allocate?relay
   4137          	MsgPkt ->hdEvt.event= MAC_INCOMING_MSG_CMD;
   \   000010   8A82         MOV     DPL,R2
   \   000012   8B83         MOV     DPH,R3
   \   000014   A3           INC     DPTR
   \   000015   A3           INC     DPTR
   \   000016   741A         MOV     A,#0x1a
   \   000018   12....       LCALL   ?Subroutine256 & 0xFFFF
   4138          	MsgPkt->macPayload = pMsg;
   \                     ??CrossCallReturnLabel_420:
   \   00001B   EE           MOV     A,R6
   \   00001C   F0           MOVX    @DPTR,A
   \   00001D   A3           INC     DPTR
   \   00001E   EF           MOV     A,R7
   \   00001F   12....       LCALL   ?Subroutine151 & 0xFFFF
   4139          	if(pMsg->msdu.len)
   \                     ??CrossCallReturnLabel_282:
   \   000022   6008         JZ      ??macRxCompleteCallbackEx_0
   4140          	{
   4141          		osal_msg_send( macEx_taskId, (uint8 *)MsgPkt );		
   \   000024                ; Setup parameters for call to function osal_msg_send
   \   000024   90....       MOV     DPTR,#macEx_taskId
   \   000027   E0           MOVX    A,@DPTR
   \   000028   F9           MOV     R1,A
   \   000029   12....       LCALL   ??osal_msg_send?relay
   4142          	}
   4143          	//macRxOn();
   4144          	//macRxOnRequest();
   4145          }
   \                     ??macRxCompleteCallbackEx_0:
   \   00002C   80..         SJMP    ??Subroutine318_0

   \                                 In  segment BANKED_CODE, align 1, keep-with-next
   \                     ?Subroutine151:
   \   000000   12....       LCALL   ?Subroutine231 & 0xFFFF
   \                     ??CrossCallReturnLabel_398:
   \   000003   E0           MOVX    A,@DPTR
   \   000004   22           RET

   \                                 In  segment BANKED_CODE, align 1, keep-with-next
   \                     ?Subroutine231:
   \   000000   12....       LCALL   ?Subroutine257 & 0xFFFF
   \                     ??CrossCallReturnLabel_423:
   \   000003   22           RET

   \                                 In  segment BANKED_CODE, align 1, keep-with-next
   \                     ?Subroutine257:
   \   000000   12....       LCALL   ?Subroutine266 & 0xFFFF
   \                     ??CrossCallReturnLabel_432:
   \   000003   A3           INC     DPTR
   \   000004   22           RET

   \                                 In  segment BANKED_CODE, align 1, keep-with-next
   \                     ?Subroutine266:
   \   000000   F0           MOVX    @DPTR,A
   \   000001                ; Setup parameters for call to function LoadGrPara
   \   000001   8E82         MOV     DPL,R6
   \   000003   8F83         MOV     DPH,R7
   \   000005   A3           INC     DPTR
   \   000006   A3           INC     DPTR
   \   000007   A3           INC     DPTR
   \   000008   22           RET
   4146          

   \                                 In  segment BANKED_CODE, align 1, keep-with-next
   4147          static unsigned char CalcSum(uint8 *rcv, uint8 len)
   \                     CalcSum:
   4148          {
   \   000000   74F6         MOV     A,#-0xa
   \   000002   12....       LCALL   ?BANKED_ENTER_XDATA
   \   000005                ; Saved register size: 10
   \   000005                ; Auto size: 0
   \   000005   E9           MOV     A,R1
   \   000006   FC           MOV     R4,A
   4149          	uint8 i=0,sum=0;
   \   000007   7900         MOV     R1,#0x0
   4150          	for(i=0;i<len;i++)
   \   000009   7800         MOV     R0,#0x0
   \   00000B   800D         SJMP    ??CalcSum_0
   4151          	{
   4152          		sum+=rcv[i];
   \                     ??CalcSum_1:
   \   00000D   88..         MOV     ?V0 + 0,R0
   \   00000F   EA           MOV     A,R2
   \   000010   12....       LCALL   ??Subroutine354_0 & 0xFFFF
   4153          	}
   \                     ??CrossCallReturnLabel_922:
   \   000013   EB           MOV     A,R3
   \   000014   12....       LCALL   ??Subroutine331_0 & 0xFFFF
   \                     ??CrossCallReturnLabel_755:
   \   000017   29           ADD     A,R1
   \   000018   F9           MOV     R1,A
   \   000019   08           INC     R0
   \                     ??CalcSum_0:
   \   00001A   E8           MOV     A,R0
   \   00001B   C3           CLR     C
   \   00001C   9C           SUBB    A,R4
   \   00001D   40EE         JC      ??CalcSum_1
   4154          	return sum;
   \   00001F   80..         SJMP    ??Subroutine318_0
   4155          }
   4156          
   4157          static void SetWakeupInt(void)
   4158          {
   4159          	P0IEN |= 0X20;  // P11  
   4160          	PICTL |= 0X01; //    
   4161          	IEN1 |= 0X20;   // P0;
   4162          	P0   |= 0X20;
   4163          	P0IFG = 0x00;   // 
   4164          	EA = 1;
   4165          	
   4166          }
   4167          
   4168          static void ClearWakeupInt(void)
   4169          {
   4170          	IEN1 &= ~0X20; 
   4171          }
   4172          

   \                                 In  segment BANKED_CODE, align 1, keep-with-next
   4173          MAC_INTERNAL_API void SetSleepMode(macRx_t *pMsg)
   \                     SetSleepMode:
   4174          {
   \   000000   C082         PUSH    DPL
   \   000002   C083         PUSH    DPH
   \   000004                ; Saved register size: 2
   \   000004                ; Auto size: 0
   4175          	//SetWakeupInt();
   4176          	//SET_POWER_MODE(3);
   4177          	halSleep(0);
   \   000004                ; Setup parameters for call to function halSleep
   \   000004   7A00         MOV     R2,#0x0
   \   000006   7B00         MOV     R3,#0x0
   \   000008   12....       LCALL   ??halSleep?relay
   4178          	ClearWakeupInt();
   \   00000B   C2BD         CLR     0xb8.5
   4179          	LED_RED_ON();
   \   00000D   C293         CLR     0x90.3
   4180          	asm("LJMP 0x800\n");
   \   00000F   020800       LJMP 0x800
   4181          	//
   4182          }
   \   000012   02....       LJMP    ??Subroutine299_0 & 0xFFFF
   \   000015                REQUIRE _A_P1
   \   000015                REQUIRE _A_IEN1
   4183          

   \                                 In  segment BANKED_CODE, align 1, keep-with-next
   4184          void LoadGrPara(RfGroup_ArrPara *rfg, unsigned char mode, unsigned char para)
   \                     LoadGrPara:
   4185          {
   \   000000   C082         PUSH    DPL
   \   000002   C083         PUSH    DPH
   \   000004                ; Saved register size: 2
   \   000004                ; Auto size: 0
   4186          	switch(mode)
   \   000004   E9           MOV     A,R1
   \   000005   600C         JZ      ??LoadGrPara_0
   \   000007   14           DEC     A
   \   000008   6010         JZ      ??LoadGrPara_1
   \   00000A   14           DEC     A
   \   00000B   6014         JZ      ??LoadGrPara_2
   \   00000D   24FE         ADD     A,#-0x2
   \   00000F   6017         JZ      ??LoadGrPara_3
   \   000011   801F         SJMP    ??LoadGrPara_4
   4187          	{
   4188          		case WORKINGMODE_TTL:
   4189          			rfg->ttlExpVal = para;
   \                     ??LoadGrPara_0:
   \   000013   EC           MOV     A,R4
   \   000014   8A82         MOV     DPL,R2
   \   000016   8B83         MOV     DPH,R3
   \   000018   8015         SJMP    ??LoadGrPara_5
   4190          		break;
   4191          
   4192          		case WORKINGMODE_MANU:
   4193          			rfg->optCode = para;
   \                     ??LoadGrPara_1:
   \   00001A   EC           MOV     A,R4
   \   00001B   8A82         MOV     DPL,R2
   \   00001D   8B83         MOV     DPH,R3
   \   00001F   800F         SJMP    ??LoadGrPara_6
   4194          		break;
   4195          
   4196          		case WORKINGMODE_MULTI:
   4197          			rfg->mulOtpVal = para;
   \                     ??LoadGrPara_2:
   \   000021   EC           MOV     A,R4
   \   000022   8A82         MOV     DPL,R2
   \   000024   8B83         MOV     DPH,R3
   \   000026   8006         SJMP    ??LoadGrPara_7
   4198          		break;
   4199          
   4200          		case WORKINGMODE_EXTA:
   4201          			rfg->extaTmp = para;
   \                     ??LoadGrPara_3:
   \   000028   EC           MOV     A,R4
   \   000029   8A82         MOV     DPL,R2
   \   00002B   8B83         MOV     DPH,R3
   \   00002D   A3           INC     DPTR
   \                     ??LoadGrPara_7:
   \   00002E   A3           INC     DPTR
   \                     ??LoadGrPara_5:
   \   00002F   A3           INC     DPTR
   \                     ??LoadGrPara_6:
   \   000030   A3           INC     DPTR
   \   000031   F0           MOVX    @DPTR,A
   4202          		break;
   4203          
   4204          	}
   4205          }
   \                     ??LoadGrPara_4:
   \   000032   02....       LJMP    ??Subroutine299_0 & 0xFFFF
   4206          
   4207          

   \                                 In  segment BANKED_CODE, align 1, keep-with-next
   4208          static void RfModCheck(uint8 mod)
   \                     RfModCheck:
   4209          {
   \   000000   74F7         MOV     A,#-0x9
   \   000002   12....       LCALL   ?BANKED_ENTER_XDATA
   \   000005                ; Saved register size: 9
   \   000005                ; Auto size: 0
   \   000005   E9           MOV     A,R1
   \   000006   FE           MOV     R6,A
   4210          #if 0
   4211          	switch(g_isMaster)
   4212          	{
   4213          		case MSTDEV_MODE_DEV:
   4214          		case MSTDEV_MODE_MST:
   4215          		case MSTDEV_MODE_HOLD:
   4216          			basicRfConfig.panId -= MST_PAN_ID;
   4217          		break;
   4218          
   4219          		case MSTDEV_MODE_MLINK:
   4220          		case MSTDEV_MODE_SLINK:
   4221          			basicRfConfig.panId -= LINKED_PAN_ID;
   4222          		break;
   4223          	}
   4224          #endif
   4225          	if(basicRfConfig.panId>=LINKED_PAN_ID)
   \   000007   90....       MOV     DPTR,#basicRfConfig + 3
   \   00000A   E0           MOVX    A,@DPTR
   \   00000B   F9           MOV     R1,A
   \   00000C   C3           CLR     C
   \   00000D   9490         SUBB    A,#-0x70
   \   00000F   4007         JC      ??RfModCheck_0
   4226          	{
   4227          		basicRfConfig.panId-=LINKED_PAN_ID;
   \   000011   12....       LCALL   ?Subroutine111 & 0xFFFF
   4228          	}else if(basicRfConfig.panId>=LINKED_PAN_ID_AUTO)
   \                     ??CrossCallReturnLabel_190:
   \   000014   3470         ADDC    A,#0x70
   \   000016   8018         SJMP    ??RfModCheck_1
   \                     ??RfModCheck_0:
   \   000018   C3           CLR     C
   \   000019   E9           MOV     A,R1
   \   00001A   9460         SUBB    A,#0x60
   \   00001C   4007         JC      ??RfModCheck_2
   4229          	{
   4230          		basicRfConfig.panId-=LINKED_PAN_ID_AUTO;
   \   00001E   12....       LCALL   ?Subroutine111 & 0xFFFF
   4231          	}else if(basicRfConfig.panId>=MST_PAN_ID)
   \                     ??CrossCallReturnLabel_191:
   \   000021   34A0         ADDC    A,#-0x60
   \   000023   800B         SJMP    ??RfModCheck_1
   \                     ??RfModCheck_2:
   \   000025   C3           CLR     C
   \   000026   E9           MOV     A,R1
   \   000027   9430         SUBB    A,#0x30
   \   000029   4006         JC      ??RfModCheck_3
   4232          	{
   4233          		basicRfConfig.panId-=MST_PAN_ID;
   \   00002B   12....       LCALL   ?Subroutine111 & 0xFFFF
   4234          	}else
   \                     ??CrossCallReturnLabel_192:
   \   00002E   34D0         ADDC    A,#-0x30
   \                     ??RfModCheck_1:
   \   000030   F0           MOVX    @DPTR,A
   4235          	{
   4236          		basicRfConfig.panId-=MST_PAN_ID_AUTO;
   4237          	}
   4238          
   4239          	switch(mod)
   \                     ??RfModCheck_3:
   \   000031   EE           MOV     A,R6
   \   000032   6014         JZ      ??RfModCheck_4
   \   000034   14           DEC     A
   \   000035   6028         JZ      ??RfModCheck_5
   \   000037   14           DEC     A
   \   000038   6025         JZ      ??RfModCheck_5
   \   00003A   14           DEC     A
   \   00003B   600B         JZ      ??RfModCheck_4
   \   00003D   14           DEC     A
   \   00003E   6008         JZ      ??RfModCheck_4
   \   000040   14           DEC     A
   \   000041   6029         JZ      ??RfModCheck_6
   \   000043   14           DEC     A
   \   000044   6026         JZ      ??RfModCheck_6
   \   000046   8039         SJMP    ??RfModCheck_7
   4240          	{
   4241          
   4242          		case CMD_MODE_LIGH_MST:
   4243          		case CMD_MODE_LIGH_SLA:
   4244          		case CMD_MODE_OFF:
   4245          			basicRfConfig.panId += (RF_CHAN_AUTO==pConfig->channel)?MST_PAN_ID_AUTO:MST_PAN_ID;
   \                     ??RfModCheck_4:
   \   000048   12....       LCALL   ?Subroutine70 & 0xFFFF
   \                     ??CrossCallReturnLabel_108:
   \   00004B   7004         JNZ     ??RfModCheck_8
   \   00004D   7900         MOV     R1,#0x0
   \   00004F   8002         SJMP    ??RfModCheck_9
   \                     ??RfModCheck_8:
   \   000051   7930         MOV     R1,#0x30
   \                     ??RfModCheck_9:
   \   000053   12....       LCALL   ?Subroutine110 & 0xFFFF
   4246          			macExRxDisable();
   \                     ??CrossCallReturnLabel_188:
   \   000056                ; Setup parameters for call to function macExRxDisable
   \   000056   12....       LCALL   ??macExRxDisable?relay
   4247          			LED_INS_ALLOFF();
   \   000059   D292         SETB    0x90.2
   \   00005B   D293         SETB    0x90.3
   4248          		break;
   \   00005D   8022         SJMP    ??RfModCheck_7
   4249          		
   4250          		case CMD_MODE_RF_SLA://case MSTDEV_MODE_DEV:
   4251          		case CMD_MODE_RF_MST://case MSTDEV_MODE_MST:
   4252          		//case MSTDEV_MODE_HOLD:
   4253          			basicRfConfig.panId += (RF_CHAN_AUTO==pConfig->channel)?MST_PAN_ID_AUTO:MST_PAN_ID;
   \                     ??RfModCheck_5:
   \   00005F   12....       LCALL   ?Subroutine70 & 0xFFFF
   \                     ??CrossCallReturnLabel_109:
   \   000062   7004         JNZ     ??RfModCheck_10
   \   000064   7900         MOV     R1,#0x0
   \   000066   800F         SJMP    ??RfModCheck_11
   \                     ??RfModCheck_10:
   \   000068   7930         MOV     R1,#0x30
   \   00006A   800B         SJMP    ??RfModCheck_11
   4254          			macExRxEnable();
   4255          			LED_INS_UNLINK();
   4256          		break;
   4257          
   4258          		//case MSTDEV_MODE_MLINK:
   4259          		//case MSTDEV_MODE_SLINK:
   4260          		case CMD_MODE_RFLS_MST:
   4261          		case CMD_MODE_RFLS_SLA:
   4262          			basicRfConfig.panId +=(RF_CHAN_AUTO==pConfig->channel)?LINKED_PAN_ID_AUTO:LINKED_PAN_ID;
   \                     ??RfModCheck_6:
   \   00006C   12....       LCALL   ?Subroutine70 & 0xFFFF
   \                     ??CrossCallReturnLabel_110:
   \   00006F   7004         JNZ     ??RfModCheck_12
   \   000071   7960         MOV     R1,#0x60
   \   000073   8002         SJMP    ??RfModCheck_11
   \                     ??RfModCheck_12:
   \   000075   7990         MOV     R1,#-0x70
   \                     ??RfModCheck_11:
   \   000077   12....       LCALL   ?Subroutine110 & 0xFFFF
   4263          			macExRxEnable();
   \                     ??CrossCallReturnLabel_189:
   \   00007A                ; Setup parameters for call to function macExRxEnable
   \   00007A   12....       LCALL   ??macExRxEnable?relay
   4264          			LED_INS_UNLINK();
   \   00007D   D292         SETB    0x90.2
   \   00007F   C293         CLR     0x90.3
   4265          		break;
   4266          	}
   4267          
   4268          #if((defined HAL_UART_DMA)&&(HAL_UART_DMA==1))
   4269          	//if(CMD_MODE_RF_SLA==mod)
   4270          	if(CMD_MODE_RF_MST==mod)
   \                     ??RfModCheck_7:
   \   000081   7401         MOV     A,#0x1
   \   000083   6E           XRL     A,R6
   \   000084   53F3EF       ANL     0xf3,#0xef
   \   000087   7015         JNZ     ??RfModCheck_13
   4271          	{
   4272          		//macExUartIntOutSet();
   4273          		macExUartIntSet();
   \   000089   53FDEF       ANL     0xfd,#0xef
   \   00008C   538FEF       ANL     0x8f,#0xef
   \   00008F   43AB10       ORL     0xab,#0x10
   \   000092   438C01       ORL     0x8c,#0x1
   \   000095   D2AF         SETB    0xa8.7
   \   000097   D2BD         SETB    0xb8.5
   \   000099   758900       MOV     0x89,#0x0
   4274          	}else
   \   00009C   8008         SJMP    ??RfModCheck_14
   4275          	{
   4276          		//macExUartIntSet();
   4277          		macExUartIntOutSet();
   \                     ??RfModCheck_13:
   \   00009E   43FD10       ORL     0xfd,#0x10
   \   0000A1   53ABEF       ANL     0xab,#0xef
   \   0000A4   D284         SETB    0x80.4
   4278          	}
   4279          #endif
   4280          
   4281          }
   \                     ??RfModCheck_14:
   \   0000A6   02....       LJMP    ?Subroutine2 & 0xFFFF
   \   0000A9                REQUIRE _A_P1
   \   0000A9                REQUIRE P0SEL
   \   0000A9                REQUIRE P0DIR
   \   0000A9                REQUIRE P0IEN
   \   0000A9                REQUIRE _A_P0
   \   0000A9                REQUIRE P0INP
   \   0000A9                REQUIRE PICTL
   \   0000A9                REQUIRE _A_IEN0
   \   0000A9                REQUIRE _A_IEN1
   \   0000A9                REQUIRE P0IFG

   \                                 In  segment BANKED_CODE, align 1, keep-with-next
   \                     ?Subroutine111:
   \   000000   90....       MOV     DPTR,#basicRfConfig + 2
   \   000003   E0           MOVX    A,@DPTR
   \   000004   2400         ADD     A,#0x0
   \   000006   F0           MOVX    @DPTR,A
   \   000007   A3           INC     DPTR
   \   000008   E0           MOVX    A,@DPTR
   \   000009   22           RET

   \                                 In  segment BANKED_CODE, align 1, keep-with-next
   \                     ?Subroutine110:
   \   000000   90....       MOV     DPTR,#basicRfConfig + 2
   \   000003   E0           MOVX    A,@DPTR
   \   000004   2400         ADD     A,#0x0
   \   000006   F0           MOVX    @DPTR,A
   \   000007   A3           INC     DPTR
   \   000008   E0           MOVX    A,@DPTR
   \   000009   39           ADDC    A,R1
   \   00000A   F0           MOVX    @DPTR,A
   \   00000B   22           RET
   4282          
   4283          MAC_DATAREQ_API static void RfModExit(macRx_t* pck)
   4284          {
   4285          	pConfig->frameHead = 0x8841;
   4286          	pConfig->destAddr = 0xFFFF;
   4287          	//pConfig->myAddr = 0x000F;
   4288          	pTxData[0] = 0x97;
   4289          	pTxData[1] = pConfig->myAddr;//0x01;
   4290          	if(((CMD_MODE_RF_MST==g_isMaster)||(CMD_MODE_RFLS_MST==g_isMaster)||(CMD_MODE_RFLS_SLA==g_isMaster)||
   4291          		(CMD_MODE_RF_SLA==g_isMaster))&&(BRIDGE_MST_NORMAL==g_mstHold))
   4292          	{
   4293          		pTxData[2] = 0xFE;
   4294          	}else
   4295          	{
   4296          		pTxData[2] = 0x01;
   4297          	}
   4298          	
   4299          	//pTxData[2] = pConfig->totalDev;//0x01;
   4300          	g_sendLen = 3;
   4301          	//macRfSendPacket(pConfig->destAddr, pTxData, g_sendLen,NULL,0);
   4302          	macRfSendPacket(pConfig->destAddr, pTxData, g_sendLen,NULL,0,SEND_MODE_UNSLOTTED);
   4303          	//veriPckSendCallback = &LinkedModeRollPoling;
   4304          	//osal_start_timerEx( macEx_taskId, MACEX_VERI_SEND_INQURE, 1000);	
   4305          }
   4306          

   \                                 In  segment BANKED_CODE, align 1, keep-with-next
   \                     ?Subroutine1:
   \   000000   7C..         MOV     R4,#pTxData & 0xff
   \   000002   7D..         MOV     R5,#(pTxData >> 8) & 0xff
   \   000004   8A82         MOV     DPL,R2
   \   000006   8B83         MOV     DPH,R3
   \   000008   12....       LCALL   ??Subroutine323_0 & 0xFFFF
   \                     ??CrossCallReturnLabel_702:
   \   00000B   12....       LCALL   ?DEALLOC_XSTACK8
   \   00000E   90....       MOV     DPTR,#veriPckSendCallback
   \   000011   E4           CLR     A
   \   000012   F0           MOVX    @DPTR,A
   \   000013   A3           INC     DPTR
   \   000014                REQUIRE ??Subroutine317_0
   \   000014                ; // Fall through to label ??Subroutine317_0

   \                                 In  segment BANKED_CODE, align 1, keep-with-next
   \                     ??Subroutine317_0:
   \   000000   F0           MOVX    @DPTR,A
   \   000001                REQUIRE ??Subroutine318_0
   \   000001                ; // Fall through to label ??Subroutine318_0

   \                                 In  segment BANKED_CODE, align 1, keep-with-next
   4307          MAC_DATAREQ_API static void RfMstExit(macRx_t* pck)
   \                     RfMstExit:
   4308          {
   \   000000   74F6         MOV     A,#-0xa
   \   000002   12....       LCALL   ?BANKED_ENTER_XDATA
   \   000005                ; Saved register size: 10
   \   000005                ; Auto size: 0
   4309          	pConfig->frameHead = 0x8841;
   \   000005   12....       LCALL   ?Subroutine9 & 0xFFFF
   4310          	pConfig->destAddr = 0xFFFF;
   4311          	//pConfig->myAddr = 0x000F;
   4312          	pTxData[0] = 0x97;
   4313          	pTxData[1] = pConfig->myAddr;//0x01;
   4314          	pTxData[2] = 0xFE;	
   4315          	//pTxData[2] = pConfig->totalDev;//0x01;
   4316          	g_sendLen = 3;
   4317          	//macRfSendPacket(pConfig->destAddr, pTxData, g_sendLen,NULL,0);
   4318          	macRfSendPacket(pConfig->destAddr, pTxData, g_sendLen,NULL,0,SEND_MODE_UNSLOTTED);
   \                     ??CrossCallReturnLabel_0:
   \   000008   12....       LCALL   ?PUSH_XSTACK_I_ONE
   \   00000B   75..00       MOV     ?V0 + 0,#0x0
   \   00000E   78..         MOV     R0,#?V0 + 0
   \   000010   12....       LCALL   ?PUSH_XSTACK_I_ONE
   \   000013   E4           CLR     A
   \   000014   F5..         MOV     ?V0 + 1,A
   \   000016   78..         MOV     R0,#?V0 + 0
   \   000018   12....       LCALL   ?PUSH_XSTACK_I_TWO
   \   00001B   7903         MOV     R1,#0x3
   \   00001D   02....       LJMP    ?Subroutine1 & 0xFFFF
   4319          	veriPckSendCallback = NULL;
   4320          	//veriPckSendCallback = &LinkedModeRollPoling;
   4321          	//osal_start_timerEx( macEx_taskId, MACEX_VERI_SEND_INQURE, 1000);	
   4322          }

   \                                 In  segment BANKED_CODE, align 1, keep-with-next
   \                     ?Subroutine9:
   \   000000   12....       LCALL   ?Subroutine183 & 0xFFFF
   \                     ??CrossCallReturnLabel_348:
   \   000003   7497         MOV     A,#-0x69
   \   000005   F0           MOVX    @DPTR,A
   \   000006   12....       LCALL   ?Subroutine208 & 0xFFFF
   \                     ??CrossCallReturnLabel_680:
   \   000009   E0           MOVX    A,@DPTR
   \   00000A   90....       MOV     DPTR,#pTxData + 1
   \   00000D   F0           MOVX    @DPTR,A
   \   00000E   A3           INC     DPTR
   \   00000F   74FE         MOV     A,#-0x2
   \   000011   12....       LCALL   ?Subroutine225 & 0xFFFF
   \                     ??CrossCallReturnLabel_885:
   \   000014   7403         MOV     A,#0x3
   \   000016   12....       LCALL   ?Subroutine232 & 0xFFFF
   \                     ??CrossCallReturnLabel_893:
   \   000019   22           RET
   4323          

   \                                 In  segment BANKED_CODE, align 1, keep-with-next
   4324          MAC_DATAREQ_API static void ExitAndSetChan_exit(macRx_t* pck)
   \                     ExitAndSetChan_exit:
   4325          {
   \   000000   74F6         MOV     A,#-0xa
   \   000002   12....       LCALL   ?BANKED_ENTER_XDATA
   \   000005                ; Saved register size: 10
   \   000005                ; Auto size: 0
   4326          	pConfig->frameHead = 0x8841;
   \   000005   12....       LCALL   ?Subroutine9 & 0xFFFF
   4327          	pConfig->destAddr = 0xFFFF;
   4328          	//pConfig->myAddr = 0x000F;
   4329          	pTxData[0] = 0x97;
   4330          	pTxData[1] = pConfig->myAddr;//0x01;
   4331          	pTxData[2] = 0xFE;	
   4332          	//pTxData[2] = pConfig->totalDev;//0x01;
   4333          	g_sendLen = 3;
   4334          	//macRfSendPacket(pConfig->destAddr, pTxData, g_sendLen,NULL,0);
   4335          	macRfSendPacket(pConfig->destAddr, pTxData, g_sendLen,NULL,0,SEND_MODE_UNSLOTTED);
   \                     ??CrossCallReturnLabel_1:
   \   000008   12....       LCALL   ?PUSH_XSTACK_I_ONE
   \   00000B   75..00       MOV     ?V0 + 0,#0x0
   \   00000E   78..         MOV     R0,#?V0 + 0
   \   000010   12....       LCALL   ?PUSH_XSTACK_I_ONE
   \   000013   E4           CLR     A
   \   000014   F5..         MOV     ?V0 + 1,A
   \   000016   78..         MOV     R0,#?V0 + 0
   \   000018   12....       LCALL   ?PUSH_XSTACK_I_TWO
   \   00001B   7903         MOV     R1,#0x3
   \   00001D   7C..         MOV     R4,#pTxData & 0xff
   \   00001F   7D..         MOV     R5,#(pTxData >> 8) & 0xff
   \   000021   8A82         MOV     DPL,R2
   \   000023   8B83         MOV     DPH,R3
   \   000025   12....       LCALL   ??Subroutine323_0 & 0xFFFF
   \                     ??CrossCallReturnLabel_703:
   \   000028   12....       LCALL   ?DEALLOC_XSTACK8
   4336          
   4337          	//WAIT_RF_SEND_OK();
   4338          /*
   4339          	if(g_swRfChan==0)
   4340          	{
   4341          		pConfig->channel = RF_CHAN_AUTO;
   4342          	}else
   4343          	{
   4344          		pConfig->channel = g_swRfChan -1+RF_CHANNEL;
   4345          	}
   4346          
   4347          	RfModCheck(g_isMaster);
   4348          	macParameterSet();
   4349          	veriPckSendCallback = &macNetCheck;
   4350          	osal_start_timerEx(macEx_taskId, MACEX_VERI_SEND_INQURE,50);
   4351          */
   4352          
   4353          	veriPckSendCallback = &ExitAndSetChan_setCh;
   \   00002B   90....       MOV     DPTR,#veriPckSendCallback
   \   00002E   74..         MOV     A,#??ExitAndSetChan_setCh?relay & 0xff
   \   000030   F0           MOVX    @DPTR,A
   \   000031   A3           INC     DPTR
   \   000032   74..         MOV     A,#(??ExitAndSetChan_setCh?relay >> 8) & 0xff
   \   000034   F0           MOVX    @DPTR,A
   4354          	osal_start_timerEx(macEx_taskId, MACEX_VERI_SEND_INQURE,1);
   \   000035                ; Setup parameters for call to function osal_start_timerEx
   \   000035   7C01         MOV     R4,#0x1
   \   000037   02....       LJMP    ??Subroutine333_0 & 0xFFFF
   4355          	
   4356          }
   4357          

   \                                 In  segment BANKED_CODE, align 1, keep-with-next
   \                     ?Subroutine0:
   \   000000   12....       LCALL   ??Subroutine339_0 & 0xFFFF
   \                     ??CrossCallReturnLabel_813:
   \   000003                REQUIRE ??Subroutine299_0
   \   000003                ; // Fall through to label ??Subroutine299_0

   \                                 In  segment BANKED_CODE, align 1, keep-with-next
   4358          MAC_DATAREQ_API static void ExitAndSetChan_setCh(macRx_t* pck)
   \                     ExitAndSetChan_setCh:
   4359          {
   \   000000   C082         PUSH    DPL
   \   000002   C083         PUSH    DPH
   \   000004                ; Saved register size: 2
   \   000004                ; Auto size: 0
   4360          	if(g_swRfChan==0)
   \   000004   12....       LCALL   ?Subroutine108 & 0xFFFF
   \                     ??CrossCallReturnLabel_184:
   \   000007   90....       MOV     DPTR,#g_swRfChan
   \   00000A   E0           MOVX    A,@DPTR
   \   00000B   7007         JNZ     ??ExitAndSetChan_setCh_0
   4361          	{
   4362          		pConfig->channel = RF_CHAN_AUTO;
   \   00000D   8882         MOV     DPL,R0
   \   00000F   8983         MOV     DPH,R1
   \   000011   E4           CLR     A
   \   000012   8006         SJMP    ??ExitAndSetChan_setCh_1
   4363          	}else
   4364          	{
   4365          		pConfig->channel = g_swRfChan -1+RF_CHANNEL;
   \                     ??ExitAndSetChan_setCh_0:
   \   000014   240A         ADD     A,#0xa
   \   000016   8882         MOV     DPL,R0
   \   000018   8983         MOV     DPH,R1
   \                     ??ExitAndSetChan_setCh_1:
   \   00001A   F0           MOVX    @DPTR,A
   4366          	}
   4367          	//osal_memset(pConfig->arrCnt,0,5);
   4368          	//LED_INS_UNLINK();
   4369          	RfModCheck(g_isMaster);
   \   00001B                ; Setup parameters for call to function RfModCheck
   \   00001B   12....       LCALL   ?Subroutine62 & 0xFFFF
   4370          	macParameterSet();
   4371          	veriPckSendCallback = &macNetCheck;
   \                     ??CrossCallReturnLabel_92:
   \   00001E   F0           MOVX    @DPTR,A
   4372          	osal_start_timerEx(macEx_taskId, MACEX_VERI_SEND_INQURE,50);
   \   00001F                ; Setup parameters for call to function osal_start_timerEx
   \   00001F   7C32         MOV     R4,#0x32
   \   000021   02....       LJMP    ?Subroutine0 & 0xFFFF
   4373          
   4374          }

   \                                 In  segment BANKED_CODE, align 1, keep-with-next
   \                     ?Subroutine62:
   \   000000   90....       MOV     DPTR,#g_isMaster
   \   000003   E0           MOVX    A,@DPTR
   \   000004   F9           MOV     R1,A
   \   000005   12....       LCALL   ??RfModCheck?relay
   \   000008                ; Setup parameters for call to function macParameterSet
   \   000008                ; Setup parameters for call to function macParameterSet
   \   000008   12....       LCALL   ??macParameterSet?relay
   \   00000B   90....       MOV     DPTR,#veriPckSendCallback
   \   00000E   74..         MOV     A,#??macNetCheck?relay & 0xff
   \   000010   F0           MOVX    @DPTR,A
   \   000011   A3           INC     DPTR
   \   000012   74..         MOV     A,#(??macNetCheck?relay >> 8) & 0xff
   \   000014   22           RET

   \                                 In  segment BANKED_CODE, align 1, keep-with-next
   \                     ?Subroutine108:
   \   000000   90....       MOV     DPTR,#pConfig
   \   000003   E0           MOVX    A,@DPTR
   \   000004   2404         ADD     A,#0x4
   \   000006   F8           MOV     R0,A
   \   000007   A3           INC     DPTR
   \   000008   E0           MOVX    A,@DPTR
   \   000009   3400         ADDC    A,#0x0
   \   00000B   F9           MOV     R1,A
   \   00000C   22           RET
   4375          

   \                                 In  segment BANKED_CODE, align 1, keep-with-next
   4376          MAC_DATAREQ_API static void ExitAndSetRfId(macRx_t* pck)
   \                     ExitAndSetRfId:
   4377          {
   \   000000   74F6         MOV     A,#-0xa
   \   000002   12....       LCALL   ?BANKED_ENTER_XDATA
   \   000005                ; Saved register size: 10
   \   000005                ; Auto size: 0
   4378          	pConfig->frameHead = 0x8841;
   \   000005   12....       LCALL   ?Subroutine9 & 0xFFFF
   4379          	pConfig->destAddr = 0xFFFF;
   4380          	//pConfig->myAddr = 0x000F;
   4381          	pTxData[0] = 0x97;
   4382          	pTxData[1] = pConfig->myAddr;//0x01;
   4383          	pTxData[2] = 0xFE;	
   4384          	//pTxData[2] = pConfig->totalDev;//0x01;
   4385          	g_sendLen = 3;
   4386          	//macRfSendPacket(pConfig->destAddr, pTxData, g_sendLen,NULL,0);
   4387          	macRfSendPacket(pConfig->destAddr, pTxData, g_sendLen,NULL,0,SEND_MODE_UNSLOTTED);
   \                     ??CrossCallReturnLabel_2:
   \   000008   12....       LCALL   ?PUSH_XSTACK_I_ONE
   \   00000B   75..00       MOV     ?V0 + 0,#0x0
   \   00000E   78..         MOV     R0,#?V0 + 0
   \   000010   12....       LCALL   ?PUSH_XSTACK_I_ONE
   \   000013   E4           CLR     A
   \   000014   F5..         MOV     ?V0 + 1,A
   \   000016   78..         MOV     R0,#?V0 + 0
   \   000018   12....       LCALL   ?PUSH_XSTACK_I_TWO
   \   00001B   7903         MOV     R1,#0x3
   \   00001D   7C..         MOV     R4,#pTxData & 0xff
   \   00001F   7D..         MOV     R5,#(pTxData >> 8) & 0xff
   \   000021   8A82         MOV     DPL,R2
   \   000023   8B83         MOV     DPH,R3
   \   000025   12....       LCALL   ??Subroutine323_0 & 0xFFFF
   \                     ??CrossCallReturnLabel_704:
   \   000028   12....       LCALL   ?DEALLOC_XSTACK8
   4388          
   4389          	if((CMD_MODE_RFLS_MST==g_isMaster)||(CMD_MODE_RFLS_SLA==g_isMaster))
   \   00002B   90....       MOV     DPTR,#g_isMaster
   \   00002E   E0           MOVX    A,@DPTR
   \   00002F   6406         XRL     A,#0x6
   \   000031   6005         JZ      ??ExitAndSetRfId_0
   \   000033   E0           MOVX    A,@DPTR
   \   000034   6405         XRL     A,#0x5
   \   000036   7013         JNZ     ??ExitAndSetRfId_1
   4390          	{
   4391          		if(RF_CHAN_AUTO==pConfig->channel)
   \                     ??ExitAndSetRfId_0:
   \   000038   12....       LCALL   ?Subroutine69 & 0xFFFF
   \                     ??CrossCallReturnLabel_102:
   \   00003B   7007         JNZ     ??ExitAndSetRfId_2
   4392          		{
   4393          			basicRfConfig.panId = LINKED_PAN_ID_AUTO+g_swRfId;
   \   00003D   12....       LCALL   ?Subroutine104 & 0xFFFF
   4394          		}else
   \                     ??CrossCallReturnLabel_177:
   \   000040   3460         ADDC    A,#0x60
   \   000042   8017         SJMP    ??ExitAndSetRfId_3
   4395          		{
   4396          			basicRfConfig.panId = LINKED_PAN_ID+g_swRfId;
   \                     ??ExitAndSetRfId_2:
   \   000044   12....       LCALL   ?Subroutine104 & 0xFFFF
   4397          		}
   4398          	}else
   \                     ??CrossCallReturnLabel_178:
   \   000047   3490         ADDC    A,#-0x70
   \   000049   8010         SJMP    ??ExitAndSetRfId_3
   4399          	{
   4400          		if(RF_CHAN_AUTO==pConfig->channel)
   \                     ??ExitAndSetRfId_1:
   \   00004B   12....       LCALL   ?Subroutine69 & 0xFFFF
   \                     ??CrossCallReturnLabel_103:
   \   00004E   7006         JNZ     ??ExitAndSetRfId_4
   4401          		{
   4402          			basicRfConfig.panId = MST_PAN_ID_AUTO+g_swRfId;
   \   000050   E0           MOVX    A,@DPTR
   \   000051   F8           MOV     R0,A
   \   000052   A3           INC     DPTR
   \   000053   E0           MOVX    A,@DPTR
   \   000054   8005         SJMP    ??ExitAndSetRfId_3
   4403          		}else
   4404          		{
   4405          			basicRfConfig.panId = MST_PAN_ID+g_swRfId;
   \                     ??ExitAndSetRfId_4:
   \   000056   12....       LCALL   ?Subroutine104 & 0xFFFF
   4406          		}
   4407          	}
   \                     ??CrossCallReturnLabel_179:
   \   000059   3430         ADDC    A,#0x30
   \                     ??ExitAndSetRfId_3:
   \   00005B   12....       LCALL   ?Subroutine162 & 0xFFFF
   4408          	macParameterSet();
   4409          
   4410          	//osal_memset(pConfig->arrCnt,0,5);
   4411          	//LED_INS_UNLINK();
   4412                 //osal_memset(pConfig->idInGroup, 0, int len)
   4413          
   4414          	veriPckSendCallback = &macNetCheck;
   \                     ??CrossCallReturnLabel_309:
   \   00005E   90....       MOV     DPTR,#veriPckSendCallback
   \   000061   74..         MOV     A,#??macNetCheck?relay & 0xff
   \   000063   F0           MOVX    @DPTR,A
   \   000064   A3           INC     DPTR
   \   000065   74..         MOV     A,#(??macNetCheck?relay >> 8) & 0xff
   \   000067   F0           MOVX    @DPTR,A
   4415          	osal_start_timerEx(macEx_taskId, MACEX_VERI_SEND_INQURE,100);
   \   000068                ; Setup parameters for call to function osal_start_timerEx
   \   000068   7C64         MOV     R4,#0x64
   \   00006A   02....       LJMP    ??Subroutine333_0 & 0xFFFF
   4416          }

   \                                 In  segment BANKED_CODE, align 1, keep-with-next
   \                     ?Subroutine104:
   \   000000   E0           MOVX    A,@DPTR
   \   000001   2400         ADD     A,#0x0
   \   000003   F8           MOV     R0,A
   \   000004   A3           INC     DPTR
   \   000005   E0           MOVX    A,@DPTR
   \   000006   22           RET

   \                                 In  segment BANKED_CODE, align 1, keep-with-next
   \                     ?Subroutine69:
   \   000000   12....       LCALL   ?Subroutine193 & 0xFFFF
   \                     ??CrossCallReturnLabel_661:
   \   000003   90....       MOV     DPTR,#g_swRfId
   \   000006   22           RET

   \                                 In  segment BANKED_CODE, align 1, keep-with-next
   \                     ?Subroutine162:
   \   000000   F9           MOV     R1,A
   \   000001   90....       MOV     DPTR,#basicRfConfig + 2
   \   000004   E8           MOV     A,R0
   \   000005   F0           MOVX    @DPTR,A
   \   000006   A3           INC     DPTR
   \   000007   E9           MOV     A,R1
   \   000008   F0           MOVX    @DPTR,A
   \   000009                ; Setup parameters for call to function macParameterSet
   \   000009                ; Setup parameters for call to function macParameterSet
   \   000009   12....       LCALL   ??macParameterSet?relay
   \   00000C   22           RET
   4417          
   4418          #pragma optimize=none

   \                                 In  segment BANKED_CODE, align 1, keep-with-next
   4419          static void macDelay(unsigned int de)
   \                     macDelay:
   4420          {
   \   000000                ; Saved register size: 0
   \   000000                ; Auto size: 0
   4421          	//while(de--);
   4422          	 uint16 i,j;
   4423          	 for(i=de;i>0;i--)
   \   000000   EA           MOV     A,R2
   \   000001   FC           MOV     R4,A
   \   000002   EB           MOV     A,R3
   \   000003   FD           MOV     R5,A
   \                     ??macDelay_0:
   \   000004   EC           MOV     A,R4
   \   000005   4D           ORL     A,R5
   \   000006   601C         JZ      ??macDelay_1
   4424          	   for(j=587;j>0;j--);
   \   000008   784B         MOV     R0,#0x4b
   \   00000A   7902         MOV     R1,#0x2
   \                     ??macDelay_2:
   \   00000C   E8           MOV     A,R0
   \   00000D   49           ORL     A,R1
   \   00000E   600A         JZ      ??macDelay_3
   \   000010   E8           MOV     A,R0
   \   000011   24FF         ADD     A,#-0x1
   \   000013   F8           MOV     R0,A
   \   000014   E9           MOV     A,R1
   \   000015   34FF         ADDC    A,#-0x1
   \   000017   F9           MOV     R1,A
   \   000018   80F2         SJMP    ??macDelay_2
   \                     ??macDelay_3:
   \   00001A   EC           MOV     A,R4
   \   00001B   24FF         ADD     A,#-0x1
   \   00001D   FC           MOV     R4,A
   \   00001E   ED           MOV     A,R5
   \   00001F   34FF         ADDC    A,#-0x1
   \   000021   FD           MOV     R5,A
   \   000022   80E0         SJMP    ??macDelay_0
   4425          }
   \                     ??macDelay_1:
   \   000024   02....       LJMP    ?BRET
   4426          
   4427          #pragma optimize=none
   4428          static void macPreDelay(uint16 microSecs)
   4429          {
   4430            while(microSecs--)
   4431            {
   4432              /* 32 NOPs == 1 usecs */
   4433              asm("nop"); asm("nop"); asm("nop"); asm("nop"); asm("nop");
   4434              asm("nop"); asm("nop"); asm("nop"); asm("nop"); asm("nop");
   4435              asm("nop"); asm("nop"); asm("nop"); asm("nop"); asm("nop");
   4436              asm("nop"); asm("nop"); asm("nop"); asm("nop"); asm("nop");
   4437              asm("nop"); asm("nop"); asm("nop"); asm("nop"); asm("nop");
   4438              asm("nop"); asm("nop"); asm("nop"); asm("nop"); asm("nop");
   4439              asm("nop"); asm("nop");
   4440            }
   4441          }
   4442          

   \                                 In  segment BANKED_CODE, align 1, keep-with-next
   4443          MAC_DATAREQ_API void CmdModeSwitchEx(macRx_t* pck)
   \                     CmdModeSwitchEx:
   4444          {
   \   000000   C082         PUSH    DPL
   \   000002   C083         PUSH    DPH
   \   000004                ; Saved register size: 2
   \   000004                ; Auto size: 0
   4445          	g_isMaster = g_swMode;
   \   000004   90....       MOV     DPTR,#g_swMode
   \   000007   E0           MOVX    A,@DPTR
   \   000008   90....       MOV     DPTR,#g_isMaster
   \   00000B   F0           MOVX    @DPTR,A
   4446          	//RfModCheck(g_isMaster);
   4447          	//macDeleteAllDevice();
   4448          	//macParameterSet();
   4449          	if((CMD_MODE_RF_MST==g_isMaster)||(CMD_MODE_RF_SLA==g_isMaster)||(CMD_MODE_RFLS_SLA==g_isMaster))
   \   00000C   6401         XRL     A,#0x1
   \   00000E   600A         JZ      ??CmdModeSwitchEx_0
   \   000010   E0           MOVX    A,@DPTR
   \   000011   6402         XRL     A,#0x2
   \   000013   6005         JZ      ??CmdModeSwitchEx_0
   \   000015   E0           MOVX    A,@DPTR
   \   000016   6405         XRL     A,#0x5
   \   000018   701A         JNZ     ??CmdModeSwitchEx_1
   4450          	{
   4451          		RfModCheck(g_isMaster);
   \                     ??CmdModeSwitchEx_0:
   \   00001A                ; Setup parameters for call to function RfModCheck
   \   00001A   12....       LCALL   ?Subroutine90 & 0xFFFF
   4452          		macDeleteAllDevice();
   4453          		macParameterSet();
   4454          		g_netStart = 0;
   \                     ??CrossCallReturnLabel_140:
   \   00001D   90....       MOV     DPTR,#g_netStart
   \   000020   E4           CLR     A
   \   000021   12....       LCALL   ??Subroutine300_0 & 0xFFFF
   4455          		pConfig->isRflsCoordinator = RFLS_COORDINATOR_M;
   \                     ??CrossCallReturnLabel_571:
   \   000024   24FF         ADD     A,#-0x1
   \   000026   12....       LCALL   ?Subroutine75 & 0xFFFF
   4456          		veriPckSendCallback = &macNetCheck;
   \                     ??CrossCallReturnLabel_118:
   \   000029   90....       MOV     DPTR,#veriPckSendCallback
   \   00002C   74..         MOV     A,#??macNetCheck?relay & 0xff
   \   00002E   F0           MOVX    @DPTR,A
   \   00002F   A3           INC     DPTR
   \   000030   74..         MOV     A,#(??macNetCheck?relay >> 8) & 0xff
   \   000032   8019         SJMP    ??CmdModeSwitchEx_2
   4457          	}else if(CMD_MODE_RFLS_MST==g_isMaster)
   \                     ??CmdModeSwitchEx_1:
   \   000034   E0           MOVX    A,@DPTR
   \   000035   6406         XRL     A,#0x6
   \   000037   7015         JNZ     ??CmdModeSwitchEx_3
   4458          	{
   4459          		//macParameterSet();
   4460          		//if(RFLS_COORDINATOR_M==pConfig->isRflsCoordinator)
   4461          		if(!g_mstHold)
   \   000039   90....       MOV     DPTR,#g_mstHold
   \   00003C   E0           MOVX    A,@DPTR
   \   00003D   90....       MOV     DPTR,#veriPckSendCallback
   \   000040   7008         JNZ     ??CmdModeSwitchEx_4
   4462          		{
   4463          #ifdef SEND_UNIFIED
   4464          			veriPckSendCallback=&macRollPolingProc;
   \   000042   74..         MOV     A,#??macRollPolingProc?relay & 0xff
   \   000044   F0           MOVX    @DPTR,A
   \   000045   A3           INC     DPTR
   \   000046   74..         MOV     A,#(??macRollPolingProc?relay >> 8) & 0xff
   \   000048   8003         SJMP    ??CmdModeSwitchEx_2
   4465          #else
   4466          			veriPckSendCallback=&LinkedModeRollPoling;
   4467          #endif
   4468          		}else
   4469          		{
   4470          			veriPckSendCallback=NULL;
   \                     ??CmdModeSwitchEx_4:
   \   00004A   E4           CLR     A
   \   00004B   F0           MOVX    @DPTR,A
   \   00004C   A3           INC     DPTR
   \                     ??CmdModeSwitchEx_2:
   \   00004D   F0           MOVX    @DPTR,A
   4471          		}
   4472          	}
   4473          	osal_start_timerEx( macEx_taskId, MACEX_VERI_SEND_INQURE, 100);
   \                     ??CmdModeSwitchEx_3:
   \   00004E                ; Setup parameters for call to function osal_start_timerEx
   \   00004E   7C64         MOV     R4,#0x64
   \   000050   02....       LJMP    ?Subroutine0 & 0xFFFF
   4474          }

   \                                 In  segment BANKED_CODE, align 1, keep-with-next
   \                     ?Subroutine90:
   \   000000   E0           MOVX    A,@DPTR
   \   000001   F9           MOV     R1,A
   \   000002   12....       LCALL   ??RfModCheck?relay
   \   000005                ; Setup parameters for call to function macDeleteAllDevice
   \   000005                ; Setup parameters for call to function macDeleteAllDevice
   \   000005   12....       LCALL   ??macDeleteAllDevice?relay
   \   000008                ; Setup parameters for call to function macParameterSet
   \   000008                ; Setup parameters for call to function macParameterSet
   \   000008   12....       LCALL   ??macParameterSet?relay
   \   00000B   22           RET
   4475          

   \                                 In  segment BANKED_CODE, align 1, keep-with-next
   4476          MAC_DATAREQ_API void CmdModeSwitch(macRx_t* pck)
   \                     CmdModeSwitch:
   4477          {
   \   000000   74F6         MOV     A,#-0xa
   \   000002   12....       LCALL   ?BANKED_ENTER_XDATA
   \   000005                ; Saved register size: 10
   \   000005                ; Auto size: 0
   4478          	if((CMD_MODE_RF_MST==g_isMaster)||(CMD_MODE_RF_SLA==g_isMaster)||(CMD_MODE_RFLS_MST==g_isMaster))
   \   000005   90....       MOV     DPTR,#g_isMaster
   \   000008   E0           MOVX    A,@DPTR
   \   000009   6401         XRL     A,#0x1
   \   00000B   600A         JZ      ??CmdModeSwitch_0
   \   00000D   E0           MOVX    A,@DPTR
   \   00000E   6402         XRL     A,#0x2
   \   000010   6005         JZ      ??CmdModeSwitch_0
   \   000012   E0           MOVX    A,@DPTR
   \   000013   6406         XRL     A,#0x6
   \   000015   7061         JNZ     ??CmdModeSwitch_1
   4479          	{
   4480          		RfModExit(callbackPara);
   \                     ??CmdModeSwitch_0:
   \   000017   12....       LCALL   ?Subroutine20 & 0xFFFF
   \                     ??CrossCallReturnLabel_17:
   \   00001A   7497         MOV     A,#-0x69
   \   00001C   12....       LCALL   ?Subroutine74 & 0xFFFF
   \                     ??CrossCallReturnLabel_676:
   \   00001F   E0           MOVX    A,@DPTR
   \   000020   90....       MOV     DPTR,#pTxData + 1
   \   000023   12....       LCALL   ?Subroutine160 & 0xFFFF
   \                     ??CrossCallReturnLabel_304:
   \   000026   6401         XRL     A,#0x1
   \   000028   600F         JZ      ??CmdModeSwitch_2
   \   00002A   E0           MOVX    A,@DPTR
   \   00002B   6406         XRL     A,#0x6
   \   00002D   600A         JZ      ??CmdModeSwitch_2
   \   00002F   E0           MOVX    A,@DPTR
   \   000030   6405         XRL     A,#0x5
   \   000032   6005         JZ      ??CmdModeSwitch_2
   \   000034   E0           MOVX    A,@DPTR
   \   000035   6402         XRL     A,#0x2
   \   000037   700D         JNZ     ??CmdModeSwitch_3
   \                     ??CmdModeSwitch_2:
   \   000039   90....       MOV     DPTR,#g_mstHold
   \   00003C   E0           MOVX    A,@DPTR
   \   00003D   7007         JNZ     ??CmdModeSwitch_3
   \   00003F   90....       MOV     DPTR,#pTxData + 2
   \   000042   74FE         MOV     A,#-0x2
   \   000044   8005         SJMP    ??CmdModeSwitch_4
   \                     ??CmdModeSwitch_3:
   \   000046   90....       MOV     DPTR,#pTxData + 2
   \   000049   7401         MOV     A,#0x1
   \                     ??CmdModeSwitch_4:
   \   00004B   12....       LCALL   ?Subroutine225 & 0xFFFF
   \                     ??CrossCallReturnLabel_886:
   \   00004E   7403         MOV     A,#0x3
   \   000050   12....       LCALL   ??Subroutine346_0 & 0xFFFF
   \                     ??CrossCallReturnLabel_854:
   \   000053   12....       LCALL   ?PUSH_XSTACK_I_ONE
   \   000056   75..00       MOV     ?V0 + 0,#0x0
   \   000059   78..         MOV     R0,#?V0 + 0
   \   00005B   12....       LCALL   ?PUSH_XSTACK_I_ONE
   \   00005E   E4           CLR     A
   \   00005F   F5..         MOV     ?V0 + 1,A
   \   000061   78..         MOV     R0,#?V0 + 0
   \   000063   12....       LCALL   ?PUSH_XSTACK_I_TWO
   \   000066   7903         MOV     R1,#0x3
   \   000068   7C..         MOV     R4,#pTxData & 0xff
   \   00006A   7D..         MOV     R5,#(pTxData >> 8) & 0xff
   \   00006C   8A82         MOV     DPL,R2
   \   00006E   8B83         MOV     DPH,R3
   \   000070   12....       LCALL   ??Subroutine323_0 & 0xFFFF
   \                     ??CrossCallReturnLabel_705:
   \   000073   12....       LCALL   ?DEALLOC_XSTACK8
   4481          	}else if(CMD_MODE_RFLS_SLA==g_isMaster)
   \   000076   800E         SJMP    ??CmdModeSwitch_5
   \                     ??CmdModeSwitch_1:
   \   000078   E0           MOVX    A,@DPTR
   \   000079   6405         XRL     A,#0x5
   \   00007B   7009         JNZ     ??CmdModeSwitch_5
   4482          	{
   4483          		RflsStart(callbackPara);
   \   00007D                ; Setup parameters for call to function RflsStart
   \   00007D   90....       MOV     DPTR,#callbackPara
   \   000080   12....       LCALL   ??Subroutine320_0 & 0xFFFF
   4484          	}
   \                     ??CrossCallReturnLabel_670:
   \   000083   12....       LCALL   ??RflsStart?relay
   4485          	veriPckSendCallback = &CmdModeSwitchEx;
   \                     ??CmdModeSwitch_5:
   \   000086   90....       MOV     DPTR,#veriPckSendCallback
   \   000089   74..         MOV     A,#??CmdModeSwitchEx?relay & 0xff
   \   00008B   F0           MOVX    @DPTR,A
   \   00008C   A3           INC     DPTR
   \   00008D   74..         MOV     A,#(??CmdModeSwitchEx?relay >> 8) & 0xff
   \   00008F   12....       LCALL   ?Subroutine226 & 0xFFFF
   4486          	osal_start_timerEx( macEx_taskId, MACEX_VERI_SEND_INQURE, 2+(osal_rand()&0x03));
   \                     ??CrossCallReturnLabel_388:
   \   000092   2402         ADD     A,#0x2
   \   000094   02....       LJMP    ?Subroutine7 & 0xFFFF
   4487          	//osal_start_timerEx( macEx_taskId, MACEX_VERI_SEND_INQURE, 50);
   4488          
   4489          #if 0
   4490          	//macDelay(20);
   4491          	//while(!(RFIRQF1 & IRQ_TXDONE) );
   4492          	g_isMaster = g_swMode;
   4493          	RfModCheck(g_isMaster);
   4494          	macDeleteAllDevice();
   4495          	macParameterSet();
   4496          	if((CMD_MODE_RF_MST==g_isMaster)||(CMD_MODE_RF_SLA==g_isMaster)||(CMD_MODE_RFLS_SLA==g_isMaster))
   4497          	{
   4498          		g_netStart = 0;
   4499          		pConfig->isRflsCoordinator = RFLS_COORDINATOR_M;
   4500          		veriPckSendCallback = &macNetCheck;
   4501          	}else if(CMD_MODE_RFLS_MST==g_isMaster)
   4502          	{
   4503          		if(RFLS_COORDINATOR_M==pConfig->isRflsCoordinator)
   4504          		{
   4505          #ifdef SEND_UNIFIED
   4506          			veriPckSendCallback=&macRollPolingProc;
   4507          #else
   4508          			veriPckSendCallback=&LinkedModeRollPoling;
   4509          #endif
   4510          		}else
   4511          		{
   4512          			veriPckSendCallback=NULL;
   4513          		}
   4514          	}
   4515          	osal_start_timerEx( macEx_taskId, MACEX_VERI_SEND_INQURE, 100);
   4516          #endif
   4517          }
   4518          

   \                                 In  segment BANKED_CODE, align 1, keep-with-next
   4519          MAC_INTERNAL_API static void macExUartRcvHandle(uint8 *rcv,uint8 len)
   \                     macExUartRcvHandle:
   4520          {
   \   000000   74EF         MOV     A,#-0x11
   \   000002   12....       LCALL   ?BANKED_ENTER_XDATA
   \   000005                ; Saved register size: 17
   \   000005                ; Auto size: 0
   \   000005   8A..         MOV     ?V0 + 4,R2
   \   000007   8B..         MOV     ?V0 + 5,R3
   4521          	unsigned char veri=0;
   4522          	unsigned char i=0;
   \   000009   75..00       MOV     ?V0 + 0,#0x0
   4523          	veri = CalcSum(rcv,len-1);
   4524          	//FingerIndex();
   4525          	//uint8 *p;
   4526          	//veri=rcv[0]+rcv[1]+rcv[2];
   4527          	//if(veri!=rcv[3])
   4528          	if(veri!=rcv[len-1])
   \   00000C   8982         MOV     DPL,R1
   \   00000E   8582..       MOV     ?V0 + 2,DPL
   \   000011                ; Setup parameters for call to function CalcSum
   \   000011   19           DEC     R1
   \   000012   12....       LCALL   ??CalcSum?relay
   \   000015   E9           MOV     A,R1
   \   000016   FA           MOV     R2,A
   \   000017   E5..         MOV     A,?V0 + 4
   \   000019   25..         ADD     A,?V0 + 2
   \   00001B   F8           MOV     R0,A
   \   00001C   E5..         MOV     A,?V0 + 5
   \   00001E   12....       LCALL   ??Subroutine313_0 & 0xFFFF
   \                     ??CrossCallReturnLabel_643:
   \   000021   24FF         ADD     A,#-0x1
   \   000023   F582         MOV     DPL,A
   \   000025   E9           MOV     A,R1
   \   000026   34FF         ADDC    A,#-0x1
   \   000028   F583         MOV     DPH,A
   \   00002A   E0           MOVX    A,@DPTR
   \   00002B   6A           XRL     A,R2
   \   00002C   6020         JZ      ??macExUartRcvHandle_0
   \                     ??macExUartRcvHandle_1:
   \   00002E   7F09         MOV     R7,#0x9
   \   000030   02....       LJMP    ?BANKED_LEAVE_XDATA
   4529          	{
   4530          		veri = 0;
   4531          		return;
   4532          	}
   4533          
   4534          	while(i<(len-1))
   4535          	{
   4536          		switch(rcv[i])
   4537          		{
   4538          			case UART_ENCODE_RFID:
   4539          				//pConfig->panId = MAKEWORD(rcv[i+1], rcv[i+2]);
   4540          				//if((MSTDEV_MODE_MLINK==g_isMaster)||(MSTDEV_MODE_SLINK==g_isMaster))
   4541          				if((CMD_MODE_RFLS_MST==g_isMaster)||(CMD_MODE_RFLS_SLA==g_isMaster))
   4542          				{
   4543          					if(RF_CHAN_AUTO==pConfig->channel)
   4544          					{
   4545          						basicRfConfig.panId = LINKED_PAN_ID_AUTO+MAKEWORD(rcv[i+1], rcv[i+2]);
   4546          					}else
   4547          					{
   4548          						basicRfConfig.panId = LINKED_PAN_ID+MAKEWORD(rcv[i+1], rcv[i+2]);
   4549          					}
   4550          				}else
   4551          				{
   4552          					if(RF_CHAN_AUTO==pConfig->channel)
   4553          					{
   4554          						basicRfConfig.panId = MST_PAN_ID_AUTO+MAKEWORD(rcv[i+1], rcv[i+2]);
   4555          					}else
   4556          					{
   4557          						basicRfConfig.panId = MST_PAN_ID+MAKEWORD(rcv[i+1], rcv[i+2]);
   4558          					}
   4559          				}
   4560          				macParameterSet();
   4561          				i+=3;
   4562          			break;
   4563          
   4564          			case UART_ENCODE_RFIDEX:
   4565          				g_swRfId = MAKEWORD(rcv[i+1], rcv[i+2]);
   4566          				veriPckSendCallback = &ExitAndSetRfId;
   4567          				//osal_memset(pConfig->arrCnt,0,5);
   4568          				//LED_INS_UNLINK();
   4569          				macDeleteAllDevice();
   4570          				osal_start_timerEx(macEx_taskId, MACEX_VERI_SEND_INQURE,5);	
   4571          				i+=3;
   4572          			break;
   4573          
   4574          			case UART_ENCODE_RFMOD:
   4575          /*
   4576          				//g_isMaster = rcv[i+1];
   4577          				RfModCheck(rcv[i+1]);
   4578          				g_isMaster = rcv[i+1];
   4579          				macDeleteAllDevice();
   4580          				macParameterSet();
   4581          				if(CMD_MODE_RFLS_MST==g_isMaster)
   4582          				{
   4583          					veriPckSendCallback = &RflsStart;
   4584          				}else
   4585          				{
   4586          					g_netStart = 0;
   4587          					pConfig->isRflsCoordinator = RFLS_COORDINATOR_M;
   4588          					veriPckSendCallback = &macNetCheck;
   4589          				}
   4590          */
   4591          				if(!g_initCheck)
   4592          				{
   4593          					g_isMaster = rcv[i+1];;
   4594          					if(CMD_MODE_RF_SLA==g_isMaster)
   4595          					{
   4596          						pConfig->group = rcv[i+2];
   4597          					}
   4598          					RfModCheck(g_isMaster);
   4599          					macDeleteAllDevice();
   4600          					macParameterSet();
   4601          					veriPckSendCallback = &macNetCheck;
   4602          					g_initCheck = 1;
   4603          				}else
   4604          				{
   4605          					g_swMode = rcv[i+1];
   4606          					if(CMD_MODE_RF_SLA==g_swMode)
   4607          					{
   4608          						pConfig->group = rcv[i+2];
   4609          					}
   4610          					veriPckSendCallback = &CmdModeSwitch;
   4611          				}
   4612          /*
   4613          				if(CMD_MODE_RFLS_SLA==g_isMaster)
   4614          				{
   4615          					pConfig->isRflsCoordinator = RFLS_COORDINATOR_M;
   4616          				}
   4617          				if(CMD_MODE_RFLS_MST==g_isMaster)
   4618          				{
   4619          					veriPckSendCallback = &RflsStart;	
   4620          				}else
   4621          				{				
   4622          					veriPckSendCallback = &macNetCheck;		
   4623          				}				
   4624          */
   4625          				//osal_start_timerEx(macEx_taskId, MACEX_VERI_SEND_INQURE,20);	
   4626          				osal_start_timerEx(macEx_taskId, MACEX_VERI_SEND_INQURE,3);
   4627          				//macNetCheck(callbackPara);
   4628          				i+=3;
   4629          			break;
   4630          
   4631          			case UART_ENCODE_RFCH:
   4632          				if(EXIT_BEFORE_SET==rcv[i+2])
   4633          				{
   4634          					g_swRfChan = rcv[i+1];
   4635          					//osal_memset(pConfig->arrCnt,0,5);
   4636          					//LED_INS_UNLINK();
   4637          					macDeleteAllDevice();
   4638          					veriPckSendCallback = &ExitAndSetChan_exit;
   4639          					//osal_start_timerEx(macEx_taskId, MACEX_VERI_SEND_INQURE,50);
   4640          					osal_start_timerEx(macEx_taskId, MACEX_VERI_SEND_INQURE,3);
   4641          				}else
   4642          				{
   4643          					if(rcv[i+1]==0)
   4644          					{
   4645          						pConfig->channel = RF_CHAN_AUTO;
   4646          					}else
   4647          					{
   4648          						pConfig->channel = rcv[i+1]-1+RF_CHANNEL;
   \                     ??macExUartRcvHandle_2:
   \   000033   240A         ADD     A,#0xa
   \   000035   8C82         MOV     DPL,R4
   \   000037   8D83         MOV     DPH,R5
   \                     ??macExUartRcvHandle_3:
   \   000039   F0           MOVX    @DPTR,A
   4649          					}
   4650          					//osal_memset(pConfig->arrCnt,0,5);
   4651          					//LED_INS_UNLINK();
   4652          					macDeleteAllDevice();
   \   00003A                ; Setup parameters for call to function macDeleteAllDevice
   \   00003A   12....       LCALL   ??macDeleteAllDevice?relay
   4653          					RfModCheck(g_isMaster);
   \   00003D                ; Setup parameters for call to function RfModCheck
   \   00003D   12....       LCALL   ?Subroutine62 & 0xFFFF
   4654          					macParameterSet();
   4655          					veriPckSendCallback = &macNetCheck;
   \                     ??CrossCallReturnLabel_93:
   \   000040   F0           MOVX    @DPTR,A
   4656          					osal_start_timerEx(macEx_taskId, MACEX_VERI_SEND_INQURE,3);
   \   000041                ; Setup parameters for call to function osal_start_timerEx
   \   000041   7C03         MOV     R4,#0x3
   \                     ??macExUartRcvHandle_4:
   \   000043   7D00         MOV     R5,#0x0
   \                     ??macExUartRcvHandle_5:
   \   000045   12....       LCALL   ??Subroutine340_0 & 0xFFFF
   4657          					//osal_start_timerEx(macEx_taskId, MACEX_VERI_SEND_INQURE,50);
   4658          				}
   4659          				i+=3;
   \                     ??CrossCallReturnLabel_818:
   \   000048   05..         INC     ?V0 + 0
   \   00004A   05..         INC     ?V0 + 0
   \                     ??macExUartRcvHandle_6:
   \   00004C   05..         INC     ?V0 + 0
   4660          			break;
   \                     ??macExUartRcvHandle_0:
   \   00004E   85..82       MOV     DPL,?V0 + 0
   \   000051   A882         MOV     R0,DPL
   \   000053   E5..         MOV     A,?V0 + 2
   \   000055   24FF         ADD     A,#-0x1
   \   000057   FA           MOV     R2,A
   \   000058   E4           CLR     A
   \   000059   34FF         ADDC    A,#-0x1
   \   00005B   FB           MOV     R3,A
   \   00005C   C3           CLR     C
   \   00005D   E8           MOV     A,R0
   \   00005E   9A           SUBB    A,R2
   \   00005F   E4           CLR     A
   \   000060   9B           SUBB    A,R3
   \   000061   A2D2         MOV     C,0xD0 /* PSW */.2
   \   000063   65D0         XRL     A,PSW
   \   000065   33           RLC     A
   \   000066   50C6         JNC     ??macExUartRcvHandle_1
   \   000068   E5..         MOV     A,?V0 + 4
   \   00006A   28           ADD     A,R0
   \   00006B   FE           MOV     R6,A
   \   00006C   E5..         MOV     A,?V0 + 5
   \   00006E   3400         ADDC    A,#0x0
   \   000070   FF           MOV     R7,A
   \   000071   EE           MOV     A,R6
   \   000072   2402         ADD     A,#0x2
   \   000074   F8           MOV     R0,A
   \   000075   EF           MOV     A,R7
   \   000076   3400         ADDC    A,#0x0
   \   000078   F9           MOV     R1,A
   \   000079   8E82         MOV     DPL,R6
   \   00007B   8F83         MOV     DPH,R7
   \   00007D   A3           INC     DPTR
   \   00007E   AA82         MOV     R2,DPL
   \   000080   AB83         MOV     R3,DPH
   \   000082   90....       MOV     DPTR,#pConfig
   \   000085   E0           MOVX    A,@DPTR
   \   000086   2404         ADD     A,#0x4
   \   000088   FC           MOV     R4,A
   \   000089   A3           INC     DPTR
   \   00008A   E0           MOVX    A,@DPTR
   \   00008B   3400         ADDC    A,#0x0
   \   00008D   FD           MOV     R5,A
   \   00008E   90....       MOV     DPTR,#pConfig
   \   000091   E0           MOVX    A,@DPTR
   \   000092   2427         ADD     A,#0x27
   \   000094   F5..         MOV     ?V0 + 6,A
   \   000096   A3           INC     DPTR
   \   000097   E0           MOVX    A,@DPTR
   \   000098   3401         ADDC    A,#0x1
   \   00009A   F5..         MOV     ?V0 + 7,A
   \   00009C   8E82         MOV     DPL,R6
   \   00009E   8F83         MOV     DPH,R7
   \   0000A0   E0           MOVX    A,@DPTR
   \   0000A1   2460         ADD     A,#0x60
   \   0000A3   7003         JNZ     $+5
   \   0000A5   02....       LJMP    ??macExUartRcvHandle_7 & 0xFFFF
   \   0000A8   24F5         ADD     A,#-0xb
   \   0000AA   7003         JNZ     $+5
   \   0000AC   02....       LJMP    ??macExUartRcvHandle_8 & 0xFFFF
   \   0000AF   14           DEC     A
   \   0000B0   7003         JNZ     $+5
   \   0000B2   02....       LJMP    ??macExUartRcvHandle_9 & 0xFFFF
   \   0000B5   14           DEC     A
   \   0000B6   7003         JNZ     $+5
   \   0000B8   02....       LJMP    ??macExUartRcvHandle_10 & 0xFFFF
   \   0000BB   14           DEC     A
   \   0000BC   7003         JNZ     $+5
   \   0000BE   02....       LJMP    ??macExUartRcvHandle_11 & 0xFFFF
   \   0000C1   14           DEC     A
   \   0000C2   7003         JNZ     $+5
   \   0000C4   02....       LJMP    ??macExUartRcvHandle_12 & 0xFFFF
   \   0000C7   14           DEC     A
   \   0000C8   7003         JNZ     $+5
   \   0000CA   02....       LJMP    ??macExUartRcvHandle_13 & 0xFFFF
   \   0000CD   14           DEC     A
   \   0000CE   7003         JNZ     $+5
   \   0000D0   02....       LJMP    ??macExUartRcvHandle_14 & 0xFFFF
   \   0000D3   14           DEC     A
   \   0000D4   7003         JNZ     $+5
   \   0000D6   02....       LJMP    ??macExUartRcvHandle_15 & 0xFFFF
   \   0000D9   14           DEC     A
   \   0000DA   7003         JNZ     $+5
   \   0000DC   02....       LJMP    ??macExUartRcvHandle_16 & 0xFFFF
   \   0000DF   14           DEC     A
   \   0000E0   7003         JNZ     $+5
   \   0000E2   02....       LJMP    ??macExUartRcvHandle_17 & 0xFFFF
   \   0000E5   24FB         ADD     A,#-0x5
   \   0000E7   7003         JNZ     $+5
   \   0000E9   02....       LJMP    ??macExUartRcvHandle_18 & 0xFFFF
   \   0000EC   14           DEC     A
   \   0000ED   7003         JNZ     $+5
   \   0000EF   02....       LJMP    ??macExUartRcvHandle_19 & 0xFFFF
   \   0000F2   24EF         ADD     A,#-0x11
   \   0000F4   7003         JNZ     $+5
   \   0000F6   02....       LJMP    ??macExUartRcvHandle_20 & 0xFFFF
   \   0000F9   14           DEC     A
   \   0000FA   6057         JZ      ??macExUartRcvHandle_21
   \   0000FC   14           DEC     A
   \   0000FD   7003         JNZ     $+5
   \   0000FF   02....       LJMP    ??macExUartRcvHandle_22 & 0xFFFF
   \   000102   14           DEC     A
   \   000103   7003         JNZ     $+5
   \   000105   02....       LJMP    ??macExUartRcvHandle_23 & 0xFFFF
   \   000108   14           DEC     A
   \   000109   6007         JZ      ??macExUartRcvHandle_24
   \   00010B   24EF         ADD     A,#-0x11
   \   00010D   6061         JZ      ??macExUartRcvHandle_25
   \   00010F   02....       LJMP    ??macExUartRcvHandle_6 & 0xFFFF
   \                     ??macExUartRcvHandle_24:
   \   000112   90....       MOV     DPTR,#g_isMaster
   \   000115   E0           MOVX    A,@DPTR
   \   000116   6406         XRL     A,#0x6
   \   000118   6005         JZ      ??macExUartRcvHandle_26
   \   00011A   E0           MOVX    A,@DPTR
   \   00011B   6405         XRL     A,#0x5
   \   00011D   7019         JNZ     ??macExUartRcvHandle_27
   \                     ??macExUartRcvHandle_26:
   \   00011F   8C82         MOV     DPL,R4
   \   000121   8D83         MOV     DPH,R5
   \   000123   E0           MOVX    A,@DPTR
   \   000124   8882         MOV     DPL,R0
   \   000126   8983         MOV     DPH,R1
   \   000128   7007         JNZ     ??macExUartRcvHandle_28
   \   00012A   12....       LCALL   ?Subroutine47 & 0xFFFF
   \                     ??CrossCallReturnLabel_68:
   \   00012D   3460         ADDC    A,#0x60
   \   00012F   801C         SJMP    ??macExUartRcvHandle_29
   \                     ??macExUartRcvHandle_28:
   \   000131   12....       LCALL   ?Subroutine47 & 0xFFFF
   \                     ??CrossCallReturnLabel_69:
   \   000134   3490         ADDC    A,#-0x70
   \   000136   8015         SJMP    ??macExUartRcvHandle_29
   \                     ??macExUartRcvHandle_27:
   \   000138   8C82         MOV     DPL,R4
   \   00013A   8D83         MOV     DPH,R5
   \   00013C   E0           MOVX    A,@DPTR
   \   00013D   7005         JNZ     ??macExUartRcvHandle_30
   \   00013F   12....       LCALL   ?Subroutine109 & 0xFFFF
   \                     ??CrossCallReturnLabel_186:
   \   000142   8009         SJMP    ??macExUartRcvHandle_29
   \                     ??macExUartRcvHandle_30:
   \   000144   8882         MOV     DPL,R0
   \   000146   8983         MOV     DPH,R1
   \   000148   12....       LCALL   ?Subroutine47 & 0xFFFF
   \                     ??CrossCallReturnLabel_70:
   \   00014B   3430         ADDC    A,#0x30
   \                     ??macExUartRcvHandle_29:
   \   00014D   12....       LCALL   ?Subroutine162 & 0xFFFF
   \                     ??CrossCallReturnLabel_310:
   \   000150   02....       LJMP    ??CrossCallReturnLabel_818 & 0xFFFF
   \                     ??macExUartRcvHandle_21:
   \   000153   12....       LCALL   ?Subroutine109 & 0xFFFF
   \                     ??CrossCallReturnLabel_187:
   \   000156   F9           MOV     R1,A
   \   000157   90....       MOV     DPTR,#g_swRfId
   \   00015A   E8           MOV     A,R0
   \   00015B   F0           MOVX    @DPTR,A
   \   00015C   A3           INC     DPTR
   \   00015D   E9           MOV     A,R1
   \   00015E   12....       LCALL   ??Subroutine274_0 & 0xFFFF
   \                     ??CrossCallReturnLabel_460:
   \   000161   74..         MOV     A,#??ExitAndSetRfId?relay & 0xff
   \   000163   F0           MOVX    @DPTR,A
   \   000164   A3           INC     DPTR
   \   000165   74..         MOV     A,#(??ExitAndSetRfId?relay >> 8) & 0xff
   \   000167   F0           MOVX    @DPTR,A
   \   000168                ; Setup parameters for call to function macDeleteAllDevice
   \   000168   12....       LCALL   ??macDeleteAllDevice?relay
   \   00016B                ; Setup parameters for call to function osal_start_timerEx
   \                     ??macExUartRcvHandle_31:
   \   00016B   7C05         MOV     R4,#0x5
   \   00016D   02....       LJMP    ??macExUartRcvHandle_4 & 0xFFFF
   \                     ??macExUartRcvHandle_25:
   \   000170   90....       MOV     DPTR,#g_initCheck
   \   000173   E0           MOVX    A,@DPTR
   \   000174   8A82         MOV     DPL,R2
   \   000176   8B83         MOV     DPH,R3
   \   000178   7023         JNZ     ??macExUartRcvHandle_32
   \   00017A   E0           MOVX    A,@DPTR
   \   00017B   90....       MOV     DPTR,#g_isMaster
   \   00017E   F0           MOVX    @DPTR,A
   \   00017F   6402         XRL     A,#0x2
   \   000181   7003         JNZ     ??CrossCallReturnLabel_726
   \   000183   12....       LCALL   ?Subroutine87 & 0xFFFF
   \                     ??CrossCallReturnLabel_726:
   \   000186                ; Setup parameters for call to function RfModCheck
   \   000186   90....       MOV     DPTR,#g_isMaster
   \   000189   12....       LCALL   ?Subroutine90 & 0xFFFF
   \                     ??CrossCallReturnLabel_141:
   \   00018C   90....       MOV     DPTR,#veriPckSendCallback
   \   00018F   74..         MOV     A,#??macNetCheck?relay & 0xff
   \   000191   F0           MOVX    @DPTR,A
   \   000192   A3           INC     DPTR
   \   000193   74..         MOV     A,#(??macNetCheck?relay >> 8) & 0xff
   \   000195   F0           MOVX    @DPTR,A
   \   000196   90....       MOV     DPTR,#g_initCheck
   \   000199   7401         MOV     A,#0x1
   \   00019B   8015         SJMP    ??macExUartRcvHandle_33
   \                     ??macExUartRcvHandle_32:
   \   00019D   E0           MOVX    A,@DPTR
   \   00019E   90....       MOV     DPTR,#g_swMode
   \   0001A1   F0           MOVX    @DPTR,A
   \   0001A2   6402         XRL     A,#0x2
   \   0001A4   7003         JNZ     ??CrossCallReturnLabel_727
   \   0001A6   12....       LCALL   ?Subroutine87 & 0xFFFF
   \                     ??CrossCallReturnLabel_727:
   \   0001A9   90....       MOV     DPTR,#veriPckSendCallback
   \   0001AC   74..         MOV     A,#??CmdModeSwitch?relay & 0xff
   \   0001AE   F0           MOVX    @DPTR,A
   \   0001AF   A3           INC     DPTR
   \   0001B0   74..         MOV     A,#(??CmdModeSwitch?relay >> 8) & 0xff
   \                     ??macExUartRcvHandle_33:
   \   0001B2   02....       LJMP    ??CrossCallReturnLabel_93 & 0xFFFF
   \                     ??macExUartRcvHandle_23:
   \   0001B5   8882         MOV     DPL,R0
   \   0001B7   8983         MOV     DPH,R1
   \   0001B9   E0           MOVX    A,@DPTR
   \   0001BA   6401         XRL     A,#0x1
   \   0001BC   8A82         MOV     DPL,R2
   \   0001BE   8B83         MOV     DPH,R3
   \   0001C0   7014         JNZ     ??macExUartRcvHandle_34
   \   0001C2   E0           MOVX    A,@DPTR
   \   0001C3   90....       MOV     DPTR,#g_swRfChan
   \   0001C6   F0           MOVX    @DPTR,A
   \   0001C7                ; Setup parameters for call to function macDeleteAllDevice
   \   0001C7   12....       LCALL   ??macDeleteAllDevice?relay
   \   0001CA   90....       MOV     DPTR,#veriPckSendCallback
   \   0001CD   74..         MOV     A,#??ExitAndSetChan_exit?relay & 0xff
   \   0001CF   F0           MOVX    @DPTR,A
   \   0001D0   A3           INC     DPTR
   \   0001D1   74..         MOV     A,#(??ExitAndSetChan_exit?relay >> 8) & 0xff
   \   0001D3   02....       LJMP    ??CrossCallReturnLabel_93 & 0xFFFF
   \                     ??macExUartRcvHandle_34:
   \   0001D6   E0           MOVX    A,@DPTR
   \   0001D7   6003         JZ      $+5
   \   0001D9   02....       LJMP    ??macExUartRcvHandle_2 & 0xFFFF
   \   0001DC   8C82         MOV     DPL,R4
   \   0001DE   8D83         MOV     DPH,R5
   \   0001E0   E4           CLR     A
   \   0001E1   02....       LJMP    ??macExUartRcvHandle_3 & 0xFFFF
   4661          
   4662          			case  UART_ENCODE_SLAGR:
   4663          				if(g_devLinkFlag)
   \                     ??macExUartRcvHandle_20:
   \   0001E4   90....       MOV     DPTR,#g_devLinkFlag
   \   0001E7   E0           MOVX    A,@DPTR
   \   0001E8   6028         JZ      ??macExUartRcvHandle_35
   4664          				{
   4665          					if(pConfig->group!=rcv[i+1])
   \   0001EA   85..82       MOV     DPL,?V0 + 6
   \   0001ED   85..83       MOV     DPH,?V0 + 7
   \   0001F0   E0           MOVX    A,@DPTR
   \   0001F1   F8           MOV     R0,A
   \   0001F2   8A82         MOV     DPL,R2
   \   0001F4   8B83         MOV     DPH,R3
   \   0001F6   E0           MOVX    A,@DPTR
   \   0001F7   68           XRL     A,R0
   \   0001F8   7003         JNZ     $+5
   \   0001FA   02....       LJMP    ??CrossCallReturnLabel_818 & 0xFFFF
   4666          					{
   4667          						pConfig->group = rcv[i+1];
   \   0001FD   12....       LCALL   ??Subroutine325_0 & 0xFFFF
   4668          						veriPckSendCallback = &devChangeGroup;
   \                     ??CrossCallReturnLabel_725:
   \   000200   90....       MOV     DPTR,#veriPckSendCallback
   \   000203   74..         MOV     A,#??devChangeGroup?relay & 0xff
   \   000205   F0           MOVX    @DPTR,A
   \   000206   A3           INC     DPTR
   \   000207   74..         MOV     A,#(??devChangeGroup?relay >> 8) & 0xff
   \   000209   12....       LCALL   ?Subroutine155 & 0xFFFF
   4669          						//devChangeGroup();
   4670          						osal_start_timerEx(macEx_taskId, MACEX_VERI_SEND_INQURE,10+(osal_rand()&0x07));
   4671          					}
   4672          				}else
   \                     ??CrossCallReturnLabel_290:
   \   00020C   240A         ADD     A,#0xa
   \                     ??macExUartRcvHandle_36:
   \   00020E   FC           MOV     R4,A
   \   00020F   02....       LJMP    ??macExUartRcvHandle_4 & 0xFFFF
   4673          				{
   4674          					if((rcv[i+1]>=0)&&(rcv[i+1]<5))
                 					            ^
Warning[Pe186]: pointless comparison of unsigned integer with zero
   \                     ??macExUartRcvHandle_35:
   \   000212   8A82         MOV     DPL,R2
   \   000214   8B83         MOV     DPH,R3
   \   000216   E0           MOVX    A,@DPTR
   \   000217   C3           CLR     C
   \   000218   9405         SUBB    A,#0x5
   \   00021A   4003         JC      $+5
   \   00021C   02....       LJMP    ??CrossCallReturnLabel_818 & 0xFFFF
   4675          					{
   4676          						pConfig->group = rcv[i+1];
   \   00021F   E0           MOVX    A,@DPTR
   \   000220   85..82       MOV     DPL,?V0 + 6
   \   000223   85..83       MOV     DPH,?V0 + 7
   \                     ??macExUartRcvHandle_37:
   \   000226   F0           MOVX    @DPTR,A
   \   000227   02....       LJMP    ??CrossCallReturnLabel_818 & 0xFFFF
   4677          					}
   4678          				}
   4679          				i+=3;
   4680          			break;
   4681          
   4682          			case UART_ENCODE_RFADDR:
   4683          				//osal_memcpy(pConfig->extAddr, &rcv[i+1], 8);
   4684          				//macParameterSet();
   4685          				i+=9;
   \                     ??macExUartRcvHandle_22:
   \   00022A   7409         MOV     A,#0x9
   \   00022C   25..         ADD     A,?V0 + 0
   \   00022E   F5..         MOV     ?V0 + 0,A
   4686          			break;
   \   000230   02....       LJMP    ??macExUartRcvHandle_0 & 0xFFFF
   4687          		
   4688          			case UART_ENCODE_APERTSHUTER:
   4689          				radioSet.shutter = rcv[i+1];
   \                     ??macExUartRcvHandle_19:
   \   000233   8A82         MOV     DPL,R2
   \   000235   8B83         MOV     DPH,R3
   \   000237   E0           MOVX    A,@DPTR
   \   000238   90....       MOV     DPTR,#radioSet + 5
   \   00023B   12....       LCALL   ?Subroutine135 & 0xFFFF
   4690          				radioSet.apert = rcv[i+2];
   \                     ??CrossCallReturnLabel_238:
   \   00023E   90....       MOV     DPTR,#radioSet + 6
   \   000241   80E3         SJMP    ??macExUartRcvHandle_37
   4691          				i+=3;
   4692          			break;
   4693          
   4694          			case UART_ENCODE_ISOCMP:
   4695          				radioSet.isoCmp = rcv[i+1];
   \                     ??macExUartRcvHandle_18:
   \   000243   8A82         MOV     DPL,R2
   \   000245   8B83         MOV     DPH,R3
   \   000247   E0           MOVX    A,@DPTR
   \   000248   90....       MOV     DPTR,#radioSet + 4
   \   00024B   12....       LCALL   ?Subroutine135 & 0xFFFF
   4696          				radioSet.adept = rcv[i+2];
   \                     ??CrossCallReturnLabel_239:
   \   00024E   90....       MOV     DPTR,#radioSet + 1
   \   000251   80D3         SJMP    ??macExUartRcvHandle_37
   4697          				i+=3;
   4698          			break;
   4699          
   4700          			case UART_ENCODE_RFPREARR:
   4701          				radioSet.workMode = (rcv[i+1]&0x07);			//(mainPara.synMode<<3)|(mainPara.workMode&0x07)
   \                     ??macExUartRcvHandle_16:
   \   000253   8A82         MOV     DPL,R2
   \   000255   8B83         MOV     DPH,R3
   \   000257   E0           MOVX    A,@DPTR
   \   000258   5407         ANL     A,#0x7
   \   00025A   90....       MOV     DPTR,#radioSet + 2
   \   00025D   12....       LCALL   ?Subroutine256 & 0xFFFF
   4702          				radioSet.synMod = (rcv[i+1]>>3)&0x03;
   \                     ??CrossCallReturnLabel_421:
   \   000260   12....       LCALL   ?Subroutine67 & 0xFFFF
   4703          				radioSet.preflashIndex = rcv[i+2];
   \                     ??CrossCallReturnLabel_98:
   \   000263   90....       MOV     DPTR,#radioSet + 7
   \   000266   12....       LCALL   ??Subroutine274_0 & 0xFFFF
   4704          				veriPckSendCallback = &PreFlashInfo;
   \                     ??CrossCallReturnLabel_461:
   \   000269   74..         MOV     A,#??PreFlashInfo?relay & 0xff
   \   00026B   F0           MOVX    @DPTR,A
   \   00026C   A3           INC     DPTR
   \   00026D   74..         MOV     A,#(??PreFlashInfo?relay >> 8) & 0xff
   \                     ??macExUartRcvHandle_38:
   \   00026F   F0           MOVX    @DPTR,A
   4705          				osal_start_timerEx(macEx_taskId, MACEX_VERI_SEND_INQURE,0);	
   \   000270                ; Setup parameters for call to function osal_start_timerEx
   \   000270   7C00         MOV     R4,#0x0
   \   000272   02....       LJMP    ??macExUartRcvHandle_4 & 0xFFFF
   4706          				i+=3;
   4707          			break;
   4708          
   4709          			case UART_ENCODE_RFCOUNTDOWN:
   4710          				g_msTick = MAKEWORD(rcv[i+1], rcv[i+2]);
   \                     ??macExUartRcvHandle_15:
   \   000275   8A82         MOV     DPL,R2
   \   000277   8B83         MOV     DPH,R3
   \   000279   12....       LCALL   ?Subroutine213 & 0xFFFF
   \                     ??CrossCallReturnLabel_369:
   \   00027C   E0           MOVX    A,@DPTR
   \   00027D   F8           MOV     R0,A
   \   00027E   EB           MOV     A,R3
   \   00027F   F9           MOV     R1,A
   \   000280   90....       MOV     DPTR,#g_msTick
   \   000283   12....       LCALL   ?Subroutine163 & 0xFFFF
   4711          				//veriPckSendCallback = &CountDown;
   4712          				CountDown(NULL);
   \                     ??CrossCallReturnLabel_316:
   \   000286                ; Setup parameters for call to function CountDown
   \   000286   7B00         MOV     R3,#0x0
   \   000288   12....       LCALL   ??CountDown?relay
   4713          				//veriPckSendCallback = &CountDown;
   4714          				osal_start_timerEx(macEx_taskId, MACEX_VERI_SEND_INQURE,300);	
   \   00028B                ; Setup parameters for call to function osal_start_timerEx
   \   00028B   7C2C         MOV     R4,#0x2c
   \   00028D   7D01         MOV     R5,#0x1
   \   00028F   02....       LJMP    ??macExUartRcvHandle_5 & 0xFFFF
   4715          				//osal_start_timerEx(macEx_taskId, MACEX_VERI_SEND_INQURE,1000);	
   4716          				i+=3;
   4717          			break;
   4718          
   4719          			case UART_ENCODE_RFRECOVER:
   4720          				if(g_mstHold == BRIDGE_MST_NORMAL)
   \                     ??macExUartRcvHandle_14:
   \   000292   90....       MOV     DPTR,#g_mstHold
   \   000295   E0           MOVX    A,@DPTR
   \   000296   6003         JZ      $+5
   \   000298   02....       LJMP    ??CrossCallReturnLabel_818 & 0xFFFF
   4721          				{
   4722          					veriPckSendCallback = &macRollPolingProc;
   \   00029B   12....       LCALL   ?Subroutine154 & 0xFFFF
   4723          					osal_start_timerEx(macEx_taskId, MACEX_VERI_SEND_INQURE,900);	
   \                     ??CrossCallReturnLabel_721:
   \   00029E                ; Setup parameters for call to function osal_start_timerEx
   \   00029E   7C84         MOV     R4,#-0x7c
   \   0002A0   7D03         MOV     R5,#0x3
   \   0002A2   02....       LJMP    ??macExUartRcvHandle_5 & 0xFFFF
   4724          				}
   4725          				i+=3;
   4726          			break;
   4727          
   4728          #if 0
   4729          			case UART_ENCODE_RFa:
   4730          				radioSet.rfGr_arrPara[RF_GROUP_A].mode = rcv[i+1];
   4731          				LoadGrPara(&radioSet.rfGr_arrPara[RF_GROUP_A],rcv[i+1], rcv[i+2]);
   4732          				i+=3;
   4733          			break;
   4734          
   4735          			case UART_ENCODE_RFb:
   4736          				radioSet.rfGr_arrPara[RF_GROUP_B].mode = rcv[i+1];
   4737          				LoadGrPara(&radioSet.rfGr_arrPara[RF_GROUP_B],rcv[i+1], rcv[i+2]);
   4738          				i+=3;
   4739          			break;
   4740          
   4741          			case UART_ENCODE_RFc:
   4742          				radioSet.rfGr_arrPara[RF_GROUP_C].mode = rcv[i+1];
   4743          				LoadGrPara(&radioSet.rfGr_arrPara[RF_GROUP_C],rcv[i+1], rcv[i+2]);
   4744          				i+=3;
   4745          			break;
   4746          
   4747          			case UART_ENCODE_RFd:
   4748          				radioSet.rfGr_arrPara[RF_GROUP_D].mode = rcv[i+1];
   4749          				LoadGrPara(&radioSet.rfGr_arrPara[RF_GROUP_D],rcv[i+1], rcv[i+2]);
   4750          				i+=3;
   4751          			break;
   4752          
   4753          			case UART_ENCODE_RFe:
   4754          				radioSet.rfGr_arrPara[RF_GROUP_E].mode = rcv[i+1];
   4755          				LoadGrPara(&radioSet.rfGr_arrPara[RF_GROUP_E],rcv[i+1], rcv[i+2]);
   4756          				i+=3;
   4757          			break;
   4758          #endif
   4759          
   4760          			case UART_ENCODE_GRM:
   4761          				radioSet.rfGr_arrPara[RF_GROUP_A].mode = (rcv[i+1]>>4);
   \                     ??macExUartRcvHandle_17:
   \   0002A5   8A82         MOV     DPL,R2
   \   0002A7   8B83         MOV     DPH,R3
   \   0002A9   E0           MOVX    A,@DPTR
   \   0002AA   C4           SWAP    A
   \   0002AB   540F         ANL     A,#0xf
   \   0002AD   FD           MOV     R5,A
   \   0002AE   90....       MOV     DPTR,#radioSet + 12
   \   0002B1   12....       LCALL   ?Subroutine256 & 0xFFFF
   4762          				radioSet.rfGr_arrPara[RF_GROUP_B].mode = (rcv[i+1]&0x0F);
   \                     ??CrossCallReturnLabel_422:
   \   0002B4   E0           MOVX    A,@DPTR
   \   0002B5   540F         ANL     A,#0xf
   \   0002B7   90....       MOV     DPTR,#radioSet + 17
   \   0002BA   12....       LCALL   ?Subroutine135 & 0xFFFF
   4763          				radioSet.rfGr_arrPara[RF_GROUP_C].mode = (rcv[i+2]>>4);
   \                     ??CrossCallReturnLabel_240:
   \   0002BD   C4           SWAP    A
   \   0002BE   540F         ANL     A,#0xf
   \   0002C0   90....       MOV     DPTR,#radioSet + 22
   \   0002C3   12....       LCALL   ?Subroutine135 & 0xFFFF
   4764          				radioSet.rfGr_arrPara[RF_GROUP_D].mode = (rcv[i+2]&0x0F);
   \                     ??CrossCallReturnLabel_241:
   \   0002C6   540F         ANL     A,#0xf
   \   0002C8   90....       MOV     DPTR,#radioSet + 27
   \   0002CB   12....       LCALL   ?Subroutine266 & 0xFFFF
   4765          				radioSet.rfGr_arrPara[RF_GROUP_E].mode = (rcv[i+3]>>4);
   \                     ??CrossCallReturnLabel_431:
   \   0002CE   E0           MOVX    A,@DPTR
   \   0002CF   C4           SWAP    A
   \   0002D0   540F         ANL     A,#0xf
   \   0002D2   90....       MOV     DPTR,#radioSet + 32
   \   0002D5   12....       LCALL   ?Subroutine151 & 0xFFFF
   4766          				LoadGrPara(&radioSet.rfGr_arrPara[RF_GROUP_A],radioSet.rfGr_arrPara[RF_GROUP_A].mode, rcv[i+4]);
   \                     ??CrossCallReturnLabel_283:
   \   0002D8   FC           MOV     R4,A
   \   0002D9   ED           MOV     A,R5
   \   0002DA   F9           MOV     R1,A
   \   0002DB   7A..         MOV     R2,#(radioSet + 12) & 0xff
   \   0002DD   7B..         MOV     R3,#((radioSet + 12) >> 8) & 0xff
   \   0002DF   12....       LCALL   ?Subroutine180 & 0xFFFF
   4767          				LoadGrPara(&radioSet.rfGr_arrPara[RF_GROUP_B],radioSet.rfGr_arrPara[RF_GROUP_B].mode, rcv[i+5]);
   \                     ??CrossCallReturnLabel_340:
   \   0002E2   E0           MOVX    A,@DPTR
   \   0002E3   FC           MOV     R4,A
   \   0002E4   90....       MOV     DPTR,#radioSet + 17
   \   0002E7   E0           MOVX    A,@DPTR
   \   0002E8   F9           MOV     R1,A
   \   0002E9   7A..         MOV     R2,#(radioSet + 17) & 0xff
   \   0002EB   7B..         MOV     R3,#((radioSet + 17) >> 8) & 0xff
   \   0002ED   12....       LCALL   ?Subroutine180 & 0xFFFF
   4768          				LoadGrPara(&radioSet.rfGr_arrPara[RF_GROUP_C],radioSet.rfGr_arrPara[RF_GROUP_C].mode, rcv[i+6]);
   \                     ??CrossCallReturnLabel_341:
   \   0002F0   A3           INC     DPTR
   \   0002F1   E0           MOVX    A,@DPTR
   \   0002F2   FC           MOV     R4,A
   \   0002F3   90....       MOV     DPTR,#radioSet + 22
   \   0002F6   E0           MOVX    A,@DPTR
   \   0002F7   F9           MOV     R1,A
   \   0002F8   7A..         MOV     R2,#(radioSet + 22) & 0xff
   \   0002FA   7B..         MOV     R3,#((radioSet + 22) >> 8) & 0xff
   \   0002FC   12....       LCALL   ?Subroutine179 & 0xFFFF
   4769          				LoadGrPara(&radioSet.rfGr_arrPara[RF_GROUP_D],radioSet.rfGr_arrPara[RF_GROUP_D].mode, rcv[i+7]);
   \                     ??CrossCallReturnLabel_338:
   \   0002FF   E0           MOVX    A,@DPTR
   \   000300   FC           MOV     R4,A
   \   000301   90....       MOV     DPTR,#radioSet + 27
   \   000304   E0           MOVX    A,@DPTR
   \   000305   F9           MOV     R1,A
   \   000306   7A..         MOV     R2,#(radioSet + 27) & 0xff
   \   000308   7B..         MOV     R3,#((radioSet + 27) >> 8) & 0xff
   \   00030A   12....       LCALL   ?Subroutine179 & 0xFFFF
   4770          				LoadGrPara(&radioSet.rfGr_arrPara[RF_GROUP_E],radioSet.rfGr_arrPara[RF_GROUP_E].mode, rcv[i+8]);
   \                     ??CrossCallReturnLabel_339:
   \   00030D   A3           INC     DPTR
   \   00030E   E0           MOVX    A,@DPTR
   \   00030F   FC           MOV     R4,A
   \   000310   90....       MOV     DPTR,#radioSet + 32
   \   000313   E0           MOVX    A,@DPTR
   \   000314   F9           MOV     R1,A
   \   000315   7A..         MOV     R2,#(radioSet + 32) & 0xff
   \   000317   7B..         MOV     R3,#((radioSet + 32) >> 8) & 0xff
   \   000319   12....       LCALL   ??LoadGrPara?relay
   4771          				i+=9;
   \   00031C   02....       LJMP    ??macExUartRcvHandle_22 & 0xFFFF
   4772          			break;
   4773          
   4774          			case UART_ENCODE_RFCMD:
   4775          				switch(rcv[i+1])
   \                     ??macExUartRcvHandle_13:
   \   00031F   8A82         MOV     DPL,R2
   \   000321   8B83         MOV     DPH,R3
   \   000323   E0           MOVX    A,@DPTR
   \   000324   24FE         ADD     A,#-0x2
   \   000326   6010         JZ      ??macExUartRcvHandle_39
   \   000328   24FE         ADD     A,#-0x2
   \   00032A   6037         JZ      ??macExUartRcvHandle_40
   \   00032C   14           DEC     A
   \   00032D   606F         JZ      ??macExUartRcvHandle_41
   \   00032F   14           DEC     A
   \   000330   605E         JZ      ??macExUartRcvHandle_42
   \   000332   14           DEC     A
   \   000333   6062         JZ      ??macExUartRcvHandle_43
   \   000335   02....       LJMP    ??CrossCallReturnLabel_818 & 0xFFFF
   4776          				{
   4777          					case UART_ENCODE_RFCMD_FLA:
   4778          						veriPckSendCallback = &FlashConfirm;
   \                     ??macExUartRcvHandle_39:
   \   000338   90....       MOV     DPTR,#veriPckSendCallback
   \   00033B   74..         MOV     A,#??FlashConfirm?relay & 0xff
   \   00033D   F0           MOVX    @DPTR,A
   \   00033E   A3           INC     DPTR
   \   00033F   74..         MOV     A,#(??FlashConfirm?relay >> 8) & 0xff
   \   000341   12....       LCALL   ?Subroutine135 & 0xFFFF
   4779          						radioSet.workMode = rcv[i+2]&0x07;
   \                     ??CrossCallReturnLabel_242:
   \   000344   5407         ANL     A,#0x7
   \   000346   90....       MOV     DPTR,#radioSet + 2
   \   000349   12....       LCALL   ?Subroutine230 & 0xFFFF
   4780          						radioSet.synMod = (rcv[i+2]>>3)&0x03;
   \                     ??CrossCallReturnLabel_395:
   \   00034C   12....       LCALL   ?Subroutine67 & 0xFFFF
   4781          						radioSet.hpFlash = (rcv[i+2]>>5)&0x01;
   \                     ??CrossCallReturnLabel_99:
   \   00034F   A2E5         MOV     C,0xE0 /* A   */.5
   \   000351   E4           CLR     A
   \   000352   33           RLC     A
   \   000353   90....       MOV     DPTR,#radioSet + 10
   \   000356   12....       LCALL   ?Subroutine135 & 0xFFFF
   4782          						radioSet.fPilot = (rcv[i+2]>>6)&0x01;
   \                     ??CrossCallReturnLabel_243:
   \   000359   A2E6         MOV     C,0xE0 /* A   */.6
   \   00035B   E4           CLR     A
   \   00035C   33           RLC     A
   \   00035D   90....       MOV     DPTR,#radioSet + 11
   \   000360   02....       LJMP    ??macExUartRcvHandle_38 & 0xFFFF
   4783          						osal_start_timerEx(macEx_taskId, MACEX_VERI_SEND_INQURE,0);	
   4784          					break;
   4785          
   4786          					case UART_ENCODE_RFCMD_PILOT:
   4787          						//veriPckSendCallback = &Pilot;
   4788          						//radioSet.workMode = rcv[i+2];
   4789          						//osal_start_timerEx(macEx_taskId, MACEX_VERI_SEND_INQURE,50);	
   4790          					break;
   4791          
   4792          					case UART_ENCODE_RFCMD_REL:
   4793          						if(CMD_MODE_RFLS_MST==rcv[i+2])
   \                     ??macExUartRcvHandle_40:
   \   000363   8882         MOV     DPL,R0
   \   000365   8983         MOV     DPH,R1
   \   000367   E0           MOVX    A,@DPTR
   \   000368   6406         XRL     A,#0x6
   \   00036A   700B         JNZ     ??macExUartRcvHandle_44
   4794          						{
   4795          							veriPckSendCallback = &LinkedShotRel;
   \   00036C   90....       MOV     DPTR,#veriPckSendCallback
   \   00036F   74..         MOV     A,#??LinkedShotRel?relay & 0xff
   \   000371   F0           MOVX    @DPTR,A
   \   000372   A3           INC     DPTR
   \   000373   74..         MOV     A,#(??LinkedShotRel?relay >> 8) & 0xff
   \   000375   8013         SJMP    ??macExUartRcvHandle_45
   4796          						}else if(CMD_MODE_RF_SLA==rcv[i+2])
   \                     ??macExUartRcvHandle_44:
   \   000377   E0           MOVX    A,@DPTR
   \   000378   6402         XRL     A,#0x2
   \   00037A   700F         JNZ     ??macExUartRcvHandle_46
   4797          						{
   4798          							g_devCmd = 0x01;
   \   00037C   90....       MOV     DPTR,#g_devCmd
   \   00037F   7401         MOV     A,#0x1
   4799          							veriPckSendCallback = &DevShotRel;
   4800          						}
   \                     ??macExUartRcvHandle_47:
   \   000381   12....       LCALL   ??Subroutine274_0 & 0xFFFF
   \                     ??CrossCallReturnLabel_462:
   \   000384   74..         MOV     A,#??DevShotRel?relay & 0xff
   \   000386   F0           MOVX    @DPTR,A
   \   000387   A3           INC     DPTR
   \   000388   74..         MOV     A,#(??DevShotRel?relay >> 8) & 0xff
   \                     ??macExUartRcvHandle_45:
   \   00038A   F0           MOVX    @DPTR,A
   4801          						osal_start_timerEx(macEx_taskId, MACEX_VERI_SEND_INQURE,30);	
   \                     ??macExUartRcvHandle_46:
   \   00038B                ; Setup parameters for call to function osal_start_timerEx
   \   00038B   7C1E         MOV     R4,#0x1e
   \   00038D   02....       LJMP    ??macExUartRcvHandle_4 & 0xFFFF
   4802          					break;
   4803          
   4804          					case UART_ENCODE_RFCMD_MODEL:
   4805          						g_devCmd = 0x02;
   \                     ??macExUartRcvHandle_42:
   \   000390   90....       MOV     DPTR,#g_devCmd
   \   000393   7402         MOV     A,#0x2
   \   000395   80EA         SJMP    ??macExUartRcvHandle_47
   \   000397                ; Setup parameters for call to function osal_start_timerEx
   4806          						veriPckSendCallback = &DevShotRel;
   4807          						osal_start_timerEx(macEx_taskId, MACEX_VERI_SEND_INQURE,30);
   4808          					break;
   4809          
   4810          					case UART_ENCODE_RFCMD_TEST:
   4811          						g_devCmd = 0x03;
   \                     ??macExUartRcvHandle_43:
   \   000397   90....       MOV     DPTR,#g_devCmd
   \   00039A   7403         MOV     A,#0x3
   \   00039C   80E3         SJMP    ??macExUartRcvHandle_47
   \   00039E                ; Setup parameters for call to function osal_start_timerEx
   4812          						veriPckSendCallback = &DevShotRel;
   4813          						osal_start_timerEx(macEx_taskId, MACEX_VERI_SEND_INQURE,30);
   4814          					break;
   4815          						
   4816          
   4817          					case UART_ENCODE_RFCMD_SLEEP:
   4818          						//SetSleepMode();
   4819          						veriPckSendCallback=&SetSleepMode;
   \                     ??macExUartRcvHandle_41:
   \   00039E   90....       MOV     DPTR,#veriPckSendCallback
   \   0003A1   74..         MOV     A,#??SetSleepMode?relay & 0xff
   \   0003A3   F0           MOVX    @DPTR,A
   \   0003A4   A3           INC     DPTR
   \   0003A5   74..         MOV     A,#(??SetSleepMode?relay >> 8) & 0xff
   \   0003A7   F0           MOVX    @DPTR,A
   4820          						macRxHardDisable();
   \   0003A8                ; Setup parameters for call to function macRxHardDisable
   \   0003A8   12....       LCALL   ??macRxHardDisable?relay
   4821          						LED_INS_ALLOFF();
   \   0003AB   D292         SETB    0x90.2
   \   0003AD   D293         SETB    0x90.3
   4822          						osal_start_timerEx(macEx_taskId, MACEX_VERI_SEND_INQURE,5);
   \   0003AF                ; Setup parameters for call to function osal_start_timerEx
   \   0003AF   02....       LJMP    ??macExUartRcvHandle_31 & 0xFFFF
   4823          					break;
   4824          
   4825          				}
   4826          				i+=3;
   4827          			break;
   4828          
   4829          			case UART_ENCODE_RFMUL:
   4830          				radioSet.mul_times = rcv[i+1];
   \                     ??macExUartRcvHandle_12:
   \   0003B2   8A82         MOV     DPL,R2
   \   0003B4   8B83         MOV     DPH,R3
   \   0003B6   E0           MOVX    A,@DPTR
   \   0003B7   90....       MOV     DPTR,#radioSet + 8
   \   0003BA   12....       LCALL   ?Subroutine135 & 0xFFFF
   4831          				radioSet.mul_frq = rcv[i+2];
   \                     ??CrossCallReturnLabel_244:
   \   0003BD   90....       MOV     DPTR,#radioSet + 9
   \   0003C0   02....       LJMP    ??macExUartRcvHandle_37 & 0xFFFF
   4832          				i+=3;
   4833          			break;
   4834          
   4835          			case UART_ENCODE_EXIT:
   4836          				if((CMD_MODE_RF_MST==g_isMaster)||(CMD_MODE_RFLS_MST==g_isMaster)||(CMD_MODE_RFLS_SLA==g_isMaster)||
   4837          				(CMD_MODE_RF_SLA==g_isMaster))
   \                     ??macExUartRcvHandle_9:
   \   0003C3   90....       MOV     DPTR,#g_isMaster
   \   0003C6   E0           MOVX    A,@DPTR
   \   0003C7   6401         XRL     A,#0x1
   \   0003C9   6012         JZ      ??macExUartRcvHandle_48
   \   0003CB   E0           MOVX    A,@DPTR
   \   0003CC   6406         XRL     A,#0x6
   \   0003CE   600D         JZ      ??macExUartRcvHandle_48
   \   0003D0   E0           MOVX    A,@DPTR
   \   0003D1   6405         XRL     A,#0x5
   \   0003D3   6008         JZ      ??macExUartRcvHandle_48
   \   0003D5   E0           MOVX    A,@DPTR
   \   0003D6   6402         XRL     A,#0x2
   \   0003D8   6003         JZ      $+5
   \   0003DA   02....       LJMP    ??CrossCallReturnLabel_818 & 0xFFFF
   4838          				{
   4839          				g_isMaster = CMD_MODE_OFF;
   \                     ??macExUartRcvHandle_48:
   \   0003DD   12....       LCALL   ?Subroutine149 & 0xFFFF
   4840          				veriPckSendCallback = &RfMstExit;
   4841          				osal_start_timerEx(macEx_taskId, MACEX_VERI_SEND_INQURE,(osal_rand()&0x07));
   4842          				}
   \                     ??CrossCallReturnLabel_457:
   \   0003E0   74..         MOV     A,#??RfMstExit?relay & 0xff
   \   0003E2   F0           MOVX    @DPTR,A
   \   0003E3   A3           INC     DPTR
   \   0003E4   74..         MOV     A,#(??RfMstExit?relay >> 8) & 0xff
   \   0003E6   12....       LCALL   ?Subroutine155 & 0xFFFF
   \                     ??CrossCallReturnLabel_291:
   \   0003E9   02....       LJMP    ??macExUartRcvHandle_36 & 0xFFFF
   4843          				i+=3;
   4844          			break;
   4845          /*
   4846          			case UART_ENCODE_SLASLEEP:
   4847          				if(rcv[i+1]>0)
   4848          				{
   4849          					g_slvPwrDnTmr = 360;
   4850          					//osal_start_timerEx(macEx_taskId,MACEX_SLAVE_PWRDOWN,60000);
   4851          				}else
   4852          				{
   4853          					//osal_start_timerEx(macEx_taskId,MACEX_SLAVE_PWRDOWN,60000);
   4854          					g_slvPwrDnTmr = 360*8;
   4855          				}
   4856          					osal_start_timerEx(macEx_taskId,MACEX_SLAVE_PWRDOWN,10000);
   4857          				i+=3;
   4858          			break;
   4859          */
   4860          			case UART_ENCODE_PILOT:
   4861          #if 1
   4862          				//if(rcv[i+1])
   4863          				if(rcv[i+1]<3)
   \                     ??macExUartRcvHandle_11:
   \   0003EC   8A82         MOV     DPL,R2
   \   0003EE   8B83         MOV     DPH,R3
   \   0003F0   E0           MOVX    A,@DPTR
   \   0003F1   C3           CLR     C
   \   0003F2   9403         SUBB    A,#0x3
   \   0003F4   4003         JC      $+5
   \   0003F6   02....       LJMP    ??CrossCallReturnLabel_818 & 0xFFFF
   4864          				{
   4865          					veriPckSendCallback = &Pilot;
   \   0003F9   90....       MOV     DPTR,#veriPckSendCallback
   \   0003FC   74..         MOV     A,#??Pilot?relay & 0xff
   \   0003FE   F0           MOVX    @DPTR,A
   \   0003FF   A3           INC     DPTR
   \   000400   74..         MOV     A,#(??Pilot?relay >> 8) & 0xff
   \   000402   12....       LCALL   ?Subroutine135 & 0xFFFF
   4866          					radioSet.workMode = rcv[i+2];
   \                     ??CrossCallReturnLabel_245:
   \   000405   90....       MOV     DPTR,#radioSet + 2
   \                     ??macExUartRcvHandle_49:
   \   000408   F0           MOVX    @DPTR,A
   4867          					osal_start_timerEx(macEx_taskId, MACEX_VERI_SEND_INQURE,50);	
   \   000409                ; Setup parameters for call to function osal_start_timerEx
   \   000409   7C32         MOV     R4,#0x32
   \   00040B   02....       LJMP    ??macExUartRcvHandle_4 & 0xFFFF
   4868          				}
   4869          				i+=3;
   4870          #else
   4871          				g_msTick = 7000;
   4872          				veriPckSendCallback = &CountDown;
   4873          				osal_start_timerEx(macEx_taskId, MACEX_VERI_SEND_INQURE,30);
   4874          				i+=3;
   4875          #endif
   4876          			break;
   4877          
   4878          			case UART_ENCODE_CHSCAN:
   4879          				veriPckSendCallback = &ChanScan;
   \                     ??macExUartRcvHandle_10:
   \   00040E   90....       MOV     DPTR,#veriPckSendCallback
   \   000411   74..         MOV     A,#??ChanScan?relay & 0xff
   \   000413   F0           MOVX    @DPTR,A
   \   000414   A3           INC     DPTR
   \   000415   74..         MOV     A,#(??ChanScan?relay >> 8) & 0xff
   \   000417   80EF         SJMP    ??macExUartRcvHandle_49
   4880          				osal_start_timerEx(macEx_taskId, MACEX_VERI_SEND_INQURE,50);
   4881          				i+=3;
   4882          			break;
   4883          
   4884          			case UART_ENCODE_RFFLA:
   4885          				radioSet.adept = rcv[i+1];
   \                     ??macExUartRcvHandle_8:
   \   000419   8A82         MOV     DPL,R2
   \   00041B   8B83         MOV     DPH,R3
   \   00041D   E0           MOVX    A,@DPTR
   \   00041E   90....       MOV     DPTR,#radioSet + 1
   \   000421   F0           MOVX    @DPTR,A
   4886          				veriPckSendCallback = &FlashConfirm;
   \   000422   02....       LJMP    ??macExUartRcvHandle_39 & 0xFFFF
   4887          				radioSet.workMode = rcv[i+2]&0x07;
   4888          				radioSet.synMod = (rcv[i+2]>>3)&0x03;
   4889          				radioSet.hpFlash = (rcv[i+2]>>5)&0x01;
   4890          				radioSet.fPilot = (rcv[i+2]>>6)&0x01;
   4891          				osal_start_timerEx(macEx_taskId, MACEX_VERI_SEND_INQURE,0);	
   4892          				i+=3;
   4893          			break;
   4894          
   4895          			case UART_ENCODE_UNMODULATE:
   4896          				LED_INS_ALLOFF();
   \                     ??macExUartRcvHandle_7:
   \   000425   D292         SETB    0x90.2
   \   000427   D293         SETB    0x90.3
   4897          				znpTestRF();
   \   000429                ; Setup parameters for call to function znpTestRF
   \   000429   12....       LCALL   ??znpTestRF?relay
   4898          			break;
   \   00042C   02....       LJMP    ??macExUartRcvHandle_0 & 0xFFFF
   \   00042F                REQUIRE _A_P1
   4899          
   4900          			
   4901          
   4902          
   4903          #if 0
   4904          			case UART_ENCODE_RADIO:
   4905          			radioSet.ratio = (rcv[i+1]>>4)&0x0f;	
   4906          			radioSet.cmdSta = (rcv[i+1]&0x0f);
   4907          			switch(radioSet.cmdSta)
   4908          			{
   4909          				case RADIO_STATUE_PRE:
   4910          					//FingerIndex();
   4911          					if(!rcv[i+2])
   4912          					{
   4913          						veriPckSendCallback = &PreFlashInfo;
   4914          						osal_start_timerEx(macEx_taskId, MACEX_VERI_SEND_INQURE,0);	
   4915          					}else
   4916          					{
   4917          						veriPckSendCallback = &CountDown;
   4918          						g_msTick = 7000;
   4919          						osal_start_timerEx(macEx_taskId, MACEX_VERI_SEND_INQURE,0);	
   4920          					}
   4921          				break;
   4922          
   4923          				case RADIO_STATUE_FLACFM:
   4924          					radioSet.arrExpVal[0] = rcv[i+2];
   4925          					flashCmd[9] = flashCmd[12] = flashCmd[15] = rcv[i+2];
   4926          					veriPckSendCallback = &FlashConfirm;
   4927          					osal_start_timerEx(macEx_taskId, MACEX_VERI_SEND_INQURE,0);	
   4928          				break;
   4929          
   4930          				case RADIO_STATUE_FLASH:
   4931          					g_msTick = 6000;
   4932          					veriPckSendCallback = &CountDown;		
   4933          					osal_start_timerEx(macEx_taskId, MACEX_VERI_SEND_INQURE,0);	
   4934          				break;
   4935          
   4936          				case RADIO_STATUE_RECOVER:
   4937          					veriPckSendCallback = &macRollPolingProc;
   4938          					osal_start_timerEx(macEx_taskId, MACEX_VERI_SEND_INQURE,0);	
   4939          				break;
   4940          			}
   4941          			break;
   4942          #endif
   4943          
   4944          			default:
   4945          			i++;				//this keep the loop jump out
   4946          			break; 
   4947          		}		
   4948          		//i+=3;
   4949          	}
   4950          
   4951          #if 0	
   4952          	switch(rcv[0])
   4953          	{
   4954          		case UART_ENCODE_RADIO:
   4955          			radioSet.ratio = (rcv[1]>>4)&0x0f;	
   4956          			radioSet.cmdSta = (rcv[1]&0x0f);
   4957          			switch(radioSet.cmdSta)
   4958          			{
   4959          				case RADIO_STATUE_PRE:
   4960          					FingerIndex();
   4961          					if(!rcv[2])
   4962          					{
   4963          						veriPckSendCallback = &PreFlashInfo;
   4964          						osal_start_timerEx(macEx_taskId, MACEX_VERI_SEND_INQURE,0);	
   4965          					}else
   4966          					{
   4967          						veriPckSendCallback = &CountDown;
   4968          						g_msTick = 7000;
   4969          						osal_start_timerEx(macEx_taskId, MACEX_VERI_SEND_INQURE,0);	
   4970          					}
   4971          				break;
   4972          
   4973          				case RADIO_STATUE_FLACFM:
   4974          					radioSet.arrExpVal[0] = rcv[2];
   4975          					flashCmd[9] = flashCmd[12] = flashCmd[15] = rcv[2];
   4976          					veriPckSendCallback = &FlashConfirm;
   4977          					osal_start_timerEx(macEx_taskId, MACEX_VERI_SEND_INQURE,0);	
   4978          				break;
   4979          
   4980          				case RADIO_STATUE_FLASH:
   4981          					g_msTick = 6000;
   4982          					veriPckSendCallback = &CountDown;		
   4983          					osal_start_timerEx(macEx_taskId, MACEX_VERI_SEND_INQURE,0);	
   4984          				break;
   4985          
   4986          				case RADIO_STATUE_RECOVER:
   4987          					veriPckSendCallback = &macRollPolingProc;
   4988          					osal_start_timerEx(macEx_taskId, MACEX_VERI_SEND_INQURE,0);	
   4989          				break;
   4990          			}
   4991          		break;
   4992          
   4993          		default:
   4994          		break;
   4995          	}
   4996          #endif
   4997          }

   \                                 In  segment BANKED_CODE, align 1, keep-with-next
   \                     ?Subroutine180:
   \   000000   12....       LCALL   ?Subroutine242 & 0xFFFF
   \                     ??CrossCallReturnLabel_411:
   \   000003   22           RET

   \                                 In  segment BANKED_CODE, align 1, keep-with-next
   \                     ?Subroutine242:
   \   000000   12....       LCALL   ??LoadGrPara?relay
   \   000003                ; Setup parameters for call to function LoadGrPara
   \   000003                ; Setup parameters for call to function LoadGrPara
   \   000003                ; Setup parameters for call to function LoadGrPara
   \   000003                ; Setup parameters for call to function LoadGrPara
   \   000003   8E82         MOV     DPL,R6
   \   000005   8F83         MOV     DPH,R7
   \   000007   A3           INC     DPTR
   \   000008   A3           INC     DPTR
   \   000009   A3           INC     DPTR
   \   00000A   A3           INC     DPTR
   \   00000B   A3           INC     DPTR
   \   00000C   22           RET

   \                                 In  segment BANKED_CODE, align 1, keep-with-next
   \                     ?Subroutine179:
   \   000000   12....       LCALL   ?Subroutine242 & 0xFFFF
   \                     ??CrossCallReturnLabel_412:
   \   000003   A3           INC     DPTR
   \   000004   A3           INC     DPTR
   \   000005   22           RET

   \                                 In  segment BANKED_CODE, align 1, keep-with-next
   \                     ?Subroutine109:
   \   000000   8A82         MOV     DPL,R2
   \   000002   8B83         MOV     DPH,R3
   \   000004   E0           MOVX    A,@DPTR
   \   000005   FB           MOV     R3,A
   \   000006   8882         MOV     DPL,R0
   \   000008   8983         MOV     DPH,R1
   \   00000A   E0           MOVX    A,@DPTR
   \   00000B   F8           MOV     R0,A
   \   00000C   EB           MOV     A,R3
   \   00000D   22           RET

   \                                 In  segment BANKED_CODE, align 1, keep-with-next
   \                     ?Subroutine87:
   \   000000   8882         MOV     DPL,R0
   \   000002   8983         MOV     DPH,R1
   \   000004                REQUIRE ??Subroutine325_0
   \   000004                ; // Fall through to label ??Subroutine325_0

   \                                 In  segment BANKED_CODE, align 1, keep-with-next
   \                     ??Subroutine325_0:
   \   000000   E0           MOVX    A,@DPTR
   \   000001   85..82       MOV     DPL,?V0 + 6
   \   000004   85..83       MOV     DPH,?V0 + 7
   \   000007   F0           MOVX    @DPTR,A
   \   000008   22           RET

   \                                 In  segment BANKED_CODE, align 1, keep-with-next
   \                     ?Subroutine67:
   \   000000   E0           MOVX    A,@DPTR
   \   000001   13           RRC     A
   \   000002   13           RRC     A
   \   000003   13           RRC     A
   \   000004   541F         ANL     A,#0x1f
   \   000006   5403         ANL     A,#0x3
   \   000008   90....       MOV     DPTR,#radioSet + 3
   \   00000B   12....       LCALL   ?Subroutine230 & 0xFFFF
   \                     ??CrossCallReturnLabel_397:
   \   00000E   E0           MOVX    A,@DPTR
   \   00000F   22           RET

   \                                 In  segment BANKED_CODE, align 1, keep-with-next
   \                     ?Subroutine47:
   \   000000   E0           MOVX    A,@DPTR
   \   000001   FC           MOV     R4,A
   \   000002   8A82         MOV     DPL,R2
   \   000004   8B83         MOV     DPH,R3
   \   000006   E0           MOVX    A,@DPTR
   \   000007   F9           MOV     R1,A
   \   000008   EC           MOV     A,R4
   \   000009   2400         ADD     A,#0x0
   \   00000B   F8           MOV     R0,A
   \   00000C   E9           MOV     A,R1
   \   00000D   22           RET
   4998          
   4999          //unsigned char veriSum=0;

   \                                 In  segment BANKED_CODE, align 1, keep-with-next
   5000          static void macEx_UartProcessData(uint8 port, uint8 event)
   \                     macEx_UartProcessData:
   5001          {
   \   000000   74F4         MOV     A,#-0xc
   \   000002   12....       LCALL   ?BANKED_ENTER_XDATA
   \   000005                ; Saved register size: 12
   \   000005                ; Auto size: 0
   \   000005   89..         MOV     ?V0 + 0,R1
   5002          	//unsigned char ch[20];
   5003          	//uint8 ch;
   5004          	//static uint8 loaden=0;
   5005          	//static uint16 bufIndex=0;
   5006          	
   5007          
   5008          	//HalUARTRead (port, &ch, 1);
   5009          
   5010          #if((defined HAL_UART_DMA)&&(HAL_UART_DMA==1))
   5011          	//uint16 rxBufLen  = Hal_UART_RxBufLen(0);
   5012          	//static uint8 rcvLen=0;
   5013          	//unsigned char uartBuf[128];
   5014          	uint8 rcvLen=0;
   5015          	//unsigned char uartBufIndex=0;
   5016          	//uint16 rxBufLen;
   5017          	
   5018          	rcvLen = Hal_UART_RxBufLen(0);
   \   000007                ; Setup parameters for call to function Hal_UART_RxBufLen
   \   000007   7900         MOV     R1,#0x0
   \   000009   12....       LCALL   ??Hal_UART_RxBufLen?relay
   \   00000C   8A..         MOV     ?V0 + 2,R2
   5019          	osal_memset(rcvBuf, 0x00, UART_RCVBUF_LEN);
   \   00000E                ; Setup parameters for call to function osal_memset
   \   00000E   7C50         MOV     R4,#0x50
   \   000010   7D00         MOV     R5,#0x0
   \   000012   7900         MOV     R1,#0x0
   \   000014   7A..         MOV     R2,#rcvBuf & 0xff
   \   000016   7B..         MOV     R3,#(rcvBuf >> 8) & 0xff
   \   000018   12....       LCALL   ??osal_memset?relay
   5020          	HalUARTRead (port, rcvBuf, rcvLen);
   \   00001B                ; Setup parameters for call to function HalUARTRead
   \   00001B   AC..         MOV     R4,?V0 + 2
   \   00001D   7D00         MOV     R5,#0x0
   \   00001F   7A..         MOV     R2,#rcvBuf & 0xff
   \   000021   7B..         MOV     R3,#(rcvBuf >> 8) & 0xff
   \   000023   A9..         MOV     R1,?V0 + 0
   \   000025   12....       LCALL   ??HalUARTRead?relay
   5021          
   5022          	if(0xAA==rcvBuf[0])
   \   000028   90....       MOV     DPTR,#rcvBuf
   \   00002B   E0           MOVX    A,@DPTR
   \   00002C   64AA         XRL     A,#0xaa
   \   00002E   700C         JNZ     ??macEx_UartProcessData_0
   5023          	{
   5024          		macExUartRcvHandle(&rcvBuf[2],rcvBuf[1]);
   \   000030                ; Setup parameters for call to function macExUartRcvHandle
   \   000030   A3           INC     DPTR
   \   000031   E0           MOVX    A,@DPTR
   \   000032   F9           MOV     R1,A
   \   000033   7A..         MOV     R2,#(rcvBuf + 2) & 0xff
   \   000035   7B..         MOV     R3,#((rcvBuf + 2) >> 8) & 0xff
   \   000037   12....       LCALL   ??macExUartRcvHandle?relay
   \   00003A   8011         SJMP    ??macEx_UartProcessData_1
   5025          		
   5026          	}else if(0xAB==rcvBuf[0])
   \                     ??macEx_UartProcessData_0:
   \   00003C   E0           MOVX    A,@DPTR
   \   00003D   64AB         XRL     A,#0xab
   \   00003F   700C         JNZ     ??macEx_UartProcessData_1
   5027          	{
   5028          		g_msTick = 0;
   \   000041   90....       MOV     DPTR,#g_msTick
   \   000044   E4           CLR     A
   \   000045   F0           MOVX    @DPTR,A
   \   000046   A3           INC     DPTR
   \   000047   F0           MOVX    @DPTR,A
   5029          		CountDown(NULL);
   \   000048                ; Setup parameters for call to function CountDown
   \   000048   FA           MOV     R2,A
   \   000049   FB           MOV     R3,A
   \   00004A   12....       LCALL   ??CountDown?relay
   5030          	}
   5031          	
   5032          #if 0	
   5033          	if(!loaden)
   5034          	{
   5035          		//if(Hal_UART_RxBufLen(0)<2)
   5036          		//{
   5037          			//return;
   5038          		//}
   5039          		HalUARTRead (port, &ch, 1);
   5040          		if(0xaa==ch)
   5041          		{
   5042          			//loaden = 1;
   5043          			HalUARTRead(port, &rcvLen, 1);
   5044          			rxBufLen = Hal_UART_RxBufLen(0);
   5045          			if(rcvLen>UART_RCVBUF_LEN)
   5046          			{
   5047          				return;
   5048          			}else if(rcvLen<=rxBufLen)
   5049          			{
   5050          				HalUARTRead(port,rcvBuf,rcvLen);
   5051          				macExUartRcvHandle(rcvBuf,rcvLen);
   5052          			}else
   5053          			{
   5054          				HalUARTRead(port,rcvBuf,rxBufLen);
   5055          				rcvLen-=rxBufLen;
   5056          				bufIndex+=rxBufLen;
   5057          				loaden = 1;
   5058          			}
   5059          			
   5060          		}else if(0xAB==ch)
   5061          		{
   5062          			g_msTick = 0;
   5063          			CountDown(NULL);
   5064          		}
   5065          	}else
   5066          	{
   5067          		rxBufLen = Hal_UART_RxBufLen(0);
   5068          		if(rcvLen<=rxBufLen)
   5069          		{
   5070          			HalUARTRead(port,(rcvBuf+bufIndex),rcvLen);
   5071          			macExUartRcvHandle(rcvBuf,rcvLen+bufIndex);
   5072          			bufIndex=0;
   5073          			rcvLen=0;
   5074          			loaden=0;
   5075          		}else
   5076          		{
   5077          			HalUARTRead(port,(rcvBuf+bufIndex),rxBufLen);
   5078          			rcvLen-=rxBufLen;
   5079          			bufIndex+=rxBufLen;
   5080          		}
   5081          	}
   5082          #endif
   5083          #else
   5084          	//static uint8 rcvLen=0;
   5085          	static uint8 rcvLen=0;
   5086          	HalUARTRead (port, &ch, 1);
   5087          	//FingerIndex_2();
   5088          
   5089          	if(!loaden)
   5090          	{
   5091          		if(0xaa==ch)
   5092          		{
   5093          			loaden = 1;
   5094          			//FingerIndex_1();
   5095          		}else if(0xAB==ch)
   5096          		{
   5097          			g_msTick = 0;
   5098          			CountDown(NULL);
   5099          		}
   5100          	}else if(1==loaden)
   5101          	{
   5102          		rcvLen = ch;
   5103                        bufIndex = 0;
   5104          		if(rcvLen>UART_RCVBUF_LEN)
   5105          		{
   5106          			rcvLen = 0;
   5107          			loaden = 0;
   5108          			return;
   5109          		}
   5110          		loaden = 2;
   5111          		
   5112          	}else if(2==loaden)
   5113          	{
   5114          		if(bufIndex<(rcvLen-1))
   5115          		{
   5116          			rcvBuf[bufIndex++] = ch;
   5117          			//FingerIndex_2();
   5118          		}else
   5119          		{
   5120          			rcvBuf[bufIndex++] = ch;
   5121          			macExUartRcvHandle(rcvBuf,rcvLen);
   5122          			rcvLen = 0;
   5123          			loaden = 0;
   5124          			bufIndex = 0;
   5125          			//FingerIndex_1();
   5126          		}
   5127          	}
   5128          #endif
   5129          	
   5130          /*
   5131          	if(loaden)
   5132          	{
   5133          		rcvBuf[bufIndex++] =  ch;
   5134          		if(bufIndex>=4)
   5135          		{
   5136          			//veriSum = (rcvBuf[0]+rcvBuf[1]+rcvBuf[2]);
   5137          			macExUartRcvHandle(rcvBuf);
   5138          			bufIndex = 0;
   5139          			loaden = 0;
   5140          			//return;
   5141          		}
   5142          	}else if(0xaa==ch)
   5143          	{
   5144          		loaden = 1;
   5145          	}
   5146          */
   5147          
   5148          }
   \                     ??macEx_UartProcessData_1:
   \   00004D   80..         SJMP    ??Subroutine326_0
   5149          
   5150          static void macExUartIntSet(void)
   5151          {
   5152          	P0SEL&=~(1<<4);//P0_4IO
   5153          	P0DIR&=~(1<<4);//P0_4
   5154          	P0INP&=~(1<<4);//
   5155          
   5156          	P0IEN|=(1<<4);//P0_4
   5157          	PICTL|=(1<<0);//
   5158          	EA=1;//
   5159          	IEN1|=(1<<5);//1
   5160          	P0IFG=0;//
   5161          }
   5162          
   5163          static void macExUartIntOutSet(void)
   5164          {
   5165          	P0SEL&=~(1<<4);//P0_4IO
   5166          	P0DIR|=(1<<4);
   5167          	
   5168          	P0IEN&=~(1<<4);//P0_4
   5169          
   5170          	P0_4 = 1;
   5171          }
   5172          

   \                                 In  segment BANKED_CODE, align 1, keep-with-next
   5173          static void macExUartInit (void)
   \                     macExUartInit:
   5174          {
   \   000000   C082         PUSH    DPL
   \   000002   C083         PUSH    DPH
   \   000004                ; Saved register size: 2
   \   000004                ; Auto size: 29
   \   000004   74E3         MOV     A,#-0x1d
   \   000006   12....       LCALL   ?ALLOC_XSTACK8
   5175          	halUARTCfg_t uartConfig;
   5176          
   5177          	/* Initialize APP ID */
   5178          	//App_TaskID = 0;
   5179          
   5180          	/* UART Configuration */
   5181          	uartConfig.configured           = TRUE;
   \   000009   85..82       MOV     DPL,?XSP + 0
   \   00000C   85..83       MOV     DPH,?XSP + 1
   \   00000F   7401         MOV     A,#0x1
   \   000011   F0           MOVX    @DPTR,A
   5182          	uartConfig.baudRate             = MACEX_UART_DEFAULT_BAUDRATE;
   \   000012   12....       LCALL   ?XSTACK_DISP0_8
   \   000015   7404         MOV     A,#0x4
   \   000017   F0           MOVX    @DPTR,A
   5183          	uartConfig.flowControl          = MACEX_UART_DEFAULT_OVERFLOW;
   \   000018   7402         MOV     A,#0x2
   \   00001A   12....       LCALL   ?XSTACK_DISP0_8
   \   00001D   E4           CLR     A
   \   00001E   F0           MOVX    @DPTR,A
   5184          	uartConfig.flowControlThreshold = MACEX_UART_DEFAULT_THRESHOLD;
   \   00001F   7403         MOV     A,#0x3
   \   000021   12....       LCALL   ?XSTACK_DISP0_8
   \   000024   7440         MOV     A,#0x40
   \   000026   12....       LCALL   ??Subroutine327_0 & 0xFFFF
   5185          	uartConfig.rx.maxBufSize        = MACEX_UART_DEFAULT_MAX_RX_BUFF;
   \                     ??CrossCallReturnLabel_737:
   \   000029   740A         MOV     A,#0xa
   \   00002B   12....       LCALL   ?XSTACK_DISP0_8
   \   00002E   7480         MOV     A,#-0x80
   \   000030   12....       LCALL   ??Subroutine327_0 & 0xFFFF
   5186          	uartConfig.tx.maxBufSize        = MACEX_UART_DEFAULT_MAX_TX_BUFF;
   \                     ??CrossCallReturnLabel_738:
   \   000033   7412         MOV     A,#0x12
   \   000035   12....       LCALL   ?XSTACK_DISP0_8
   \   000038   7480         MOV     A,#-0x80
   \   00003A   12....       LCALL   ??Subroutine327_0 & 0xFFFF
   5187          	uartConfig.idleTimeout          = MACEX_UART_DEFAULT_IDLE_TIMEOUT;
   \                     ??CrossCallReturnLabel_739:
   \   00003D   7405         MOV     A,#0x5
   \   00003F   12....       LCALL   ?XSTACK_DISP0_8
   \   000042   7406         MOV     A,#0x6
   \   000044   F0           MOVX    @DPTR,A
   5188          	uartConfig.intEnable            = TRUE;
   \   000045   7416         MOV     A,#0x16
   \   000047   12....       LCALL   ?XSTACK_DISP0_8
   \   00004A   7401         MOV     A,#0x1
   \   00004C   F0           MOVX    @DPTR,A
   5189          	uartConfig.callBackFunc         = macEx_UartProcessData;
   \   00004D   741B         MOV     A,#0x1b
   \   00004F   12....       LCALL   ?XSTACK_DISP0_8
   \   000052   74..         MOV     A,#??macEx_UartProcessData?relay & 0xff
   \   000054   F0           MOVX    @DPTR,A
   \   000055   A3           INC     DPTR
   \   000056   74..         MOV     A,#(??macEx_UartProcessData?relay >> 8) & 0xff
   \   000058   12....       LCALL   ?Subroutine141 & 0xFFFF
   5190          
   5191          	/* Start UART */
   5192          	HalUARTOpen (MACEX_PORT, &uartConfig);
   \                     ??CrossCallReturnLabel_261:
   \   00005B   AA82         MOV     R2,DPL
   \   00005D   AB83         MOV     R3,DPH
   \   00005F   7900         MOV     R1,#0x0
   \   000061   12....       LCALL   ??HalUARTOpen?relay
   5193          
   5194          #ifdef IO_INDEX_TEST
   5195          	P1DIR |= 0x0C;
   5196          	FINGER1 = 0;
   5197          	FINGER2 = 0;
   5198          #endif
   5199          	//HalUARTWrite(0,"UART START\n",sizeof("UART START\n"));	
   5200          	//HalUARTWrite(0,"lucky day 20130806\r\n",sizeof("lucky day 20130806\r\n"));
   5201                 //HalUARTWrite(0,"xiao xin, dad love you\r\n",sizeof("xiao xin, dad love you\r\n"));	
   5202          	//HalUARTWrite(0,"power20140218\r\n",sizeof("power20140218\r\n"));
   5203          	//HalUARTWrite(0,"Boot test 0720-1\r\n",sizeof("Boot test 0720-1\r\n"));
   5204          	//HalUARTWrite(0,"module test\r\n",sizeof("module test\r\n"));
   5205          	//HalUARTWrite(0,"fireware test\r\n",sizeof("fireware test\r\n"));
   5206          	HalUARTWrite(0,"2015/11/13 OK\r\n",sizeof("2015/11/13 OK\r\n"));
   \   000064                ; Setup parameters for call to function HalUARTWrite
   \   000064   7C10         MOV     R4,#0x10
   \   000066   7D00         MOV     R5,#0x0
   \   000068   7A..         MOV     R2,#`?<Constant "2015/11/13 OK\\r\\n">` & 0xff
   \   00006A   7B..         MOV     R3,#(`?<Constant "2015/11/13 OK\\r\\n">` >> 8) & 0xff
   \   00006C   12....       LCALL   ?Subroutine181 & 0xFFFF
   5207          	//HalUARTPoll();
   5208          	UartDMAIntSend();
   5209          	
   5210          }
   \                     ??CrossCallReturnLabel_342:
   \   00006F   741D         MOV     A,#0x1d
   \   000071   02....       LJMP    ?Subroutine6 & 0xFFFF

   \                                 In  segment BANKED_CODE, align 1, keep-with-next
   \                     ?Subroutine181:
   \   000000   7900         MOV     R1,#0x0
   \   000002   12....       LCALL   ??HalUARTWrite?relay
   \   000005                ; Setup parameters for call to function UartDMAIntSend
   \   000005                ; Setup parameters for call to function UartDMAIntSend
   \   000005                ; Setup parameters for call to function UartDMAIntSend
   \   000005   12....       LCALL   ??UartDMAIntSend?relay
   \   000008   22           RET
   5211          
   5212          static uint8 LoadUartSendBuf(unsigned char id, unsigned char pa1, unsigned char pa2)
   5213          {
   5214          	if(0==gBUartTotalByte)
   5215          	{
   5216          		gBUartBuf[gBUartTotalByte++] = 0xAA;
   5217          		gBUartBuf[gBUartTotalByte++] = 0;			//len
   5218          	}
   5219          	gBUartBuf[gBUartTotalByte++] = id;
   5220          	gBUartBuf[gBUartTotalByte++] = pa1;
   5221          	gBUartBuf[gBUartTotalByte++] = pa2;
   5222          #ifdef DEBUG_TRACE
   5223          	Printf("\r\n");
   5224          #endif
   5225          	return gBUartTotalByte;		
   5226          }
   5227          
   5228          static uint8 LoadUartArray(uint8 id, uint8 *pBuf, uint8 len)
   5229          {
   5230          	if(0==gBUartTotalByte)
   5231          	{
   5232          		gBUartBuf[gBUartTotalByte++] = 0xAA;
   5233          		gBUartBuf[gBUartTotalByte++] = len;			//len
   5234          	}
   5235          	gBUartBuf[gBUartTotalByte++] = id;
   5236          	osal_memcpy(gBUartBuf+gBUartTotalByte,pBuf,len);
   5237          	gBUartTotalByte+=len;
   5238          	return gBUartTotalByte;
   5239          	
   5240          }
   5241          

   \                                 In  segment BANKED_CODE, align 1, keep-with-next
   5242          static void TrigerUartSend(void)
   \                     TrigerUartSend:
   5243          {
   \   000000   74F6         MOV     A,#-0xa
   \   000002   12....       LCALL   ?BANKED_ENTER_XDATA
   \   000005                ; Saved register size: 10
   \   000005                ; Auto size: 0
   5244          	char i=0;
   5245          	unsigned char sum=0;
   \   000005   7800         MOV     R0,#0x0
   5246          	for(i=2;i<gBUartTotalByte;i++)
   \   000007   7902         MOV     R1,#0x2
   \   000009   800F         SJMP    ??TrigerUartSend_0
   5247          	{
   5248          		sum+= gBUartBuf[i];
   \                     ??TrigerUartSend_1:
   \   00000B   89..         MOV     ?V0 + 0,R1
   \   00000D   74..         MOV     A,#gBUartBuf & 0xff
   \   00000F   12....       LCALL   ??Subroutine354_0 & 0xFFFF
   5249          	}
   \                     ??CrossCallReturnLabel_923:
   \   000012   74..         MOV     A,#(gBUartBuf >> 8) & 0xff
   \   000014   12....       LCALL   ??Subroutine331_0 & 0xFFFF
   \                     ??CrossCallReturnLabel_756:
   \   000017   28           ADD     A,R0
   \   000018   F8           MOV     R0,A
   \   000019   09           INC     R1
   \                     ??TrigerUartSend_0:
   \   00001A   90....       MOV     DPTR,#gBUartTotalByte
   \   00001D   E0           MOVX    A,@DPTR
   \   00001E   FA           MOV     R2,A
   \   00001F   E9           MOV     A,R1
   \   000020   C3           CLR     C
   \   000021   9A           SUBB    A,R2
   \   000022   40E7         JC      ??TrigerUartSend_1
   5250          	gBUartBuf[gBUartTotalByte++] = sum;
   \   000024   E8           MOV     A,R0
   \   000025   C0E0         PUSH    A
   \   000027   12....       LCALL   ?Subroutine46 & 0xFFFF
   \                     ??CrossCallReturnLabel_65:
   \   00002A   D0E0         POP     A
   \   00002C   12....       LCALL   ?Subroutine161 & 0xFFFF
   \                     ??CrossCallReturnLabel_306:
   \   00002F   F0           MOVX    @DPTR,A
   5251          	gBUartBuf[1] = (gBUartTotalByte-2);
   \   000030   24FE         ADD     A,#-0x2
   \   000032   90....       MOV     DPTR,#gBUartBuf + 1
   \   000035   F0           MOVX    @DPTR,A
   5252          	uart_tran_flag = 1;
   \   000036   90....       MOV     DPTR,#uart_tran_flag
   \   000039   7401         MOV     A,#0x1
   \   00003B   12....       LCALL   ?Subroutine233 & 0xFFFF
   5253          
   5254          	HalUARTWrite(0,gBUartBuf,gBUartTotalByte);
   \                     ??CrossCallReturnLabel_400:
   \   00003E   FC           MOV     R4,A
   \   00003F   7D00         MOV     R5,#0x0
   \   000041   7A..         MOV     R2,#gBUartBuf & 0xff
   \   000043   7B..         MOV     R3,#(gBUartBuf >> 8) & 0xff
   \   000045   12....       LCALL   ?Subroutine181 & 0xFFFF
   5255          	UartDMAIntSend();
   5256          	//HalUARTPoll();
   5257          
   5258          	uart_tran_flag = 0;
   \                     ??CrossCallReturnLabel_343:
   \   000048   90....       MOV     DPTR,#uart_tran_flag
   \   00004B   E4           CLR     A
   \   00004C   F0           MOVX    @DPTR,A
   5259          
   5260          	gBUartTotalByte = 0;
   \   00004D   90....       MOV     DPTR,#gBUartTotalByte
   \   000050   02....       LJMP    ??Subroutine317_0 & 0xFFFF
   5261          	
   5262          	
   5263          }

   \                                 In  segment BANKED_CODE, align 1, keep-with-next
   \                     ?Subroutine161:
   \   000000   12....       LCALL   ?Subroutine233 & 0xFFFF
   \                     ??CrossCallReturnLabel_403:
   \   000003   04           INC     A
   \   000004   22           RET

   \                                 In  segment BANKED_CODE, align 1, keep-with-next
   \                     ?Subroutine233:
   \   000000   F0           MOVX    @DPTR,A
   \   000001                ; Setup parameters for call to function HalUARTWrite
   \   000001   90....       MOV     DPTR,#gBUartTotalByte
   \   000004   E0           MOVX    A,@DPTR
   \   000005   22           RET

   \                                 In  segment BANKED_CODE, align 1, keep-with-next
   \                     ?Subroutine46:
   \   000000   E0           MOVX    A,@DPTR
   \   000001   12....       LCALL   ?Subroutine238 & 0xFFFF
   \                     ??CrossCallReturnLabel_746:
   \   000004   22           RET

   \                                 In  segment BANKED_CODE, align 1, keep-with-next
   \                     ?Subroutine238:
   \   000000   F8           MOV     R0,A
   \   000001   74..         MOV     A,#gBUartBuf & 0xff
   \   000003   28           ADD     A,R0
   \   000004   F582         MOV     DPL,A
   \   000006   74..         MOV     A,#(gBUartBuf >> 8) & 0xff
   \   000008                REQUIRE ??Subroutine328_0
   \   000008                ; // Fall through to label ??Subroutine328_0
   5264          
   5265          static void UartSendByte(char aByte)
   5266          {
   5267          #if((defined HAL_UART_DMA)&&(HAL_UART_DMA==1))
   5268          	HalUARTWrite(0, &aByte, 1);
                 	                ^
Warning[Pe167]: argument of type "char *" is incompatible with parameter of
          type "unsigned char *"
   5269          	UartDMAIntSend();
   5270          	//HalUARTPoll();
   5271          #else
   5272          	U0DBUF = aByte; 
   5273          	while(UTX0IF == 0); //
   5274          	UTX0IF = 0; 	
   5275          #endif
   5276          /*
   5277          	HalUARTWrite(0, &aByte, 1);
   5278          */
   5279          }
   5280          

   \                                 In  segment BANKED_CODE, align 1, keep-with-next
   5281          static uint8 UartSctSend(unsigned char id, unsigned char pa1, unsigned char pa2)
   \                     UartSctSend:
   5282          {
   \   000000   74F7         MOV     A,#-0x9
   \   000002   12....       LCALL   ?BANKED_ENTER_XDATA
   \   000005                ; Saved register size: 9
   \   000005                ; Auto size: 0
   5283          	while(uart_tran_flag);
   \                     ??UartSctSend_0:
   \   000005   90....       MOV     DPTR,#uart_tran_flag
   \   000008   E0           MOVX    A,@DPTR
   \   000009   70FA         JNZ     ??UartSctSend_0
   5284          	LoadUartSendBuf(id, pa1,pa2);
   \   00000B   90....       MOV     DPTR,#gBUartTotalByte
   \   00000E   E0           MOVX    A,@DPTR
   \   00000F   700E         JNZ     ??UartSctSend_1
   \   000011   90....       MOV     DPTR,#gBUartBuf
   \   000014   74AA         MOV     A,#-0x56
   \   000016   12....       LCALL   ??Subroutine327_0 & 0xFFFF
   \                     ??CrossCallReturnLabel_732:
   \   000019   90....       MOV     DPTR,#gBUartTotalByte
   \   00001C   7402         MOV     A,#0x2
   \   00001E   F0           MOVX    @DPTR,A
   \                     ??UartSctSend_1:
   \   00001F   12....       LCALL   ?Subroutine46 & 0xFFFF
   \                     ??CrossCallReturnLabel_66:
   \   000022   E9           MOV     A,R1
   \   000023   12....       LCALL   ?Subroutine79 & 0xFFFF
   \                     ??CrossCallReturnLabel_126:
   \   000026   EA           MOV     A,R2
   \   000027   12....       LCALL   ?Subroutine79 & 0xFFFF
   \                     ??CrossCallReturnLabel_127:
   \   00002A   EB           MOV     A,R3
   \   00002B   12....       LCALL   ?Subroutine161 & 0xFFFF
   \                     ??CrossCallReturnLabel_307:
   \   00002E   F0           MOVX    @DPTR,A
   5285          	TrigerUartSend();	
   \   00002F                ; Setup parameters for call to function TrigerUartSend
   \   00002F   12....       LCALL   ??TrigerUartSend?relay
   5286                  return 1;
   \   000032   7901         MOV     R1,#0x1
   \   000034   02....       LJMP    ?Subroutine2 & 0xFFFF
   5287          }
   5288          

   \                                 In  segment BANKED_CODE, align 1, keep-with-next
   5289          static uint8 UartBulkSend(uint8 *sBuf, uint8 len)
   \                     UartBulkSend:
   5290          {
   \   000000   74F6         MOV     A,#-0xa
   \   000002   12....       LCALL   ?BANKED_ENTER_XDATA
   \   000005                ; Saved register size: 10
   \   000005                ; Auto size: 0
   \   000005   E9           MOV     A,R1
   5291          	//uint8 i;
   5292          #if((defined HAL_UART_DMA)&&(HAL_UART_DMA==1))
   5293          	HalUARTWrite(0, sBuf, len);
   \   000006                ; Setup parameters for call to function HalUARTWrite
   \   000006   FC           MOV     R4,A
   \   000007   7D00         MOV     R5,#0x0
   \   000009   12....       LCALL   ?Subroutine181 & 0xFFFF
   5294          	UartDMAIntSend();
   5295          	//HalUARTPoll();
   5296          #else
   5297          	for(i=0;i<len;i++)
   5298          	{
   5299          		UartSendByte(sBuf[i]);
   5300          	}
   5301          	//HalUARTWrite(0, sBuf, len);
   5302          #endif
   5303          }
                 ^
Warning[Pe940]: missing return statement at end of non-void function
          "UartBulkSend"
   \                     ??CrossCallReturnLabel_344:
   \   00000C   02....       LJMP    ??Subroutine318_0 & 0xFFFF
   5304          

   \                                 In  segment BANKED_CODE, align 1, keep-with-next
   \                     ?Subroutine3:
   \   000000   F0           MOVX    @DPTR,A
   \   000001                REQUIRE ??Subroutine272_0
   \   000001                ; // Fall through to label ??Subroutine272_0

   \                                 In  segment BANKED_CODE, align 1, keep-with-next
   \                     ?Subroutine128:
   \   000000   0A           INC     R2
   \   000001   8A..         MOV     ?V0 + 2,R2
   \   000003   12....       LCALL   ??Subroutine332_0 & 0xFFFF
   \                     ??CrossCallReturnLabel_786:
   \   000006                REQUIRE ??Subroutine290_0
   \   000006                ; // Fall through to label ??Subroutine290_0

   \                                 In  segment BANKED_CODE, align 1, keep-with-next
   \                     ??Subroutine310_0:
   \   000000   EE           MOV     A,R6
   \   000001   25..         ADD     A,?V0 + 2
   \   000003                REQUIRE ??Subroutine311_0
   \   000003                ; // Fall through to label ??Subroutine311_0

   \                                 In  segment BANKED_CODE, align 1, keep-with-next
   \                     ??Subroutine311_0:
   \   000000   F582         MOV     DPL,A
   \   000002   EF           MOV     A,R7
   \   000003                REQUIRE ??Subroutine312_0
   \   000003                ; // Fall through to label ??Subroutine312_0

   \                                 In  segment BANKED_CODE, align 1, keep-with-next
   5305          void BuildPreFlashInfoData(uint8 *buf, uint8 *len)
   \                     BuildPreFlashInfoData:
   5306          {
   \   000000   74F1         MOV     A,#-0xf
   \   000002   12....       LCALL   ?BANKED_ENTER_XDATA
   \   000005                ; Saved register size: 15
   \   000005                ; Auto size: 0
   \   000005   EA           MOV     A,R2
   \   000006   FE           MOV     R6,A
   \   000007   EB           MOV     A,R3
   \   000008   FF           MOV     R7,A
   \   000009   8C..         MOV     ?V0 + 0,R4
   \   00000B   8D..         MOV     ?V0 + 1,R5
   5307          	uint8 loadIndex=0;
   5308          	uint8 i=0;
   5309          	//g_sendLen = 0;
   5310          	osal_memcpy(buf,preCmdBuf,4);					//the fixed head datas 0x17 00 ff 47
   \   00000D                ; Setup parameters for call to function osal_memcpy
   \   00000D   75....       MOV     ?V0 + 4,#preCmdBuf & 0xff
   \   000010   75....       MOV     ?V0 + 5,#(preCmdBuf >> 8) & 0xff
   \   000013   75..00       MOV     ?V0 + 6,#0x0
   \   000016   78..         MOV     R0,#?V0 + 4
   \   000018   12....       LCALL   ?PUSH_XSTACK_I_THREE
   \   00001B   12....       LCALL   ?Subroutine173 & 0xFFFF
   \                     ??CrossCallReturnLabel_800:
   \   00001E   12....       LCALL   ?DEALLOC_XSTACK8
   5311          	loadIndex+= 4;
   5312          	buf[loadIndex++] = radioSet.shutter;
   \   000021   90....       MOV     DPTR,#radioSet + 5
   \   000024   12....       LCALL   ?Subroutine214 & 0xFFFF
   \                     ??CrossCallReturnLabel_371:
   \   000027   F0           MOVX    @DPTR,A
   5313          	buf[loadIndex++] = radioSet.apert;
   \   000028   90....       MOV     DPTR,#radioSet + 6
   \   00002B   12....       LCALL   ?Subroutine103 & 0xFFFF
   \                     ??CrossCallReturnLabel_175:
   \   00002E   F0           MOVX    @DPTR,A
   5314          	buf[loadIndex++] = radioSet.isoCmp;
   \   00002F   90....       MOV     DPTR,#radioSet + 4
   \   000032   12....       LCALL   ?Subroutine103 & 0xFFFF
   \                     ??CrossCallReturnLabel_176:
   \   000035   A3           INC     DPTR
   \   000036   12....       LCALL   ?Subroutine145 & 0xFFFF
   5315          	buf[loadIndex++] = 0x04;							//fixed?
   \                     ??CrossCallReturnLabel_270:
   \   000039   7404         MOV     A,#0x4
   \   00003B   F0           MOVX    @DPTR,A
   \   00003C   7A08         MOV     R2,#0x8
   5316          	for(i=0;i<5;i++)
   \   00003E   7805         MOV     R0,#0x5
   5317          	{
   5318          		buf[loadIndex++] = 0x01;
   \                     ??BuildPreFlashInfoData_0:
   \   000040   8A..         MOV     ?V0 + 2,R2
   \   000042   12....       LCALL   ??Subroutine310_0 & 0xFFFF
   5319          		buf[loadIndex++] = 0x00;
   5320          		buf[loadIndex++] = 0x00;
   5321          	}
   \                     ??CrossCallReturnLabel_633:
   \   000045   7401         MOV     A,#0x1
   \   000047   F0           MOVX    @DPTR,A
   \   000048   12....       LCALL   ?Subroutine128 & 0xFFFF
   \                     ??CrossCallReturnLabel_499:
   \   00004B   12....       LCALL   ?Subroutine128 & 0xFFFF
   \                     ??CrossCallReturnLabel_500:
   \   00004E   0A           INC     R2
   \   00004F   18           DEC     R0
   \   000050   E8           MOV     A,R0
   \   000051   70ED         JNZ     ??BuildPreFlashInfoData_0
   5322          	switch(radioSet.preflashIndex)
   \   000053   90....       MOV     DPTR,#radioSet + 7
   \   000056   E0           MOVX    A,@DPTR
   \   000057   6012         JZ      ??BuildPreFlashInfoData_1
   \   000059   14           DEC     A
   \   00005A   6042         JZ      ??BuildPreFlashInfoData_2
   \   00005C   14           DEC     A
   \   00005D   6058         JZ      ??BuildPreFlashInfoData_3
   \   00005F   14           DEC     A
   \   000060   6064         JZ      ??BuildPreFlashInfoData_4
   \   000062   14           DEC     A
   \   000063   6070         JZ      ??BuildPreFlashInfoData_5
   \   000065   14           DEC     A
   \   000066   607C         JZ      ??BuildPreFlashInfoData_6
   \   000068   02....       LJMP    ??BuildPreFlashInfoData_7 & 0xFFFF
   5323          	{
   5324          		case 0:
   5325          			for(i=0;i<3;i++)
   \                     ??BuildPreFlashInfoData_1:
   \   00006B   7C00         MOV     R4,#0x0
   5326          			{
   5327          				buf[PARA_GR_A+i*3] = 0x01;
   \                     ??BuildPreFlashInfoData_8:
   \   00006D   EC           MOV     A,R4
   \   00006E   75F003       MOV     B,#0x3
   \   000071   A4           MUL     AB
   \   000072   F8           MOV     R0,A
   \   000073   A9F0         MOV     R1,B
   \   000075   EE           MOV     A,R6
   \   000076   28           ADD     A,R0
   \   000077   F8           MOV     R0,A
   \   000078   EF           MOV     A,R7
   \   000079   39           ADDC    A,R1
   \   00007A   F9           MOV     R1,A
   \   00007B   8882         MOV     DPL,R0
   \   00007D   8983         MOV     DPH,R1
   \   00007F   A3           INC     DPTR
   \   000080   A3           INC     DPTR
   \   000081   A3           INC     DPTR
   \   000082   A3           INC     DPTR
   \   000083   A3           INC     DPTR
   \   000084   A3           INC     DPTR
   \   000085   A3           INC     DPTR
   \   000086   A3           INC     DPTR
   \   000087   7401         MOV     A,#0x1
   \   000089   12....       LCALL   ?Subroutine143 & 0xFFFF
   5328          				buf[PARA_GR_A+i*3+1] = 0xA0;
   5329          				buf[PARA_GR_A+i*3+2] = 0x04;
   5330          			}
   \                     ??CrossCallReturnLabel_266:
   \   00008C   74A0         MOV     A,#-0x60
   \   00008E   12....       LCALL   ?Subroutine143 & 0xFFFF
   \                     ??CrossCallReturnLabel_267:
   \   000091   A3           INC     DPTR
   \   000092   7404         MOV     A,#0x4
   \   000094   F0           MOVX    @DPTR,A
   \   000095   0C           INC     R4
   \   000096   EC           MOV     A,R4
   \   000097   C3           CLR     C
   \   000098   9403         SUBB    A,#0x3
   \   00009A   505B         JNC     ??BuildPreFlashInfoData_7
   \   00009C   80CF         SJMP    ??BuildPreFlashInfoData_8
   5331          		break;
   5332          
   5333          		case 1:
   5334          			buf[PARA_GR_A] = 0x01;
   \                     ??BuildPreFlashInfoData_2:
   \   00009E   8E82         MOV     DPL,R6
   \   0000A0   8F83         MOV     DPH,R7
   \   0000A2   A3           INC     DPTR
   \   0000A3   A3           INC     DPTR
   \   0000A4   A3           INC     DPTR
   \   0000A5   A3           INC     DPTR
   \   0000A6   A3           INC     DPTR
   \   0000A7   A3           INC     DPTR
   \   0000A8   A3           INC     DPTR
   \   0000A9   A3           INC     DPTR
   \   0000AA   7401         MOV     A,#0x1
   \   0000AC   12....       LCALL   ?Subroutine144 & 0xFFFF
   5335          			buf[PARA_GR_A+1] = 0xA0;
   \                     ??CrossCallReturnLabel_268:
   \   0000AF   74A0         MOV     A,#-0x60
   \   0000B1   12....       LCALL   ?Subroutine144 & 0xFFFF
   5336          			buf[PARA_GR_A+2] = 0x04;
   \                     ??CrossCallReturnLabel_269:
   \   0000B4   A3           INC     DPTR
   \   0000B5   803D         SJMP    ??CrossCallReturnLabel_627
   5337          		break;
   5338          
   5339          		case 2:
   5340          			buf[PARA_GR_B] = 0x01;
   \                     ??BuildPreFlashInfoData_3:
   \   0000B7   EE           MOV     A,R6
   \   0000B8   240B         ADD     A,#0xb
   \   0000BA   12....       LCALL   ?Subroutine122 & 0xFFFF
   5341          			buf[PARA_GR_B+1] = 0xA0;
   \                     ??CrossCallReturnLabel_213:
   \   0000BD   240C         ADD     A,#0xc
   \   0000BF   12....       LCALL   ?Subroutine123 & 0xFFFF
   5342          			buf[PARA_GR_B+2] = 0x04;
   \                     ??CrossCallReturnLabel_217:
   \   0000C2   240D         ADD     A,#0xd
   \   0000C4   802B         SJMP    ??BuildPreFlashInfoData_9
   5343          		break;
   5344          
   5345          		case 3:
   5346          			buf[PARA_GR_C] = 0x01;
   \                     ??BuildPreFlashInfoData_4:
   \   0000C6   EE           MOV     A,R6
   \   0000C7   240E         ADD     A,#0xe
   \   0000C9   12....       LCALL   ?Subroutine122 & 0xFFFF
   5347          			buf[PARA_GR_C+1] = 0xA0;
   \                     ??CrossCallReturnLabel_214:
   \   0000CC   240F         ADD     A,#0xf
   \   0000CE   12....       LCALL   ?Subroutine123 & 0xFFFF
   5348          			buf[PARA_GR_C+2] = 0x04;
   \                     ??CrossCallReturnLabel_218:
   \   0000D1   2410         ADD     A,#0x10
   \   0000D3   801C         SJMP    ??BuildPreFlashInfoData_9
   5349          		break;
   5350          
   5351          		case 4:
   5352          			buf[PARA_GR_D] = 0x01;
   \                     ??BuildPreFlashInfoData_5:
   \   0000D5   EE           MOV     A,R6
   \   0000D6   2411         ADD     A,#0x11
   \   0000D8   12....       LCALL   ?Subroutine122 & 0xFFFF
   5353          			buf[PARA_GR_D+1] = 0xA0;
   \                     ??CrossCallReturnLabel_215:
   \   0000DB   2412         ADD     A,#0x12
   \   0000DD   12....       LCALL   ?Subroutine123 & 0xFFFF
   5354          			buf[PARA_GR_D+2] = 0x04;
   \                     ??CrossCallReturnLabel_219:
   \   0000E0   2413         ADD     A,#0x13
   \   0000E2   800D         SJMP    ??BuildPreFlashInfoData_9
   5355          		break;
   5356          
   5357          		case 5:
   5358          			buf[PARA_GR_E] = 0x01;
   \                     ??BuildPreFlashInfoData_6:
   \   0000E4   EE           MOV     A,R6
   \   0000E5   2414         ADD     A,#0x14
   \   0000E7   12....       LCALL   ?Subroutine122 & 0xFFFF
   5359          			buf[PARA_GR_E+1] = 0xA0;
   \                     ??CrossCallReturnLabel_216:
   \   0000EA   2415         ADD     A,#0x15
   \   0000EC   12....       LCALL   ?Subroutine123 & 0xFFFF
   5360          			buf[PARA_GR_E+2] = 0x04;
   \                     ??CrossCallReturnLabel_220:
   \   0000EF   2416         ADD     A,#0x16
   \                     ??BuildPreFlashInfoData_9:
   \   0000F1   12....       LCALL   ??Subroutine311_0 & 0xFFFF
   \                     ??CrossCallReturnLabel_627:
   \   0000F4   7404         MOV     A,#0x4
   \   0000F6   F0           MOVX    @DPTR,A
   5361          		break;
   5362          	}
   5363          	 *len = loadIndex;	
   \                     ??BuildPreFlashInfoData_7:
   \   0000F7   EA           MOV     A,R2
   \   0000F8   85..82       MOV     DPL,?V0 + 0
   \   0000FB   85..83       MOV     DPH,?V0 + 1
   \   0000FE   02....       LJMP    ?Subroutine3 & 0xFFFF
   5364          	
   5365          }

   \                                 In  segment BANKED_CODE, align 1, keep-with-next
   \                     ?Subroutine144:
   \   000000   12....       LCALL   ?Subroutine224 & 0xFFFF
   \                     ??CrossCallReturnLabel_384:
   \   000003   A3           INC     DPTR
   \   000004   A3           INC     DPTR
   \   000005   22           RET

   \                                 In  segment BANKED_CODE, align 1, keep-with-next
   \                     ?Subroutine143:
   \   000000   12....       LCALL   ?Subroutine229 & 0xFFFF
   \                     ??CrossCallReturnLabel_393:
   \   000003   A3           INC     DPTR
   \   000004   A3           INC     DPTR
   \   000005   A3           INC     DPTR
   \   000006   A3           INC     DPTR
   \   000007   A3           INC     DPTR
   \   000008   A3           INC     DPTR
   \   000009   A3           INC     DPTR
   \   00000A   A3           INC     DPTR
   \   00000B   22           RET

   \                                 In  segment BANKED_CODE, align 1, keep-with-next
   \                     ?Subroutine123:
   \   000000   F582         MOV     DPL,A
   \   000002   EF           MOV     A,R7
   \   000003   12....       LCALL   ??Subroutine328_0 & 0xFFFF
   \                     ??CrossCallReturnLabel_745:
   \   000006   74A0         MOV     A,#-0x60
   \   000008   F0           MOVX    @DPTR,A
   \   000009   EE           MOV     A,R6
   \   00000A   22           RET

   \                                 In  segment BANKED_CODE, align 1, keep-with-next
   \                     ?Subroutine122:
   \   000000   F582         MOV     DPL,A
   \   000002   EF           MOV     A,R7
   \   000003   12....       LCALL   ??Subroutine328_0 & 0xFFFF
   \                     ??CrossCallReturnLabel_744:
   \   000006   7401         MOV     A,#0x1
   \   000008   F0           MOVX    @DPTR,A
   \   000009   EE           MOV     A,R6
   \   00000A   22           RET

   \                                 In  segment BANKED_CODE, align 1, keep-with-next
   \                     ?Subroutine103:
   \   000000   12....       LCALL   ?Subroutine214 & 0xFFFF
   \                     ??CrossCallReturnLabel_372:
   \   000003   A3           INC     DPTR
   \   000004   22           RET

   \                                 In  segment BANKED_CODE, align 1, keep-with-next
   \                     ?Subroutine214:
   \   000000   E0           MOVX    A,@DPTR
   \   000001   8E82         MOV     DPL,R6
   \   000003   8F83         MOV     DPH,R7
   \   000005   A3           INC     DPTR
   \   000006   A3           INC     DPTR
   \   000007   A3           INC     DPTR
   \   000008   A3           INC     DPTR
   \   000009   22           RET

   \                                 In  segment BANKED_CODE, align 1, keep-with-next
   \                     ?Subroutine145:
   \   000000   12....       LCALL   ?Subroutine224 & 0xFFFF
   \                     ??CrossCallReturnLabel_385:
   \   000003   22           RET

   \                                 In  segment BANKED_CODE, align 1, keep-with-next
   \                     ?Subroutine224:
   \   000000   12....       LCALL   ?Subroutine257 & 0xFFFF
   \                     ??CrossCallReturnLabel_424:
   \   000003   A3           INC     DPTR
   \   000004   A3           INC     DPTR
   \   000005   A3           INC     DPTR
   \   000006   22           RET

   \                                 In  segment BANKED_CODE, align 1, keep-with-next
   \                     ??Subroutine332_0:
   \   000000   EE           MOV     A,R6
   \   000001   25..         ADD     A,?V0 + 2
   \   000003   F582         MOV     DPL,A
   \   000005   EF           MOV     A,R7
   \   000006   22           RET

   \                                 In  segment BANKED_CODE, align 1, keep-with-next
   \                     ?Subroutine173:
   \   000000   7C04         MOV     R4,#0x4
   \   000002   7D00         MOV     R5,#0x0
   \   000004                REQUIRE ??Subroutine338_0
   \   000004                ; // Fall through to label ??Subroutine338_0
   5366          

   \                                 In  segment BANKED_CODE, align 1, keep-with-next
   5367          unsigned char RfMcodeCovert(unsigned char src, uint8 hpMod)
   \                     RfMcodeCovert:
   5368          {
   \   000000                ; Saved register size: 0
   \   000000                ; Auto size: 0
   \   000000   E9           MOV     A,R1
   \   000001   F8           MOV     R0,A
   5369          	if(HP_FLASHMODE_OFF==hpMod)
   \   000002   EA           MOV     A,R2
   \   000003   7004         JNZ     ??RfMcodeCovert_0
   5370          	{
   5371          		src = 0x38 -src;
   5372          		return (src + 0x88);
   \   000005   74C0         MOV     A,#-0x40
   \   000007   8002         SJMP    ??RfMcodeCovert_1
   5373          	}else
   5374          	{
   5375          		src = 0x38 -src;
   5376          		return (src + 0x68);
   \                     ??RfMcodeCovert_0:
   \   000009   74A0         MOV     A,#-0x60
   \                     ??RfMcodeCovert_1:
   \   00000B   C3           CLR     C
   \   00000C   98           SUBB    A,R0
   \   00000D   F9           MOV     R1,A
   \   00000E   02....       LJMP    ?BRET
   5377          	}
   5378          }
   5379          

   \                                 In  segment BANKED_CODE, align 1, keep-with-next
   5380          void BuildFlashInfoData(uint8 *buf, uint8 *len)
   \                     BuildFlashInfoData:
   5381          {
   \   000000   74EA         MOV     A,#-0x16
   \   000002   12....       LCALL   ?BANKED_ENTER_XDATA
   \   000005                ; Saved register size: 22
   \   000005                ; Auto size: 0
   \   000005   EA           MOV     A,R2
   \   000006   FE           MOV     R6,A
   \   000007   EB           MOV     A,R3
   \   000008   FF           MOV     R7,A
   \   000009   8C..         MOV     ?V0 + 12,R4
   \   00000B   8D..         MOV     ?V0 + 13,R5
   5382          	uint8 loadIndex=0; 
   5383          	uint8 i=0;
   5384          	
   5385          	if(WORKINGMODE_MULTI==radioSet.workMode)
   \   00000D   EE           MOV     A,R6
   \   00000E   2406         ADD     A,#0x6
   \   000010   F5..         MOV     ?V0 + 8,A
   \   000012   EF           MOV     A,R7
   \   000013   3400         ADDC    A,#0x0
   \   000015   F5..         MOV     ?V0 + 9,A
   \   000017   EE           MOV     A,R6
   \   000018   2405         ADD     A,#0x5
   \   00001A   F5..         MOV     ?V0 + 0,A
   \   00001C   EF           MOV     A,R7
   \   00001D   3400         ADDC    A,#0x0
   \   00001F   F5..         MOV     ?V0 + 1,A
   \   000021   EE           MOV     A,R6
   \   000022   2404         ADD     A,#0x4
   \   000024   F5..         MOV     ?V0 + 2,A
   \   000026   EF           MOV     A,R7
   \   000027   3400         ADDC    A,#0x0
   \   000029   F5..         MOV     ?V0 + 3,A
   \   00002B   90....       MOV     DPTR,#radioSet + 2
   \   00002E   E0           MOVX    A,@DPTR
   \   00002F   6402         XRL     A,#0x2
   \   000031   6003         JZ      $+5
   \   000033   02....       LJMP    ??BuildFlashInfoData_0 & 0xFFFF
   5386          	{
   5387          		osal_memcpy(buf,multiCmd,4);
   \   000036                ; Setup parameters for call to function osal_memcpy
   \   000036   75....       MOV     ?V0 + 4,#multiCmd & 0xff
   \   000039   75....       MOV     ?V0 + 5,#(multiCmd >> 8) & 0xff
   \   00003C   75..00       MOV     ?V0 + 6,#0x0
   \   00003F   78..         MOV     R0,#?V0 + 4
   \   000041   12....       LCALL   ?PUSH_XSTACK_I_THREE
   \   000044   12....       LCALL   ?Subroutine173 & 0xFFFF
   \                     ??CrossCallReturnLabel_801:
   \   000047   12....       LCALL   ?DEALLOC_XSTACK8
   5388          		loadIndex+= 4;
   5389          		//buf[loadIndex++] = (FLASH_PILOT_OFF==radioSet.fPilot)?radioSet.shutter:0xFF;
   5390          		buf[loadIndex++] = (FLASH_PILOT_OFF==radioSet.fPilot)?radioSet.shutter:0x38;
   \   00004A   90....       MOV     DPTR,#radioSet + 11
   \   00004D   E0           MOVX    A,@DPTR
   \   00004E   7006         JNZ     ??BuildFlashInfoData_1
   \   000050   90....       MOV     DPTR,#radioSet + 5
   \   000053   E0           MOVX    A,@DPTR
   \   000054   8002         SJMP    ??BuildFlashInfoData_2
   \                     ??BuildFlashInfoData_1:
   \   000056   7438         MOV     A,#0x38
   \                     ??BuildFlashInfoData_2:
   \   000058   85..82       MOV     DPL,?V0 + 2
   \   00005B   85..83       MOV     DPH,?V0 + 3
   \   00005E   F0           MOVX    @DPTR,A
   5391          		buf[loadIndex++] = (FLASH_PILOT_OFF==radioSet.fPilot)?radioSet.apert:0;
   \   00005F   90....       MOV     DPTR,#radioSet + 11
   \   000062   E0           MOVX    A,@DPTR
   \   000063   7006         JNZ     ??BuildFlashInfoData_3
   \   000065   90....       MOV     DPTR,#radioSet + 6
   \   000068   E0           MOVX    A,@DPTR
   \   000069   8001         SJMP    ??BuildFlashInfoData_4
   \                     ??BuildFlashInfoData_3:
   \   00006B   E4           CLR     A
   \                     ??BuildFlashInfoData_4:
   \   00006C   85..82       MOV     DPL,?V0 + 0
   \   00006F   85..83       MOV     DPH,?V0 + 1
   \   000072   F0           MOVX    @DPTR,A
   5392          		//buf[loadIndex++] = (FLASH_PILOT_OFF==radioSet.fPilot)?radioSet.isoCmp:0x48;
   5393          		buf[loadIndex++] = (FLASH_PILOT_OFF==radioSet.fPilot)?radioSet.isoCmp:0x60;
   \   000073   75..07       MOV     ?V0 + 0,#0x7
   \   000076   90....       MOV     DPTR,#radioSet + 11
   \   000079   E0           MOVX    A,@DPTR
   \   00007A   7006         JNZ     ??BuildFlashInfoData_5
   \   00007C   90....       MOV     DPTR,#radioSet + 4
   \   00007F   E0           MOVX    A,@DPTR
   \   000080   8002         SJMP    ??BuildFlashInfoData_6
   \                     ??BuildFlashInfoData_5:
   \   000082   7460         MOV     A,#0x60
   \                     ??BuildFlashInfoData_6:
   \   000084   85..82       MOV     DPL,?V0 + 8
   \   000087   85..83       MOV     DPH,?V0 + 9
   \   00008A   F0           MOVX    @DPTR,A
   5394          
   5395          		for(i=0;i<3;i++)
   \   00008B   75..00       MOV     ?V0 + 1,#0x0
   5396          		{
   5397          			if(WORKINGMODE_OFF==radioSet.rfGr_arrPara[i].mode)
   \                     ??BuildFlashInfoData_7:
   \   00008E   E5..         MOV     A,?V0 + 1
   \   000090   75F005       MOV     B,#0x5
   \   000093   A4           MUL     AB
   \   000094   F8           MOV     R0,A
   \   000095   A9F0         MOV     R1,B
   \   000097   74..         MOV     A,#radioSet & 0xff
   \   000099   28           ADD     A,R0
   \   00009A   F8           MOV     R0,A
   \   00009B   74..         MOV     A,#(radioSet >> 8) & 0xff
   \   00009D   39           ADDC    A,R1
   \   00009E   F9           MOV     R1,A
   \   00009F   85....       MOV     ?V0 + 2,?V0 + 0
   \   0000A2   EE           MOV     A,R6
   \   0000A3   25..         ADD     A,?V0 + 2
   \   0000A5   F5..         MOV     ?V0 + 2,A
   \   0000A7   EF           MOV     A,R7
   \   0000A8   3400         ADDC    A,#0x0
   \   0000AA   F5..         MOV     ?V0 + 3,A
   \   0000AC   E8           MOV     A,R0
   \   0000AD   240C         ADD     A,#0xc
   \   0000AF   12....       LCALL   ??Subroutine330_0 & 0xFFFF
   \                     ??CrossCallReturnLabel_767:
   \   0000B2   6406         XRL     A,#0x6
   \   0000B4   7015         JNZ     ??BuildFlashInfoData_8
   5398          			{
   5399          				buf[loadIndex++] = 0x00;
   \   0000B6   85..82       MOV     DPL,?V0 + 2
   \   0000B9   85..83       MOV     DPH,?V0 + 3
   \   0000BC   E4           CLR     A
   \   0000BD   F0           MOVX    @DPTR,A
   \   0000BE   05..         INC     ?V0 + 0
   5400          				buf[loadIndex++] = 0x00;
   \   0000C0   85....       MOV     ?V0 + 2,?V0 + 0
   \   0000C3   12....       LCALL   ??Subroutine332_0 & 0xFFFF
   5401          			}else
   \                     ??CrossCallReturnLabel_785:
   \   0000C6   12....       LCALL   ??Subroutine308_0 & 0xFFFF
   \                     ??CrossCallReturnLabel_607:
   \   0000C9   8021         SJMP    ??BuildFlashInfoData_9
   5402          			{
   5403          				buf[loadIndex++] = RfMcodeCovert(radioSet.rfGr_arrPara[i].mulOtpVal,radioSet.hpFlash);
   \                     ??BuildFlashInfoData_8:
   \   0000CB                ; Setup parameters for call to function RfMcodeCovert
   \   0000CB   90....       MOV     DPTR,#radioSet + 10
   \   0000CE   E0           MOVX    A,@DPTR
   \   0000CF   FA           MOV     R2,A
   \   0000D0   E8           MOV     A,R0
   \   0000D1   240F         ADD     A,#0xf
   \   0000D3   12....       LCALL   ??Subroutine330_0 & 0xFFFF
   \                     ??CrossCallReturnLabel_768:
   \   0000D6   F9           MOV     R1,A
   \   0000D7   12....       LCALL   ??RfMcodeCovert?relay
   \   0000DA   E9           MOV     A,R1
   \   0000DB   85..82       MOV     DPL,?V0 + 2
   \   0000DE   85..83       MOV     DPH,?V0 + 3
   \   0000E1   F0           MOVX    @DPTR,A
   \   0000E2   05..         INC     ?V0 + 0
   5404          				buf[loadIndex++] = 0x02;
   \   0000E4   85....       MOV     ?V0 + 2,?V0 + 0
   \   0000E7   12....       LCALL   ??Subroutine310_0 & 0xFFFF
   5405          			}
   5406          		}
   \                     ??CrossCallReturnLabel_634:
   \   0000EA   7402         MOV     A,#0x2
   \                     ??BuildFlashInfoData_9:
   \   0000EC   F0           MOVX    @DPTR,A
   \   0000ED   05..         INC     ?V0 + 0
   \   0000EF   05..         INC     ?V0 + 1
   \   0000F1   E5..         MOV     A,?V0 + 1
   \   0000F3   C3           CLR     C
   \   0000F4   9403         SUBB    A,#0x3
   \   0000F6   4096         JC      ??BuildFlashInfoData_7
   5407          		//buf[loadIndex++] = radioSet.mul_times;
   5408          		buf[loadIndex++] = (FLASH_PILOT_OFF==radioSet.fPilot)?radioSet.mul_times:(radioSet.mul_times>0?radioSet.mul_times:0x18);
   \   0000F8   85....       MOV     ?V0 + 11,?V0 + 0
   \   0000FB   7401         MOV     A,#0x1
   \   0000FD   25..         ADD     A,?V0 + 11
   \   0000FF   F5..         MOV     ?V0 + 0,A
   \   000101   90....       MOV     DPTR,#radioSet + 8
   \   000104   E0           MOVX    A,@DPTR
   \   000105   F8           MOV     R0,A
   \   000106   90....       MOV     DPTR,#radioSet + 11
   \   000109   E0           MOVX    A,@DPTR
   \   00010A   7004         JNZ     ??BuildFlashInfoData_10
   \                     ??BuildFlashInfoData_11:
   \   00010C   88..         MOV     ?V0 + 10,R0
   \   00010E   8006         SJMP    ??BuildFlashInfoData_12
   \                     ??BuildFlashInfoData_10:
   \   000110   E8           MOV     A,R0
   \   000111   70F9         JNZ     ??BuildFlashInfoData_11
   \   000113   75..18       MOV     ?V0 + 10,#0x18
   \                     ??BuildFlashInfoData_12:
   \   000116   85....       MOV     ?V0 + 2,?V0 + 11
   \   000119   12....       LCALL   ??Subroutine310_0 & 0xFFFF
   \                     ??CrossCallReturnLabel_635:
   \   00011C   E5..         MOV     A,?V0 + 10
   \   00011E   F0           MOVX    @DPTR,A
   5409          		buf[loadIndex++] = radioSet.mul_frq;
   \   00011F   90....       MOV     DPTR,#radioSet + 9
   \   000122   E0           MOVX    A,@DPTR
   \   000123   C0E0         PUSH    A
   \   000125   85....       MOV     ?V0 + 2,?V0 + 0
   \   000128   12....       LCALL   ??Subroutine310_0 & 0xFFFF
   5410          		
   5411          	}else
   \                     ??CrossCallReturnLabel_636:
   \   00012B   D0E0         POP     A
   \   00012D   F0           MOVX    @DPTR,A
   \   00012E   05..         INC     ?V0 + 0
   \   000130   02....       LJMP    ??BuildFlashInfoData_13 & 0xFFFF
   5412          	{
   5413          		osal_memcpy(buf,preCmdBuf,4);
   \                     ??BuildFlashInfoData_0:
   \   000133                ; Setup parameters for call to function osal_memcpy
   \   000133   75....       MOV     ?V0 + 4,#preCmdBuf & 0xff
   \   000136   75....       MOV     ?V0 + 5,#(preCmdBuf >> 8) & 0xff
   \   000139   75..00       MOV     ?V0 + 6,#0x0
   \   00013C   78..         MOV     R0,#?V0 + 4
   \   00013E   12....       LCALL   ?PUSH_XSTACK_I_THREE
   \   000141   12....       LCALL   ?Subroutine173 & 0xFFFF
   \                     ??CrossCallReturnLabel_802:
   \   000144   12....       LCALL   ?DEALLOC_XSTACK8
   5414          		loadIndex+= 4;
   5415          		buf[loadIndex++] = (FLASH_PILOT_OFF==radioSet.fPilot)?radioSet.shutter:0;
   \   000147   90....       MOV     DPTR,#radioSet + 11
   \   00014A   E0           MOVX    A,@DPTR
   \   00014B   7006         JNZ     ??BuildFlashInfoData_14
   \   00014D   90....       MOV     DPTR,#radioSet + 5
   \   000150   E0           MOVX    A,@DPTR
   \   000151   8001         SJMP    ??BuildFlashInfoData_15
   \                     ??BuildFlashInfoData_14:
   \   000153   E4           CLR     A
   \                     ??BuildFlashInfoData_15:
   \   000154   85..82       MOV     DPL,?V0 + 2
   \   000157   85..83       MOV     DPH,?V0 + 3
   \   00015A   F0           MOVX    @DPTR,A
   5416          		buf[loadIndex++] = (FLASH_PILOT_OFF==radioSet.fPilot)?radioSet.apert:0;
   \   00015B   90....       MOV     DPTR,#radioSet + 11
   \   00015E   E0           MOVX    A,@DPTR
   \   00015F   7006         JNZ     ??BuildFlashInfoData_16
   \   000161   90....       MOV     DPTR,#radioSet + 6
   \   000164   E0           MOVX    A,@DPTR
   \   000165   8001         SJMP    ??BuildFlashInfoData_17
   \                     ??BuildFlashInfoData_16:
   \   000167   E4           CLR     A
   \                     ??BuildFlashInfoData_17:
   \   000168   85..82       MOV     DPL,?V0 + 0
   \   00016B   85..83       MOV     DPH,?V0 + 1
   \   00016E   F0           MOVX    @DPTR,A
   5417          		buf[loadIndex++] = (FLASH_PILOT_OFF==radioSet.fPilot)?radioSet.isoCmp:0x48;
   \   00016F   90....       MOV     DPTR,#radioSet + 11
   \   000172   E0           MOVX    A,@DPTR
   \   000173   7006         JNZ     ??BuildFlashInfoData_18
   \   000175   90....       MOV     DPTR,#radioSet + 4
   \   000178   E0           MOVX    A,@DPTR
   \   000179   8002         SJMP    ??BuildFlashInfoData_19
   \                     ??BuildFlashInfoData_18:
   \   00017B   7448         MOV     A,#0x48
   \                     ??BuildFlashInfoData_19:
   \   00017D   85..82       MOV     DPL,?V0 + 8
   \   000180   85..83       MOV     DPH,?V0 + 9
   \   000183   F0           MOVX    @DPTR,A
   5418          		//buf[loadIndex++] = radioSet.synMod==SYNC_MODE_FP?0x48:0x04;//0x04;
   5419          		buf[loadIndex++] = (FLASH_PILOT_OFF==radioSet.fPilot)?((radioSet.hpFlash==HP_FLASHMODE_ON)?0x48:0x04):0x0A;
   \   000184   75..08       MOV     ?V0 + 0,#0x8
   \   000187   90....       MOV     DPTR,#radioSet + 11
   \   00018A   E0           MOVX    A,@DPTR
   \   00018B   7010         JNZ     ??BuildFlashInfoData_20
   \   00018D   90....       MOV     DPTR,#radioSet + 10
   \   000190   E0           MOVX    A,@DPTR
   \   000191   6401         XRL     A,#0x1
   \   000193   7004         JNZ     ??BuildFlashInfoData_21
   \   000195   7448         MOV     A,#0x48
   \   000197   8006         SJMP    ??BuildFlashInfoData_22
   \                     ??BuildFlashInfoData_21:
   \   000199   7404         MOV     A,#0x4
   \   00019B   8002         SJMP    ??BuildFlashInfoData_22
   \                     ??BuildFlashInfoData_20:
   \   00019D   740A         MOV     A,#0xa
   \                     ??BuildFlashInfoData_22:
   \   00019F   8E82         MOV     DPL,R6
   \   0001A1   8F83         MOV     DPH,R7
   \   0001A3   A3           INC     DPTR
   \   0001A4   A3           INC     DPTR
   \   0001A5   A3           INC     DPTR
   \   0001A6   A3           INC     DPTR
   \   0001A7   A3           INC     DPTR
   \   0001A8   A3           INC     DPTR
   \   0001A9   A3           INC     DPTR
   \   0001AA   F0           MOVX    @DPTR,A
   5420          		
   5421          		for(i=0;i<RF_GROUP_TOTAL;i++)
   \   0001AB   75..00       MOV     ?V0 + 1,#0x0
   5422          		{
   5423          			switch(radioSet.rfGr_arrPara[i].mode)
   \                     ??BuildFlashInfoData_23:
   \   0001AE   E5..         MOV     A,?V0 + 1
   \   0001B0   75F005       MOV     B,#0x5
   \   0001B3   A4           MUL     AB
   \   0001B4   F8           MOV     R0,A
   \   0001B5   A9F0         MOV     R1,B
   \   0001B7   74..         MOV     A,#radioSet & 0xff
   \   0001B9   28           ADD     A,R0
   \   0001BA   FA           MOV     R2,A
   \   0001BB   74..         MOV     A,#(radioSet >> 8) & 0xff
   \   0001BD   39           ADDC    A,R1
   \   0001BE   FB           MOV     R3,A
   \   0001BF   85....       MOV     ?V0 + 2,?V0 + 0
   \   0001C2   EE           MOV     A,R6
   \   0001C3   25..         ADD     A,?V0 + 2
   \   0001C5   F8           MOV     R0,A
   \   0001C6   EF           MOV     A,R7
   \   0001C7   12....       LCALL   ??Subroutine313_0 & 0xFFFF
   \                     ??CrossCallReturnLabel_644:
   \   0001CA   FC           MOV     R4,A
   \   0001CB   E9           MOV     A,R1
   \   0001CC   FD           MOV     R5,A
   \   0001CD   7401         MOV     A,#0x1
   \   0001CF   25..         ADD     A,?V0 + 0
   \   0001D1   F8           MOV     R0,A
   \   0001D2   EA           MOV     A,R2
   \   0001D3   240C         ADD     A,#0xc
   \   0001D5   F582         MOV     DPL,A
   \   0001D7   EB           MOV     A,R3
   \   0001D8   12....       LCALL   ??Subroutine331_0 & 0xFFFF
   \                     ??CrossCallReturnLabel_757:
   \   0001DB   6014         JZ      ??BuildFlashInfoData_24
   \   0001DD   14           DEC     A
   \   0001DE   606A         JZ      ??BuildFlashInfoData_25
   \   0001E0   24FD         ADD     A,#-0x3
   \   0001E2   7003         JNZ     $+5
   \   0001E4   02....       LJMP    ??BuildFlashInfoData_26 & 0xFFFF
   \   0001E7   24FE         ADD     A,#-0x2
   \   0001E9   7003         JNZ     $+5
   \   0001EB   02....       LJMP    ??BuildFlashInfoData_27 & 0xFFFF
   \   0001EE   02....       LJMP    ??BuildFlashInfoData_28 & 0xFFFF
   5424          			{
   5425          				case WORKINGMODE_TTL:
   5426          					buf[loadIndex++] = 0x01;
   \                     ??BuildFlashInfoData_24:
   \   0001F1   8C82         MOV     DPL,R4
   \   0001F3   8D83         MOV     DPH,R5
   \   0001F5   7401         MOV     A,#0x1
   \   0001F7   F0           MOVX    @DPTR,A
   5427          					buf[loadIndex++] = (FLASH_PILOT_OFF==radioSet.fPilot)?radioSet.rfGr_arrPara[i].ttlExpVal:0x98;
   \   0001F8   88..         MOV     ?V0 + 2,R0
   \   0001FA   25..         ADD     A,?V0 + 2
   \   0001FC   F5..         MOV     ?V0 + 0,A
   \   0001FE   90....       MOV     DPTR,#radioSet + 11
   \   000201   E0           MOVX    A,@DPTR
   \   000202   7005         JNZ     ??BuildFlashInfoData_29
   \   000204   12....       LCALL   ?Subroutine118 & 0xFFFF
   \                     ??CrossCallReturnLabel_206:
   \   000207   8002         SJMP    ??BuildFlashInfoData_30
   \                     ??BuildFlashInfoData_29:
   \   000209   7498         MOV     A,#-0x68
   \                     ??BuildFlashInfoData_30:
   \   00020B   C0E0         PUSH    A
   \   00020D   88..         MOV     ?V0 + 4,R0
   \   00020F   EE           MOV     A,R6
   \   000210   25..         ADD     A,?V0 + 4
   \   000212   12....       LCALL   ??Subroutine311_0 & 0xFFFF
   \                     ??CrossCallReturnLabel_628:
   \   000215   D0E0         POP     A
   \   000217   F0           MOVX    @DPTR,A
   5428          					//buf[loadIndex++] = radioSet.synMod==SYNC_MODE_FP?0x06:0x03;
   5429          					buf[loadIndex++] = (FLASH_PILOT_OFF==radioSet.fPilot)?((radioSet.hpFlash==HP_FLASHMODE_ON)?0x06:0x03):0x08;
   \   000218   85....       MOV     ?V0 + 3,?V0 + 0
   \   00021B   7401         MOV     A,#0x1
   \   00021D   25..         ADD     A,?V0 + 3
   \   00021F   F5..         MOV     ?V0 + 0,A
   \   000221   90....       MOV     DPTR,#radioSet + 11
   \   000224   E0           MOVX    A,@DPTR
   \   000225   7010         JNZ     ??BuildFlashInfoData_31
   \   000227   90....       MOV     DPTR,#radioSet + 10
   \   00022A   E0           MOVX    A,@DPTR
   \   00022B   6401         XRL     A,#0x1
   \   00022D   7004         JNZ     ??BuildFlashInfoData_32
   \   00022F   7406         MOV     A,#0x6
   \   000231   8006         SJMP    ??BuildFlashInfoData_33
   \                     ??BuildFlashInfoData_32:
   \   000233   7403         MOV     A,#0x3
   \   000235   8002         SJMP    ??BuildFlashInfoData_33
   \                     ??BuildFlashInfoData_31:
   \   000237   7408         MOV     A,#0x8
   \                     ??BuildFlashInfoData_33:
   \   000239   C0E0         PUSH    A
   \   00023B   85....       MOV     ?V0 + 4,?V0 + 3
   \   00023E   EE           MOV     A,R6
   \   00023F   25..         ADD     A,?V0 + 4
   \                     ??BuildFlashInfoData_34:
   \   000241   12....       LCALL   ??Subroutine311_0 & 0xFFFF
   \                     ??CrossCallReturnLabel_629:
   \   000244   D0E0         POP     A
   \   000246   F0           MOVX    @DPTR,A
   5430          				break;
   \   000247   02....       LJMP    ??BuildFlashInfoData_28 & 0xFFFF
   5431          
   5432          				case WORKINGMODE_MANU:
   5433          					buf[loadIndex++] = 0x02;
   \                     ??BuildFlashInfoData_25:
   \   00024A   8C82         MOV     DPL,R4
   \   00024C   8D83         MOV     DPH,R5
   \   00024E   7402         MOV     A,#0x2
   \   000250   F0           MOVX    @DPTR,A
   5434          					buf[loadIndex++] = (FLASH_PILOT_OFF==radioSet.fPilot)?RfMcodeCovert(radioSet.rfGr_arrPara[i].optCode,radioSet.hpFlash):RfMcodeCovert(radioSet.rfGr_arrPara[i].optCode,HP_FLASHMODE_OFF);//radioSet.rfGr_arrPara[i].optCode;
   \   000251   88..         MOV     ?V0 + 4,R0
   \   000253   14           DEC     A
   \   000254   25..         ADD     A,?V0 + 4
   \   000256   F5..         MOV     ?V0 + 0,A
   \   000258   EA           MOV     A,R2
   \   000259   240D         ADD     A,#0xd
   \   00025B   F8           MOV     R0,A
   \   00025C   EB           MOV     A,R3
   \   00025D   3400         ADDC    A,#0x0
   \   00025F   F9           MOV     R1,A
   \   000260   90....       MOV     DPTR,#radioSet + 11
   \   000263   E0           MOVX    A,@DPTR
   \   000264   7007         JNZ     ??BuildFlashInfoData_35
   \   000266                ; Setup parameters for call to function RfMcodeCovert
   \   000266   90....       MOV     DPTR,#radioSet + 10
   \   000269   E0           MOVX    A,@DPTR
   \   00026A   FA           MOV     R2,A
   \   00026B   8002         SJMP    ??BuildFlashInfoData_36
   \                     ??BuildFlashInfoData_35:
   \   00026D                ; Setup parameters for call to function RfMcodeCovert
   \   00026D   7A00         MOV     R2,#0x0
   \                     ??BuildFlashInfoData_36:
   \   00026F   8882         MOV     DPL,R0
   \   000271   8983         MOV     DPH,R1
   \   000273   E0           MOVX    A,@DPTR
   \   000274   F9           MOV     R1,A
   \   000275   12....       LCALL   ??RfMcodeCovert?relay
   \   000278   E9           MOV     A,R1
   \   000279   C0E0         PUSH    A
   \   00027B   85....       MOV     ?V0 + 6,?V0 + 4
   \   00027E   EE           MOV     A,R6
   \   00027F   25..         ADD     A,?V0 + 6
   \   000281   12....       LCALL   ??Subroutine311_0 & 0xFFFF
   \                     ??CrossCallReturnLabel_630:
   \   000284   D0E0         POP     A
   \   000286   F0           MOVX    @DPTR,A
   5435          					//buf[loadIndex++] =  radioSet.synMod==SYNC_MODE_FP?0x05:0x02;
   5436          					buf[loadIndex++] = (FLASH_PILOT_OFF==radioSet.fPilot)?((radioSet.hpFlash==HP_FLASHMODE_ON)?0x05:0x02):0x02;
   \   000287   A8..         MOV     R0,?V0 + 0
   \   000289   7401         MOV     A,#0x1
   \   00028B   28           ADD     A,R0
   \   00028C   F5..         MOV     ?V0 + 0,A
   \   00028E   90....       MOV     DPTR,#radioSet + 11
   \   000291   E0           MOVX    A,@DPTR
   \   000292   700C         JNZ     ??BuildFlashInfoData_37
   \   000294   90....       MOV     DPTR,#radioSet + 10
   \   000297   E0           MOVX    A,@DPTR
   \   000298   6401         XRL     A,#0x1
   \   00029A   7004         JNZ     ??BuildFlashInfoData_37
   \   00029C   7405         MOV     A,#0x5
   \   00029E   8002         SJMP    ??BuildFlashInfoData_38
   \                     ??BuildFlashInfoData_37:
   \   0002A0   7402         MOV     A,#0x2
   \                     ??BuildFlashInfoData_38:
   \   0002A2   C0E0         PUSH    A
   \   0002A4   88..         MOV     ?V0 + 6,R0
   \   0002A6   EE           MOV     A,R6
   \   0002A7   25..         ADD     A,?V0 + 6
   \   0002A9   8096         SJMP    ??BuildFlashInfoData_34
   5437          				break;
   5438          
   5439          				case WORKINGMODE_EXTA:
   5440          					buf[loadIndex++] = 0x08;
   \                     ??BuildFlashInfoData_26:
   \   0002AB   8C82         MOV     DPL,R4
   \   0002AD   8D83         MOV     DPH,R5
   \   0002AF   7408         MOV     A,#0x8
   \   0002B1   F0           MOVX    @DPTR,A
   \   0002B2   05..         INC     ?V0 + 0
   5441          					buf[loadIndex++] = radioSet.rfGr_arrPara[i].extaTmp;
   \   0002B4   EA           MOV     A,R2
   \   0002B5   2410         ADD     A,#0x10
   \   0002B7   F582         MOV     DPL,A
   \   0002B9   EB           MOV     A,R3
   \   0002BA   12....       LCALL   ??Subroutine331_0 & 0xFFFF
   \                     ??CrossCallReturnLabel_758:
   \   0002BD   C0E0         PUSH    A
   \   0002BF   88..         MOV     ?V0 + 6,R0
   \   0002C1   EE           MOV     A,R6
   \   0002C2   25..         ADD     A,?V0 + 6
   \   0002C4   12....       LCALL   ??Subroutine311_0 & 0xFFFF
   \                     ??CrossCallReturnLabel_631:
   \   0002C7   D0E0         POP     A
   \   0002C9   F0           MOVX    @DPTR,A
   \   0002CA   05..         INC     ?V0 + 0
   5442          					buf[loadIndex++] = 0x02;
   \   0002CC   85....       MOV     ?V0 + 6,?V0 + 0
   \   0002CF   EE           MOV     A,R6
   \   0002D0   25..         ADD     A,?V0 + 6
   \   0002D2   12....       LCALL   ??Subroutine311_0 & 0xFFFF
   \                     ??CrossCallReturnLabel_632:
   \   0002D5   7402         MOV     A,#0x2
   \                     ??BuildFlashInfoData_39:
   \   0002D7   F0           MOVX    @DPTR,A
   \   0002D8   05..         INC     ?V0 + 0
   5443          				break;
   \   0002DA   803B         SJMP    ??BuildFlashInfoData_28
   5444          
   5445          				case WORKINGMODE_OFF:
   5446          					if(WORKINGMODE_GR==radioSet.workMode)
   \                     ??BuildFlashInfoData_27:
   \   0002DC   90....       MOV     DPTR,#radioSet + 2
   \   0002DF   E0           MOVX    A,@DPTR
   \   0002E0   F9           MOV     R1,A
   \   0002E1   7406         MOV     A,#0x6
   \   0002E3   69           XRL     A,R1
   \   0002E4   7021         JNZ     ??BuildFlashInfoData_40
   5447          					{
   5448          						buf[loadIndex++] =0x00;
   \   0002E6   8C82         MOV     DPL,R4
   \   0002E8   8D83         MOV     DPH,R5
   \   0002EA   E4           CLR     A
   \                     ??BuildFlashInfoData_41:
   \   0002EB   F0           MOVX    @DPTR,A
   \   0002EC   05..         INC     ?V0 + 0
   5449          						buf[loadIndex++] =0x00;
   \   0002EE   88..         MOV     ?V0 + 6,R0
   \   0002F0   EE           MOV     A,R6
   \   0002F1   25..         ADD     A,?V0 + 6
   \   0002F3   F582         MOV     DPL,A
   \   0002F5   EF           MOV     A,R7
   \   0002F6   12....       LCALL   ?Subroutine127 & 0xFFFF
   5450          						buf[loadIndex++] =0x00;
   \                     ??CrossCallReturnLabel_224:
   \   0002F9   85....       MOV     ?V0 + 6,?V0 + 0
   \   0002FC   EE           MOV     A,R6
   \   0002FD   25..         ADD     A,?V0 + 6
   \   0002FF   F582         MOV     DPL,A
   \   000301   EF           MOV     A,R7
   \   000302   12....       LCALL   ??Subroutine308_0 & 0xFFFF
   5451          					}else if(WORKINGMODE_TTL==radioSet.workMode)
   \                     ??CrossCallReturnLabel_608:
   \   000305   80D0         SJMP    ??BuildFlashInfoData_39
   \                     ??BuildFlashInfoData_40:
   \   000307   E9           MOV     A,R1
   \   000308   7008         JNZ     ??BuildFlashInfoData_42
   5452          					{
   5453          						buf[loadIndex++] =0x01;
   \                     ??BuildFlashInfoData_43:
   \   00030A   8C82         MOV     DPL,R4
   \   00030C   8D83         MOV     DPH,R5
   \   00030E   7401         MOV     A,#0x1
   \   000310   80D9         SJMP    ??BuildFlashInfoData_41
   5454          						buf[loadIndex++] =0x00;
   5455          						buf[loadIndex++] =0x00;
   5456          					}else if(WORKINGMODE_MANU==radioSet.workMode)
   \                     ??BuildFlashInfoData_42:
   \   000312   7401         MOV     A,#0x1
   \   000314   69           XRL     A,R1
   \   000315   60F3         JZ      ??BuildFlashInfoData_43
   5457          					{
   5458          						buf[loadIndex++] =0x01;
   5459          						buf[loadIndex++] =0x00;
   5460          						buf[loadIndex++] =0x00;
   5461          					}
   5462          				break;
   5463          			}
   5464          		}
   \                     ??BuildFlashInfoData_28:
   \   000317   05..         INC     ?V0 + 1
   \   000319   E5..         MOV     A,?V0 + 1
   \   00031B   C3           CLR     C
   \   00031C   9405         SUBB    A,#0x5
   \   00031E   5003         JNC     $+5
   \   000320   02....       LJMP    ??BuildFlashInfoData_23 & 0xFFFF
   5465          
   5466          	}
   5467          	
   5468          	*len = loadIndex;	
   \                     ??BuildFlashInfoData_13:
   \   000323   85..82       MOV     DPL,?V0 + 12
   \   000326   85..83       MOV     DPH,?V0 + 13
   \   000329   E5..         MOV     A,?V0 + 0
   \   00032B   F0           MOVX    @DPTR,A
   5469          	
   5470          }
   \   00032C   7F0E         MOV     R7,#0xe
   \   00032E   02....       LJMP    ?BANKED_LEAVE_XDATA
   5471          

   \                                 In  segment BANKED_CODE, align 1, keep-with-next
   \                     ?Subroutine130:
   \   000000   F0           MOVX    @DPTR,A
   \   000001   05..         INC     ?V0 + 4
   \   000003                REQUIRE ??Subroutine309_0
   \   000003                ; // Fall through to label ??Subroutine309_0

   \                                 In  segment BANKED_CODE, align 1, keep-with-next
   \                     ??Subroutine309_0:
   \   000000   85....       MOV     ?V0 + 2,?V0 + 4
   \   000003                REQUIRE ??Subroutine310_0
   \   000003                ; // Fall through to label ??Subroutine310_0

   \                                 In  segment BANKED_CODE, align 1, keep-with-next
   5472          void BuildPilotInfoData(uint8 * buf, uint8 * len)
   \                     BuildPilotInfoData:
   5473          {
   \   000000   74F1         MOV     A,#-0xf
   \   000002   12....       LCALL   ?BANKED_ENTER_XDATA
   \   000005                ; Saved register size: 15
   \   000005                ; Auto size: 0
   \   000005   EA           MOV     A,R2
   \   000006   FE           MOV     R6,A
   \   000007   EB           MOV     A,R3
   \   000008   FF           MOV     R7,A
   \   000009   8C..         MOV     ?V0 + 0,R4
   \   00000B   8D..         MOV     ?V0 + 1,R5
   5474          	uint8 loadIndex=0; 
   5475          	uint8 i=0;
   5476          	osal_memcpy(buf,preCmdBuf,4);
   \   00000D                ; Setup parameters for call to function osal_memcpy
   \   00000D   75....       MOV     ?V0 + 4,#preCmdBuf & 0xff
   \   000010   75....       MOV     ?V0 + 5,#(preCmdBuf >> 8) & 0xff
   \   000013   75..00       MOV     ?V0 + 6,#0x0
   \   000016   78..         MOV     R0,#?V0 + 4
   \   000018   12....       LCALL   ?PUSH_XSTACK_I_THREE
   \   00001B   12....       LCALL   ?Subroutine173 & 0xFFFF
   \                     ??CrossCallReturnLabel_803:
   \   00001E   12....       LCALL   ?DEALLOC_XSTACK8
   5477          	loadIndex+=4;
   5478          	buf[loadIndex++]=0;
   \   000021   8E82         MOV     DPL,R6
   \   000023   8F83         MOV     DPH,R7
   \   000025   A3           INC     DPTR
   \   000026   A3           INC     DPTR
   \   000027   A3           INC     DPTR
   \   000028   A3           INC     DPTR
   \   000029   E4           CLR     A
   \   00002A   12....       LCALL   ?Subroutine152 & 0xFFFF
   5479          	buf[loadIndex++]=0;
   \                     ??CrossCallReturnLabel_284:
   \   00002D   12....       LCALL   ?Subroutine152 & 0xFFFF
   5480          	buf[loadIndex++]=0x48;
   \                     ??CrossCallReturnLabel_285:
   \   000030   A3           INC     DPTR
   \   000031   7448         MOV     A,#0x48
   \   000033   12....       LCALL   ?Subroutine145 & 0xFFFF
   5481          	buf[loadIndex++]=0x0A;
   \                     ??CrossCallReturnLabel_271:
   \   000036   740A         MOV     A,#0xa
   \   000038   F0           MOVX    @DPTR,A
   \   000039   75..08       MOV     ?V0 + 4,#0x8
   5482          	
   5483          	switch(g_modelingStyle)
   \   00003C   90....       MOV     DPTR,#g_modelingStyle
   \   00003F   E0           MOVX    A,@DPTR
   \   000040   600E         JZ      ??BuildPilotInfoData_0
   \   000042   14           DEC     A
   \   000043   603F         JZ      ??BuildPilotInfoData_1
   \   000045   14           DEC     A
   \   000046   603C         JZ      ??BuildPilotInfoData_1
   \   000048   14           DEC     A
   \   000049   7003         JNZ     $+5
   \   00004B   02....       LJMP    ??BuildPilotInfoData_2 & 0xFFFF
   \   00004E   800F         SJMP    ??BuildPilotInfoData_3
   5484          	{
   5485          		case MODELING_STYLE_APERT:
   5486          			if(radioSet.workMode==WORKINGMODE_GR)
   \                     ??BuildPilotInfoData_0:
   \   000050   90....       MOV     DPTR,#radioSet + 2
   \   000053   E0           MOVX    A,@DPTR
   \   000054   6406         XRL     A,#0x6
   \   000056   7012         JNZ     ??BuildPilotInfoData_4
   5487          			{
   5488          				for(i=0;i<RF_GROUP_TOTAL;i++)
   \   000058   7805         MOV     R0,#0x5
   5489          				{
   5490          					buf[loadIndex++] = 0x01;
   \                     ??BuildPilotInfoData_5:
   \   00005A   12....       LCALL   ?Subroutine120 & 0xFFFF
   5491          					buf[loadIndex++] = 0x98;
   5492          					buf[loadIndex++] = 0x08;					
   5493          				}
   5494          			}else
   \                     ??CrossCallReturnLabel_209:
   \   00005D   70FB         JNZ     ??BuildPilotInfoData_5
   5495          			{
   5496          				for(i=0;i<3;i++)
   5497          				{
   5498          					buf[loadIndex++] = 0x01;
   5499          					buf[loadIndex++] = 0x98;
   5500          					buf[loadIndex++] = 0x08;					
   5501          				}
   5502          				osal_memset(buf+loadIndex,0x00,6);
   5503          			}
   5504          		break;
   5505          
   5506          		case MODELING_STYLE_STEX:
   5507          		case MODELING_STYLE_BOTH:
   5508          			if(radioSet.workMode==WORKINGMODE_GR)
   5509          			{
   5510          				for(i=0;i<RF_GROUP_TOTAL;i++)
   5511          				{
   5512          					buf[loadIndex++] = 0x06;
   5513          					buf[loadIndex++] = 0x98;
   5514          					buf[loadIndex++] = 0x07;					
   5515          				}
   5516          			}else
   5517          			{
   5518          				for(i=0;i<RF_GROUP_TOTAL;i++)
   5519          				{
   5520          					buf[loadIndex++] = 0x06;
   5521          					buf[loadIndex++] = i>2?0x00:0x98;
   5522          					buf[loadIndex++] = i>2?0x00:0x07;					
   5523          				}
   5524          				
   5525          			}
   5526          		break;
   5527          
   5528          		case MODELING_STYLE_OFF:			//inspire it later, should analysize respectively
   5529          			if(radioSet.workMode==WORKINGMODE_GR)
   5530          			{
   5531          				for(i=0;i<RF_GROUP_TOTAL;i++)
   5532          				{
   5533          					buf[loadIndex++] = 0x01;
   5534          					buf[loadIndex++] = 0x98;
   5535          					buf[loadIndex++] = 0x08;					
   5536          				}
   5537          			}else
   5538          			{
   5539          				for(i=0;i<3;i++)
   5540          				{
   5541          					buf[loadIndex++] = 0x01;
   5542          					buf[loadIndex++] = 0x98;
   5543          					buf[loadIndex++] = 0x08;					
   5544          				}
   5545          				osal_memset(buf+loadIndex,0x00,6);
   5546          			}
   5547          		break;
   5548          	}
   5549          
   5550          	*len = loadIndex;	
   \                     ??BuildPilotInfoData_3:
   \   00005F   85..82       MOV     DPL,?V0 + 0
   \   000062   85..83       MOV     DPH,?V0 + 1
   \   000065   E5..         MOV     A,?V0 + 4
   \   000067   02....       LJMP    ?Subroutine3 & 0xFFFF
   \                     ??BuildPilotInfoData_4:
   \   00006A   7803         MOV     R0,#0x3
   \                     ??BuildPilotInfoData_6:
   \   00006C   12....       LCALL   ?Subroutine120 & 0xFFFF
   \                     ??CrossCallReturnLabel_210:
   \   00006F   70FB         JNZ     ??BuildPilotInfoData_6
   \                     ??BuildPilotInfoData_7:
   \   000071                ; Setup parameters for call to function osal_memset
   \   000071   7C06         MOV     R4,#0x6
   \   000073   7D00         MOV     R5,#0x0
   \   000075   7900         MOV     R1,#0x0
   \   000077   85....       MOV     ?V0 + 2,?V0 + 4
   \   00007A   EE           MOV     A,R6
   \   00007B   25..         ADD     A,?V0 + 2
   \   00007D   FA           MOV     R2,A
   \   00007E   EF           MOV     A,R7
   \   00007F   12....       LCALL   ??Subroutine268_0 & 0xFFFF
   \                     ??CrossCallReturnLabel_435:
   \   000082   80DB         SJMP    ??BuildPilotInfoData_3
   \                     ??BuildPilotInfoData_1:
   \   000084   90....       MOV     DPTR,#radioSet + 2
   \   000087   E0           MOVX    A,@DPTR
   \   000088   6406         XRL     A,#0x6
   \   00008A   701A         JNZ     ??BuildPilotInfoData_8
   \   00008C   7805         MOV     R0,#0x5
   \                     ??BuildPilotInfoData_9:
   \   00008E   12....       LCALL   ??Subroutine309_0 & 0xFFFF
   \                     ??CrossCallReturnLabel_639:
   \   000091   7406         MOV     A,#0x6
   \   000093   12....       LCALL   ?Subroutine130 & 0xFFFF
   \                     ??CrossCallReturnLabel_611:
   \   000096   7498         MOV     A,#-0x68
   \   000098   12....       LCALL   ?Subroutine130 & 0xFFFF
   \                     ??CrossCallReturnLabel_612:
   \   00009B   7407         MOV     A,#0x7
   \   00009D   F0           MOVX    @DPTR,A
   \   00009E   05..         INC     ?V0 + 4
   \   0000A0   18           DEC     R0
   \   0000A1   E8           MOV     A,R0
   \   0000A2   60BB         JZ      ??BuildPilotInfoData_3
   \   0000A4   80E8         SJMP    ??BuildPilotInfoData_9
   \                     ??BuildPilotInfoData_8:
   \   0000A6   7800         MOV     R0,#0x0
   \                     ??BuildPilotInfoData_10:
   \   0000A8   12....       LCALL   ??Subroutine309_0 & 0xFFFF
   \                     ??CrossCallReturnLabel_640:
   \   0000AB   7406         MOV     A,#0x6
   \   0000AD   F0           MOVX    @DPTR,A
   \   0000AE   7401         MOV     A,#0x1
   \   0000B0   25..         ADD     A,?V0 + 4
   \   0000B2   F5..         MOV     ?V0 + 2,A
   \   0000B4   7401         MOV     A,#0x1
   \   0000B6   25..         ADD     A,?V0 + 2
   \   0000B8   F5..         MOV     ?V0 + 4,A
   \   0000BA   E8           MOV     A,R0
   \   0000BB   C3           CLR     C
   \   0000BC   9403         SUBB    A,#0x3
   \   0000BE   4003         JC      ??BuildPilotInfoData_11
   \   0000C0   E4           CLR     A
   \   0000C1   8002         SJMP    ??BuildPilotInfoData_12
   \                     ??BuildPilotInfoData_11:
   \   0000C3   7498         MOV     A,#-0x68
   \                     ??BuildPilotInfoData_12:
   \   0000C5   C0E0         PUSH    A
   \   0000C7   12....       LCALL   ??Subroutine310_0 & 0xFFFF
   \                     ??CrossCallReturnLabel_637:
   \   0000CA   D0E0         POP     A
   \   0000CC   F0           MOVX    @DPTR,A
   \   0000CD   A9..         MOV     R1,?V0 + 4
   \   0000CF   7401         MOV     A,#0x1
   \   0000D1   29           ADD     A,R1
   \   0000D2   F5..         MOV     ?V0 + 4,A
   \   0000D4   E8           MOV     A,R0
   \   0000D5   C3           CLR     C
   \   0000D6   9403         SUBB    A,#0x3
   \   0000D8   4003         JC      ??BuildPilotInfoData_13
   \   0000DA   E4           CLR     A
   \   0000DB   8002         SJMP    ??BuildPilotInfoData_14
   \                     ??BuildPilotInfoData_13:
   \   0000DD   7407         MOV     A,#0x7
   \                     ??BuildPilotInfoData_14:
   \   0000DF   C0E0         PUSH    A
   \   0000E1   89..         MOV     ?V0 + 2,R1
   \   0000E3   12....       LCALL   ??Subroutine310_0 & 0xFFFF
   \                     ??CrossCallReturnLabel_638:
   \   0000E6   D0E0         POP     A
   \   0000E8   F0           MOVX    @DPTR,A
   \   0000E9   08           INC     R0
   \   0000EA   E8           MOV     A,R0
   \   0000EB   C3           CLR     C
   \   0000EC   9405         SUBB    A,#0x5
   \   0000EE   4003         JC      $+5
   \   0000F0   02....       LJMP    ??BuildPilotInfoData_3 & 0xFFFF
   \   0000F3   80B3         SJMP    ??BuildPilotInfoData_10
   \                     ??BuildPilotInfoData_2:
   \   0000F5   90....       MOV     DPTR,#radioSet + 2
   \   0000F8   E0           MOVX    A,@DPTR
   \   0000F9   6406         XRL     A,#0x6
   \   0000FB   700C         JNZ     ??BuildPilotInfoData_15
   \   0000FD   7805         MOV     R0,#0x5
   \                     ??BuildPilotInfoData_16:
   \   0000FF   12....       LCALL   ?Subroutine120 & 0xFFFF
   \                     ??CrossCallReturnLabel_211:
   \   000102   7003         JNZ     $+5
   \   000104   02....       LJMP    ??BuildPilotInfoData_3 & 0xFFFF
   \   000107   80F6         SJMP    ??BuildPilotInfoData_16
   \                     ??BuildPilotInfoData_15:
   \   000109   7803         MOV     R0,#0x3
   \                     ??BuildPilotInfoData_17:
   \   00010B   12....       LCALL   ?Subroutine120 & 0xFFFF
   \                     ??CrossCallReturnLabel_212:
   \   00010E   7003         JNZ     $+5
   \   000110   02....       LJMP    ??BuildPilotInfoData_7 & 0xFFFF
   \   000113   80F6         SJMP    ??BuildPilotInfoData_17
   5551          
   5552          }

   \                                 In  segment BANKED_CODE, align 1, keep-with-next
   \                     ?Subroutine152:
   \   000000   12....       LCALL   ?Subroutine231 & 0xFFFF
   \                     ??CrossCallReturnLabel_399:
   \   000003   A3           INC     DPTR
   \   000004   22           RET

   \                                 In  segment BANKED_CODE, align 1, keep-with-next
   \                     ?Subroutine120:
   \   000000   12....       LCALL   ?Subroutine260 & 0xFFFF
   \                     ??CrossCallReturnLabel_787:
   \   000003   12....       LCALL   ??Subroutine328_0 & 0xFFFF
   \                     ??CrossCallReturnLabel_743:
   \   000006   7401         MOV     A,#0x1
   \   000008   12....       LCALL   ?Subroutine222 & 0xFFFF
   \                     ??CrossCallReturnLabel_379:
   \   00000B   7498         MOV     A,#-0x68
   \   00000D   12....       LCALL   ?Subroutine222 & 0xFFFF
   \                     ??CrossCallReturnLabel_380:
   \   000010   7408         MOV     A,#0x8
   \   000012   F0           MOVX    @DPTR,A
   \   000013   05..         INC     ?V0 + 4
   \   000015   18           DEC     R0
   \   000016   E8           MOV     A,R0
   \   000017   22           RET

   \                                 In  segment BANKED_CODE, align 1, keep-with-next
   \                     ?Subroutine260:
   \   000000   85....       MOV     ?V0 + 2,?V0 + 4
   \   000003                REQUIRE ??Subroutine332_0
   \   000003                ; // Fall through to label ??Subroutine332_0

   \                                 In  segment BANKED_CODE, align 1, keep-with-next
   \                     ?Subroutine222:
   \   000000   F0           MOVX    @DPTR,A
   \   000001   05..         INC     ?V0 + 4
   \   000003   12....       LCALL   ?Subroutine260 & 0xFFFF
   \                     ??CrossCallReturnLabel_788:
   \   000006   12....       LCALL   ??Subroutine289_0 & 0xFFFF
   \                     ??CrossCallReturnLabel_777:
   \   000009   22           RET
   5553          
   5554          
   5555          

   \                                 In  segment BANKED_CODE, align 1, keep-with-next
   \                     ?Subroutine10:
   \   000000   90....       MOV     DPTR,#g_sendLen
   \   000003   E0           MOVX    A,@DPTR
   \   000004   F9           MOV     R1,A
   \   000005                REQUIRE ??Subroutine322_0
   \   000005                ; // Fall through to label ??Subroutine322_0

   \                                 In  segment BANKED_CODE, align 1, keep-with-next
   5556          MAC_DATAREQ_API void PreFlashInfo(macRx_t* pck)
   \                     PreFlashInfo:
   5557          {
   \   000000   74F5         MOV     A,#-0xb
   \   000002   12....       LCALL   ?BANKED_ENTER_XDATA
   \   000005                ; Saved register size: 11
   \   000005                ; Auto size: 0
   5558          	static uint8 flaCmdCnt=0;
   5559          	if(TRUE==osal_memcmp(g_extAddrSrc,g_extAddrVef,8))
   \   000005                ; Setup parameters for call to function osal_memcmp
   \   000005   75....       MOV     ?V0 + 0,#g_extAddrVef & 0xff
   \   000008   75....       MOV     ?V0 + 1,#(g_extAddrVef >> 8) & 0xff
   \   00000B   75..00       MOV     ?V0 + 2,#0x0
   \   00000E   78..         MOV     R0,#?V0 + 0
   \   000010   12....       LCALL   ?PUSH_XSTACK_I_THREE
   \   000013   7C08         MOV     R4,#0x8
   \   000015   7D00         MOV     R5,#0x0
   \   000017   79..         MOV     R1,#g_extAddrSrc & 0xff
   \   000019   7A..         MOV     R2,#(g_extAddrSrc >> 8) & 0xff
   \   00001B   7B00         MOV     R3,#0x0
   \   00001D   12....       LCALL   ??osal_memcmp?relay
   \   000020   7403         MOV     A,#0x3
   \   000022   12....       LCALL   ?DEALLOC_XSTACK8
   \   000025   E9           MOV     A,R1
   \   000026   6401         XRL     A,#0x1
   \   000028   7040         JNZ     ??PreFlashInfo_0
   5560          	//if(FALSE==osal_memcmp(g_extAddrSrc,g_extAddrVef,8))
   5561          	{
   5562          		//if(flaCmdCnt++<8)
   5563          		if(flaCmdCnt++<radioSet.adept)
   \   00002A   90....       MOV     DPTR,#??flaCmdCnt
   \   00002D   12....       LCALL   ?Subroutine81 & 0xFFFF
   \                     ??CrossCallReturnLabel_130:
   \   000030   502F         JNC     ??PreFlashInfo_1
   5564          		{
   5565          			pConfig->frameHead = 0x8841;
   \   000032   12....       LCALL   ?Subroutine11 & 0xFFFF
   5566          			pConfig->destAddr = 0xFFFF;
   5567          			//osal_memcpy(pTxData,preCmdBuf,sizeof(preCmdBuf));
   5568          			//g_sendLen = sizeof(preCmdBuf);
   5569          			BuildPreFlashInfoData(pTxData,&g_sendLen);
   \                     ??CrossCallReturnLabel_3:
   \   000035   12....       LCALL   ??BuildPreFlashInfoData?relay
   5570          			//macRfSendPacket(pConfig->destAddr, pTxData, g_sendLen,NULL,0);
   5571          			macRfSendPacket(pConfig->destAddr, pTxData, g_sendLen,NULL,0,SEND_MODE_FLUSH);
   \   000038                ; Setup parameters for call to function macRfSendPacket
   \   000038   75..00       MOV     ?V0 + 0,#0x0
   \   00003B   78..         MOV     R0,#?V0 + 0
   \   00003D   12....       LCALL   ?PUSH_XSTACK_I_ONE
   \   000040   78..         MOV     R0,#?V0 + 0
   \   000042   12....       LCALL   ?PUSH_XSTACK_I_ONE
   \   000045   E4           CLR     A
   \   000046   F5..         MOV     ?V0 + 1,A
   \   000048   78..         MOV     R0,#?V0 + 0
   \   00004A   12....       LCALL   ?PUSH_XSTACK_I_TWO
   \   00004D   12....       LCALL   ?Subroutine10 & 0xFFFF
   \                     ??CrossCallReturnLabel_687:
   \   000050   12....       LCALL   ?DEALLOC_XSTACK8
   5572          			veriPckSendCallback = &PreFlashInfo;
   \   000053   90....       MOV     DPTR,#veriPckSendCallback
   \   000056   74..         MOV     A,#??PreFlashInfo?relay & 0xff
   \   000058   F0           MOVX    @DPTR,A
   \   000059   A3           INC     DPTR
   \   00005A   74..         MOV     A,#(??PreFlashInfo?relay >> 8) & 0xff
   \   00005C   12....       LCALL   ?Subroutine107 & 0xFFFF
   5573          			osal_start_timerEx(macEx_taskId, MACEX_VERI_SEND_INQURE,2);		
   5574          		}else
   \                     ??CrossCallReturnLabel_809:
   \   00005F   8009         SJMP    ??PreFlashInfo_0
   5575          		{
   5576          			flaCmdCnt = 0;
   \                     ??PreFlashInfo_1:
   \   000061   90....       MOV     DPTR,#??flaCmdCnt
   \   000064   12....       LCALL   ?Subroutine149 & 0xFFFF
   5577          			veriPckSendCallback = NULL;
   5578          		}
   5579          	}
   \                     ??CrossCallReturnLabel_458:
   \   000067   F0           MOVX    @DPTR,A
   \   000068   A3           INC     DPTR
   \   000069   F0           MOVX    @DPTR,A
   5580          	
   5581          }
   \                     ??PreFlashInfo_0:
   \   00006A   02....       LJMP    ??Subroutine279_0 & 0xFFFF

   \                                 In  segment BANKED_CODE, align 1, keep-with-next
   \                     ?Subroutine81:
   \   000000   E0           MOVX    A,@DPTR
   \   000001   F9           MOV     R1,A
   \   000002   7401         MOV     A,#0x1
   \   000004   29           ADD     A,R1
   \   000005   F0           MOVX    @DPTR,A
   \   000006   90....       MOV     DPTR,#radioSet + 1
   \   000009   E0           MOVX    A,@DPTR
   \   00000A   F8           MOV     R0,A
   \   00000B   E9           MOV     A,R1
   \   00000C   C3           CLR     C
   \   00000D   98           SUBB    A,R0
   \   00000E   22           RET

   \                                 In  segment BANKED_CODE, align 1, keep-with-next
   \                     ?Subroutine11:
   \   000000   12....       LCALL   ?Subroutine187 & 0xFFFF
   \                     ??CrossCallReturnLabel_352:
   \   000003   7441         MOV     A,#0x41
   \   000005   F0           MOVX    @DPTR,A
   \   000006   A3           INC     DPTR
   \   000007   7488         MOV     A,#-0x78
   \   000009   F0           MOVX    @DPTR,A
   \   00000A   12....       LCALL   ?Subroutine192 & 0xFFFF
   \                     ??CrossCallReturnLabel_683:
   \   00000D   74FF         MOV     A,#-0x1
   \   00000F   F0           MOVX    @DPTR,A
   \   000010   A3           INC     DPTR
   \   000011   F0           MOVX    @DPTR,A
   \   000012                ; Setup parameters for call to function BuildPreFlashInfoData
   \   000012                ; Setup parameters for call to function BuildFlashInfoData
   \   000012                ; Setup parameters for call to function BuildPilotInfoData
   \   000012   7C..         MOV     R4,#g_sendLen & 0xff
   \   000014   7D..         MOV     R5,#(g_sendLen >> 8) & 0xff
   \   000016   7A..         MOV     R2,#pTxData & 0xff
   \   000018   7B..         MOV     R3,#(pTxData >> 8) & 0xff
   \   00001A   22           RET

   \                                 In  segment BANKED_CODE, align 1, keep-with-next
   \                     ?Subroutine107:
   \   000000   F0           MOVX    @DPTR,A
   \   000001                ; Setup parameters for call to function osal_start_timerEx
   \   000001                ; Setup parameters for call to function osal_start_timerEx
   \   000001   7C02         MOV     R4,#0x2
   \   000003                REQUIRE ??Subroutine339_0
   \   000003                ; // Fall through to label ??Subroutine339_0

   \                                 In  segment XDATA_Z, align 1, keep-with-next
   \                     ??flaCmdCnt:
   \   000000                DS 1
   \   000001                REQUIRE __INIT_XDATA_Z
   5582          

   \                                 In  segment BANKED_CODE, align 1, keep-with-next
   5583          MAC_DATAREQ_API void CountDown(macRx_t* pck)
   \                     CountDown:
   5584          {
   \   000000   74F6         MOV     A,#-0xa
   \   000002   12....       LCALL   ?BANKED_ENTER_XDATA
   \   000005                ; Saved register size: 10
   \   000005                ; Auto size: 0
   \   000005   806C         SJMP    ??CountDown_0
   5585          #if 0
   5586          	if(g_msTick>=0)
   5587          	{
   5588          		//
   5589          		pConfig->frameHead = 0x8841;
   5590          		pConfig->destAddr = 0xFFFF;
   5591          		//arrcpy(pTxData,preCmdBuf,sizeof(preCmdBuf));
   5592          		pTxData[0] = 0x90;
   5593          		pTxData[1] = 0x00;//0x01;
   5594          		pTxData[2] = g_msTick>>8;
   5595          		pTxData[3] = g_msTick&0xFF;
   5596          		g_sendLen = 4;
   5597          		macRfSendPacket(pConfig->destAddr, pTxData, g_sendLen,0);
   5598          		g_msTick-=1000;
   5599          		veriPckSendCallback = &CountDown;
   5600          		osal_start_timerEx(macEx_taskId, MACEX_VERI_SEND_INQURE,1);	
   5601          	}else
   5602          	{
   5603          		g_msTick = 0;
   5604          		 veriPckSendCallback=&macRollPolingProc;
   5605          		 osal_start_timerEx( macEx_taskId, MACEX_VERI_SEND_INQURE, 1000);
   5606          		//veriPckSendCallback = NULL;
   5607          		
   5608          	}
   5609          #endif
   5610          	while(g_msTick>=0)
   5611          	{
   5612          		pConfig->frameHead = 0x8841;
   \                     ??CountDown_1:
   \   000007   12....       LCALL   ?Subroutine20 & 0xFFFF
   5613          		pConfig->destAddr = 0xFFFF;
   5614          		//arrcpy(pTxData,preCmdBuf,sizeof(preCmdBuf));
   5615          		pTxData[0] = 0x90;
   \                     ??CrossCallReturnLabel_18:
   \   00000A   7490         MOV     A,#-0x70
   \   00000C   12....       LCALL   ??Subroutine327_0 & 0xFFFF
   5616          		pTxData[1] = 0x00;//0x01;
   5617          		pTxData[2] = g_msTick>>8;
   \                     ??CrossCallReturnLabel_733:
   \   00000F   90....       MOV     DPTR,#g_msTick
   \   000012   12....       LCALL   ?Subroutine95 & 0xFFFF
   \                     ??CrossCallReturnLabel_158:
   \   000015   7408         MOV     A,#0x8
   \   000017   78..         MOV     R0,#?V0 + 0
   \   000019   12....       LCALL   ?SS_SHR
   \   00001C   E5..         MOV     A,?V0 + 0
   \   00001E   90....       MOV     DPTR,#pTxData + 2
   \   000021   F0           MOVX    @DPTR,A
   5618          		pTxData[3] = g_msTick&0xFF;
   \   000022   90....       MOV     DPTR,#g_msTick
   \   000025   E0           MOVX    A,@DPTR
   \   000026   90....       MOV     DPTR,#pTxData + 3
   \   000029   12....       LCALL   ?Subroutine225 & 0xFFFF
   5619          		g_sendLen = 4;
   \                     ??CrossCallReturnLabel_887:
   \   00002C   7404         MOV     A,#0x4
   \   00002E   F0           MOVX    @DPTR,A
   5620          		//macRfSendPacket(pConfig->destAddr, pTxData, g_sendLen,NULL,0);
   5621          		macRfSendPacket(pConfig->destAddr, pTxData, g_sendLen,NULL,0,SEND_MODE_FLUSH);
   \   00002F                ; Setup parameters for call to function macRfSendPacket
   \   00002F   75..00       MOV     ?V0 + 0,#0x0
   \   000032   78..         MOV     R0,#?V0 + 0
   \   000034   12....       LCALL   ?PUSH_XSTACK_I_ONE
   \   000037   78..         MOV     R0,#?V0 + 0
   \   000039   12....       LCALL   ?PUSH_XSTACK_I_ONE
   \   00003C   E4           CLR     A
   \   00003D   F5..         MOV     ?V0 + 1,A
   \   00003F   78..         MOV     R0,#?V0 + 0
   \   000041   12....       LCALL   ?PUSH_XSTACK_I_TWO
   \   000044   7904         MOV     R1,#0x4
   \   000046   7C..         MOV     R4,#pTxData & 0xff
   \   000048   7D..         MOV     R5,#(pTxData >> 8) & 0xff
   \   00004A   8A82         MOV     DPL,R2
   \   00004C   8B83         MOV     DPH,R3
   \   00004E   12....       LCALL   ??Subroutine323_0 & 0xFFFF
   \                     ??CrossCallReturnLabel_706:
   \   000051   12....       LCALL   ?DEALLOC_XSTACK8
   5622          #if 1
   5623          		if(g_msTick>0)
   \   000054   90....       MOV     DPTR,#g_msTick
   \   000057   C3           CLR     C
   \   000058   E0           MOVX    A,@DPTR
   \   000059   9401         SUBB    A,#0x1
   \   00005B   A3           INC     DPTR
   \   00005C   12....       LCALL   ?Subroutine117 & 0xFFFF
   \                     ??CrossCallReturnLabel_203:
   \   00005F   4006         JC      ??CountDown_2
   5624          		{
   5625          			txState.txSeqNumber--;
   \   000061   90....       MOV     DPTR,#txState
   \   000064   E0           MOVX    A,@DPTR
   \   000065   14           DEC     A
   \   000066   F0           MOVX    @DPTR,A
   5626          		}
   5627          #endif
   5628          
   5629          		g_msTick-=1000;
   \                     ??CountDown_2:
   \   000067   90....       MOV     DPTR,#g_msTick
   \   00006A   E0           MOVX    A,@DPTR
   \   00006B   2418         ADD     A,#0x18
   \   00006D   F0           MOVX    @DPTR,A
   \   00006E   A3           INC     DPTR
   \   00006F   E0           MOVX    A,@DPTR
   \   000070   34FC         ADDC    A,#-0x4
   \   000072   F0           MOVX    @DPTR,A
   5630          
   5631          		//veriPckSendCallback = NULL;
   5632          		//osal_start_timerEx(macEx_taskId, MACEX_VERI_SEND_INQURE,0);	
   5633          	}
   \                     ??CountDown_0:
   \   000073   C3           CLR     C
   \   000074   90....       MOV     DPTR,#g_msTick + 1
   \   000077   12....       LCALL   ?Subroutine117 & 0xFFFF
   \                     ??CrossCallReturnLabel_204:
   \   00007A   508B         JNC     ??CountDown_1
   5634          	if(BRIDGE_MST_NORMAL==g_mstHold)
   \   00007C   90....       MOV     DPTR,#g_mstHold
   \   00007F   E0           MOVX    A,@DPTR
   \   000080   90....       MOV     DPTR,#veriPckSendCallback
   \   000083   7008         JNZ     ??CountDown_3
   5635          	{
   5636          #ifdef SEND_UNIFIED
   5637          		veriPckSendCallback=&macRollPolingProc;
   \   000085   74..         MOV     A,#??macRollPolingProc?relay & 0xff
   \   000087   F0           MOVX    @DPTR,A
   \   000088   A3           INC     DPTR
   \   000089   74..         MOV     A,#(??macRollPolingProc?relay >> 8) & 0xff
   \   00008B   8003         SJMP    ??CountDown_4
   5638          #else
   5639          		if(pConfig->mstRcd>0)
   5640          		{
   5641          			veriPckSendCallback=&LinkedModeRollPoling;
   5642          		}else
   5643          		{
   5644          			veriPckSendCallback=&macRollPolingProc;
   5645          		}
   5646          #endif
   5647          	}else
   5648          	{
   5649          		veriPckSendCallback = NULL;
   \                     ??CountDown_3:
   \   00008D   E4           CLR     A
   \   00008E   F0           MOVX    @DPTR,A
   \   00008F   A3           INC     DPTR
   \                     ??CountDown_4:
   \   000090   F0           MOVX    @DPTR,A
   5650          	}
   5651          	osal_start_timerEx( macEx_taskId, MACEX_VERI_SEND_INQURE, 300);
   \   000091                ; Setup parameters for call to function osal_start_timerEx
   \   000091   7C2C         MOV     R4,#0x2c
   \   000093   7D01         MOV     R5,#0x1
   \   000095   02....       LJMP    ??Subroutine334_0 & 0xFFFF
   5652          	//osal_start_timerEx( macEx_taskId, MACEX_VERI_SEND_INQURE, 2000);
   5653          	
   5654          	
   5655          }

   \                                 In  segment BANKED_CODE, align 1, keep-with-next
   \                     ?Subroutine117:
   \   000000   E0           MOVX    A,@DPTR
   \   000001   9400         SUBB    A,#0x0
   \   000003   A2D2         MOV     C,0xD0 /* PSW */.2
   \   000005   65D0         XRL     A,PSW
   \   000007   33           RLC     A
   \   000008   22           RET
   5656          

   \                                 In  segment BANKED_CODE, align 1, keep-with-next
   5657          MAC_DATAREQ_API void FlashConfirm(macRx_t* pck)
   \                     FlashConfirm:
   5658          {
   \   000000   74F6         MOV     A,#-0xa
   \   000002   12....       LCALL   ?BANKED_ENTER_XDATA
   \   000005                ; Saved register size: 10
   \   000005                ; Auto size: 0
   5659          	static uint8 flaCmdCnt=0;
   5660          	//if(flaCmdCnt++<8)
   5661          	if(flaCmdCnt++<radioSet.adept)
   \   000005   90....       MOV     DPTR,#??flaCmdCnt_1
   \   000008   12....       LCALL   ?Subroutine81 & 0xFFFF
   \                     ??CrossCallReturnLabel_131:
   \   00000B   502F         JNC     ??FlashConfirm_0
   5662          	{
   5663          		pConfig->frameHead = 0x8841;
   \   00000D   12....       LCALL   ?Subroutine11 & 0xFFFF
   5664          		pConfig->destAddr = 0xFFFF;
   5665          		//osal_memcpy(pTxData,flashCmd,sizeof(flashCmd));
   5666          		//g_sendLen = sizeof(flashCmd);
   5667          		BuildFlashInfoData(pTxData, &g_sendLen);
   \                     ??CrossCallReturnLabel_4:
   \   000010   12....       LCALL   ??BuildFlashInfoData?relay
   5668          		//macRfSendPacket(pConfig->destAddr, pTxData, g_sendLen,NULL,0);
   5669          		macRfSendPacket(pConfig->destAddr, pTxData, g_sendLen,NULL,0,SEND_MODE_FLUSH);
   \   000013                ; Setup parameters for call to function macRfSendPacket
   \   000013   75..00       MOV     ?V0 + 0,#0x0
   \   000016   78..         MOV     R0,#?V0 + 0
   \   000018   12....       LCALL   ?PUSH_XSTACK_I_ONE
   \   00001B   78..         MOV     R0,#?V0 + 0
   \   00001D   12....       LCALL   ?PUSH_XSTACK_I_ONE
   \   000020   E4           CLR     A
   \   000021   F5..         MOV     ?V0 + 1,A
   \   000023   78..         MOV     R0,#?V0 + 0
   \   000025   12....       LCALL   ?PUSH_XSTACK_I_TWO
   \   000028   12....       LCALL   ?Subroutine10 & 0xFFFF
   \                     ??CrossCallReturnLabel_688:
   \   00002B   12....       LCALL   ?DEALLOC_XSTACK8
   5670          		veriPckSendCallback = &FlashConfirm;
   \   00002E   90....       MOV     DPTR,#veriPckSendCallback
   \   000031   74..         MOV     A,#??FlashConfirm?relay & 0xff
   \   000033   F0           MOVX    @DPTR,A
   \   000034   A3           INC     DPTR
   \   000035   74..         MOV     A,#(??FlashConfirm?relay >> 8) & 0xff
   \   000037   12....       LCALL   ?Subroutine107 & 0xFFFF
   5671          		osal_start_timerEx(macEx_taskId, MACEX_VERI_SEND_INQURE,2);	
   5672          	}else
   \                     ??CrossCallReturnLabel_810:
   \   00003A   8009         SJMP    ??FlashConfirm_1
   5673          	{
   5674          		flaCmdCnt = 0;
   \                     ??FlashConfirm_0:
   \   00003C   90....       MOV     DPTR,#??flaCmdCnt_1
   \   00003F   12....       LCALL   ?Subroutine149 & 0xFFFF
   5675          		veriPckSendCallback = NULL;
   5676          	}
   \                     ??CrossCallReturnLabel_459:
   \   000042   F0           MOVX    @DPTR,A
   \   000043   A3           INC     DPTR
   \   000044   F0           MOVX    @DPTR,A
   5677          }
   \                     ??FlashConfirm_1:
   \   000045   02....       LJMP    ??Subroutine318_0 & 0xFFFF

   \                                 In  segment XDATA_Z, align 1, keep-with-next
   \                     ??flaCmdCnt_1:
   \   000000                DS 1
   \   000001                REQUIRE __INIT_XDATA_Z
   5678          
   5679          #ifndef CARRY_WAVE_TEST

   \                                 In  segment BANKED_CODE, align 1, keep-with-next
   5680          MAC_DATAREQ_API void Pilot(macRx_t* pck)
   \                     Pilot:
   5681          {
   \   000000   74F6         MOV     A,#-0xa
   \   000002   12....       LCALL   ?BANKED_ENTER_XDATA
   \   000005                ; Saved register size: 10
   \   000005                ; Auto size: 0
   5682          	static uint8 pilotCmdCnt=0;
   5683          	if(pilotCmdCnt++<2)
   \   000005   90....       MOV     DPTR,#??pilotCmdCnt
   \   000008   12....       LCALL   ?Subroutine97 & 0xFFFF
   \                     ??CrossCallReturnLabel_162:
   \   00000B   5032         JNC     ??Pilot_0
   5684          	{
   5685          		pConfig->frameHead = 0x8841;
   \   00000D   12....       LCALL   ?Subroutine11 & 0xFFFF
   5686          		pConfig->destAddr = 0xFFFF;
   5687          		BuildPilotInfoData(pTxData, &g_sendLen);
   \                     ??CrossCallReturnLabel_5:
   \   000010   12....       LCALL   ??BuildPilotInfoData?relay
   5688          		//macRfSendPacket(pConfig->destAddr, pTxData, g_sendLen,NULL,0);
   5689          		macRfSendPacket(pConfig->destAddr, pTxData, g_sendLen,NULL,0,SEND_MODE_UNSLOTTED);
   \   000013                ; Setup parameters for call to function macRfSendPacket
   \   000013   75..01       MOV     ?V0 + 0,#0x1
   \   000016   78..         MOV     R0,#?V0 + 0
   \   000018   12....       LCALL   ?PUSH_XSTACK_I_ONE
   \   00001B   75..00       MOV     ?V0 + 0,#0x0
   \   00001E   78..         MOV     R0,#?V0 + 0
   \   000020   12....       LCALL   ?PUSH_XSTACK_I_ONE
   \   000023   E4           CLR     A
   \   000024   F5..         MOV     ?V0 + 1,A
   \   000026   78..         MOV     R0,#?V0 + 0
   \   000028   12....       LCALL   ?PUSH_XSTACK_I_TWO
   \   00002B   12....       LCALL   ?Subroutine10 & 0xFFFF
   \                     ??CrossCallReturnLabel_689:
   \   00002E   12....       LCALL   ?DEALLOC_XSTACK8
   5690          		veriPckSendCallback = &Pilot;
   \   000031   90....       MOV     DPTR,#veriPckSendCallback
   \   000034   74..         MOV     A,#??Pilot?relay & 0xff
   \   000036   F0           MOVX    @DPTR,A
   \   000037   A3           INC     DPTR
   \   000038   74..         MOV     A,#(??Pilot?relay >> 8) & 0xff
   \   00003A   F0           MOVX    @DPTR,A
   5691          		osal_start_timerEx(macEx_taskId, MACEX_VERI_SEND_INQURE,3);	
   \   00003B                ; Setup parameters for call to function osal_start_timerEx
   \   00003B   7C03         MOV     R4,#0x3
   \   00003D   8017         SJMP    ??Pilot_1
   5692          	}else
   5693          	{
   5694          		pilotCmdCnt = 0;
   \                     ??Pilot_0:
   \   00003F   E4           CLR     A
   \   000040   F0           MOVX    @DPTR,A
   5695          		g_msTick = 1000;
   \   000041   90....       MOV     DPTR,#g_msTick
   \   000044   74E8         MOV     A,#-0x18
   \   000046   F0           MOVX    @DPTR,A
   \   000047   A3           INC     DPTR
   \   000048   7403         MOV     A,#0x3
   \   00004A   12....       LCALL   ??Subroutine274_0 & 0xFFFF
   5696          		veriPckSendCallback = &CountDown;
   \                     ??CrossCallReturnLabel_463:
   \   00004D   74..         MOV     A,#??CountDown?relay & 0xff
   \   00004F   F0           MOVX    @DPTR,A
   \   000050   A3           INC     DPTR
   \   000051   74..         MOV     A,#(??CountDown?relay >> 8) & 0xff
   \   000053   F0           MOVX    @DPTR,A
   5697          		osal_start_timerEx(macEx_taskId, MACEX_VERI_SEND_INQURE,10);	
   \   000054                ; Setup parameters for call to function osal_start_timerEx
   \   000054   7C0A         MOV     R4,#0xa
   5698          	}
   \                     ??Pilot_1:
   \   000056   80..         SJMP    ??Subroutine333_0
   5699          }

   \                                 In  segment XDATA_Z, align 1, keep-with-next
   \                     ??pilotCmdCnt:
   \   000000                DS 1
   \   000001                REQUIRE __INIT_XDATA_Z
   5700          #else
   5701          MAC_DATAREQ_API void Pilot(macRx_t* pck)
   5702          {
   5703          	pConfig->frameHead = 0x8841;
   5704          	pConfig->destAddr = 0xFFFF;
   5705          	BuildPilotInfoData(pTxData, &g_sendLen);
   5706          	//macRfSendPacket(pConfig->destAddr, pTxData, g_sendLen,NULL,0);
   5707          	macRfSendPacket(pConfig->destAddr, pTxData, g_sendLen,NULL,0,SEND_MODE_UNSLOTTED);
   5708          	veriPckSendCallback = &Pilot;
   5709          	osal_start_timerEx(macEx_taskId, MACEX_VERI_SEND_INQURE,3);
   5710          	
   5711          }
   5712          #endif
   5713          
   5714          static void ScanDelay(unsigned int de)
   5715          {
   5716          	while(de--);
   5717          }
   5718          
   5719          static uint8 InqureAutoChan(uint8 *rssiVal)
   5720          {
   5721          	uint8 ich;
   5722          	uint8 rtCh=0;
   5723          	for(ich=0;ich<15;ich++)
   5724          	{
   5725          		if(rssiVal[rtCh]<=rssiVal[ich])
   5726          		{
   5727          			rtCh = ich;
   5728          		}
   5729          	}
   5730          	return (rtCh+RF_CHANNEL);
   5731          }
   5732          
   5733          static void ChanScanRollPoling(void)
   5734          {
   5735          	uint8 sdCnt=0;
   5736          	uint8 cn=0;
   5737          	switch(g_isMaster)
   5738          	{
   5739          		//case MSTDEV_MODE_DEV:
   5740          		case CMD_MODE_RF_SLA:
   5741          		break;
   5742          
   5743          		case CMD_MODE_RF_MST:
   5744          		case CMD_MODE_RFLS_MST:
   5745          		case CMD_MODE_RFLS_SLA:
   5746          		pConfig->frameHead = 0x8841;
   5747          		pConfig->destAddr = 0xFFFF;
   5748          		//pConfig->myAddr = 0x000F;
   5749          		pTxData[sdCnt++] = 0x9A;
   5750          		pTxData[sdCnt++] = pConfig->evtCnt;//0x01;
   5751          		pTxData[sdCnt++] = pConfig->totalDev;//0x01;
   5752          		pTxData[sdCnt++] = pConfig->mstRcd+1;//0x01;
   5753          		pTxData[sdCnt++] = ((1<<pConfig->slvRcd)-1)&0xFF;//(1<<pTxData[2])-1;//0x01;
   5754          		pTxData[sdCnt++] = 0x00;
   5755          		pTxData[sdCnt++] = ((1<<pConfig->slvRcd)-1)&0xFF;//pConfig->slvRcd;
   5756          		pTxData[sdCnt++] = (0xFF00>>(pConfig->mstRcd+1))&0xFF;
   5757          		for(cn=0;cn<pConfig->mstRcd;cn++)
   5758          		{
   5759          			pTxData[sdCnt++] = 0x0E-cn;
   5760          		}
   5761          		//pTxData[sdCnt++] = 0x80;
   5762          		//g_sendLen = 8;
   5763          		//macRfSendPacket(pConfig->destAddr, pTxData, sdCnt,NULL,0);
   5764          		macRfSendPacket(pConfig->destAddr, pTxData, sdCnt,NULL,0,SEND_MODE_UNSLOTTED);
   5765          		break;
   5766          
   5767          		case CMD_MODE_OFF:
   5768          		break;
   5769          
   5770          	}
   5771          
   5772          }
   5773          
   5774          

   \                                 In  segment BANKED_CODE, align 1, keep-with-next
   5775          static void CalcEachRssi(int8 *valBuf, uint16 tms, uint16 dly)
   \                     CalcEachRssi:
   5776          {
   \   000000   74EC         MOV     A,#-0x14
   \   000002   12....       LCALL   ?BANKED_ENTER_XDATA
   \   000005                ; Saved register size: 20
   \   000005                ; Auto size: 0
   \   000005   8A..         MOV     ?V0 + 0,R2
   \   000007   8B..         MOV     ?V0 + 1,R3
   \   000009   8C..         MOV     ?V0 + 10,R4
   \   00000B   8D..         MOV     ?V0 + 11,R5
   \   00000D   7414         MOV     A,#0x14
   \   00000F   12....       LCALL   ?XSTACK_DISP0_8
   \   000012   E0           MOVX    A,@DPTR
   \   000013   F5..         MOV     ?V0 + 2,A
   \   000015   A3           INC     DPTR
   \   000016   E0           MOVX    A,@DPTR
   \   000017   F5..         MOV     ?V0 + 3,A
   5777          	uint16 chRsv;
   5778          	int8 rssiSum=0;
   5779          	uint16 panIdRsv=0;
   5780          	uint16 tm=0;
   5781          	int8 rssiTmp=0;
   5782          	//int16 randVer=0;
   5783          	uint8 bufIndex=0;
   \   000019   75..00       MOV     ?V0 + 4,#0x0
   5784          	//uint8 rssiDbm;
   5785          	//uint8 rollCnt=0;
   5786          	//uint16 rollChRsv=0;
   5787          
   5788          	//ChanScanRollPoling();
   5789          
   5790          	chRsv = pConfig->channel;
   \   00001C   12....       LCALL   ?Subroutine108 & 0xFFFF
   \                     ??CrossCallReturnLabel_185:
   \   00001F   E8           MOV     A,R0
   \   000020   FA           MOV     R2,A
   \   000021   E9           MOV     A,R1
   \   000022   FB           MOV     R3,A
   \   000023   8A82         MOV     DPL,R2
   \   000025   8B83         MOV     DPH,R3
   \   000027   E0           MOVX    A,@DPTR
   \   000028   FE           MOV     R6,A
   5791          	panIdRsv = pConfig->panId;
   \   000029   12....       LCALL   ??Subroutine337_0 & 0xFFFF
   \                     ??CrossCallReturnLabel_792:
   \   00002C   E0           MOVX    A,@DPTR
   \   00002D   F5..         MOV     ?V0 + 6,A
   \   00002F   A3           INC     DPTR
   \   000030   E0           MOVX    A,@DPTR
   \   000031   F5..         MOV     ?V0 + 7,A
   5792          	
   5793          	pConfig->channel = RF_CHANNEL;
   \   000033   8A82         MOV     DPL,R2
   \   000035   8B83         MOV     DPH,R3
   \   000037   740B         MOV     A,#0xb
   \   000039   12....       LCALL   ?Subroutine73 & 0xFFFF
   5794          	pConfig->panId = 0xffff;
   \                     ??CrossCallReturnLabel_789:
   \   00003C   74FF         MOV     A,#-0x1
   \   00003E   F0           MOVX    @DPTR,A
   \   00003F   A3           INC     DPTR
   \   000040   F0           MOVX    @DPTR,A
   \   000041   801B         SJMP    ??CrossCallReturnLabel_829
   5795          
   5796          	while(pConfig->channel<(RF_CHANNEL+15))
   5797          	{
   5798          		macExRxDisable();
   5799          		macParameterSet();
   5800          		macExRxEnable();
   5801          
   5802          		rssiSum=0;
   5803          		ScanDelay(dly);		
   5804          
   5805          		//NLME_EDScanRequest(1,10);
   5806          
   5807          		for(tm=0;tm<tms;tm++)
   5808          		{
   5809          #if 0
   5810          			while(!(RSSISTAT&0x01));
   5811          			rssiTmp = RSSI;
   5812          			if(rssiTmp>rssiSum) rssiSum = rssiTmp;
   5813          			//rssiSum+=RSSI;
   5814          			ScanDelay(dly);	
   5815          #else
   5816          			macRadioEnergyDetectStart();
   5817          			ScanDelay(dly);
   5818          			rssiTmp = macRadioEnergyDetectStop();
   5819          			//rssiSum = (rssiTmp>rssiSum)?rssiTmp:rssiSum;
   5820          			if(rssiTmp>rssiSum) rssiSum = rssiTmp;
   5821          #endif
   5822          		}
   5823          
   5824          		//rssiDbm = rssiSum + MAC_RADIO_RSSI_OFFSET;
   5825          		//MAC_RADIO_RSSI_LNA_OFFSET(rssiDbm);
   5826            		//valBuf[bufIndex++] = radioComputeEDEx(rssiDbm);
   5827          		//valBuf[bufIndex++] = (rssiSum/tms);
   5828          		/*
   5829          		randVer = rssiSum+((int8)MAC_RADIO_RANDOM_BYTE())/10;
   5830          		if((randVer>0)&&(randVer<0xFF))
   5831          		{
   5832          			valBuf[bufIndex++] = 0xFF-randVer;
   5833          		}else
   5834          		{
   5835          			valBuf[bufIndex++] = 0xFF-rssiSum;
   5836          		}*/
   5837          		if(rssiSum<76)
   5838          		{
   5839          			valBuf[bufIndex++] = 0xFF-rssiSum*3;			
   5840          		}else
   5841          		{
   5842          			valBuf[bufIndex++] = 25;
   \                     ??CalcEachRssi_0:
   \   000043   7419         MOV     A,#0x19
   \                     ??CalcEachRssi_1:
   \   000045   F0           MOVX    @DPTR,A
   \   000046   05..         INC     ?V0 + 4
   5843          		}		
   5844          /*
   5845          		if(rollCnt++>3)
   5846          		{
   5847          			rollCnt = 0;
   5848          			rollChRsv = pConfig->channel;
   5849          			pConfig->channel = chRsv;
   5850          			pConfig->panId = panIdRsv;
   5851          			//macExRxDisable();
   5852          			macParameterSet();
   5853          			//macExRxEnable();
   5854          
   5855          			ScanDelay(dly);
   5856          
   5857          			ChanScanRollPoling();
   5858          
   5859          			pConfig->channel = rollChRsv;
   5860          			pConfig->panId = 0xFFFF;
   5861          			
   5862          		}
   5863          */
   5864          		
   5865          		pConfig->channel++;
   \   000048   12....       LCALL   ?Subroutine70 & 0xFFFF
   \                     ??CrossCallReturnLabel_111:
   \   00004B   04           INC     A
   \   00004C   F0           MOVX    @DPTR,A
   5866          		if(BRIDGE_MST_HOLD==g_mstHold)
   \   00004D   90....       MOV     DPTR,#g_mstHold
   \   000050   E0           MOVX    A,@DPTR
   \   000051   6401         XRL     A,#0x1
   \   000053   7009         JNZ     ??CrossCallReturnLabel_829
   5867          		{
   5868          			osal_start_timerEx(macEx_taskId, MACEX_LINK_TIMEOUT_EVENT,5000);
   \   000055                ; Setup parameters for call to function osal_start_timerEx
   \   000055   7C88         MOV     R4,#-0x78
   \   000057   7D13         MOV     R5,#0x13
   \   000059   7A04         MOV     R2,#0x4
   \   00005B   12....       LCALL   ??Subroutine341_0 & 0xFFFF
   5869          		}
   \                     ??CrossCallReturnLabel_829:
   \   00005E   12....       LCALL   ?Subroutine70 & 0xFFFF
   \                     ??CrossCallReturnLabel_112:
   \   000061   C3           CLR     C
   \   000062   941A         SUBB    A,#0x1a
   \   000064   507C         JNC     ??CalcEachRssi_2
   \   000066                ; Setup parameters for call to function macExRxDisable
   \   000066   12....       LCALL   ??macExRxDisable?relay
   \   000069                ; Setup parameters for call to function macParameterSet
   \   000069   12....       LCALL   ??macParameterSet?relay
   \   00006C                ; Setup parameters for call to function macExRxEnable
   \   00006C   12....       LCALL   ??macExRxEnable?relay
   \   00006F   75..00       MOV     ?V0 + 5,#0x0
   \   000072   A8..         MOV     R0,?V0 + 2
   \   000074   A9..         MOV     R1,?V0 + 3
   \                     ??CalcEachRssi_3:
   \   000076   12....       LCALL   ?Subroutine172 & 0xFFFF
   \                     ??CrossCallReturnLabel_329:
   \   000079   70FB         JNZ     ??CalcEachRssi_3
   \   00007B   75..00       MOV     ?V0 + 8,#0x0
   \   00007E   75..00       MOV     ?V0 + 9,#0x0
   \   000081   802A         SJMP    ??CalcEachRssi_4
   \                     ??CalcEachRssi_5:
   \   000083                ; Setup parameters for call to function macRadioEnergyDetectStart
   \   000083   12....       LCALL   ??macRadioEnergyDetectStart?relay
   \   000086   A8..         MOV     R0,?V0 + 2
   \   000088   A9..         MOV     R1,?V0 + 3
   \                     ??CalcEachRssi_6:
   \   00008A   12....       LCALL   ?Subroutine172 & 0xFFFF
   \                     ??CrossCallReturnLabel_330:
   \   00008D   70FB         JNZ     ??CalcEachRssi_6
   \   00008F                ; Setup parameters for call to function macRadioEnergyDetectStop
   \   00008F   12....       LCALL   ??macRadioEnergyDetectStop?relay
   \   000092   E9           MOV     A,R1
   \   000093   F8           MOV     R0,A
   \   000094   E5..         MOV     A,?V0 + 5
   \   000096   C3           CLR     C
   \   000097   98           SUBB    A,R0
   \   000098   A2D2         MOV     C,0xD0 /* PSW */.2
   \   00009A   65D0         XRL     A,PSW
   \   00009C   33           RLC     A
   \   00009D   5002         JNC     ??CalcEachRssi_7
   \   00009F   88..         MOV     ?V0 + 5,R0
   \                     ??CalcEachRssi_7:
   \   0000A1   E5..         MOV     A,?V0 + 8
   \   0000A3   2401         ADD     A,#0x1
   \   0000A5   F5..         MOV     ?V0 + 8,A
   \   0000A7   E5..         MOV     A,?V0 + 9
   \   0000A9   3400         ADDC    A,#0x0
   \   0000AB   F5..         MOV     ?V0 + 9,A
   \                     ??CalcEachRssi_4:
   \   0000AD   C3           CLR     C
   \   0000AE   E5..         MOV     A,?V0 + 8
   \   0000B0   95..         SUBB    A,?V0 + 10
   \   0000B2   E5..         MOV     A,?V0 + 9
   \   0000B4   95..         SUBB    A,?V0 + 11
   \   0000B6   40CB         JC      ??CalcEachRssi_5
   \   0000B8   85....       MOV     ?V0 + 8,?V0 + 4
   \   0000BB   E5..         MOV     A,?V0 + 0
   \   0000BD   25..         ADD     A,?V0 + 8
   \   0000BF   F582         MOV     DPL,A
   \   0000C1   E5..         MOV     A,?V0 + 1
   \   0000C3   12....       LCALL   ??Subroutine312_0 & 0xFFFF
   \                     ??CrossCallReturnLabel_626:
   \   0000C6   E5..         MOV     A,?V0 + 5
   \   0000C8   C3           CLR     C
   \   0000C9   944C         SUBB    A,#0x4c
   \   0000CB   A2D2         MOV     C,0xD0 /* PSW */.2
   \   0000CD   65D0         XRL     A,PSW
   \   0000CF   33           RLC     A
   \   0000D0   4003         JC      $+5
   \   0000D2   02....       LJMP    ??CalcEachRssi_0 & 0xFFFF
   \   0000D5   75F003       MOV     B,#0x3
   \   0000D8   E5..         MOV     A,?V0 + 5
   \   0000DA   A4           MUL     AB
   \   0000DB   F8           MOV     R0,A
   \   0000DC   74FF         MOV     A,#-0x1
   \   0000DE   98           SUBB    A,R0
   \   0000DF   02....       LJMP    ??CalcEachRssi_1 & 0xFFFF
   5870          		
   5871          	}
   5872          
   5873          	pConfig->autoChan = InqureAutoChan(valBuf);
                 	                                   ^
Warning[Pe167]: argument of type "int8 *" is incompatible with parameter of
          type "unsigned char *"
   \                     ??CalcEachRssi_2:
   \   0000E2   75..00       MOV     ?V0 + 4,#0x0
   \   0000E5   7800         MOV     R0,#0x0
   \                     ??CalcEachRssi_8:
   \   0000E7   85....       MOV     ?V0 + 2,?V0 + 4
   \   0000EA   E5..         MOV     A,?V0 + 0
   \   0000EC   25..         ADD     A,?V0 + 2
   \   0000EE   F582         MOV     DPL,A
   \   0000F0   E5..         MOV     A,?V0 + 1
   \   0000F2   12....       LCALL   ??Subroutine331_0 & 0xFFFF
   \                     ??CrossCallReturnLabel_759:
   \   0000F5   F9           MOV     R1,A
   \   0000F6   88..         MOV     ?V0 + 2,R0
   \   0000F8   E5..         MOV     A,?V0 + 0
   \   0000FA   25..         ADD     A,?V0 + 2
   \   0000FC   F582         MOV     DPL,A
   \   0000FE   E5..         MOV     A,?V0 + 1
   \   000100   12....       LCALL   ??Subroutine331_0 & 0xFFFF
   \                     ??CrossCallReturnLabel_760:
   \   000103   C3           CLR     C
   \   000104   99           SUBB    A,R1
   \   000105   4002         JC      ??CalcEachRssi_9
   \   000107   88..         MOV     ?V0 + 4,R0
   \                     ??CalcEachRssi_9:
   \   000109   08           INC     R0
   \   00010A   E8           MOV     A,R0
   \   00010B   C3           CLR     C
   \   00010C   940F         SUBB    A,#0xf
   \   00010E   40D7         JC      ??CalcEachRssi_8
   \   000110   740B         MOV     A,#0xb
   \   000112   25..         ADD     A,?V0 + 4
   \   000114   C0E0         PUSH    A
   \   000116   12....       LCALL   ?Subroutine45 & 0xFFFF
   \                     ??CrossCallReturnLabel_64:
   \   000119   D0E0         POP     A
   \   00011B   12....       LCALL   ?Subroutine73 & 0xFFFF
   5874          
   5875          	pConfig->channel = chRsv;
   \                     ??CrossCallReturnLabel_790:
   \   00011E   A3           INC     DPTR
   \   00011F   A3           INC     DPTR
   \   000120   EE           MOV     A,R6
   \   000121   12....       LCALL   ?Subroutine73 & 0xFFFF
   5876          	pConfig->panId = panIdRsv;
   \                     ??CrossCallReturnLabel_791:
   \   000124   E5..         MOV     A,?V0 + 6
   \   000126   F0           MOVX    @DPTR,A
   \   000127   A3           INC     DPTR
   \   000128   E5..         MOV     A,?V0 + 7
   \   00012A   F0           MOVX    @DPTR,A
   5877          
   5878          	macParameterSet();
   \   00012B                ; Setup parameters for call to function macParameterSet
   \   00012B   12....       LCALL   ??macParameterSet?relay
   5879          	
   5880          
   5881          }
   \   00012E   7F0C         MOV     R7,#0xc
   \   000130   02....       LJMP    ?BANKED_LEAVE_XDATA

   \                                 In  segment BANKED_CODE, align 1, keep-with-next
   \                     ?Subroutine73:
   \   000000   F0           MOVX    @DPTR,A
   \   000001                REQUIRE ??Subroutine337_0
   \   000001                ; // Fall through to label ??Subroutine337_0

   \                                 In  segment BANKED_CODE, align 1, keep-with-next
   \                     ??Subroutine337_0:
   \   000000   12....       LCALL   ?Subroutine207 & 0xFFFF
   \                     ??CrossCallReturnLabel_794:
   \   000003   22           RET

   \                                 In  segment BANKED_CODE, align 1, keep-with-next
   \                     ?Subroutine207:
   \   000000   12....       LCALL   ?Subroutine246 & 0xFFFF
   \                     ??CrossCallReturnLabel_797:
   \   000003   A3           INC     DPTR
   \   000004   A3           INC     DPTR
   \   000005   22           RET
   5882          

   \                                 In  segment BANKED_CODE, align 1, keep-with-next
   5883          MAC_DATAREQ_API void ChanScan(macRx_t* pck)
   \                     ChanScan:
   5884          {
   \   000000   74F5         MOV     A,#-0xb
   \   000002   12....       LCALL   ?BANKED_ENTER_XDATA
   \   000005                ; Saved register size: 11
   \   000005                ; Auto size: 16
   \   000005   74F0         MOV     A,#-0x10
   \   000007   12....       LCALL   ?ALLOC_XSTACK8
   5885          	//uint16 chRsv;
   5886          	//uint16 rssiSum=0;
   5887          	//uint8 tm=0;
   5888          	int8 rssiBuf[16];
   5889          	uint8 regRsv=0;
   5890          	//uint8 bufIndex=0;
   5891          
   5892          /*	
   5893          	chRsv = pConfig->channel;
   5894          
   5895          	pConfig->channel = RF_CHANNEL;
   5896          
   5897          	while(pConfig->channel<(RF_CHANNEL+15))
   5898          	{
   5899          		macExRxDisable();
   5900          		macParameterSet(pConfig);
   5901          		macExRxEnable();
   5902          
   5903          		rssiSum=0;
   5904          		ScanDelay(5000);		
   5905          
   5906          		for(tm=0;tm<50;tm++)
   5907          		{
   5908          			while(!(RSSISTAT&0x01));
   5909          			rssiSum+=RSSI;
   5910          		}
   5911          
   5912          		prtBuf[bufIndex++] = (rssiSum/50);
   5913          		pConfig->channel++;
   5914          	}
   5915          */
   5916          	//FRMCTRL0 |= 0x10;
   5917          	regRsv = FRMCTRL0;
   \   00000A   906189       MOV     DPTR,#0x6189
   \   00000D   E0           MOVX    A,@DPTR
   \   00000E   FE           MOV     R6,A
   5918          	FRMCTRL0 |= 0x10;
   \   00000F   E0           MOVX    A,@DPTR
   \   000010   D2E4         SETB    0xE0 /* A   */.4
   \   000012   F0           MOVX    @DPTR,A
   5919          	CalcEachRssi(rssiBuf,300,800);
   \   000013                ; Setup parameters for call to function CalcEachRssi
   \   000013   75..20       MOV     ?V0 + 0,#0x20
   \   000016   75..03       MOV     ?V0 + 1,#0x3
   \   000019   78..         MOV     R0,#?V0 + 0
   \   00001B   12....       LCALL   ?PUSH_XSTACK_I_TWO
   \   00001E   7C2C         MOV     R4,#0x2c
   \   000020   7D01         MOV     R5,#0x1
   \   000022   7402         MOV     A,#0x2
   \   000024   12....       LCALL   ?XSTACK_DISP0_8
   \   000027   AA82         MOV     R2,DPL
   \   000029   AB83         MOV     R3,DPH
   \   00002B   12....       LCALL   ??CalcEachRssi?relay
   \   00002E   7402         MOV     A,#0x2
   \   000030   12....       LCALL   ?DEALLOC_XSTACK8
   5920          	 FRMCTRL0 = regRsv;
   \   000033   EE           MOV     A,R6
   \   000034   906189       MOV     DPTR,#0x6189
   \   000037   12....       LCALL   ?Subroutine233 & 0xFFFF
   \                     ??CrossCallReturnLabel_401:
   \   00003A   7010         JNZ     ??ChanScan_0
   \   00003C   90....       MOV     DPTR,#gBUartBuf
   \   00003F   74AA         MOV     A,#-0x56
   \   000041   F0           MOVX    @DPTR,A
   \   000042   A3           INC     DPTR
   \   000043   740F         MOV     A,#0xf
   \   000045   F0           MOVX    @DPTR,A
   \   000046   90....       MOV     DPTR,#gBUartTotalByte
   \   000049   7402         MOV     A,#0x2
   \   00004B   F0           MOVX    @DPTR,A
   \                     ??ChanScan_0:
   \   00004C   12....       LCALL   ?Subroutine46 & 0xFFFF
   \                     ??CrossCallReturnLabel_67:
   \   00004F   74C3         MOV     A,#-0x3d
   \   000051   12....       LCALL   ?Subroutine161 & 0xFFFF
   \                     ??CrossCallReturnLabel_308:
   \   000054   12....       LCALL   ?Subroutine141 & 0xFFFF
   \                     ??CrossCallReturnLabel_262:
   \   000057   A982         MOV     R1,DPL
   \   000059   AA83         MOV     R2,DPH
   \   00005B   89..         MOV     ?V0 + 0,R1
   \   00005D   8A..         MOV     ?V0 + 1,R2
   \   00005F   75..00       MOV     ?V0 + 2,#0x0
   \   000062   78..         MOV     R0,#?V0 + 0
   \   000064   12....       LCALL   ?PUSH_XSTACK_I_THREE
   \   000067   7C0F         MOV     R4,#0xf
   \   000069   7D00         MOV     R5,#0x0
   \   00006B   90....       MOV     DPTR,#gBUartTotalByte
   \   00006E   E0           MOVX    A,@DPTR
   \   00006F   F8           MOV     R0,A
   \   000070   74..         MOV     A,#gBUartBuf & 0xff
   \   000072   28           ADD     A,R0
   \   000073   FA           MOV     R2,A
   \   000074   74..         MOV     A,#(gBUartBuf >> 8) & 0xff
   \   000076   3400         ADDC    A,#0x0
   \   000078   FB           MOV     R3,A
   \   000079   12....       LCALL   ??Subroutine338_0 & 0xFFFF
   \                     ??CrossCallReturnLabel_808:
   \   00007C   12....       LCALL   ?DEALLOC_XSTACK8
   \   00007F   90....       MOV     DPTR,#gBUartTotalByte
   \   000082   E0           MOVX    A,@DPTR
   \   000083   240F         ADD     A,#0xf
   \   000085   F0           MOVX    @DPTR,A
   5921          
   5922          	//FRMCTRL0 &= 0xEF;
   5923          
   5924          	//pConfig->autoChan = InqureAutoChan(rssiBuf);
   5925          
   5926          	LoadUartArray(UART_CC_RTSCAN,rssiBuf,15);
                 	                             ^
Warning[Pe167]: argument of type "int8 *" is incompatible with parameter of
          type "unsigned char *"

  static int8 s_ready=0; 
              ^
"C:\Users\freeman\Documents\work\NBK\Canon\Nbk600EX - RF\Components\mac\low_level\srf04\mac_rf.c",69  Warning[Pe550]: 
          variable "s_ready" was set but never used

  static void UartSendByte(char aByte)
              ^
"C:\Users\freeman\Documents\work\NBK\Canon\Nbk600EX - RF\Components\mac\low_level\srf04\mac_rf.c",5265  Warning[Pe177]: 
          function "UartSendByte" was declared but never referenced

  static void macPreDelay(uint16 microSecs)
              ^
"C:\Users\freeman\Documents\work\NBK\Canon\Nbk600EX - RF\Components\mac\low_level\srf04\mac_rf.c",4428  Warning[Pe177]: 
          function "macPreDelay" was declared but never referenced

  static void macRfReceiveOn(void)
              ^
"C:\Users\freeman\Documents\work\NBK\Canon\Nbk600EX - RF\Components\mac\low_level\srf04\mac_rf.c",540  Warning[Pe177]: 
          function "macRfReceiveOn" was declared but never referenced

  static void macSetChan(uint8 chan)
              ^
"C:\Users\freeman\Documents\work\NBK\Canon\Nbk600EX - RF\Components\mac\low_level\srf04\mac_rf.c",834  Warning[Pe177]: 
          function "macSetChan" was declared but never referenced

  static void macSetPanID(uint16 panID)
              ^
"C:\Users\freeman\Documents\work\NBK\Canon\Nbk600EX - RF\Components\mac\low_level\srf04\mac_rf.c",848  Warning[Pe177]: 
          function "macSetPanID" was declared but never referenced

  static uint16 FirstCheckAndAlloc(void)
                ^
"C:\Users\freeman\Documents\work\NBK\Canon\Nbk600EX - RF\Components\mac\low_level\srf04\mac_rf.c",1956  Warning[Pe177]: 
          function "FirstCheckAndAlloc" was declared but never referenced

  static void macExMcuWaitMs(uint16 msec)
              ^
"C:\Users\freeman\Documents\work\NBK\Canon\Nbk600EX - RF\Components\mac\low_level\srf04\mac_rf.c",2897  Warning[Pe177]: 
          function "macExMcuWaitMs" was declared but never referenced

  static unsigned char WlMultiTimeConver(unsigned char rec)
                       ^
"C:\Users\freeman\Documents\work\NBK\Canon\Nbk600EX - RF\Components\mac\low_level\srf04\mac_rf.c",3256  Warning[Pe177]: 
          function "WlMultiTimeConver" was declared but never referenced

  static void SetWakeupInt(void)
              ^
"C:\Users\freeman\Documents\work\NBK\Canon\Nbk600EX - RF\Components\mac\low_level\srf04\mac_rf.c",4157  Warning[Pe177]: 
          function "SetWakeupInt" was declared but never referenced

  static void ChanScanRollPoling(void)
              ^
"C:\Users\freeman\Documents\work\NBK\Canon\Nbk600EX - RF\Components\mac\low_level\srf04\mac_rf.c",5733  Warning[Pe177]: 
          function "ChanScanRollPoling" was declared but never referenced

  			devSBuf[bufIndex++] = CalcSum(devSBuf+2,bufIndex-2);
  			^
"C:\Users\freeman\Documents\work\NBK\Canon\Nbk600EX - RF\Components\mac\low_level\srf04\mac_rf.c",3112  Warning[Pa081]: 
          undefined behavior: the order of read and modification of variable
          "bufIndex" (or a value reached by some form of indirection through
          it) is undefined in this statement

  		devSBuf[bufIndex++] = CalcSum(devSBuf+2,bufIndex-2);
  		^
"C:\Users\freeman\Documents\work\NBK\Canon\Nbk600EX - RF\Components\mac\low_level\srf04\mac_rf.c",3325  Warning[Pa081]: 
          undefined behavior: the order of read and modification of variable
          "bufIndex" (or a value reached by some form of indirection through
          it) is undefined in this statement
   5927          	TrigerUartSend();
   \   000086                ; Setup parameters for call to function TrigerUartSend
   \   000086   12....       LCALL   ??TrigerUartSend?relay
   5928          
   5929          	//macParameterSet();
   5930          
   5931          	//if(RFLS_COORDINATOR_M==pConfig->isRflsCoordinator)
   5932          	if(BRIDGE_MST_NORMAL==g_mstHold)
   \   000089   90....       MOV     DPTR,#g_mstHold
   \   00008C   E0           MOVX    A,@DPTR
   \   00008D   700A         JNZ     ??ChanScan_1
   5933          	{
   5934          		veriPckSendCallback=&macRollPolingProc;
   \   00008F   12....       LCALL   ?Subroutine154 & 0xFFFF
   5935          		osal_start_timerEx( macEx_taskId, MACEX_VERI_SEND_INQURE, 50);
   \                     ??CrossCallReturnLabel_722:
   \   000092                ; Setup parameters for call to function osal_start_timerEx
   \   000092   7C32         MOV     R4,#0x32
   \   000094   12....       LCALL   ??Subroutine339_0 & 0xFFFF
   5936          	}else
   \                     ??CrossCallReturnLabel_815:
   \   000097   8010         SJMP    ??ChanScan_2
   5937          	{
   5938          		//osal_clear_event(macEx_taskId,MACEX_LINK_TIMEOUT_EVENT);
   5939          		osal_start_timerEx(macEx_taskId, MACEX_LINK_TIMEOUT_EVENT,5000);
   \                     ??ChanScan_1:
   \   000099                ; Setup parameters for call to function osal_start_timerEx
   \   000099   7C88         MOV     R4,#-0x78
   \   00009B   7D13         MOV     R5,#0x13
   \   00009D   7A04         MOV     R2,#0x4
   \   00009F   12....       LCALL   ??Subroutine341_0 & 0xFFFF
   5940          		veriPckSendCallback = NULL;
   \                     ??CrossCallReturnLabel_830:
   \   0000A2   90....       MOV     DPTR,#veriPckSendCallback
   \   0000A5   E4           CLR     A
   \   0000A6   F0           MOVX    @DPTR,A
   \   0000A7   A3           INC     DPTR
   \   0000A8   F0           MOVX    @DPTR,A
   5941          	}
   5942          	
   5943          
   5944          	
   5945          }
   \                     ??ChanScan_2:
   \   0000A9   7410         MOV     A,#0x10
   \   0000AB   02....       LJMP    ??Subroutine278_0 & 0xFFFF
   5946          

   \                                 In  segment BANKED_CODE, align 1, keep-with-next
   5947          MAC_DATAREQ_API void LinkedShotRel(macRx_t* pck)
   \                     LinkedShotRel:
   5948          {
   \   000000   74F6         MOV     A,#-0xa
   \   000002   12....       LCALL   ?BANKED_ENTER_XDATA
   \   000005                ; Saved register size: 10
   \   000005                ; Auto size: 0
   5949          	static uint8 relCnt=0;
   5950          	static uint8 linkRelCnt = 0;
   5951          	if(relCnt++<9)
   \   000005   90....       MOV     DPTR,#??relCnt
   \   000008   12....       LCALL   ?Subroutine98 & 0xFFFF
   \                     ??CrossCallReturnLabel_163:
   \   00000B   5046         JNC     ??LinkedShotRel_0
   5952          	{
   5953          		pConfig->frameHead = 0x8841;
   \   00000D   12....       LCALL   ?Subroutine20 & 0xFFFF
   5954          		pConfig->destAddr = 0xFFFF;
   5955          		//pConfig->myAddr = 0x000F;
   5956          		pTxData[0] = 0x06;
   \                     ??CrossCallReturnLabel_19:
   \   000010   7406         MOV     A,#0x6
   \   000012   12....       LCALL   ?Subroutine156 & 0xFFFF
   5957          		pTxData[1] = 0x00;//0x01;
   5958          		pTxData[2] = 0xFF;//0x01;
   5959          		pTxData[3] = 0x4A;
   \                     ??CrossCallReturnLabel_293:
   \   000015   744A         MOV     A,#0x4a
   \   000017   F0           MOVX    @DPTR,A
   5960          		pTxData[4] = 0x01;//0x01;
   \   000018   A3           INC     DPTR
   \   000019   7401         MOV     A,#0x1
   \   00001B   F0           MOVX    @DPTR,A
   5961          		pTxData[5] = linkRelCnt+1;//0x07;
   \   00001C   90....       MOV     DPTR,#??linkRelCnt
   \   00001F   E0           MOVX    A,@DPTR
   \   000020   04           INC     A
   \   000021   90....       MOV     DPTR,#pTxData + 5
   \   000024   12....       LCALL   ?Subroutine225 & 0xFFFF
   5962          		g_sendLen = 6;
   \                     ??CrossCallReturnLabel_888:
   \   000027   7406         MOV     A,#0x6
   \   000029   12....       LCALL   ??Subroutine346_0 & 0xFFFF
   5963          		//macRfSendPacket(pConfig->destAddr, pTxData, g_sendLen,NULL,0);
   5964          		macRfSendPacket(pConfig->destAddr, pTxData, g_sendLen,NULL,0,SEND_MODE_UNSLOTTED);
   \                     ??CrossCallReturnLabel_855:
   \   00002C   12....       LCALL   ?PUSH_XSTACK_I_ONE
   \   00002F   75..00       MOV     ?V0 + 0,#0x0
   \   000032   78..         MOV     R0,#?V0 + 0
   \   000034   12....       LCALL   ?PUSH_XSTACK_I_ONE
   \   000037   E4           CLR     A
   \   000038   F5..         MOV     ?V0 + 1,A
   \   00003A   78..         MOV     R0,#?V0 + 0
   \   00003C   12....       LCALL   ?PUSH_XSTACK_I_TWO
   \   00003F   7906         MOV     R1,#0x6
   \   000041   7C..         MOV     R4,#pTxData & 0xff
   \   000043   7D..         MOV     R5,#(pTxData >> 8) & 0xff
   \   000045   8A82         MOV     DPL,R2
   \   000047   8B83         MOV     DPH,R3
   \   000049   12....       LCALL   ??Subroutine323_0 & 0xFFFF
   \                     ??CrossCallReturnLabel_707:
   \   00004C   12....       LCALL   ?DEALLOC_XSTACK8
   5965          		//relCnt++;
   5966          		osal_start_timerEx(macEx_taskId, MACEX_VERI_SEND_INQURE,7);		
   \   00004F                ; Setup parameters for call to function osal_start_timerEx
   \   00004F   7C07         MOV     R4,#0x7
   \   000051   801E         SJMP    ??LinkedShotRel_1
   5967          	}else
   5968          	{
   5969          		relCnt = 0;
   \                     ??LinkedShotRel_0:
   \   000053   E4           CLR     A
   \   000054   F0           MOVX    @DPTR,A
   5970          		//veriPckSendCallback=&macRollPolingProc;
   5971          		linkRelCnt++;
   \   000055   90....       MOV     DPTR,#??linkRelCnt
   \   000058   E0           MOVX    A,@DPTR
   \   000059   04           INC     A
   \   00005A   12....       LCALL   ?Subroutine76 & 0xFFFF
   5972          		if(RFLS_COORDINATOR_M==pConfig->isRflsCoordinator)
   \                     ??CrossCallReturnLabel_841:
   \   00005D   E0           MOVX    A,@DPTR
   \   00005E   90....       MOV     DPTR,#veriPckSendCallback
   \   000061   7008         JNZ     ??LinkedShotRel_2
   5973          		{
   5974          #ifdef SEND_UNIFIED
   5975          			veriPckSendCallback = &macRollPolingProc;
   \   000063   74..         MOV     A,#??macRollPolingProc?relay & 0xff
   \   000065   F0           MOVX    @DPTR,A
   \   000066   A3           INC     DPTR
   \   000067   74..         MOV     A,#(??macRollPolingProc?relay >> 8) & 0xff
   \   000069   8003         SJMP    ??LinkedShotRel_3
   5976          #else
   5977          			veriPckSendCallback = &LinkedModeRollPoling;
   5978          #endif
   5979          		}else
   5980          		{
   5981          			veriPckSendCallback = NULL;
   \                     ??LinkedShotRel_2:
   \   00006B   E4           CLR     A
   \   00006C   F0           MOVX    @DPTR,A
   \   00006D   A3           INC     DPTR
   \                     ??LinkedShotRel_3:
   \   00006E   F0           MOVX    @DPTR,A
   5982          		}
   5983          		osal_start_timerEx( macEx_taskId, MACEX_VERI_SEND_INQURE, 200);	
   \   00006F                ; Setup parameters for call to function osal_start_timerEx
   \   00006F   7CC8         MOV     R4,#-0x38
   5984          		
   5985          	}
   \                     ??LinkedShotRel_1:
   \   000071   02....       LJMP    ??Subroutine333_0 & 0xFFFF
   5986          }

   \                                 In  segment BANKED_CODE, align 1, keep-with-next
   \                     ?Subroutine76:
   \   000000   F0           MOVX    @DPTR,A
   \   000001                REQUIRE ??Subroutine344_0
   \   000001                ; // Fall through to label ??Subroutine344_0

   \                                 In  segment BANKED_CODE, align 1, keep-with-next
   \                     ?Subroutine98:
   \   000000   12....       LCALL   ?Subroutine199 & 0xFFFF
   \                     ??CrossCallReturnLabel_364:
   \   000003   9409         SUBB    A,#0x9
   \   000005   22           RET

   \                                 In  segment XDATA_Z, align 1, keep-with-next
   \                     ??relCnt:
   \   000000                DS 1
   \   000001                REQUIRE __INIT_XDATA_Z

   \                                 In  segment XDATA_Z, align 1, keep-with-next
   \                     ??linkRelCnt:
   \   000000                DS 1
   \   000001                REQUIRE __INIT_XDATA_Z
   5987          

   \                                 In  segment BANKED_CODE, align 1, keep-with-next
   5988          MAC_DATAREQ_API void DevShotRel(macRx_t* pck)
   \                     DevShotRel:
   5989          {
   \   000000   74F6         MOV     A,#-0xa
   \   000002   12....       LCALL   ?BANKED_ENTER_XDATA
   \   000005                ; Saved register size: 10
   \   000005                ; Auto size: 0
   5990          	static uint8 relCnt=0;
   5991          	static uint8 linkRelCnt = 0;
   5992          	if(relCnt++<9)
   \   000005   90....       MOV     DPTR,#??relCnt_1
   \   000008   12....       LCALL   ?Subroutine98 & 0xFFFF
   \                     ??CrossCallReturnLabel_164:
   \   00000B   504C         JNC     ??DevShotRel_0
   5993          	{
   5994          		pConfig->frameHead = 0x8841;
   \   00000D   12....       LCALL   ?Subroutine19 & 0xFFFF
   5995          		pConfig->destAddr = 0xFFFF;
   5996          		//pConfig->myAddr = 0x000F;
   5997          		pTxData[0] = 0x05;
   5998          		pTxData[1] = 0x00;//0x01;
   5999          		pTxData[2] = 0x49;//0x01;
   \                     ??CrossCallReturnLabel_15:
   \   000010   7449         MOV     A,#0x49
   \   000012   F0           MOVX    @DPTR,A
   6000          		pTxData[3] = g_devCmd;
   \   000013   90....       MOV     DPTR,#g_devCmd
   \   000016   E0           MOVX    A,@DPTR
   \   000017   90....       MOV     DPTR,#pTxData + 3
   \   00001A   F0           MOVX    @DPTR,A
   6001          		pTxData[4] =  linkRelCnt+1;//0x01;
   \   00001B   90....       MOV     DPTR,#??linkRelCnt_1
   \   00001E   E0           MOVX    A,@DPTR
   \   00001F   04           INC     A
   \   000020   90....       MOV     DPTR,#pTxData + 4
   \   000023   12....       LCALL   ??Subroutine349_0 & 0xFFFF
   6002          		//pTxData[5] = linkRelCnt+1;//0x07;
   6003          		g_sendLen = 5;
   6004          		//macRfSendPacket(pConfig->destAddr, pTxData, g_sendLen,NULL,0);
   6005          		macRfSendPacket(pConfig->destAddr, pTxData, g_sendLen,NULL,0,SEND_MODE_UNSLOTTED);
   \                     ??CrossCallReturnLabel_882:
   \   000026   12....       LCALL   ?PUSH_XSTACK_I_ONE
   \   000029   75..00       MOV     ?V0 + 0,#0x0
   \   00002C   78..         MOV     R0,#?V0 + 0
   \   00002E   12....       LCALL   ?PUSH_XSTACK_I_ONE
   \   000031   E4           CLR     A
   \   000032   F5..         MOV     ?V0 + 1,A
   \   000034   78..         MOV     R0,#?V0 + 0
   \   000036   12....       LCALL   ?PUSH_XSTACK_I_TWO
   \   000039   7905         MOV     R1,#0x5
   \   00003B   7C..         MOV     R4,#pTxData & 0xff
   \   00003D   7D..         MOV     R5,#(pTxData >> 8) & 0xff
   \   00003F   8A82         MOV     DPL,R2
   \   000041   8B83         MOV     DPH,R3
   \   000043   12....       LCALL   ??Subroutine323_0 & 0xFFFF
   \                     ??CrossCallReturnLabel_708:
   \   000046   12....       LCALL   ?DEALLOC_XSTACK8
   6006          		//relCnt++;
   6007          		osal_start_timerEx(macEx_taskId, MACEX_VERI_SEND_INQURE,5+(osal_rand()&0x03));		
   \   000049                ; Setup parameters for call to function osal_rand
   \   000049   12....       LCALL   ??Subroutine304_0 & 0xFFFF
   6008          	}else
   \                     ??CrossCallReturnLabel_589:
   \   00004C   5403         ANL     A,#0x3
   \   00004E   2405         ADD     A,#0x5
   \   000050   FC           MOV     R4,A
   \   000051   7D00         MOV     R5,#0x0
   \   000053   7A02         MOV     R2,#0x2
   \   000055   7B00         MOV     R3,#0x0
   \   000057   8014         SJMP    ??DevShotRel_1
   6009          	{
   6010          		relCnt = 0;
   \                     ??DevShotRel_0:
   \   000059   E4           CLR     A
   \   00005A   F0           MOVX    @DPTR,A
   6011          		//veriPckSendCallback=&macRollPolingProc;
   6012          		linkRelCnt++;
   \   00005B   90....       MOV     DPTR,#??linkRelCnt_1
   \   00005E   E0           MOVX    A,@DPTR
   \   00005F   04           INC     A
   \   000060   12....       LCALL   ??Subroutine274_0 & 0xFFFF
   6013          		/*
   6014          		if(RFLS_COORDINATOR_M==pConfig->isRflsCoordinator)
   6015          		{
   6016          #ifdef SEND_UNIFIED
   6017          			veriPckSendCallback = &macRollPolingProc;
   6018          #else
   6019          			veriPckSendCallback = &LinkedModeRollPoling;
   6020          #endif
   6021          		}else
   6022          		{
   6023          			veriPckSendCallback = NULL;
   6024          		}*/
   6025          		veriPckSendCallback = NULL;
   \                     ??CrossCallReturnLabel_464:
   \   000063   E4           CLR     A
   \   000064   F0           MOVX    @DPTR,A
   \   000065   A3           INC     DPTR
   \   000066   F0           MOVX    @DPTR,A
   6026          		osal_start_timerEx( macEx_taskId, MACEX_VERI_SEND_INQURE, 200);	
   \   000067                ; Setup parameters for call to function osal_start_timerEx
   \   000067   7CC8         MOV     R4,#-0x38
   \   000069   FD           MOV     R5,A
   \   00006A   7A02         MOV     R2,#0x2
   \   00006C   FB           MOV     R3,A
   6027          		
   6028          	}
   \                     ??DevShotRel_1:
   \   00006D   02....       LJMP    ??Subroutine336_0 & 0xFFFF
   6029          
   6030          }

   \                                 In  segment XDATA_Z, align 1, keep-with-next
   \                     ??relCnt_1:
   \   000000                DS 1
   \   000001                REQUIRE __INIT_XDATA_Z

   \                                 In  segment XDATA_Z, align 1, keep-with-next
   \                     ??linkRelCnt_1:
   \   000000                DS 1
   \   000001                REQUIRE __INIT_XDATA_Z
   6031          

   \                                 In  segment BANKED_CODE, align 1, keep-with-next
   6032          MAC_DATAREQ_API void InqureConfirm(macRx_t* pck)
   \                     InqureConfirm:
   6033          {
   \   000000   74F6         MOV     A,#-0xa
   \   000002   12....       LCALL   ?BANKED_ENTER_XDATA
   \   000005                ; Saved register size: 10
   \   000005                ; Auto size: 0
   6034          	basicRfConfig.ackRequest = 1;
   \   000005   90....       MOV     DPTR,#basicRfConfig + 6
   \   000008   7401         MOV     A,#0x1
   \   00000A   12....       LCALL   ?Subroutine85 & 0xFFFF
   6035          	pConfig->frameHead = 0xc821;
   \                     ??CrossCallReturnLabel_472:
   \   00000D   7421         MOV     A,#0x21
   \   00000F   12....       LCALL   ?Subroutine22 & 0xFFFF
   6036          	pConfig->destAddr = 0x000f;
   6037          	pConfig->myAddr = 0xFFFF;
   6038          	//pConfig->myAddr = ADDR;
   6039          	osal_cpyExtAddr(pTxData,g_extAddr);
   6040          	pTxData[8]=0x95;
   \                     ??CrossCallReturnLabel_24:
   \   000012   7495         MOV     A,#-0x6b
   \   000014   12....       LCALL   ?Subroutine160 & 0xFFFF
   6041          	//pTxData[9]=0x02;
   6042          	//if(MSTDEV_MODE_DEV==g_isMaster)
   6043          	if(CMD_MODE_RF_SLA==g_isMaster)
   \                     ??CrossCallReturnLabel_305:
   \   000017   6402         XRL     A,#0x2
   \   000019   700B         JNZ     ??InqureConfirm_0
   6044          	{
   6045          		pTxData[9]=basicRfConfig.group+2;
   \   00001B   90....       MOV     DPTR,#basicRfConfig + 295
   \   00001E   E0           MOVX    A,@DPTR
   \   00001F   2402         ADD     A,#0x2
   \   000021   90....       MOV     DPTR,#pTxData + 9
   \   000024   8005         SJMP    ??InqureConfirm_1
   6046          	}else
   6047          	{
   6048          		pTxData[9]=0x01;
   \                     ??InqureConfirm_0:
   \   000026   90....       MOV     DPTR,#pTxData + 9
   \   000029   7401         MOV     A,#0x1
   6049          	}
   \                     ??InqureConfirm_1:
   \   00002B   12....       LCALL   ?Subroutine225 & 0xFFFF
   6050          	g_sendLen = 10;
   \                     ??CrossCallReturnLabel_889:
   \   00002E   740A         MOV     A,#0xa
   \   000030   12....       LCALL   ??Subroutine346_0 & 0xFFFF
   6051          	//macRfSendPacket(pConfig->destAddr, pTxData, g_sendLen,NULL,0);
   6052          	macRfSendPacket(pConfig->destAddr, pTxData, g_sendLen,NULL,0,SEND_MODE_UNSLOTTED);
   \                     ??CrossCallReturnLabel_856:
   \   000033   12....       LCALL   ?PUSH_XSTACK_I_ONE
   \   000036   75..00       MOV     ?V0 + 0,#0x0
   \   000039   78..         MOV     R0,#?V0 + 0
   \   00003B   12....       LCALL   ?PUSH_XSTACK_I_ONE
   \   00003E   E4           CLR     A
   \   00003F   F5..         MOV     ?V0 + 1,A
   \   000041   78..         MOV     R0,#?V0 + 0
   \   000043   12....       LCALL   ?PUSH_XSTACK_I_TWO
   \   000046   790A         MOV     R1,#0xa
   \   000048   12....       LCALL   ??Subroutine322_0 & 0xFFFF
   \                     ??CrossCallReturnLabel_693:
   \   00004B   12....       LCALL   ?DEALLOC_XSTACK8
   6053          	//veriPckSendCallback = NULL;
   6054          	veriPckSendCallback = &macRollPolingProc;
   \   00004E   12....       LCALL   ?Subroutine154 & 0xFFFF
   6055          	osal_start_timerEx( macEx_taskId, MACEX_VERI_SEND_INQURE, 200);	
   \                     ??CrossCallReturnLabel_723:
   \   000051                ; Setup parameters for call to function osal_start_timerEx
   \   000051   7CC8         MOV     R4,#-0x38
   \   000053   02....       LJMP    ??Subroutine333_0 & 0xFFFF
   6056          }
   6057          

   \                                 In  segment BANKED_CODE, align 1, keep-with-next
   6058          MAC_DATAREQ_API void ReConfirm(macRx_t* pck)
   \                     ReConfirm:
   6059          {
   \   000000   74F6         MOV     A,#-0xa
   \   000002   12....       LCALL   ?BANKED_ENTER_XDATA
   \   000005                ; Saved register size: 10
   \   000005                ; Auto size: 0
   6060          	pConfig->frameHead = 0x8861;
   \   000005   90....       MOV     DPTR,#pConfig
   \   000008   E0           MOVX    A,@DPTR
   \   000009   12....       LCALL   ?Subroutine35 & 0xFFFF
   6061          	pConfig->destAddr = 0x000f;
   \                     ??CrossCallReturnLabel_49:
   \   00000C   8A82         MOV     DPL,R2
   \   00000E   8B83         MOV     DPH,R3
   \   000010   12....       LCALL   ?Subroutine165 & 0xFFFF
   6062          	//pConfig->myAddr = ADDR;
   6063          	pTxData[0] = 0x9C;
   \                     ??CrossCallReturnLabel_742:
   \   000013   90....       MOV     DPTR,#pTxData
   \   000016   749C         MOV     A,#-0x64
   \   000018   12....       LCALL   ?Subroutine148 & 0xFFFF
   6064          	g_sendLen = 1;
   6065          	//macRfSendPacket(pConfig->destAddr, pTxData, g_sendLen,NULL,0);	
   6066          	macRfSendPacket(pConfig->destAddr, pTxData, g_sendLen,NULL,0,SEND_MODE_UNSLOTTED);	
   \                     ??CrossCallReturnLabel_279:
   \   00001B   12....       LCALL   ?PUSH_XSTACK_I_ONE
   \   00001E   75..00       MOV     ?V0 + 0,#0x0
   \   000021   78..         MOV     R0,#?V0 + 0
   \   000023   12....       LCALL   ?PUSH_XSTACK_I_ONE
   \   000026   E4           CLR     A
   \   000027   F5..         MOV     ?V0 + 1,A
   \   000029   78..         MOV     R0,#?V0 + 0
   \   00002B   12....       LCALL   ?PUSH_XSTACK_I_TWO
   \   00002E   7901         MOV     R1,#0x1
   \   000030   02....       LJMP    ?Subroutine1 & 0xFFFF
   6067          	veriPckSendCallback = NULL;
   6068          }
   6069          

   \                                 In  segment BANKED_CODE, align 1, keep-with-next
   6070          MAC_DATAREQ_API void ReadyInfo(macRx_t* pck)
   \                     ReadyInfo:
   6071          {
   \   000000   74F6         MOV     A,#-0xa
   \   000002   12....       LCALL   ?BANKED_ENTER_XDATA
   \   000005                ; Saved register size: 10
   \   000005                ; Auto size: 0
   6072          	pConfig->frameHead = 0x8841;
   \   000005   12....       LCALL   ?Subroutine15 & 0xFFFF
   6073          	pConfig->destAddr = 0xFFFF;
   6074          	//pConfig->myAddr = 0x0000;
   6075          	pTxData[0] = 0x05;
   6076          	pTxData[1] = 0x00;
   6077          	//if(MSTDEV_MODE_DEV==g_isMaster)
   6078          	if(CMD_MODE_RF_SLA==g_isMaster)
   \                     ??CrossCallReturnLabel_10:
   \   000008   7005         JNZ     ??ReadyInfo_0
   6079          	{
   6080          		pTxData[2] = 0x20;
   \   00000A   12....       LCALL   ?Subroutine36 & 0xFFFF
   6081          		pTxData[3] = pConfig->group;//0x03;
   6082          	}else
   \                     ??CrossCallReturnLabel_857:
   \   00000D   8006         SJMP    ??ReadyInfo_1
   6083          	{
   6084          		pTxData[2] = 0xFF;
   \                     ??ReadyInfo_0:
   \   00000F   74FF         MOV     A,#-0x1
   \   000011   F0           MOVX    @DPTR,A
   6085          		pTxData[3] = 0x33;//0x03;
   \   000012   A3           INC     DPTR
   \   000013   7433         MOV     A,#0x33
   6086          	}
   \                     ??ReadyInfo_1:
   \   000015   12....       LCALL   ??Subroutine348_0 & 0xFFFF
   6087          	pTxData[4] = 0x01;			//this indicate the 
   6088          	g_sendLen = 5;
   6089          	//macRfSendPacket(pConfig->destAddr, pTxData, g_sendLen,NULL,0);
   6090          	macRfSendPacket(pConfig->destAddr, pTxData, g_sendLen,NULL,0,SEND_MODE_UNSLOTTED);
   \                     ??CrossCallReturnLabel_880:
   \   000018   12....       LCALL   ?PUSH_XSTACK_I_ONE
   \   00001B   75..00       MOV     ?V0 + 0,#0x0
   \   00001E   78..         MOV     R0,#?V0 + 0
   \   000020   12....       LCALL   ?PUSH_XSTACK_I_ONE
   \   000023   E4           CLR     A
   \   000024   F5..         MOV     ?V0 + 1,A
   \   000026   78..         MOV     R0,#?V0 + 0
   \   000028   12....       LCALL   ?PUSH_XSTACK_I_TWO
   \   00002B   7905         MOV     R1,#0x5
   \   00002D   7C..         MOV     R4,#pTxData & 0xff
   \   00002F   7D..         MOV     R5,#(pTxData >> 8) & 0xff
   \   000031   8A82         MOV     DPL,R2
   \   000033   8B83         MOV     DPH,R3
   \   000035   12....       LCALL   ??Subroutine323_0 & 0xFFFF
   \                     ??CrossCallReturnLabel_709:
   \   000038   12....       LCALL   ?DEALLOC_XSTACK8
   6091          	//veriPckSendCallback = NULL;
   6092          	veriPckSendCallback = &ReadyInfo;
   \   00003B   12....       LCALL   ?Subroutine137 & 0xFFFF
   6093          	osal_start_timerEx( macEx_taskId, MACEX_VERI_SEND_INQURE, (60+(osal_rand()&0x0f)));	
   \                     ??CrossCallReturnLabel_251:
   \   00003E   243C         ADD     A,#0x3c
   \   000040   02....       LJMP    ?Subroutine7 & 0xFFFF
   6094          	//osal_start_timerEx(macEx_taskId, MACEX_VERI_SEND_INQURE,2);	
   6095          }

   \                                 In  segment BANKED_CODE, align 1, keep-with-next
   \                     ?Subroutine36:
   \   000000   7420         MOV     A,#0x20
   \   000002                REQUIRE ??Subroutine347_0
   \   000002                ; // Fall through to label ??Subroutine347_0

   \                                 In  segment BANKED_CODE, align 1, keep-with-next
   \                     ?Subroutine15:
   \   000000   12....       LCALL   ?Subroutine182 & 0xFFFF
   \                     ??CrossCallReturnLabel_346:
   \   000003   90....       MOV     DPTR,#g_isMaster
   \   000006   E0           MOVX    A,@DPTR
   \   000007   6402         XRL     A,#0x2
   \   000009   90....       MOV     DPTR,#pTxData + 2
   \   00000C   22           RET
   6096          

   \                                 In  segment BANKED_CODE, align 1, keep-with-next
   6097          MAC_DATAREQ_API void MstBridgeInfoInqure(macRx_t* pck)
   \                     MstBridgeInfoInqure:
   6098          {
   \   000000   74F6         MOV     A,#-0xa
   \   000002   12....       LCALL   ?BANKED_ENTER_XDATA
   \   000005                ; Saved register size: 10
   \   000005                ; Auto size: 0
   6099          	pConfig->frameHead = 0x8841;
   \   000005   12....       LCALL   ?Subroutine15 & 0xFFFF
   6100          	pConfig->destAddr = 0xFFFF;
   6101          	//pConfig->myAddr = 0x0000;
   6102          	pTxData[0] = 0x05;
   6103          	pTxData[1] = 0x00;
   6104          	//if(MSTDEV_MODE_DEV==g_isMaster)
   6105          	if(CMD_MODE_RF_SLA==g_isMaster)
   \                     ??CrossCallReturnLabel_11:
   \   000008   7005         JNZ     ??MstBridgeInfoInqure_0
   6106          	{
   6107          		pTxData[2] = 0x20;
   \   00000A   12....       LCALL   ?Subroutine36 & 0xFFFF
   6108          		pTxData[3] = pConfig->group;//0x03;
   6109          	}else
   \                     ??CrossCallReturnLabel_858:
   \   00000D   8006         SJMP    ??MstBridgeInfoInqure_1
   6110          	{
   6111          		pTxData[2] = 0xFF;
   \                     ??MstBridgeInfoInqure_0:
   \   00000F   74FF         MOV     A,#-0x1
   \   000011   F0           MOVX    @DPTR,A
   6112          		pTxData[3] = 0x33;//0x03;
   \   000012   A3           INC     DPTR
   \   000013   7433         MOV     A,#0x33
   \                     ??MstBridgeInfoInqure_1:
   \   000015   F0           MOVX    @DPTR,A
   6113          	}
   6114          	//pTxData[4] = 0x00;			//this indicate the 
   6115          	//pTxData[4] = 0x01;
   6116          	pTxData[4] = 0x00;
   \   000016   A3           INC     DPTR
   \   000017   E4           CLR     A
   \   000018   12....       LCALL   ??Subroutine349_0 & 0xFFFF
   6117          	g_sendLen = 5;
   6118          	//macRfSendPacket(pConfig->destAddr, pTxData, g_sendLen,NULL,0);
   6119          	macRfSendPacket(pConfig->destAddr, pTxData, g_sendLen,NULL,0,SEND_MODE_UNSLOTTED);
   \                     ??CrossCallReturnLabel_883:
   \   00001B   12....       LCALL   ?PUSH_XSTACK_I_ONE
   \   00001E   75..00       MOV     ?V0 + 0,#0x0
   \   000021   78..         MOV     R0,#?V0 + 0
   \   000023   12....       LCALL   ?PUSH_XSTACK_I_ONE
   \   000026   E4           CLR     A
   \   000027   F5..         MOV     ?V0 + 1,A
   \   000029   78..         MOV     R0,#?V0 + 0
   \   00002B   12....       LCALL   ?PUSH_XSTACK_I_TWO
   \   00002E   7905         MOV     R1,#0x5
   \   000030   02....       LJMP    ?Subroutine1 & 0xFFFF
   6120          	veriPckSendCallback = NULL;
   6121          }
   6122          
   6123          static void macExProcessOSALMsg( macMsg_t *msgPtr )
   6124          {
   6125          	switch (msgPtr->hdEvt.event)
   6126          	{
   6127          
   6128          		case MAC_INCOMING_MSG_CMD:
   6129          			switch(g_isMaster)
   6130          			{
   6131          				//case MSTDEV_MODE_MST:
   6132          				case CMD_MODE_RF_MST:
   6133          				case CMD_MODE_RFLS_MST:
   6134          				case CMD_MODE_RFLS_SLA:
   6135          					if(BRIDGE_MST_NORMAL==g_mstHold)
   6136          					{
   6137          						MstVerifyProc(msgPtr->macPayload);
   6138          					}else
   6139          					{
   6140          						MstBridgeHandle(msgPtr->macPayload);
   6141          					}
   6142          				break;
   6143          
   6144          				//case MSTDEV_MODE_DEV:
   6145          				case CMD_MODE_RF_SLA:
   6146          					devJoinNetProc(msgPtr->macPayload);
   6147          				break;
   6148          
   6149          				//case MSTDEV_MODE_MLINK:
   6150          				//case MSTDEV_MODE_SLINK:
   6151          				//case CMD_MODE_RFLS_MST:
   6152          				//case CMD_MODE_RFLS_SLA:
   6153          					//if(RFLS_COORDINATOR_M==pConfig->isRflsCoordinator)
   6154          					//{
   6155          					//	linkVeriProc(msgPtr->macPayload);
   6156          					//}else
   6157          					//{
   6158          					//	linkedNoneCoordinatorProc(msgPtr->macPayload);
   6159          					//}
   6160          				//break;
   6161          
   6162          				//case MSTDEV_MODE_HOLD:
   6163                                          case CMD_MODE_OFF:
   6164          				break;
   6165          			}
   6166          		break;
   6167          
   6168          		default:
   6169          		break;
   6170          	}
   6171          	MAC_RADIO_FLUSH_RX_FIFO();
   6172          }
   6173          
   6174          

   \                                 In  segment BANKED_CODE, align 1, keep-with-next
   \                     ?Subroutine74:
   \   000000   F0           MOVX    @DPTR,A
   \   000001                REQUIRE ??Subroutine321_0
   \   000001                ; // Fall through to label ??Subroutine321_0

   \                                 In  segment BANKED_CODE, align 1, keep-with-next
   6175          uint16 macEventLoopEx(uint8 taskId, uint16 events)
   \                     macEventLoopEx:
   6176          {
   \   000000   74F4         MOV     A,#-0xc
   \   000002   12....       LCALL   ?BANKED_ENTER_XDATA
   \   000005                ; Saved register size: 12
   \   000005                ; Auto size: 0
   \   000005   EA           MOV     A,R2
   \   000006   FE           MOV     R6,A
   \   000007   EB           MOV     A,R3
   \   000008   FF           MOV     R7,A
   6177          	  macMsg_t *MSGpkt;
   6178            	  (void)taskId;  // Intentionally unreferenced parameter
   6179            	 // static uint16 tick=0;
   6180          
   6181          	if ( events & SYS_EVENT_MSG )
   \   000009   5480         ANL     A,#0x80
   \   00000B   6063         JZ      ??macEventLoopEx_0
   6182          	{
   6183          		MSGpkt = (macMsg_t*)osal_msg_receive(macEx_taskId);
   \   00000D                ; Setup parameters for call to function osal_msg_receive
   \   00000D   8010         SJMP    ??macEventLoopEx_1
   6184          		while ( MSGpkt )
   6185          		{
   \                     ??macEventLoopEx_2:
   \   00000F                ; Setup parameters for call to function MstBridgeHandle
   \   00000F   12....       LCALL   ??MstBridgeHandle?relay
   \                     ??macEventLoopEx_3:
   \   000012   75E1ED       MOV     0xe1,#-0x13
   \   000015   75E1ED       MOV     0xe1,#-0x13
   6186          			macExProcessOSALMsg(MSGpkt);
   6187          
   6188          			// Release the memory
   6189          			osal_msg_deallocate( (uint8 *)MSGpkt );
   \   000018                ; Setup parameters for call to function osal_msg_deallocate
   \   000018   AA..         MOV     R2,?V0 + 0
   \   00001A   AB..         MOV     R3,?V0 + 1
   \   00001C   12....       LCALL   ??osal_msg_deallocate?relay
   6190          
   6191          			// Next - if one is available
   6192          			MSGpkt = (macMsg_t *)osal_msg_receive( macEx_taskId );
   \   00001F                ; Setup parameters for call to function osal_msg_receive
   \                     ??macEventLoopEx_1:
   \   00001F   90....       MOV     DPTR,#macEx_taskId
   \   000022   E0           MOVX    A,@DPTR
   \   000023   F9           MOV     R1,A
   \   000024   12....       LCALL   ??osal_msg_receive?relay
   \   000027   8A..         MOV     ?V0 + 0,R2
   \   000029   8B..         MOV     ?V0 + 1,R3
   \   00002B   E5..         MOV     A,?V0 + 0
   \   00002D   45..         ORL     A,?V0 + 1
   \   00002F   6036         JZ      ??macEventLoopEx_4
   \   000031   85..82       MOV     DPL,?V0 + 0
   \   000034   85..83       MOV     DPH,?V0 + 1
   \   000037   A3           INC     DPTR
   \   000038   A3           INC     DPTR
   \   000039   E0           MOVX    A,@DPTR
   \   00003A   641A         XRL     A,#0x1a
   \   00003C   70D4         JNZ     ??macEventLoopEx_3
   \   00003E   90....       MOV     DPTR,#g_isMaster
   \   000041   E0           MOVX    A,@DPTR
   \   000042   14           DEC     A
   \   000043   6014         JZ      ??macEventLoopEx_5
   \   000045   14           DEC     A
   \   000046   6009         JZ      ??macEventLoopEx_6
   \   000048   24FD         ADD     A,#-0x3
   \   00004A   600D         JZ      ??macEventLoopEx_5
   \   00004C   14           DEC     A
   \   00004D   600A         JZ      ??macEventLoopEx_5
   \   00004F   80C1         SJMP    ??macEventLoopEx_3
   \                     ??macEventLoopEx_6:
   \   000051                ; Setup parameters for call to function devJoinNetProc
   \   000051   12....       LCALL   ?Subroutine89 & 0xFFFF
   \                     ??CrossCallReturnLabel_674:
   \   000054   12....       LCALL   ??devJoinNetProc?relay
   \   000057   80B9         SJMP    ??macEventLoopEx_3
   \                     ??macEventLoopEx_5:
   \   000059   12....       LCALL   ?Subroutine89 & 0xFFFF
   \                     ??CrossCallReturnLabel_675:
   \   00005C   90....       MOV     DPTR,#g_mstHold
   \   00005F   E0           MOVX    A,@DPTR
   \   000060   70AD         JNZ     ??macEventLoopEx_2
   \   000062                ; Setup parameters for call to function MstVerifyProc
   \   000062   12....       LCALL   ??MstVerifyProc?relay
   \   000065   80AB         SJMP    ??macEventLoopEx_3
   6193          		}
   6194          
   6195          		// return unprocessed events
   6196          		return (events ^ SYS_EVENT_MSG);
   \                     ??macEventLoopEx_4:
   \   000067   EE           MOV     A,R6
   \   000068   FA           MOV     R2,A
   \   000069   EF           MOV     A,R7
   \   00006A   6480         XRL     A,#0x80
   \                     ??macEventLoopEx_7:
   \   00006C   FB           MOV     R3,A
   \   00006D   02....       LJMP    ??macEventLoopEx_8 & 0xFFFF
   6197          	}
   6198          
   6199          		// Send a message out - This event is generated by a timer
   6200          		//  (setup in SampleApp_Init()).
   6201          /*
   6202          	if ( events & MACEX_ROLL_POLING_EVENT )
   6203          	{
   6204          		// Send the periodic message
   6205          		if(g_netCheckFlag<2)
   6206          		{
   6207          			macNetCheck();
   6208          			g_netCheckFlag++;
   6209          			osal_start_timerEx( macEx_taskId, MACEX_ROLL_POLING_EVENT, 30);
   6210          		}else
   6211          		{
   6212          			macRollPolingProc();
   6213          		}
   6214          
   6215          		// Setup to send message again in normal periodb 
   6216          
   6217          		// return unprocessed events
   6218          		return (events ^ MACEX_ROLL_POLING_EVENT);
   6219          	}
   6220          */
   6221          
   6222          	if(events & MACEX_VERI_SEND_INQURE)
   \                     ??macEventLoopEx_0:
   \   000070   EE           MOV     A,R6
   \   000071   5402         ANL     A,#0x2
   \   000073   601F         JZ      ??macEventLoopEx_9
   6223          	{
   6224          		if(NULL!=veriPckSendCallback)
   \   000075   90....       MOV     DPTR,#veriPckSendCallback
   \   000078   12....       LCALL   ?Subroutine93 & 0xFFFF
   \                     ??CrossCallReturnLabel_149:
   \   00007B   49           ORL     A,R1
   \   00007C   600F         JZ      ??macEventLoopEx_10
   6225          		{
   6226          			veriPckSendCallback(callbackPara);
   \   00007E                ; Setup parameters for indirect call
   \   00007E   90....       MOV     DPTR,#callbackPara
   \   000081   12....       LCALL   ??Subroutine320_0 & 0xFFFF
   6227          		}
   \                     ??CrossCallReturnLabel_671:
   \   000084   90....       MOV     DPTR,#veriPckSendCallback + 1
   \   000087   12....       LCALL   ??Subroutine350_0 & 0xFFFF
   \                     ??CrossCallReturnLabel_896:
   \   00008A   12....       LCALL   ?CALL_IND
   6228          		return (events ^ MACEX_VERI_SEND_INQURE);
   \                     ??macEventLoopEx_10:
   \   00008D   EE           MOV     A,R6
   \   00008E   6402         XRL     A,#0x2
   \                     ??macEventLoopEx_11:
   \   000090   FA           MOV     R2,A
   \   000091   EF           MOV     A,R7
   \   000092   80D8         SJMP    ??macEventLoopEx_7
   6229          	}
   6230          
   6231          	if(events & MACEX_INFO_INQ)
   \                     ??macEventLoopEx_9:
   \   000094   EE           MOV     A,R6
   \   000095   5420         ANL     A,#0x20
   \   000097   602F         JZ      ??macEventLoopEx_12
   6232          	{
   6233          		if(&macRollPolingProc == veriPckSendCallback)
   \   000099   90....       MOV     DPTR,#veriPckSendCallback
   \   00009C   E0           MOVX    A,@DPTR
   \   00009D   64..         XRL     A,#??macRollPolingProc?relay & 0xff
   \   00009F   7004         JNZ     ??macEventLoopEx_13
   \   0000A1   A3           INC     DPTR
   \   0000A2   E0           MOVX    A,@DPTR
   \   0000A3   64..         XRL     A,#(??macRollPolingProc?relay >> 8) & 0xff
   \                     ??macEventLoopEx_13:
   \   0000A5   7013         JNZ     ??macEventLoopEx_14
   6234          		{
   6235          			veriPckSendCallback = &DeviceReadyRespond;
   \   0000A7   90....       MOV     DPTR,#veriPckSendCallback
   \   0000AA   74..         MOV     A,#??DeviceReadyRespond?relay & 0xff
   \   0000AC   F0           MOVX    @DPTR,A
   \   0000AD   A3           INC     DPTR
   \   0000AE   74..         MOV     A,#(??DeviceReadyRespond?relay >> 8) & 0xff
   \   0000B0   12....       LCALL   ?Subroutine133 & 0xFFFF
   6236          			osal_start_timerEx( macEx_taskId, MACEX_VERI_SEND_INQURE, 5+(osal_rand()&0x03));
   6237          		}else
   \                     ??CrossCallReturnLabel_236:
   \   0000B3   FC           MOV     R4,A
   \   0000B4   7D00         MOV     R5,#0x0
   \   0000B6   7A02         MOV     R2,#0x2
   \   0000B8   8006         SJMP    ??CrossCallReturnLabel_332
   6238          		{
   6239          			osal_start_timerEx( macEx_taskId, MACEX_INFO_INQ, 60+(osal_rand()&0x0F));
   \                     ??macEventLoopEx_14:
   \   0000BA                ; Setup parameters for call to function osal_rand
   \   0000BA   12....       LCALL   ??Subroutine304_0 & 0xFFFF
   6240          		}
   \                     ??CrossCallReturnLabel_590:
   \   0000BD   12....       LCALL   ?Subroutine174 & 0xFFFF
   \                     ??CrossCallReturnLabel_332:
   \   0000C0   12....       LCALL   ??Subroutine341_0 & 0xFFFF
   6241          		return (events ^ MACEX_INFO_INQ);
   \                     ??CrossCallReturnLabel_831:
   \   0000C3   EE           MOV     A,R6
   \   0000C4   6420         XRL     A,#0x20
   \   0000C6   80C8         SJMP    ??macEventLoopEx_11
   6242          	}
   6243          
   6244          	if(events & MACEX_LINK_TIMEOUT_EVENT)
   \                     ??macEventLoopEx_12:
   \   0000C8   EE           MOV     A,R6
   \   0000C9   5404         ANL     A,#0x4
   \   0000CB   6047         JZ      ??macEventLoopEx_15
   6245          	{
   6246          		g_mstHold = BRIDGE_MST_NORMAL;
   \   0000CD   90....       MOV     DPTR,#g_mstHold
   \   0000D0   E4           CLR     A
   \   0000D1   12....       LCALL   ?Subroutine76 & 0xFFFF
   6247          		pConfig->isRflsCoordinator = RFLS_COORDINATOR_M;
   \                     ??CrossCallReturnLabel_842:
   \   0000D4   E4           CLR     A
   \   0000D5   12....       LCALL   ?Subroutine74 & 0xFFFF
   6248          		pConfig->myAddr = 0x000F;
   \                     ??CrossCallReturnLabel_677:
   \   0000D8   740F         MOV     A,#0xf
   \   0000DA   F0           MOVX    @DPTR,A
   \   0000DB   A3           INC     DPTR
   \   0000DC   E4           CLR     A
   \   0000DD   12....       LCALL   ?Subroutine41 & 0xFFFF
   6249          		pConfig->evtCnt++;
   \                     ??CrossCallReturnLabel_902:
   \   0000E0   12....       LCALL   ??Subroutine352_0 & 0xFFFF
   6250          		if(pConfig->totalDev>0)
   \                     ??CrossCallReturnLabel_909:
   \   0000E3   6006         JZ      ??macEventLoopEx_16
   6251          		{
   6252          			LED_INS_LINKED();
   \   0000E5   C292         CLR     0x90.2
   \   0000E7   D293         SETB    0x90.3
   \   0000E9   8004         SJMP    ??macEventLoopEx_17
   6253          		}else
   6254          		{
   6255          			LED_INS_UNLINK();
   \                     ??macEventLoopEx_16:
   \   0000EB   D292         SETB    0x90.2
   \   0000ED   C293         CLR     0x90.3
   6256          		}
   6257          		MAC_RADIO_SET_SHORT_ADDR(pConfig->myAddr);
   \                     ??macEventLoopEx_17:
   \   0000EF   08           INC     R0
   \   0000F0   08           INC     R0
   \   0000F1   08           INC     R0
   \   0000F2   12....       LCALL   ?Subroutine25 & 0xFFFF
   6258          		if(CMD_MODE_RF_SLA==g_isMaster)
   \                     ??CrossCallReturnLabel_454:
   \   0000F5   90....       MOV     DPTR,#g_isMaster
   \   0000F8   E0           MOVX    A,@DPTR
   \   0000F9   6402         XRL     A,#0x2
   \   0000FB   7009         JNZ     ??macEventLoopEx_18
   6259          		{
   6260          			UartSctSend(UART_SLAVE_LINKED,0x00,0);
   \   0000FD                ; Setup parameters for call to function UartSctSend
   \   0000FD   7B00         MOV     R3,#0x0
   \   0000FF   7A00         MOV     R2,#0x0
   \   000101   79CB         MOV     R1,#-0x35
   \   000103   12....       LCALL   ??UartSctSend?relay
   6261          		}
   6262          		veriPckSendCallback=&macRollPolingProc;
   \                     ??macEventLoopEx_18:
   \   000106   12....       LCALL   ?Subroutine154 & 0xFFFF
   6263          		osal_start_timerEx( macEx_taskId, MACEX_VERI_SEND_INQURE, 0);
   \                     ??CrossCallReturnLabel_724:
   \   000109                ; Setup parameters for call to function osal_start_timerEx
   \   000109   7C00         MOV     R4,#0x0
   \   00010B   12....       LCALL   ??Subroutine339_0 & 0xFFFF
   6264          		return (events ^ MACEX_LINK_TIMEOUT_EVENT);
   \                     ??CrossCallReturnLabel_816:
   \   00010E   EE           MOV     A,R6
   \   00010F   6404         XRL     A,#0x4
   \   000111   02....       LJMP    ??macEventLoopEx_11 & 0xFFFF
   6265          	}
   6266          
   6267          #ifdef LED_TOGGLE_DEBUG
   6268          	if(events & MACEX_LED_FLASH)
   6269          	{
   6270          		HAL_TOGGLE_LED2();
   6271          		osal_start_timerEx( macEx_taskId, MACEX_LED_FLASH, 500);
   6272          		return (events ^ MACEX_LED_FLASH);
   6273          	}
   6274          #endif
   6275          
   6276          #ifdef DEBUG_TRACE
   6277          	if(events & MACEX_INIT_CHECK)
   6278          	{
   6279          		return (events^MACEX_INIT_CHECK);
   6280          	}
   6281          #else
   6282          	if(events & MACEX_INIT_CHECK)
   \                     ??macEventLoopEx_15:
   \   000114   EE           MOV     A,R6
   \   000115   5410         ANL     A,#0x10
   \   000117   601E         JZ      ??macEventLoopEx_19
   6283          	{
   6284          		if(!g_initCheck)
   \   000119   90....       MOV     DPTR,#g_initCheck
   \   00011C   E0           MOVX    A,@DPTR
   \   00011D   7012         JNZ     ??CrossCallReturnLabel_832
   6285          		{
   6286          			UartSctSend(UART_CC_INIT,1,0);
   \   00011F                ; Setup parameters for call to function UartSctSend
   \   00011F   7B00         MOV     R3,#0x0
   \   000121   7A01         MOV     R2,#0x1
   \   000123   79C4         MOV     R1,#-0x3c
   \   000125   12....       LCALL   ??UartSctSend?relay
   6287          			osal_start_timerEx( macEx_taskId, MACEX_INIT_CHECK, 500);
   \   000128                ; Setup parameters for call to function osal_start_timerEx
   \   000128   7CF4         MOV     R4,#-0xc
   \   00012A   7D01         MOV     R5,#0x1
   \   00012C   7A10         MOV     R2,#0x10
   \   00012E   12....       LCALL   ??Subroutine341_0 & 0xFFFF
   6288          		}
   6289          		return (events^MACEX_INIT_CHECK);
   \                     ??CrossCallReturnLabel_832:
   \   000131   EE           MOV     A,R6
   \   000132   6410         XRL     A,#0x10
   \   000134   02....       LJMP    ??macEventLoopEx_11 & 0xFFFF
   6290          	}
   6291          #endif
   6292          	//if(tick++>10000)
   6293          	//{
   6294          	//	LED_RED = !LED_RED;
   6295          	//	tick = 0;
   6296          	//}
   6297          
   6298          /*
   6299          	if(events & MACEX_SLAVE_PWRDOWN)
   6300          	{
   6301          		g_slvPwrDnTmr--;
   6302          		if(g_slvPwrDnTmr<=0)
   6303          		{
   6304          			UART_INT_SET();
   6305          			macDelay(100);
   6306          			UartSctSend(UART_ENCODE_SLAPWROFF,1,0);
   6307          		}
   6308          	}
   6309          */
   6310          	// Discard unknown events
   6311          	return 0;
   \                     ??macEventLoopEx_19:
   \   000137   7A00         MOV     R2,#0x0
   \   000139   7B00         MOV     R3,#0x0
   \                     ??macEventLoopEx_8:
   \   00013B   02....       LJMP    ??Subroutine326_0 & 0xFFFF
   \   00013E                REQUIRE _A_P1
   \   00013E                REQUIRE RFST
   6312          }
   6313          
   6314          
   6315          

   \                                 In  segment BANKED_CODE, align 1, keep-with-next
   6316          void macExTxDoneCallback(void)
   \                     macExTxDoneCallback:
   6317          {
   \   000000   C082         PUSH    DPL
   \   000002   C083         PUSH    DPH
   \   000004                ; Saved register size: 2
   \   000004                ; Auto size: 0
   6318          	txState.txDone = TXSTATE_TXDONE_CLEAR;
   \   000004   90....       MOV     DPTR,#txState + 2
   \   000007   E4           CLR     A
   \   000008   F0           MOVX    @DPTR,A
   6319          #ifdef _RT_AP_
   6320          	AP_TXEN = 0;
   6321          #endif
   6322          	return;
   \   000009   02....       LJMP    ??Subroutine299_0 & 0xFFFF
   6323          }
   6324          

   \                                 In  segment BANKED_CODE, align 1, keep-with-next
   6325          void macExTxAckDoneCallback(void)
   \                     macExTxAckDoneCallback:
   6326          {
   \   000000   C082         PUSH    DPL
   \   000002   C083         PUSH    DPH
   \   000004                ; Saved register size: 2
   \   000004                ; Auto size: 0
   6327          	txState.ackReceived= TXSTATE_TXACKDONE_RCVD;
   \   000004   90....       MOV     DPTR,#txState + 1
   \   000007   7401         MOV     A,#0x1
   \   000009   F0           MOVX    @DPTR,A
   6328          #ifdef _RT_AP_
   6329          	AP_TXEN = 0;
   6330          #endif
   6331          	return;
   \   00000A   02....       LJMP    ??Subroutine299_0 & 0xFFFF
   6332          }
   6333          
   6334          
   6335          #ifdef IO_INDEX_TEST
   6336          void FingerIndex_1(void)
   6337          {
   6338          	FINGER1 = ~FINGER1;
   6339          }
   6340          
   6341          void FingerIndex_2(void)
   6342          {
   6343          	FINGER2 = ~FINGER2;
   6344          }
   6345          #endif
   6346          
   6347          
   6348          #if 0
   6349          void pilot()
   6350          {
   6351          	if(g_linkedMode)
   6352          	{
   6353          		//basicRfConfig.ackRequest = 0;
   6354          		pConfig->frameHead = 0x8841;
   6355          		pConfig->destAddr = 0xFFFF;
   6356          		//pConfig->myAddr = 0x000F;
   6357          		arrcpy(pTxData,pilotCommand,sizeof(pilotCommand));
   6358          		g_sendLen = sizeof(pilotCommand);
   6359          		//g_sendFlag = 1;
   6360          		basicRfSendPacket(pConfig->destAddr, pTxData, g_sendLen,0);
   6361          		halMcuWaitMs(2);
   6362          		basicRfSendPacket(pConfig->destAddr, pTxData, g_sendLen,0);
   6363          		halMcuWaitMs(2);
   6364          		pTxData[0] = 0x90;
   6365          		pTxData[1] = 0x00;
   6366          		pTxData[2] = 0x03;
   6367          		pTxData[3] = 0xe8;
   6368          		g_sendLen = 4;
   6369          		basicRfSendPacket(pConfig->destAddr, pTxData, g_sendLen,0);
   6370          		halMcuWaitMs(2);
   6371          		pTxData[0] = 0x90;
   6372          		pTxData[1] = 0x00;
   6373          		pTxData[2] = 0x00;
   6374          		pTxData[3] = 0x00;
   6375          		g_sendLen = 4;
   6376          		basicRfSendPacket(pConfig->destAddr, pTxData, g_sendLen,0);
   6377          	}else
   6378          	{
   6379          		//s_veriState = 7;
   6380          		if(linkedRelCnt<9)
   6381          		{
   6382          			pConfig->frameHead = 0x8841;
   6383          			pConfig->destAddr = 0xFFFF;
   6384          			//pConfig->myAddr = 0x000F;
   6385          			pTxData[0] = 0x06;
   6386          			pTxData[1] = 0x00;//0x01;
   6387          			pTxData[2] = 0xFF;//0x01;
   6388          			pTxData[3] = 0x4A;
   6389          			pTxData[4] = 0x01;//0x01;
   6390          			pTxData[5] = g_linkRelCnt;//0x07;
   6391          			g_sendLen = 6;
   6392          			basicRfSendPacket(pConfig->destAddr, pTxData, g_sendLen,0);
   6393          			linkedRelCnt++;
   6394          			halMcuWaitMs(7);
   6395          		}else
   6396          		{
   6397          			linkedRelCnt = 0;
   6398          			s_veriState = 0xFF;
   6399          			g_linkRelCnt ++;
   6400          		}
   6401          	}
   6402          }
   6403          #endif
   6404          
   6405          /*
   6406          #pragma vector = P0INT_VECTOR    //#pragma vector = 
   6407            __interrupt void P0_ISR(void) 
   6408          { 
   6409            P0IFG = 0;             // 
   6410            P0IF = 0;              // 
   6411          }*/
   6412          
   6413          #if((defined HAL_UART_DMA)&&(HAL_UART_DMA==1))
   6414          #if 0
   6415          static void macExUartInterrupt(void)
   6416          {
   6417          	//MAC_UART_EX_INT_IFG = 1;
   6418          	//MAC_KEY_CPU_PORT_0_IF = 1;
   6419          	//LED_RED_TOGGLE();
   6420          	UartDMAIntRcv();
   6421          	//dmaCfg.uartCB(HAL_UART_DMA-1, 0);
   6422          	//HalUARTPoll();					//uart read
   6423          	//if (HAL_UART_DMA_NEW_RX_BYTE(dmaCfg.rxHead))
   6424          	//{
   6425          	//	dmaCfg.uartCB(HAL_UART_DMA-1, 0);
   6426          	//}
   6427          	return;
   6428          }
   6429          #endif
   6430          

   \                                 In  segment NEAR_CODE, align 1, keep-with-next
   6431          HAL_ISR_FUNCTION( halKeyPort0Isr, P0INT_VECTOR )
   \                     halKeyPort0Isr:
   6432          {
   \   000000   C0E0         PUSH    A
   \   000002   74F2         MOV     A,#-0xe
   \   000004   12....       LCALL   ?INTERRUPT_ENTER_XSP
   \   000007                ; Saved register size: 14
   \   000007                ; Auto size: 0
   6433             //P0IFG = 0;             // 
   6434             //P0IF = 0;              // 
   6435          	if (MAC_UART_EX_INT_IFG & MAC_UART_EX_INT_BIT)
   \   000007   E589         MOV     A,0x89
   \   000009   A2E4         MOV     C,0xE0 /* A   */.4
   \   00000B   5003         JNC     ??halKeyPort0Isr_0
   6436          	{
   6437          		//macExUartInterrupt();
   6438          		UartDMAIntRcv();
   \   00000D                ; Setup parameters for call to function UartDMAIntRcv
   \   00000D   12....       LCALL   ??UartDMAIntRcv?relay
   6439          	}
   6440          	MAC_UART_EX_INT_IFG = 0;
   \                     ??halKeyPort0Isr_0:
   \   000010   758900       MOV     0x89,#0x0
   6441          	MAC_KEY_CPU_PORT_0_IF = 0;
   \   000013   C2C5         CLR     0xc0.5
   6442          }
   \   000015   7F01         MOV     R7,#0x1
   \   000017   02....       LJMP    ?INTERRUPT_LEAVE_XSP
   \   00001A                REQUIRE P0IFG
   \   00001A                REQUIRE _A_IRCON
   6443          #endif
   6444          
   6445          
   6446          #ifdef DEBUG_TRACE
   6447          static void PutChar(const char Tbyte)
   6448          {
   6449          	U0DBUF = Tbyte; 
   6450          	while(UTX0IF == 0);   //
   6451          	UTX0IF = 0;  
   6452          }
   6453          
   6454          static void putsStr(const char *str)
   6455          {
   6456          	while(*str!='0')
   6457          		PutChar(*str++);
   6458          	//HalUARTWrite(0, (unsigned char*)str++, 1);
   6459          }
   6460          
   6461          static char *mac_itoa(long n, int base)
   6462           {
   6463            	char *p;
   6464           	int minus;
   6465           	static char buf[16];
   6466          
   6467          //	puts_("enter _itoa\n");
   6468          //	put_hex(n);
   6469          
   6470           	p = &buf[16];
   6471           	*--p =  0;
   6472           	if (n < 0) 
   6473          	{
   6474            		minus = 1;
   6475            		n = -n;
   6476           	}
   6477           	else
   6478            		minus = 0;
   6479          
   6480          
   6481           	if (n == 0)
   6482          	{
   6483            		*--p = '0';
   6484          	}
   6485           	else
   6486            		while (n > 0) 
   6487          		{  
   6488          	//		puts_("_itoa ");
   6489             			*--p = "0123456789abcdef"[n % base];
   6490          	//		putchar(*p);
   6491             			n /= base;
   6492            		}
   6493          
   6494           	if (minus)
   6495            		*--p = '-';
   6496          
   6497           	return p;
   6498          }
   6499          
   6500          
   6501          
   6502          int Printf(const char *fmt, ...)
   6503          {
   6504          	int i;
   6505          	const char *s;
   6506           	int d;
   6507          	char buf[128];
   6508          	char *p = buf;
   6509          //	char buf[16];
   6510          //	char *p = buf;
   6511           	va_list ap;
   6512          
   6513              va_start(ap, fmt);
   6514          	i = 16;
   6515          
   6516              while (*fmt) 
   6517          	{
   6518                  if (*fmt != '%') 
   6519          		{
   6520                      PutChar(*fmt++);
   6521                      continue;
   6522                  }
   6523          		
   6524          		switch(*++fmt)
   6525          		{
   6526                      case 's':
   6527                          s = va_arg(ap, const char *);
   6528                          for ( ; *s; s++) 
   6529          		 {
   6530                             PutChar(*s);
   6531                          }
   6532                          break;
   6533                      case 'd':			
   6534                          d = va_arg(ap, int);
   6535          				//d>>=8;
   6536                          p = mac_itoa(d, 10);
   6537                          for (s = p; *s; s++) 
   6538          				{
   6539                              PutChar(*s);
   6540                          }
   6541          
   6542          				break;
   6543          
   6544                      case 'x':
   6545          			case 'X':
   6546                          d = va_arg(ap, int);
   6547                          p = mac_itoa(d, 16);
   6548                          for (s = p; *s; s++) 
   6549          				{
   6550                              PutChar(*s);
   6551                          }
   6552                          break;
   6553                       //Add other specifiers here...              
   6554                      default:  
   6555                          putsStr(fmt);
   6556                          break;
   6557                  } 
   6558                  fmt++;
   6559              }
   6560              va_end(ap);
   6561          
   6562              return 1;   /* Dummy return value */
   6563          }
   6564          
   6565          void DeviceInfoPrint(void)
   6566          {
   6567          	uint8 pDev;
   6568          	Printf("total device %d\r\n",pConfig->totalDev);
   6569          	for(pDev=0;pDev<DEVICE_TOTAL;pDev++)
   6570          	{
   6571          		if(DEVICE_VERIFIED==pConfig->devHead[pDev].veriFlag)
   6572          		{
   6573          			Printf("addr: %d;",pConfig->devHead[pDev].shortAddr);
   6574          			Printf("group: %d;", pConfig->devHead[pDev].group);
   6575          			Printf("attribute: %d;",pConfig->devHead[pDev].attribute);
   6576          		}
   6577          	}
   6578          }
   6579          
   6580          void BufferPrint(uint8* buf, uint16 size)
   6581          {
   6582          	uint16 i;
   6583          	for(i=0;i<size;i++)
   6584          	{
   6585          		Printf("%x ",buf[i]);
   6586          	}
   6587          	Printf("\r\n");
   6588          }
   6589          #endif
   6590          
   6591          #if 1
   6592          /**************************************************************************************************
   6593          * @fn znpTestRF
   6594          *
   6595          * @brief This function initializes and checks the ZNP RF Test Mode NV items. It is designed
   6596          * to be invoked before/instead of MAC radio initialization.
   6597          *
   6598          * input parameters
   6599          *
   6600          * None.
   6601          *
   6602          * output parameters
   6603          *
   6604          * None.
   6605          *
   6606          * @return None.
   6607          */
   6608          #define MAC_RADIO_TX_ON()    st( RFST = ISTXON;)
   6609          #define TX_PWR_TONE_SET(x)    st( MDMTEST0 = x;)
   6610          #define TX_PWR_MOD__SET(x)    st(if(x){MDMTEST1|=0x10; })

   \                                 In  segment BANKED_CODE, align 1, keep-with-next
   6611          void znpTestRF(void)
   \                     znpTestRF:
   6612          {
   \   000000   C082         PUSH    DPL
   \   000002   C083         PUSH    DPH
   \   000004                ; Saved register size: 2
   \   000004                ; Auto size: 4
   \   000004   74FC         MOV     A,#-0x4
   \   000006   12....       LCALL   ?ALLOC_XSTACK8
   6613          	//uint8 rfTestParms[4] = { 0, 0, 0, 0 };
   6614          	uint8 rfTestParms[4] = { 2, 11, 0xF5, 0x55};
   \   000009   90....       MOV     DPTR,#`?<Constant {2, 11, 245, 85}>`
   \   00000C   C082         PUSH    DPL
   \   00000E   85..82       MOV     DPL,?XSP + 0
   \   000011   85..83       MOV     DPH,?XSP + 1
   \   000014   AC82         MOV     R4,DPL
   \   000016   AD83         MOV     R5,DPH
   \   000018   7583..       MOV     DPH,#(`?<Constant {2, 11, 245, 85}>` >> 8) & 0xff
   \   00001B   D082         POP     DPL
   \   00001D   7404         MOV     A,#0x4
   \   00001F   12....       LCALL   ?MOVE_LONG8_XDATA_XDATA
   6615          	/*
   6616          	if ((SUCCESS != osal_nv_item_init(ZNP_NV_RF_TEST_PARMS, 4, rfTestParms)) ||
   6617          	(SUCCESS != osal_nv_read(ZNP_NV_RF_TEST_PARMS, 0, 4, rfTestParms)) ||
   6618          	(rfTestParms[0] == 0))
   6619          	{
   6620          	return;
   6621          	}
   6622          	*/
   6623          
   6624          	/* Recommended settings */
   6625          	MDMCTRL0 = 0x85;
   \   000022   9061A8       MOV     DPTR,#0x61a8
   \   000025   7485         MOV     A,#-0x7b
   \   000027   F0           MOVX    @DPTR,A
   6626          	RXCTRL = 0x3F;
   \   000028   9061AB       MOV     DPTR,#0x61ab
   \   00002B   743F         MOV     A,#0x3f
   \   00002D   F0           MOVX    @DPTR,A
   6627          	FSCTRL = 0x55;
   \   00002E   A3           INC     DPTR
   \   00002F   7455         MOV     A,#0x55
   \   000031   F0           MOVX    @DPTR,A
   6628          	FSCAL1 = 0x01;
   \   000032   9061AE       MOV     DPTR,#0x61ae
   \   000035   7401         MOV     A,#0x1
   \   000037   F0           MOVX    @DPTR,A
   6629          	AGCCTRL1 = 0x15;
   \   000038   9061B2       MOV     DPTR,#0x61b2
   \   00003B   7415         MOV     A,#0x15
   \   00003D   F0           MOVX    @DPTR,A
   6630          	ADCTEST0 = 0x10;
   \   00003E   9061B5       MOV     DPTR,#0x61b5
   \   000041   7410         MOV     A,#0x10
   \   000043   F0           MOVX    @DPTR,A
   6631          	ADCTEST1 = 0x0E;
   \   000044   A3           INC     DPTR
   \   000045   740E         MOV     A,#0xe
   \   000047   F0           MOVX    @DPTR,A
   6632          	ADCTEST2 = 0x03;
   \   000048   A3           INC     DPTR
   \   000049   7403         MOV     A,#0x3
   \   00004B   F0           MOVX    @DPTR,A
   6633          
   6634          	FRMCTRL0 = 0x43;
   \   00004C   906189       MOV     DPTR,#0x6189
   \   00004F   7443         MOV     A,#0x43
   \   000051   12....       LCALL   ??Subroutine327_0 & 0xFFFF
   6635          	FRMCTRL1 = 0x00;
   6636          
   6637          	MAC_RADIO_RXTX_OFF();
   \                     ??CrossCallReturnLabel_734:
   \   000054   75E1EF       MOV     0xe1,#-0x11
   6638          	//MAC_RADIO_SET_CHANNEL(rfTestParms[1]);
   6639          	MAC_RADIO_SET_CHANNEL(pConfig->channel);
   \   000057   75F005       MOV     B,#0x5
   \   00005A   12....       LCALL   ?Subroutine70 & 0xFFFF
   \                     ??CrossCallReturnLabel_113:
   \   00005D   A4           MUL     AB
   \   00005E   24D4         ADD     A,#-0x2c
   \   000060   90618F       MOV     DPTR,#0x618f
   \   000063   F0           MOVX    @DPTR,A
   6640          	MAC_RADIO_SET_TX_POWER(rfTestParms[2]);
   \   000064   7402         MOV     A,#0x2
   \   000066   12....       LCALL   ?XSTACK_DISP0_8
   \   000069   E0           MOVX    A,@DPTR
   \   00006A   906190       MOV     DPTR,#0x6190
   \   00006D   F0           MOVX    @DPTR,A
   6641          	TX_PWR_TONE_SET(rfTestParms[3]);
   \   00006E   7403         MOV     A,#0x3
   \   000070   12....       LCALL   ?XSTACK_DISP0_8
   \   000073   E0           MOVX    A,@DPTR
   \   000074   9061B8       MOV     DPTR,#0x61b8
   \   000077   12....       LCALL   ?Subroutine141 & 0xFFFF
   6642          
   6643          	switch (rfTestParms[0])
   \                     ??CrossCallReturnLabel_263:
   \   00007A   E0           MOVX    A,@DPTR
   \   00007B   14           DEC     A
   \   00007C   6008         JZ      ??znpTestRF_0
   \   00007E   14           DEC     A
   \   00007F   600A         JZ      ??znpTestRF_1
   \   000081   14           DEC     A
   \   000082   600E         JZ      ??znpTestRF_2
   \   000084   800F         SJMP    ??znpTestRF_3
   6644          	{
   6645          	case 1: /* Rx promiscuous mode. */
   6646          	MAC_RADIO_RX_ON();
   \                     ??znpTestRF_0:
   \   000086   75E1E3       MOV     0xe1,#-0x1d
   6647          	break;
   \   000089   800A         SJMP    ??znpTestRF_3
   6648          
   6649          	case 2: /* Un-modulated Tx. */
   6650          	TX_PWR_MOD__SET(1);
   \                     ??znpTestRF_1:
   \   00008B   9061B9       MOV     DPTR,#0x61b9
   \   00008E   E0           MOVX    A,@DPTR
   \   00008F   D2E4         SETB    0xE0 /* A   */.4
   \   000091   F0           MOVX    @DPTR,A
   6651          	/* no break; */
   6652          
   6653          	case 3: /* Modulated Tx. */
   6654          	/* Modulated is default register setting, so no special action. */
   6655          
   6656          	/* Now turn on Tx power for either mod or un-modulated Tx test*/
   6657          	MAC_RADIO_TX_ON();
   \                     ??znpTestRF_2:
   \   000092   75E1E9       MOV     0xe1,#-0x17
   6658          	//MAC_RADIO_RX_ON();
   6659          	break;
   6660          
   6661          	default: /* Not expected. */
   6662          	break;
   6663          	}
   6664          
   6665          
   6666          	/* Clear the RF test mode. */
   6667          	/*
   6668          	(void)osal_memset(rfTestParms, 0, 4);
   6669          	(void)osal_nv_write(ZNP_NV_RF_TEST_PARMS, 0, 4, rfTestParms);
   6670          	*/
   6671          
   6672          	while (1); /* Spin in RF test mode until a hard reset. */
   \                     ??znpTestRF_3:
   \   000095   80FE         SJMP    ??znpTestRF_3
   \   000097                REQUIRE RFST
   6673          }
   6674          #endif
   6675          
   6676          

   \                                 In  segment BANKED_CODE, align 1, keep-with-next
   6677          static void halAesLoadKeyOrInitVector(BYTE* pData, BOOL key)
   \                     halAesLoadKeyOrInitVector:
   6678          {
   \   000000   74F6         MOV     A,#-0xa
   \   000002   12....       LCALL   ?BANKED_ENTER_XDATA
   \   000005                ; Saved register size: 10
   \   000005                ; Auto size: 0
   6679             UINT8 i;
   6680          
   6681             // Checking whether to load a key or an initialisation vector.
   6682             if(key){
   \   000005   E9           MOV     A,R1
   \   000006   6008         JZ      ??halAesLoadKeyOrInitVector_0
   6683                AES_SET_ENCR_DECR_KEY_IV(AES_LOAD_KEY);
   \   000008   E5B3         MOV     A,0xb3
   \   00000A   54F8         ANL     A,#0xf8
   \   00000C   4404         ORL     A,#0x4
   \   00000E   8006         SJMP    ??halAesLoadKeyOrInitVector_1
   6684             }
   6685             else {
   6686                AES_SET_ENCR_DECR_KEY_IV(AES_LOAD_IV);
   \                     ??halAesLoadKeyOrInitVector_0:
   \   000010   E5B3         MOV     A,0xb3
   \   000012   54F8         ANL     A,#0xf8
   \   000014   4406         ORL     A,#0x6
   \                     ??halAesLoadKeyOrInitVector_1:
   \   000016   F5B3         MOV     0xb3,A
   6687             }
   6688             // Starting loading of key or vector.
   6689             AES_START();
   \   000018   43B301       ORL     0xb3,#0x1
   6690          
   6691             // loading the data (key or vector)
   6692             for(i = 0; i < 16; i++){
   \   00001B   7800         MOV     R0,#0x0
   6693                ENCDI = pData[i];
   \                     ??halAesLoadKeyOrInitVector_2:
   \   00001D   88..         MOV     ?V0 + 0,R0
   \   00001F   EA           MOV     A,R2
   \   000020   12....       LCALL   ??Subroutine354_0 & 0xFFFF
   6694             }
   \                     ??CrossCallReturnLabel_924:
   \   000023   EB           MOV     A,R3
   \   000024   12....       LCALL   ??Subroutine331_0 & 0xFFFF
   \                     ??CrossCallReturnLabel_761:
   \   000027   F5B1         MOV     0xb1,A
   \   000029   08           INC     R0
   \   00002A   E8           MOV     A,R0
   \   00002B   C3           CLR     C
   \   00002C   9410         SUBB    A,#0x10
   \   00002E   40ED         JC      ??halAesLoadKeyOrInitVector_2
   6695          }
   \   000030   02....       LJMP    ??Subroutine318_0 & 0xFFFF
   \   000033                REQUIRE ENCCS
   \   000033                REQUIRE ENCDI
   6696          

   \                                 In  segment BANKED_CODE, align 1, keep-with-next
   6697          static void halAesEncrDecr(BYTE *pDataIn, UINT16 length, BYTE *pDataOut, /*BYTE *pInitVector, */BOOL decr)
   \                     halAesEncrDecr:
   6698          {
   \   000000   74EE         MOV     A,#-0x12
   \   000002   12....       LCALL   ?BANKED_ENTER_XDATA
   \   000005                ; Saved register size: 18
   \   000005                ; Auto size: 0
   \   000005   89..         MOV     ?V0 + 6,R1
   \   000007   7412         MOV     A,#0x12
   \   000009   12....       LCALL   ?XSTACK_DISP0_8
   \   00000C   12....       LCALL   ?Subroutine93 & 0xFFFF
   \                     ??CrossCallReturnLabel_150:
   \   00000F   FE           MOV     R6,A
   \   000010   E9           MOV     A,R1
   \   000011   FF           MOV     R7,A
   6699             UINT16  i;
   6700             //UINT8   j, k;
   6701             UINT8   j;
   6702             BYTE    mode;
   6703             UINT16  nbrOfBlocks;
   6704             UINT16  convertedBlock;
   6705             UINT8   delay;
   6706          
   6707             nbrOfBlocks = length / 16;
   \   000012   8C..         MOV     ?V0 + 0,R4
   \   000014   8D..         MOV     ?V0 + 1,R5
   \   000016   7404         MOV     A,#0x4
   \   000018   78..         MOV     R0,#?V0 + 0
   \   00001A   12....       LCALL   ?US_SHR
   \   00001D   85....       MOV     ?V0 + 2,?V0 + 0
   \   000020   85....       MOV     ?V0 + 3,?V0 + 1
   6708             mode = 0;
   6709          
   6710             if( (length % 16) != 0){
   \   000023   EC           MOV     A,R4
   \   000024   540F         ANL     A,#0xf
   \   000026   600C         JZ      ??halAesEncrDecr_0
   6711                // length not multiplum of 16, convert one block extra with zeropadding
   6712                nbrOfBlocks++;
   \   000028   E5..         MOV     A,?V0 + 2
   \   00002A   2401         ADD     A,#0x1
   \   00002C   F5..         MOV     ?V0 + 2,A
   \   00002E   E5..         MOV     A,?V0 + 3
   \   000030   3400         ADDC    A,#0x0
   \   000032   F5..         MOV     ?V0 + 3,A
   6713             }
   6714          
   6715             // Loading the IV.
   6716             //halAesLoadKeyOrInitVector(pInitVector, FALSE);
   6717          
   6718             // Starting either encryption or decryption
   6719             if(decr){
   \                     ??halAesEncrDecr_0:
   \   000034   E5..         MOV     A,?V0 + 6
   \   000036   600A         JZ      ??halAesEncrDecr_1
   6720                AES_SET_ENCR_DECR_KEY_IV(AES_DECRYPT);
   \   000038   E5B3         MOV     A,0xb3
   \   00003A   54F8         ANL     A,#0xf8
   \   00003C   4402         ORL     A,#0x2
   \   00003E   F5B3         MOV     0xb3,A
   \   000040   8003         SJMP    ??halAesEncrDecr_2
   6721             } else {
   6722                AES_SET_ENCR_DECR_KEY_IV(AES_ENCRYPT);
   \                     ??halAesEncrDecr_1:
   \   000042   53B3F8       ANL     0xb3,#0xf8
   6723             }
   6724          
   6725             // Getting the operation mode.
   6726             mode = ENCCS & 0x70;
   \                     ??halAesEncrDecr_2:
   \   000045   E5B3         MOV     A,0xb3
   \   000047   5470         ANL     A,#0x70
   \   000049   F5..         MOV     ?V0 + 7,A
   6727          
   6728             for(convertedBlock = 0; convertedBlock < nbrOfBlocks; convertedBlock++){
   \   00004B   75..00       MOV     ?V0 + 0,#0x0
   \   00004E   75..00       MOV     ?V0 + 1,#0x0
   \   000051   8047         SJMP    ??halAesEncrDecr_3
   6729                // Starting the conversion.
   6730                AES_START();
   6731          
   6732                i = convertedBlock * 16;
   6733                // Counter, Output Feedback and Cipher Feedback operates on 4 bytes and not 16 bytes.
   6734                if((mode == CFB) || (mode == OFB) || (mode == CTR))
   6735          	 {
   6736          /*
   6737                   for(j = 0; j < 4; j++){
   6738                      // Writing the input data
   6739                      // Zeropadding the remainder of the block
   6740                      for(k = 0; k < 4; k++){
   6741                         ENCDI = ((i + 4*j + k < length) ? pDataIn[i + 4*j + k] : 0x00 );
   6742                      }
   6743                      // wait for data ready
   6744                      delay = DELAY;
   6745                      while(delay--);
   6746                      // Read out data for every 4th byte
   6747                      for(k = 0; k < 4; k++){
   6748                         pDataOut[i + 4*j + k] = ENCDO;
   6749                      }
   6750                   }
   6751          */
   6752                }
   6753                else if(mode == CBC_MAC){/*
   6754                   // Writing the input data
   6755                   // Zeropadding the remainder of the block
   6756                   for(j = 0; j < 16; j++){
   6757                      ENCDI = ((i + j < length) ? pDataIn[i + j] : 0x00 );
   6758                   }
   6759                   // The last block of the CBC-MAC is computed by using CBC mode.
   6760                   if(convertedBlock == nbrOfBlocks - 2){
   6761                      AES_SETMODE(CBC);
   6762                      delay = DELAY;
   6763                      while(delay--);
   6764                   }
   6765                   // The CBC-MAC does not produce an output on the n-1 first blocks
   6766                   // only the last block is read out
   6767                   else if(convertedBlock == nbrOfBlocks - 1){
   6768                      // wait for data ready
   6769                      delay = DELAY;
   6770                      while(delay--);
   6771                      for(j = 0; j < 16; j++){
   6772                         pDataOut[j] = ENCDO;
   6773                      }
   6774                   }*/
   6775                }
   6776                else{
   6777                   // Writing the input data
   6778                   // Zeropadding the remainder of the block
   6779                   for(j = 0; j < 16; j++){
   6780                      ENCDI = ((i+j < length) ? pDataIn[i+j] : 0x00 );
   \                     ??halAesEncrDecr_4:
   \   000053   E4           CLR     A
   \                     ??halAesEncrDecr_5:
   \   000054   F5B1         MOV     0xb1,A
   \   000056   05..         INC     ?V0 + 9
   \   000058   E5..         MOV     A,?V0 + 9
   \   00005A   C3           CLR     C
   \   00005B   9410         SUBB    A,#0x10
   \   00005D   4075         JC      ??halAesEncrDecr_6
   6781                   }
   6782                   // wait for data ready
   6783                   delay = DELAY;
   \   00005F   75..0F       MOV     ?V0 + 4,#0xf
   6784                   while(delay--);
   \                     ??halAesEncrDecr_7:
   \   000062   85....       MOV     ?V0 + 8,?V0 + 4
   \   000065   74FF         MOV     A,#-0x1
   \   000067   25..         ADD     A,?V0 + 8
   \   000069   F5..         MOV     ?V0 + 4,A
   \   00006B   04           INC     A
   \   00006C   70F4         JNZ     ??halAesEncrDecr_7
   6785                   // Read out data
   6786                   for(j = 0; j < 16; j++){
   \   00006E   75..00       MOV     ?V0 + 9,#0x0
   6787                      pDataOut[i+j] = ENCDO;
   \                     ??halAesEncrDecr_8:
   \   000071   E5B2         MOV     A,0xb2
   \   000073   C0E0         PUSH    A
   \   000075   12....       LCALL   ?Subroutine178 & 0xFFFF
   6788                   }
   \                     ??CrossCallReturnLabel_336:
   \   000078   EE           MOV     A,R6
   \   000079   25..         ADD     A,?V0 + 4
   \   00007B   F582         MOV     DPL,A
   \   00007D   EF           MOV     A,R7
   \   00007E   35..         ADDC    A,?V0 + 5
   \   000080   F583         MOV     DPH,A
   \   000082   D0E0         POP     A
   \   000084   F0           MOVX    @DPTR,A
   \   000085   05..         INC     ?V0 + 9
   \   000087   E5..         MOV     A,?V0 + 9
   \   000089   C3           CLR     C
   \   00008A   9410         SUBB    A,#0x10
   \   00008C   40E3         JC      ??halAesEncrDecr_8
   \                     ??halAesEncrDecr_9:
   \   00008E   E5..         MOV     A,?V0 + 0
   \   000090   2401         ADD     A,#0x1
   \   000092   F5..         MOV     ?V0 + 0,A
   \   000094   E5..         MOV     A,?V0 + 1
   \   000096   3400         ADDC    A,#0x0
   \   000098   F5..         MOV     ?V0 + 1,A
   \                     ??halAesEncrDecr_3:
   \   00009A   C3           CLR     C
   \   00009B   E5..         MOV     A,?V0 + 0
   \   00009D   95..         SUBB    A,?V0 + 2
   \   00009F   E5..         MOV     A,?V0 + 1
   \   0000A1   95..         SUBB    A,?V0 + 3
   \   0000A3   504C         JNC     ??halAesEncrDecr_10
   \   0000A5   43B301       ORL     0xb3,#0x1
   \   0000A8   85....       MOV     ?V0 + 4,?V0 + 0
   \   0000AB   85....       MOV     ?V0 + 5,?V0 + 1
   \   0000AE   7404         MOV     A,#0x4
   \   0000B0   78..         MOV     R0,#?V0 + 4
   \   0000B2   12....       LCALL   ?S_SHL
   \   0000B5   A8..         MOV     R0,?V0 + 4
   \   0000B7   A9..         MOV     R1,?V0 + 5
   \   0000B9   7410         MOV     A,#0x10
   \   0000BB   65..         XRL     A,?V0 + 7
   \   0000BD   60CF         JZ      ??halAesEncrDecr_9
   \   0000BF   7420         MOV     A,#0x20
   \   0000C1   65..         XRL     A,?V0 + 7
   \   0000C3   60C9         JZ      ??halAesEncrDecr_9
   \   0000C5   7430         MOV     A,#0x30
   \   0000C7   65..         XRL     A,?V0 + 7
   \   0000C9   60C3         JZ      ??halAesEncrDecr_9
   \   0000CB   7450         MOV     A,#0x50
   \   0000CD   65..         XRL     A,?V0 + 7
   \   0000CF   60BD         JZ      ??halAesEncrDecr_9
   \   0000D1   75..00       MOV     ?V0 + 9,#0x0
   \                     ??halAesEncrDecr_6:
   \   0000D4   12....       LCALL   ?Subroutine178 & 0xFFFF
   6789                }
   6790             }
   \                     ??CrossCallReturnLabel_337:
   \   0000D7   C3           CLR     C
   \   0000D8   E5..         MOV     A,?V0 + 4
   \   0000DA   9C           SUBB    A,R4
   \   0000DB   E5..         MOV     A,?V0 + 5
   \   0000DD   9D           SUBB    A,R5
   \   0000DE   4003         JC      $+5
   \   0000E0   02....       LJMP    ??halAesEncrDecr_4 & 0xFFFF
   \   0000E3   EA           MOV     A,R2
   \   0000E4   25..         ADD     A,?V0 + 4
   \   0000E6   F582         MOV     DPL,A
   \   0000E8   EB           MOV     A,R3
   \   0000E9   35..         ADDC    A,?V0 + 5
   \   0000EB   F583         MOV     DPH,A
   \   0000ED   E0           MOVX    A,@DPTR
   \   0000EE   02....       LJMP    ??halAesEncrDecr_5 & 0xFFFF
   6791          }
   \                     ??halAesEncrDecr_10:
   \   0000F1   7F0A         MOV     R7,#0xa
   \   0000F3   02....       LJMP    ?BANKED_LEAVE_XDATA
   \   0000F6                REQUIRE ENCCS
   \   0000F6                REQUIRE ENCDI
   \   0000F6                REQUIRE ENCDO

   \                                 In  segment BANKED_CODE, align 1, keep-with-next
   \                     ?Subroutine178:
   \   000000   85....       MOV     ?V0 + 4,?V0 + 9
   \   000003   E8           MOV     A,R0
   \   000004   25..         ADD     A,?V0 + 4
   \   000006   F5..         MOV     ?V0 + 4,A
   \   000008   E9           MOV     A,R1
   \   000009   3400         ADDC    A,#0x0
   \   00000B   F5..         MOV     ?V0 + 5,A
   \   00000D   22           RET

   \                                 In  segment BANKED_CODE, align 1, keep-with-next
   \                     ?Subroutine72:
   \   000000   12....       LCALL   ?Subroutine207 & 0xFFFF
   \                     ??CrossCallReturnLabel_793:
   \   000003   12....       LCALL   ?Subroutine203 & 0xFFFF
   \                     ??CrossCallReturnLabel_449:
   \   000006   22           RET

   \                                 In  segment BANKED_CODE, align 1, keep-with-next
   \                     ?Subroutine64:
   \   000000   12....       LCALL   ?Subroutine221 & 0xFFFF
   \                     ??CrossCallReturnLabel_862:
   \   000003   F8           MOV     R0,A
   \   000004   A3           INC     DPTR
   \   000005                REQUIRE ??Subroutine271_0
   \   000005                ; // Fall through to label ??Subroutine271_0

   \                                 In  segment BANKED_CODE, align 1, keep-with-next
   \                     ?Subroutine32:
   \   000000   25..         ADD     A,?V0 + 2
   \   000002   90....       MOV     DPTR,#txMpdu
   \   000005   F0           MOVX    @DPTR,A
   \   000006   12....       LCALL   ?Subroutine187 & 0xFFFF
   \                     ??CrossCallReturnLabel_354:
   \   000009   12....       LCALL   ?Subroutine203 & 0xFFFF
   \                     ??CrossCallReturnLabel_448:
   \   00000C   E8           MOV     A,R0
   \   00000D   90....       MOV     DPTR,#txMpdu + 1
   \   000010   F0           MOVX    @DPTR,A
   \   000011   E9           MOV     A,R1
   \   000012   A3           INC     DPTR
   \   000013   F0           MOVX    @DPTR,A
   \   000014   90....       MOV     DPTR,#txState
   \   000017   E0           MOVX    A,@DPTR
   \   000018   90....       MOV     DPTR,#txMpdu + 3
   \   00001B   F0           MOVX    @DPTR,A
   \   00001C   22           RET

   \                                 In  segment BANKED_CODE, align 1, keep-with-next
   \                     ?Subroutine79:
   \   000000   12....       LCALL   ?Subroutine233 & 0xFFFF
   \                     ??CrossCallReturnLabel_402:
   \   000003   04           INC     A
   \   000004   F0           MOVX    @DPTR,A
   \   000005   12....       LCALL   ?Subroutine238 & 0xFFFF
   \                     ??CrossCallReturnLabel_747:
   \   000008   22           RET

   \                                 In  segment BANKED_CODE, align 1, keep-with-next
   \                     ?Subroutine172:
   \   000000   E8           MOV     A,R0
   \   000001   FA           MOV     R2,A
   \   000002   E9           MOV     A,R1
   \   000003   FB           MOV     R3,A
   \   000004   EA           MOV     A,R2
   \   000005   24FF         ADD     A,#-0x1
   \   000007   18           DEC     R0
   \   000008   EB           MOV     A,R3
   \   000009   34FF         ADDC    A,#-0x1
   \   00000B   F9           MOV     R1,A
   \   00000C   EA           MOV     A,R2
   \   00000D   4B           ORL     A,R3
   \   00000E   22           RET

   \                                 In  segment INTVEC, offset 0x6b, root
   \                     `??halKeyPort0Isr??INTVEC 107`:
   \   00006B   02....       LJMP       (halKeyPort0Isr)

   \                                 In  segment XDATA_ID, align 1, keep-with-next
   \                     `?<Initializer for <Constant "MakeTomorrowBest"`:
   \   000000   4D616B65     DB "MakeTomorrowBest"
   \            546F6D6F
   \            72726F77
   \            42657374
   \            00      

   \                                 In  segment XDATA_ID, align 1, keep-with-next
   \                     `?<Initializer for <Constant "2015/11/13 OK\\r\\n`:
   \   000000   32303135     DB "2015/11/13 OK\015\012"
   \            2F31312F
   \            3133204F
   \            4B0D0A00

   \                                 In  segment XDATA_ID, align 1, keep-with-next
   \                     `?<Initializer for <Constant {2, 11, 245, 85}>>`:
   \   000000   02           DB 2
   \   000001   0B           DB 11
   \   000002   F5           DB 245
   \   000003   55           DB 85

   \                                 In  segment XDATA_ID, align 1, keep-with-next
   \                     `?<Initializer for g_modelingStyle>`:
   \   000000   01           DB 1

   \                                 In  segment XDATA_ID, align 1, keep-with-next
   \                     `?<Initializer for preCmdBuf>`:
   \   000000   17           DB 23
   \   000001   00           DB 0
   \   000002   FF           DB 255
   \   000003   47           DB 71

   \                                 In  segment XDATA_ID, align 1, keep-with-next
   \                     `?<Initializer for multiCmd>`:
   \   000000   0F           DB 15
   \   000001   00           DB 0
   \   000002   FF           DB 255
   \   000003   48           DB 72

   \                                 In  segment XDATA_ID, align 1, keep-with-next
   \                     `?<Initializer for rxi>`:
   \   000000   FF           DB 255
   \   000001   00000000     DB 0, 0, 0, 0, 0, 0, 0, 0
   \            00000000
   \   000009   000000       DB 0, 0, 0

   \                                 In  segment XDATA_ID, align 1, keep-with-next
   \                     `?<Initializer for ipRsv>`:
   \   000000   0E00         DW 14
   \   000002   0000         DW 0

   \                                 In  segment XDATA_ID, align 1, keep-with-next
   \                     `?<Initializer for cpuIdKey>`:
   \   000000   24           DB 36
   \   000001   98           DB 152
   \   000002   B7           DB 183
   \   000003   A0           DB 160
   \   000004   CB           DB 203
   \   000005   DF           DB 223
   \   000006   E6           DB 230
   \   000007   5D           DB 93
   \   000008   D1           DB 209
   \   000009   4B           DB 75
   \   00000A   F7           DB 247
   \   00000B   51           DB 81
   \   00000C   A6           DB 166
   \   00000D   01           DB 1
   \   00000E   98           DB 152
   \   00000F   22           DB 34

   \                                 In  segment XDATA_ID, align 1, keep-with-next
   \                     `?<Initializer for cpuIdRst>`:
   \   000000   3F           DB 63
   \   000001   DD           DB 221
   \   000002   FB           DB 251
   \   000003   B7           DB 183
   \   000004   20           DB 32
   \   000005   B1           DB 177
   \   000006   95           DB 149
   \   000007   89           DB 137
   \   000008   75           DB 117
   \   000009   D6           DB 214
   \   00000A   6E           DB 110
   \   00000B   92           DB 146
   \   00000C   3F           DB 63
   \   00000D   F7           DB 247
   \   00000E   F0           DB 240
   \   00000F   AD           DB 173

   \                                 In  segment XDATA_ID, align 1, keep-with-next
   \                     `?<Initializer for __Constant_0>`:
   \   000000   00000000     DD 0

   \                                 In  segment BANK_RELAYS, align 1
   \                     ??SearchForDevice?relay:
   \   000000   12....       LCALL   ?BDISPATCH
   \   000003   ......       DC24    SearchForDevice

   \                                 In  segment BANK_RELAYS, align 1
   \                     ??RemoveDevice?relay:
   \   000000   12....       LCALL   ?BDISPATCH
   \   000003   ......       DC24    RemoveDevice

   \                                 In  segment BANK_RELAYS, align 1
   \                     ??NoneUsedShortAddrSearch?relay:
   \   000000   12....       LCALL   ?BDISPATCH
   \   000003   ......       DC24    NoneUsedShortAddrSearch

   \                                 In  segment BANK_RELAYS, align 1
   \                     ??macBuildMpdu?relay:
   \   000000   12....       LCALL   ?BDISPATCH
   \   000003   ......       DC24    macBuildMpdu

   \                                 In  segment BANK_RELAYS, align 1
   \                     ??macRfSendPacket?relay:
   \   000000   12....       LCALL   ?BDISPATCH
   \   000003   ......       DC24    macRfSendPacket

   \                                 In  segment BANK_RELAYS, align 1
   \                     ??macParameterSet?relay:
   \   000000   12....       LCALL   ?BDISPATCH
   \   000003   ......       DC24    macParameterSet

   \                                 In  segment BANK_RELAYS, align 1
   \                     ??devChangeGroup?relay:
   \   000000   12....       LCALL   ?BDISPATCH
   \   000003   ......       DC24    devChangeGroup

   \                                 In  segment BANK_RELAYS, align 1
   \                     ??macNetCheck?relay:
   \   000000   12....       LCALL   ?BDISPATCH
   \   000003   ......       DC24    macNetCheck

   \                                 In  segment BANK_RELAYS, align 1
   \                     ??RflsStart?relay:
   \   000000   12....       LCALL   ?BDISPATCH
   \   000003   ......       DC24    RflsStart

   \                                 In  segment BANK_RELAYS, align 1
   \                     ??LinkedShotShut?relay:
   \   000000   12....       LCALL   ?BDISPATCH
   \   000003   ......       DC24    LinkedShotShut

   \                                 In  segment BANK_RELAYS, align 1
   \                     ??macRollPolingProc?relay:
   \   000000   12....       LCALL   ?BDISPATCH
   \   000003   ......       DC24    macRollPolingProc

   \                                 In  segment BANK_RELAYS, align 1
   \                     ??macExRxEnable?relay:
   \   000000   12....       LCALL   ?BDISPATCH
   \   000003   ......       DC24    macExRxEnable

   \                                 In  segment BANK_RELAYS, align 1
   \                     ??macExRxDisable?relay:
   \   000000   12....       LCALL   ?BDISPATCH
   \   000003   ......       DC24    macExRxDisable

   \                                 In  segment BANK_RELAYS, align 1
   \                     ??VeriKeyInitial?relay:
   \   000000   12....       LCALL   ?BDISPATCH
   \   000003   ......       DC24    VeriKeyInitial

   \                                 In  segment BANK_RELAYS, align 1
   \                     ??macTaskInitEx?relay:
   \   000000   12....       LCALL   ?BDISPATCH
   \   000003   ......       DC24    macTaskInitEx

   \                                 In  segment BANK_RELAYS, align 1
   \                     ??VerfiInqure?relay:
   \   000000   12....       LCALL   ?BDISPATCH
   \   000003   ......       DC24    VerfiInqure

   \                                 In  segment BANK_RELAYS, align 1
   \                     ??macMallocNewDev?relay:
   \   000000   12....       LCALL   ?BDISPATCH
   \   000003   ......       DC24    macMallocNewDev

   \                                 In  segment BANK_RELAYS, align 1
   \                     ??macDeleteAllDevice?relay:
   \   000000   12....       LCALL   ?BDISPATCH
   \   000003   ......       DC24    macDeleteAllDevice

   \                                 In  segment BANK_RELAYS, align 1
   \                     ??BridgedMstReadyRes?relay:
   \   000000   12....       LCALL   ?BDISPATCH
   \   000003   ......       DC24    BridgedMstReadyRes

   \                                 In  segment BANK_RELAYS, align 1
   \                     ??DeviceReadyRespond?relay:
   \   000000   12....       LCALL   ?BDISPATCH
   \   000003   ......       DC24    DeviceReadyRespond

   \                                 In  segment BANK_RELAYS, align 1
   \                     ??CheckEachDeviceAlloc?relay:
   \   000000   12....       LCALL   ?BDISPATCH
   \   000003   ......       DC24    CheckEachDeviceAlloc

   \                                 In  segment BANK_RELAYS, align 1
   \                     ??VeriAndAllocID?relay:
   \   000000   12....       LCALL   ?BDISPATCH
   \   000003   ......       DC24    VeriAndAllocID

   \                                 In  segment BANK_RELAYS, align 1
   \                     ??MstDevInfoSend?relay:
   \   000000   12....       LCALL   ?BDISPATCH
   \   000003   ......       DC24    MstDevInfoSend

   \                                 In  segment BANK_RELAYS, align 1
   \                     ??MstDevInfoSendEx?relay:
   \   000000   12....       LCALL   ?BDISPATCH
   \   000003   ......       DC24    MstDevInfoSendEx

   \                                 In  segment BANK_RELAYS, align 1
   \                     ??MstVerifyProc?relay:
   \   000000   12....       LCALL   ?BDISPATCH
   \   000003   ......       DC24    MstVerifyProc

   \                                 In  segment BANK_RELAYS, align 1
   \                     ??RfMcodeInvert?relay:
   \   000000   12....       LCALL   ?BDISPATCH
   \   000003   ......       DC24    RfMcodeInvert

   \                                 In  segment BANK_RELAYS, align 1
   \                     ??DevParsInfo?relay:
   \   000000   12....       LCALL   ?BDISPATCH
   \   000003   ......       DC24    DevParsInfo

   \                                 In  segment BANK_RELAYS, align 1
   \                     ??MultiInfoPars?relay:
   \   000000   12....       LCALL   ?BDISPATCH
   \   000003   ......       DC24    MultiInfoPars

   \                                 In  segment BANK_RELAYS, align 1
   \                     ??devJoinNetProc?relay:
   \   000000   12....       LCALL   ?BDISPATCH
   \   000003   ......       DC24    devJoinNetProc

   \                                 In  segment BANK_RELAYS, align 1
   \                     ??MstBridgeHandle?relay:
   \   000000   12....       LCALL   ?BDISPATCH
   \   000003   ......       DC24    MstBridgeHandle

   \                                 In  segment BANK_RELAYS, align 1
   \                     ??macRxCompleteCallbackEx?relay:
   \   000000   12....       LCALL   ?BDISPATCH
   \   000003   ......       DC24    macRxCompleteCallbackEx

   \                                 In  segment BANK_RELAYS, align 1
   \                     ??CalcSum?relay:
   \   000000   12....       LCALL   ?BDISPATCH
   \   000003   ......       DC24    CalcSum

   \                                 In  segment BANK_RELAYS, align 1
   \                     ??SetSleepMode?relay:
   \   000000   12....       LCALL   ?BDISPATCH
   \   000003   ......       DC24    SetSleepMode

   \                                 In  segment BANK_RELAYS, align 1
   \                     ??LoadGrPara?relay:
   \   000000   12....       LCALL   ?BDISPATCH
   \   000003   ......       DC24    LoadGrPara

   \                                 In  segment BANK_RELAYS, align 1
   \                     ??RfModCheck?relay:
   \   000000   12....       LCALL   ?BDISPATCH
   \   000003   ......       DC24    RfModCheck

   \                                 In  segment BANK_RELAYS, align 1
   \                     ??RfMstExit?relay:
   \   000000   12....       LCALL   ?BDISPATCH
   \   000003   ......       DC24    RfMstExit

   \                                 In  segment BANK_RELAYS, align 1
   \                     ??ExitAndSetChan_exit?relay:
   \   000000   12....       LCALL   ?BDISPATCH
   \   000003   ......       DC24    ExitAndSetChan_exit

   \                                 In  segment BANK_RELAYS, align 1
   \                     ??ExitAndSetChan_setCh?relay:
   \   000000   12....       LCALL   ?BDISPATCH
   \   000003   ......       DC24    ExitAndSetChan_setCh

   \                                 In  segment BANK_RELAYS, align 1
   \                     ??ExitAndSetRfId?relay:
   \   000000   12....       LCALL   ?BDISPATCH
   \   000003   ......       DC24    ExitAndSetRfId

   \                                 In  segment BANK_RELAYS, align 1
   \                     ??macDelay?relay:
   \   000000   12....       LCALL   ?BDISPATCH
   \   000003   ......       DC24    macDelay

   \                                 In  segment BANK_RELAYS, align 1
   \                     ??CmdModeSwitchEx?relay:
   \   000000   12....       LCALL   ?BDISPATCH
   \   000003   ......       DC24    CmdModeSwitchEx

   \                                 In  segment BANK_RELAYS, align 1
   \                     ??CmdModeSwitch?relay:
   \   000000   12....       LCALL   ?BDISPATCH
   \   000003   ......       DC24    CmdModeSwitch

   \                                 In  segment BANK_RELAYS, align 1
   \                     ??macExUartRcvHandle?relay:
   \   000000   12....       LCALL   ?BDISPATCH
   \   000003   ......       DC24    macExUartRcvHandle

   \                                 In  segment BANK_RELAYS, align 1
   \                     ??macEx_UartProcessData?relay:
   \   000000   12....       LCALL   ?BDISPATCH
   \   000003   ......       DC24    macEx_UartProcessData

   \                                 In  segment BANK_RELAYS, align 1
   \                     ??macExUartInit?relay:
   \   000000   12....       LCALL   ?BDISPATCH
   \   000003   ......       DC24    macExUartInit

   \                                 In  segment BANK_RELAYS, align 1
   \                     ??TrigerUartSend?relay:
   \   000000   12....       LCALL   ?BDISPATCH
   \   000003   ......       DC24    TrigerUartSend

   \                                 In  segment BANK_RELAYS, align 1
   \                     ??UartSctSend?relay:
   \   000000   12....       LCALL   ?BDISPATCH
   \   000003   ......       DC24    UartSctSend

   \                                 In  segment BANK_RELAYS, align 1
   \                     ??UartBulkSend?relay:
   \   000000   12....       LCALL   ?BDISPATCH
   \   000003   ......       DC24    UartBulkSend

   \                                 In  segment BANK_RELAYS, align 1
   \                     ??BuildPreFlashInfoData?relay:
   \   000000   12....       LCALL   ?BDISPATCH
   \   000003   ......       DC24    BuildPreFlashInfoData

   \                                 In  segment BANK_RELAYS, align 1
   \                     ??RfMcodeCovert?relay:
   \   000000   12....       LCALL   ?BDISPATCH
   \   000003   ......       DC24    RfMcodeCovert

   \                                 In  segment BANK_RELAYS, align 1
   \                     ??BuildFlashInfoData?relay:
   \   000000   12....       LCALL   ?BDISPATCH
   \   000003   ......       DC24    BuildFlashInfoData

   \                                 In  segment BANK_RELAYS, align 1
   \                     ??BuildPilotInfoData?relay:
   \   000000   12....       LCALL   ?BDISPATCH
   \   000003   ......       DC24    BuildPilotInfoData

   \                                 In  segment BANK_RELAYS, align 1
   \                     ??PreFlashInfo?relay:
   \   000000   12....       LCALL   ?BDISPATCH
   \   000003   ......       DC24    PreFlashInfo

   \                                 In  segment BANK_RELAYS, align 1
   \                     ??CountDown?relay:
   \   000000   12....       LCALL   ?BDISPATCH
   \   000003   ......       DC24    CountDown

   \                                 In  segment BANK_RELAYS, align 1
   \                     ??FlashConfirm?relay:
   \   000000   12....       LCALL   ?BDISPATCH
   \   000003   ......       DC24    FlashConfirm

   \                                 In  segment BANK_RELAYS, align 1
   \                     ??Pilot?relay:
   \   000000   12....       LCALL   ?BDISPATCH
   \   000003   ......       DC24    Pilot

   \                                 In  segment BANK_RELAYS, align 1
   \                     ??CalcEachRssi?relay:
   \   000000   12....       LCALL   ?BDISPATCH
   \   000003   ......       DC24    CalcEachRssi

   \                                 In  segment BANK_RELAYS, align 1
   \                     ??ChanScan?relay:
   \   000000   12....       LCALL   ?BDISPATCH
   \   000003   ......       DC24    ChanScan

   \                                 In  segment BANK_RELAYS, align 1
   \                     ??LinkedShotRel?relay:
   \   000000   12....       LCALL   ?BDISPATCH
   \   000003   ......       DC24    LinkedShotRel

   \                                 In  segment BANK_RELAYS, align 1
   \                     ??DevShotRel?relay:
   \   000000   12....       LCALL   ?BDISPATCH
   \   000003   ......       DC24    DevShotRel

   \                                 In  segment BANK_RELAYS, align 1
   \                     ??InqureConfirm?relay:
   \   000000   12....       LCALL   ?BDISPATCH
   \   000003   ......       DC24    InqureConfirm

   \                                 In  segment BANK_RELAYS, align 1
   \                     ??ReConfirm?relay:
   \   000000   12....       LCALL   ?BDISPATCH
   \   000003   ......       DC24    ReConfirm

   \                                 In  segment BANK_RELAYS, align 1
   \                     ??ReadyInfo?relay:
   \   000000   12....       LCALL   ?BDISPATCH
   \   000003   ......       DC24    ReadyInfo

   \                                 In  segment BANK_RELAYS, align 1
   \                     ??MstBridgeInfoInqure?relay:
   \   000000   12....       LCALL   ?BDISPATCH
   \   000003   ......       DC24    MstBridgeInfoInqure

   \                                 In  segment BANK_RELAYS, align 1
   \                     ??macEventLoopEx?relay:
   \   000000   12....       LCALL   ?BDISPATCH
   \   000003   ......       DC24    macEventLoopEx

   \                                 In  segment BANK_RELAYS, align 1
   \                     ??macExTxDoneCallback?relay:
   \   000000   12....       LCALL   ?BDISPATCH
   \   000003   ......       DC24    macExTxDoneCallback

   \                                 In  segment BANK_RELAYS, align 1
   \                     ??macExTxAckDoneCallback?relay:
   \   000000   12....       LCALL   ?BDISPATCH
   \   000003   ......       DC24    macExTxAckDoneCallback

   \                                 In  segment BANK_RELAYS, align 1
   \                     ??znpTestRF?relay:
   \   000000   12....       LCALL   ?BDISPATCH
   \   000003   ......       DC24    znpTestRF

   \                                 In  segment BANK_RELAYS, align 1
   \                     ??halAesLoadKeyOrInitVector?relay:
   \   000000   12....       LCALL   ?BDISPATCH
   \   000003   ......       DC24    halAesLoadKeyOrInitVector

   \                                 In  segment BANK_RELAYS, align 1
   \                     ??halAesEncrDecr?relay:
   \   000000   12....       LCALL   ?BDISPATCH
   \   000003   ......       DC24    halAesEncrDecr

   \                                 In  segment XDATA_I, align 1, keep-with-next
   \                     `?<Constant "MakeTomorrowBest">`:
   \   000000                DS 17
   \   000011                REQUIRE `?<Initializer for <Constant "MakeTomorrowBest"`
   \   000011                REQUIRE __INIT_XDATA_I

   \                                 In  segment XDATA_I, align 1, keep-with-next
   \                     `?<Constant "2015/11/13 OK\\r\\n">`:
   \   000000                DS 16
   \   000010                REQUIRE `?<Initializer for <Constant "2015/11/13 OK\\r\\n`
   \   000010                REQUIRE __INIT_XDATA_I

   \                                 In  segment XDATA_Z, align 1, keep-with-next
   \                     `?<Constant {0}>`:
   \   000000                DS 20
   \   000014                REQUIRE __INIT_XDATA_Z

   \                                 In  segment XDATA_Z, align 1, keep-with-next
   \                     `?<Constant {0}>_1`:
   \   000000                DS 20
   \   000014                REQUIRE __INIT_XDATA_Z

   \                                 In  segment XDATA_Z, align 1, keep-with-next
   \                     `?<Constant {0}>_2`:
   \   000000                DS 100
   \   000064                REQUIRE __INIT_XDATA_Z

   \                                 In  segment XDATA_I, align 1, keep-with-next
   \                     `?<Constant {2, 11, 245, 85}>`:
   \   000000                DS 4
   \   000004                REQUIRE `?<Initializer for <Constant {2, 11, 245, 85}>>`
   \   000004                REQUIRE __INIT_XDATA_I

   \                                 In  segment XDATA_I, align 1, keep-with-next
   \                     __Constant_0:
   \   000000                DS 4
   \   000004                REQUIRE `?<Initializer for __Constant_0>`
   \   000004                REQUIRE __INIT_XDATA_I
   6792          
   6793          static void MemReadRam(macRam_t * pRam, uint8 * pData, uint8 len)
   6794          {
   6795            while (len)
   6796            {
   6797              len--;
   6798              *pData = *pRam;
   6799              pRam++;
   6800              pData++;
   6801            }
   6802          }
   6803          
   6804          

   Maximum stack usage in bytes:

     Function                       ISTACK PSTACK XSTACK
     --------                       ------ ------ ------
     BridgedMstReadyRes                 0      0     14
       -> macRfSendPacket               0      0     28
       -> osal_rand                     0      0     20
       -> osal_start_timerEx            0      0     20
     BuildFlashInfoData                 1      0     35
       -> osal_memcpy                   0      0     50
       -> RfMcodeCovert                 0      0     44
       -> osal_memcpy                   0      0     50
       -> RfMcodeCovert                 0      0     44
       -> RfMcodeCovert                 0      0     44
     BuildPilotInfoData                 1      0     28
       -> osal_memcpy                   0      0     36
       -> osal_memset                   0      0     30
     BuildPreFlashInfoData              1      0     29
       -> osal_memcpy                   0      0     36
     CalcEachRssi                       1      0     49
       -> osal_start_timerEx            0      0     40
       -> macExRxDisable                0      0     40
       -> macParameterSet               0      0     40
       -> macExRxEnable                 0      0     40
       -> macRadioEnergyDetectStart     0      0     40
       -> macRadioEnergyDetectStop      0      0     40
       -> macParameterSet               0      0     40
     CalcSum                            0      0    125
     ChanScan                           0      0     30
       -> CalcEachRssi                  0      0     58
       -> osal_memcpy                   0      0     60
       -> TrigerUartSend                0      0     54
       -> osal_start_timerEx            0      0     54
       -> osal_start_timerEx            0      0     54
     CheckEachDeviceAlloc               0      0     16
       -> macRfSendPacket               0      0     32
       -> osal_rand                     0      0     24
       -> osal_start_timerEx            0      0     24
       -> RemoveDevice                  0      0     24
       -> NoneUsedShortAddrSearch       0      0     24
       -> osal_rand                     0      0     24
       -> osal_start_timerEx            0      0     24
       -> osal_rand                     0      0     24
       -> osal_start_timerEx            0      0     24
     CmdModeSwitch                      0      0     14
       -> macRfSendPacket               0      0     28
       -> RflsStart                     0      0     20
       -> osal_rand                     0      0     20
       -> osal_start_timerEx            0      0     20
     CmdModeSwitchEx                    2      0      0
       -> RfModCheck                    4      0      0
       -> macDeleteAllDevice            4      0      0
       -> macParameterSet               4      0      0
       -> osal_start_timerEx            4      0      0
     CountDown                          0      0     31
       -> macRfSendPacket               0      0     28
       -> osal_start_timerEx            0      0     20
     DevParsInfo                        2      0    125
       -> CalcSum                       0      0    230
       -> UartBulkSend                  0      0    230
       -> CalcSum                       0      0    230
       -> UartBulkSend                  0      0    230
     DevShotRel                         0      0     14
       -> macRfSendPacket               0      0     28
       -> osal_rand                     0      0     20
       -> osal_start_timerEx            0      0     20
       -> osal_start_timerEx            0      0     20
     DeviceReadyRespond                 1      0     14
       -> SearchForDevice               0      0     20
       -> UartSctSend                   0      0     20
       -> macRfSendPacket               0      0     28
       -> osal_rand                     0      0     20
       -> osal_start_timerEx            0      0     20
       -> osal_rand                     0      0     20
       -> osal_start_timerEx            0      0     20
       -> macRfSendPacket               0      0     28
       -> osal_rand                     0      0     20
       -> osal_start_timerEx            0      0     20
     ExitAndSetChan_exit                0      0     14
       -> macRfSendPacket               0      0     28
       -> osal_start_timerEx            0      0     20
     ExitAndSetChan_setCh               3      0      0
       -> RfModCheck                    4      0      0
       -> macParameterSet               4      0      0
       -> osal_start_timerEx            4      0      0
     ExitAndSetRfId                     0      0     14
       -> macRfSendPacket               0      0     28
       -> macParameterSet               0      0     20
       -> osal_start_timerEx            0      0     20
     FlashConfirm                       0      0     14
       -> BuildFlashInfoData            0      0     20
       -> macRfSendPacket               0      0     28
       -> osal_start_timerEx            0      0     20
     InqureConfirm                      0      0     14
       -> sAddrExtCpy                   0      0     20
       -> macRfSendPacket               0      0     28
       -> osal_start_timerEx            0      0     20
     LinkedShotRel                      0      0     14
       -> macRfSendPacket               0      0     28
       -> osal_start_timerEx            0      0     20
       -> osal_start_timerEx            0      0     20
     LinkedShotShut                     0      0     10
       -> osal_rand                     0      0     20
       -> osal_start_timerEx            0      0     20
     LoadGrPara                         3      0     17
     MstBridgeHandle                    1      0     23
       -> osal_start_timerEx            0      0     22
       -> SearchForDevice               0      0     22
       -> MstDevInfoSend                0      0     22
       -> MstDevInfoSend                0      0     22
       -> osal_rand                     0      0     22
       -> osal_start_timerEx            0      0     22
       -> UartSctSend                   0      0     22
       -> osal_start_timerEx            0      0     22
       -> osal_start_timerEx            0      0     22
       -> osal_start_timerEx            0      0     22
       -> osal_rand                     0      0     22
       -> osal_start_timerEx            0      0     22
       -> RemoveDevice                  0      0     22
       -> SearchForDevice               0      0     22
       -> MstDevInfoSendEx              0      0     22
       -> UartSctSend                   0      0     22
     MstBridgeInfoInqure                0      0     14
       -> macRfSendPacket               0      0     28
     MstDevInfoSend                     4      0     36
       -> CalcSum                       4      0     40
       -> UartBulkSend                  4      0     40
     MstDevInfoSendEx                   2      0     45
       -> CalcSum                       0      0     58
       -> UartBulkSend                  0      0     58
     MstVerifyProc                      1      0     28
       -> macMallocNewDev               0      0     32
       -> osal_rand                     0      0     32
       -> osal_start_timerEx            0      0     32
       -> sAddrExtCmp                   0      0     32
       -> osal_rand                     0      0     32
       -> osal_start_timerEx            0      0     32
       -> osal_rand                     0      0     32
       -> osal_start_timerEx            0      0     32
       -> SearchForDevice               0      0     32
       -> osal_rand                     0      0     32
       -> osal_start_timerEx            0      0     32
       -> SearchForDevice               0      0     32
       -> MstDevInfoSend                0      0     32
       -> MstDevInfoSend                0      0     32
       -> osal_rand                     0      0     32
       -> osal_start_timerEx            0      0     32
       -> UartSctSend                   0      0     32
       -> osal_rand                     0      0     32
       -> osal_start_timerEx            0      0     32
       -> osal_start_timerEx            0      0     32
       -> UartSctSend                   0      0     32
       -> osal_start_timerEx            0      0     32
       -> UartSctSend                   0      0     32
       -> osal_start_timerEx            0      0     32
       -> SearchForDevice               0      0     32
       -> MstDevInfoSendEx              0      0     32
       -> UartSctSend                   0      0     32
       -> UartSctSend                   0      0     32
       -> osal_start_timerEx            0      0     32
       -> SearchForDevice               0      0     32
       -> NoneUsedShortAddrSearch       0      0     32
       -> osal_rand                     0      0     32
       -> osal_start_timerEx            0      0     32
       -> osal_rand                     0      0     32
       -> osal_start_timerEx            0      0     32
       -> RemoveDevice                  0      0     32
       -> osal_start_timerEx            0      0     32
       -> osal_start_timerEx            0      0     32
       -> osal_start_timerEx            0      0     32
       -> osal_start_timerEx            0      0     32
     MultiInfoPars                      1      0     41
       -> CalcSum                       0      0     62
       -> UartBulkSend                  0      0     62
     NoneUsedShortAddrSearch            0      0     25
       -> SearchForDevice               0      0     18
       -> SearchForDevice               0      0     18
       -> halAssertHandler              0      0     18
     Pilot                              0      0     14
       -> BuildPilotInfoData            0      0     20
       -> macRfSendPacket               0      0     28
       -> osal_start_timerEx            0      0     20
       -> osal_start_timerEx            0      0     20
     PreFlashInfo                       0      0     15
       -> osal_memcmp                   0      0     28
       -> BuildPreFlashInfoData         0      0     22
       -> macRfSendPacket               0      0     30
       -> osal_start_timerEx            0      0     22
     ReConfirm                          0      0     14
       -> macRfSendPacket               0      0     28
     ReadyInfo                          0      0     14
       -> macRfSendPacket               0      0     28
       -> osal_rand                     0      0     20
       -> osal_start_timerEx            0      0     20
     RemoveDevice                       0      0     26
       -> SearchForDevice               0      0     20
       -> MstDevInfoSend                0      0     20
       -> osal_memset                   0      0     20
     RfMcodeCovert                      0      0     22
     RfMcodeInvert                      0      0      0
     RfModCheck                         0      0     26
       -> macExRxDisable                0      0     18
       -> macExRxEnable                 0      0     18
       -> macExRxEnable                 0      0     18
     RfMstExit                          0      0     14
       -> macRfSendPacket               0      0     28
     RflsStart                          0      0     24
       -> macRfSendPacket               0      0     28
     SearchForDevice                    2      0     16
     SetSleepMode                       2      0      0
       -> halSleep                      4      0      0
     TrigerUartSend                     1      0     37
       -> HalUARTWrite                  0      0     20
       -> UartDMAIntSend                0      0     20
     UartBulkSend                       0      0    125
       -> HalUARTWrite                  0      0     20
       -> UartDMAIntSend                0      0     20
     UartSctSend                        1      0     35
       -> TrigerUartSend                0      0     18
     VerfiInqure                        0      0     14
       -> osal_rand                     0      0     20
       -> osal_start_timerEx            0      0     20
       -> macRfSendPacket               0      0     28
       -> osal_rand                     0      0     20
       -> osal_start_timerEx            0      0     20
     VeriAndAllocID                     1      0     16
       -> osal_start_timerEx            0      0     24
       -> osal_start_timerEx            0      0     24
       -> osal_rand                     0      0     24
       -> osal_start_timerEx            0      0     24
       -> macRfSendPacket               0      0     32
       -> osal_rand                     0      0     24
       -> osal_start_timerEx            0      0     24
     VeriKeyInitial                     1      0     60
       -> HalFlashRead                  0      0     66
       -> halAesLoadKeyOrInitVector     0      0     62
       -> halAesEncrDecr                0      0     66
       -> osal_memcpy                   0      0     68
       -> halAesLoadKeyOrInitVector     0      0     62
       -> halAesEncrDecr                0      0     66
     devChangeGroup                     0      0     14
       -> macRfSendPacket               0      0     28
       -> osal_rand                     0      0     20
       -> osal_start_timerEx            0      0     20
     devJoinNetProc                     0      0     22
       -> osal_rand                     0      0     20
       -> osal_start_timerEx            0      0     20
       -> UartSctSend                   0      0     20
       -> macDelay                      0      0     20
       -> osal_rand                     0      0     20
       -> osal_start_timerEx            0      0     20
       -> osal_start_timerEx            0      0     20
       -> macExRxDisable                0      0     20
       -> macDelay                      0      0     20
       -> macExRxEnable                 0      0     20
       -> macExRxDisable                0      0     20
       -> UartSctSend                   0      0     20
       -> macDelay                      0      0     20
       -> macDelay                      0      0     20
       -> macDelay                      0      0     20
       -> macExRxDisable                0      0     20
       -> UartSctSend                   0      0     20
       -> macDelay                      0      0     20
       -> macDelay                      0      0     20
       -> macExRxEnable                 0      0     20
       -> osal_start_timerEx            0      0     20
       -> osal_rand                     0      0     20
       -> osal_start_timerEx            0      0     20
       -> osal_rand                     0      0     20
       -> osal_start_timerEx            0      0     20
       -> UartSctSend                   0      0     20
       -> osal_stop_timerEx             0      0     20
       -> osal_rand                     0      0     20
       -> osal_start_timerEx            0      0     20
       -> macExRxDisable                0      0     20
       -> DevParsInfo                   0      0     20
       -> macExRxEnable                 0      0     20
       -> osal_rand                     0      0     20
       -> osal_start_timerEx            0      0     20
       -> macExRxDisable                0      0     20
       -> MultiInfoPars                 0      0     20
       -> macExRxEnable                 0      0     20
       -> osal_rand                     0      0     20
       -> osal_start_timerEx            0      0     20
     halAesEncrDecr                     1      0     51
     halAesLoadKeyOrInitVector          0      0     41
     halKeyPort0Isr                     0      0     14
       -> UartDMAIntRcv                 0      0     28
     macBuildMpdu                       1      0     33
       -> osal_memcpy                   0      0     36
     macDelay                           0      0     10
     macDeleteAllDevice                 0      0     26
       -> osal_memset                   0      0     18
       -> osal_memset                   0      0     18
       -> osal_memset                   0      0     18
     macEventLoopEx                     0      0     12
       -> osal_msg_receive              0      0     24
       -> MstBridgeHandle               0      0     24
       -> osal_msg_deallocate           0      0     24
       -> osal_msg_receive              0      0     24
       -> devJoinNetProc                0      0     24
       -> MstVerifyProc                 0      0     24
       -> osal_rand                     0      0     24
       -> osal_start_timerEx            0      0     24
       -> osal_rand                     0      0     24
       -> osal_start_timerEx            0      0     24
       -> UartSctSend                   0      0     24
       -> osal_start_timerEx            0      0     24
       -> UartSctSend                   0      0     24
       -> osal_start_timerEx            0      0     24
     macExRxDisable                     2      0     20
       -> macRxDisable                  4      0      0
     macExRxEnable                      2      0     20
       -> macRxEnable                   4      0      0
     macExTxAckDoneCallback             2      0      0
     macExTxDoneCallback                2      0      0
     macExUartInit                      2      0     55
       -> HalUARTOpen                   4      0     58
       -> HalUARTWrite                  4      0     58
       -> UartDMAIntSend                4      0     58
     macExUartRcvHandle                 1      0     29
       -> CalcSum                       0      0     34
       -> macDeleteAllDevice            0      0     34
       -> RfModCheck                    0      0     34
       -> macParameterSet               0      0     34
       -> osal_start_timerEx            0      0     34
       -> macParameterSet               0      0     34
       -> macDeleteAllDevice            0      0     34
       -> osal_start_timerEx            0      0     34
       -> RfModCheck                    0      0     34
       -> macDeleteAllDevice            0      0     34
       -> macParameterSet               0      0     34
       -> osal_start_timerEx            0      0     34
       -> macDeleteAllDevice            0      0     34
       -> osal_start_timerEx            0      0     34
       -> osal_rand                     0      0     34
       -> osal_start_timerEx            0      0     34
       -> osal_start_timerEx            0      0     34
       -> CountDown                     0      0     34
       -> osal_start_timerEx            0      0     34
       -> osal_start_timerEx            0      0     34
       -> LoadGrPara                    0      0     34
       -> LoadGrPara                    0      0     34
       -> LoadGrPara                    0      0     34
       -> LoadGrPara                    0      0     34
       -> LoadGrPara                    0      0     34
       -> osal_start_timerEx            0      0     34
       -> osal_start_timerEx            0      0     34
       -> osal_start_timerEx            0      0     34
       -> osal_start_timerEx            0      0     34
       -> macRxHardDisable              0      0     34
       -> osal_start_timerEx            0      0     34
       -> osal_rand                     0      0     34
       -> osal_start_timerEx            0      0     34
       -> osal_start_timerEx            0      0     34
       -> osal_start_timerEx            0      0     34
       -> osal_start_timerEx            0      0     34
       -> znpTestRF                     0      0     34
     macEx_UartProcessData              0      0     12
       -> Hal_UART_RxBufLen             0      0     24
       -> osal_memset                   0      0     24
       -> HalUARTRead                   0      0     24
       -> macExUartRcvHandle            0      0     24
       -> CountDown                     0      0     24
     macMallocNewDev                    0      0     27
       -> sAddrExtCmp                   0      0     22
       -> RemoveDevice                  0      0     22
       -> sAddrExtCpy                   0      0     22
       -> sAddrExtCpy                   0      0     22
     macNetCheck                        1      0     41
       -> macParameterSet               0      0     22
       -> osal_memcpy                   0      0     28
       -> macRfSendPacket               0      0     30
       -> osal_start_timerEx            0      0     22
       -> macParameterSet               0      0     22
       -> osal_rand                     0      0     22
       -> osal_start_timerEx            0      0     22
       -> osal_memcpy                   0      0     28
       -> macRfSendPacket               0      0     30
       -> osal_start_timerEx            0      0     22
       -> osal_start_timerEx            0      0     22
     macParameterSet                    2      0     26
     macRfSendPacket                    0      0     31
       -> macBuildMpdu                  0      0     30
       -> macMemWriteTxFifo             0      0     22
     macRollPolingProc                  1      0     14
       -> macParameterSet               0      0     20
       -> macDelay                      0      0     20
       -> sAddrExtCpy                   0      0     20
       -> macRfSendPacket               0      0     28
       -> osal_rand                     0      0     20
       -> osal_start_timerEx            0      0     20
       -> osal_rand                     0      0     20
       -> osal_start_timerEx            0      0     20
       -> macRfSendPacket               0      0     28
       -> osal_rand                     0      0     20
       -> osal_start_timerEx            0      0     20
     macRxCompleteCallbackEx            0      0     10
       -> osal_msg_allocate             0      0     20
       -> osal_msg_send                 0      0     20
     macTaskInitEx                      0      0     28
       -> macLowLevelInit               0      0     52
       -> macExUartInit                 0      0     52
       -> macRadioSetTxPower            0      0     52
       -> macMemReadRam                 0      0     52
       -> macMemWriteRam                0      0     52
       -> VeriKeyInitial                0      0     52
       -> osal_memset                   0      0     52
       -> osal_memset                   0      0     52
       -> osal_memset                   0      0     52
       -> macParameterSet               0      0     52
       -> CalcEachRssi                  0      0     56
       -> UartSctSend                   0      0     52
       -> osal_start_timerEx            0      0     52
       -> macNetCheck                   0      0     52
     znpTestRF                          4      0     21


   Segment part sizes:

     Function/Label                                 Bytes
     --------------                                 -----
     _A_P0                                             1
     P0IFG                                             1
     PICTL                                             1
     P0INP                                             1
     _A_P1                                             1
     RFIRQF1                                           1
     IEN2                                              1
     _A_IEN0                                           1
     P0IEN                                             1
     ENCDI                                             1
     ENCDO                                             1
     ENCCS                                             1
     _A_IEN1                                           1
     _A_IRCON                                          1
     RFST                                              1
     P0SEL                                             1
     P0DIR                                             1
     txMpdu                                          115
     g_extAddr                                         8
     g_extAddrSrc                                      8
     g_extAddrVef                                      8
     g_modelingStyle                                   1
     preCmdBuf                                         4
     multiCmd                                          4
     rcvBuf                                           80
     pConfig                                           2
     basicRfConfig                                   296
     txState                                           8
     macEx_taskId                                      1
     g_quireFlag                                       1
     g_isMaster                                        1
     g_mstHold                                         1
     rxi                                              12
     g_sendLen                                         1
     pCurrentDev                                       2
     g_msTick                                          2
     g_slaLinkSta                                      1
     s_rxFlag                                          1
     s_ready                                           1
     g_netStart                                        1
     g_initCheck                                       1
     g_swMode                                          1
     g_swRfChan                                        1
     g_swRfId                                          2
     g_grInfo                                          1
     ipRsv                                             4
     g_devLinkFlag                                     1
     g_flaStatus                                       1
     g_hpFlag                                          1
     g_devCmd                                          1
     gBUartTotalByte                                   1
     gBUartLen                                         1
     gBUartBuf                                        64
     uart_tran_flag                                    1
     pTxData                                         127
     veriPckSendCallback                               2
     callbackPara                                      2
     g_devCheck                                        3
     radioSet                                         37
     cpuIdKey                                         16
     cpuIdRst                                         16
     SearchForDevice                                  65
     ??Subroutine289_0                                 5
     ??Subroutine295_0                                 5
     ??Subroutine299_0                                 7
     ?Subroutine131                                    5
     ??Subroutine331_0                                 4
     RemoveDevice                                    202
     ?Subroutine125                                    4
     ??Subroutine268_0                                 7
     ?Subroutine124                                    1
     ??Subroutine269_0                                 9
     ?Subroutine63                                     7
     ?Subroutine259                                   10
     ?Subroutine203                                    6
     ??Subroutine281_0                                 1
     ??Subroutine282_0                                 4
     ?Subroutine248                                    5
     ?Subroutine57                                    10
     ??Subroutine287_0                                 5
     ?Subroutine210                                    4
     ?Subroutine247                                   13
     ?Subroutine56                                     4
     ?Subroutine190                                    8
     ?Subroutine258                                    2
     ??Subroutine288_0                                 3
     ??Subroutine290_0                                 4
     ?Subroutine236                                    6
     ?Subroutine126                                   11
     ?Subroutine94                                     4
     ??Subroutine298_0                                 4
     ?Subroutine211                                    4
     ?Subroutine250                                    5
     ?Subroutine265                                   11
     ?Subroutine186                                   12
     ?Subroutine31                                     4
     ?Subroutine189                                    9
     ??Subroutine312_0                                 4
     ?Subroutine249                                   10
     ?Subroutine267                                    3
     ??Subroutine313_0                                 5
     ?Subroutine261                                   10
     ??Subroutine316_0                                24
     ??Subroutine318_0                                 5
     ??Subroutine328_0                                 4
     ??Subroutine330_0                                 3
     ??Subroutine345_0                                10
     ?Subroutine17                                     1
     ??Subroutine352_0                                 1
     ??Subroutine353_0                                10
     NoneUsedShortAddrSearch                          97
     ?Subroutine71                                     3
     ??Subroutine270_0                                 4
     ?Subroutine209                                   10
     ?Subroutine2                                      5
     ?Subroutine112                                   12
     ?Subroutine93                                     5
     ?Subroutine88                                    11
     ??Subroutine320_0                                 4
     ?Subroutine204                                    6
     macBuildMpdu                                    173
     ??Subroutine272_0                                 5
     ?Subroutine95                                     8
     macRfSendPacket                                 139
     ??Subroutine279_0                                 5
     macParameterSet                                  61
     ?Subroutine25                                     3
     ??Subroutine273_0                                18
     ?Subroutine114                                    4
     ?Subroutine215                                    7
     ?Subroutine96                                     7
     ?Subroutine245                                    9
     ?Subroutine70                                     4
     ?Subroutine193                                    6
     ??Subroutine319_0                                 6
     ?Subroutine216                                    3
     ??Subroutine350_0                                 6
     devChangeGroup                                   75
     ?Subroutine18                                    10
     ?Subroutine221                                    6
     ?Subroutine241                                    1
     ??Subroutine304_0                                 5
     ?Subroutine137                                   15
     ??Subroutine323_0                                 9
     ?Subroutine183                                    4
     ?Subroutine243                                   31
     ?Subroutine7                                      1
     ??Subroutine333_0                                 2
     ??Subroutine334_0                                 2
     ??Subroutine335_0                                 2
     ??Subroutine336_0                                 6
     ??Subroutine342_0                                 9
     ?Subroutine225                                    5
     ??Subroutine343_0                                 5
     ?Subroutine262                                    1
     ?Subroutine134                                    5
     ??Subroutine346_0                                 4
     ?Subroutine232                                    7
     ?Subroutine263                                   14
     ??Subroutine347_0                                12
     macNetCheck                                     276
     ?Subroutine166                                    7
     ?Subroutine149                                    1
     ??Subroutine274_0                                 5
     ??Subroutine276_0                                 1
     ??Subroutine277_0                                 4
     ?Subroutine43                                    17
     ?Subroutine39                                    21
     ?Subroutine14                                    11
     ?Subroutine138                                    6
     ?Subroutine159                                    6
     ?Subroutine80                                    11
     ?Subroutine229                                    7
     ?Subroutine197                                    7
     ?Subroutine187                                    8
     ?Subroutine251                                   13
     ?Subroutine45                                     9
     ?Subroutine147                                    6
     ?Subroutine194                                    7
     ?Subroutine223                                   15
     ?Subroutine208                                    4
     ?Subroutine246                                    4
     ?Subroutine264                                   12
     ??Subroutine322_0                                 7
     ??Subroutine324_0                                 8
     ?Subroutine230                                    6
     ?Subroutine192                                    4
     ?Subroutine244                                   13
     ?Subroutine97                                     6
     ?Subroutine199                                    9
     ??Subroutine338_0                                 6
     ??Subroutine339_0                                 2
     ??Subroutine340_0                                 2
     ??Subroutine341_0                                 2
     ?Subroutine255                                    2
     ?Subroutine184                                   20
     netChk                                            1
     chanRsv                                           1
     RflsStart                                        49
     ?Subroutine8                                      6
     LinkedShotShut                                   22
     ?Subroutine83                                     3
     ??Subroutine275_0                                 2
     macRollPolingProc                               381
     ?Subroutine85                                     5
     ??Subroutine280_0                                 4
     ?Subroutine158                                    4
     ?Subroutine99                                    10
     ?Subroutine82                                     4
     ?Subroutine252                                   12
     ??Subroutine285_0                                 6
     ?Subroutine188                                    7
     ??Subroutine293_0                                 8
     ?Subroutine167                                    7
     ?Subroutine140                                   16
     ?Subroutine105                                   12
     ?Subroutine50                                    24
     ??Subroutine303_0                                 6
     ?Subroutine154                                    3
     ??Subroutine327_0                                 4
     ?Subroutine20                                     4
     ?Subroutine198                                    4
     ?Subroutine22                                    18
     ?Subroutine239                                    4
     ??Subroutine354_0                                 5
     macExRxEnable                                    24
     macExRxDisable                                   23
     ?Subroutine4                                      2
     ??Subroutine278_0                                 3
     VeriKeyInitial                                  210
     macTaskInitEx                                   314
     ?Subroutine191                                    4
     ?Subroutine164                                   13
     ?Subroutine65                                     7
     ?Subroutine60                                     7
     ??Subroutine297_0                                 4
     ?Subroutine218                                    4
     ?Subroutine253                                   12
     ?Subroutine220                                    6
     ?Subroutine160                                    6
     ?Subroutine165                                    2
     VerfiInqure                                     133
     ?Subroutine66                                     4
     ??Subroutine283_0                                 3
     ??Subroutine284_0                                 4
     ?Subroutine29                                     1
     ?Subroutine42                                     7
     ?Subroutine228                                    4
     ??Subroutine291_0                                 9
     ?Subroutine59                                    10
     ?Subroutine157                                   13
     ?Subroutine133                                    6
     ?Subroutine226                                    8
     ?Subroutine201                                    4
     macMallocNewDev                                 151
     ?Subroutine58                                     4
     ??Subroutine286_0                                 7
     ?Subroutine54                                     5
     macDeleteAllDevice                              162
     ?Subroutine116                                   10
     ?Subroutine84                                     8
     ?Subroutine115                                   12
     ?Subroutine102                                    4
     ?Subroutine100                                    6
     ?Subroutine119                                    4
     ?Subroutine75                                     6
     ?Subroutine127                                    6
     BridgedMstReadyRes                               56
     ?Subroutine153                                    4
     ?Subroutine19                                     5
     ?Subroutine132                                    6
     ??Subroutine348_0                                 4
     ??Subroutine349_0                                 9
     ?Subroutine182                                    9
     DeviceReadyRespond                              287
     ?Subroutine142                                    9
     ?Subroutine101                                    6
     ?Subroutine34                                     1
     ??Subroutine292_0                                 4
     ?Subroutine106                                   18
     ??Subroutine300_0                                 4
     ??Subroutine305_0                                 4
     ?Subroutine200                                   14
     ?Subroutine121                                    1
     ??Subroutine329_0                                 2
     ?Subroutine156                                    9
     CheckEachDeviceAlloc                            192
     ?Subroutine92                                     4
     ?Subroutine202                                   15
     ?Subroutine16                                    10
     ??Subroutine294_0                                12
     ?Subroutine237                                    3
     ?Subroutine12                                     6
     ??Subroutine296_0                                18
     ?Subroutine136                                   15
     ?Subroutine139                                   13
     ?Subroutine55                                    18
     ?Subroutine49                                    12
     ?Subroutine163                                    6
     ?Subroutine155                                    6
     ?Subroutine5                                      3
     ??Subroutine326_0                                 5
     ?Subroutine148                                   11
     ?Subroutine35                                    15
     VeriAndAllocID                                  332
     ?Subroutine135                                    5
     ?Subroutine174                                   10
     devRsv                                            1
     waitAckFlag                                       1
     MstDevInfoSend                                  169
     ?Subroutine6                                      5
     ?Subroutine53                                     7
     MstDevInfoSendEx                                197
     MstVerifyProc                                   982
     ?Subroutine206                                    3
     ??Subroutine301_0                                11
     ?Subroutine176                                    6
     ??Subroutine302_0                                 8
     ?Subroutine175                                    1
     ?Subroutine113                                   10
     ?Subroutine68                                    17
     ?Subroutine52                                    15
     ?Subroutine44                                     6
     ?Subroutine38                                     6
     ??Subroutine306_0                                 5
     ?Subroutine30                                    15
     ?Subroutine28                                    19
     ?Subroutine205                                    6
     ?Subroutine146                                   13
     ?Subroutine170                                    4
     ?Subroutine150                                   16
     ?Subroutine78                                     7
     ??Subroutine314_0                                 7
     ?Subroutine212                                    5
     ?Subroutine254                                    9
     ??Subroutine315_0                                14
     ?Subroutine40                                     5
     ?Subroutine37                                     4
     ?Subroutine195                                   12
     ?Subroutine27                                    13
     ?Subroutine235                                   14
     ?Subroutine26                                    29
     ?Subroutine24                                     8
     ?Subroutine234                                    6
     ?Subroutine23                                    10
     ?Subroutine185                                    1
     ?Subroutine21                                    11
     ?Subroutine240                                    6
     ?Subroutine13                                    23
     ?Subroutine89                                     6
     ??Subroutine344_0                                10
     ?Subroutine41                                     1
     ??Subroutine351_0                                 4
     ?Subroutine196                                   12
     relCmdCnt                                         1
     slaCmdRel                                         1
     slaCmdModel                                       1
     slaCmdTest                                        1
     RfMcodeInvert                                    59
     DevParsInfo                                     724
     ?Subroutine171                                    8
     ??Subroutine307_0                                 7
     ?Subroutine129                                    4
     ??Subroutine308_0                                 5
     ?Subroutine33                                    29
     ?Subroutine227                                    9
     ?Subroutine256                                    6
     MultiInfoPars                                   296
     ?Subroutine169                                   16
     ?Subroutine118                                   10
     ?Subroutine141                                    8
     devJoinNetProc                                  620
     ?Subroutine177                                   10
     ?Subroutine91                                     7
     ?Subroutine86                                    10
     ?Subroutine219                                   10
     ?Subroutine77                                    20
     ??Subroutine321_0                                 4
     ?Subroutine213                                   10
     rcvCnt                                            1
     flaFlag                                           1
     ??Subroutine271_0                                 7
     ?Subroutine168                                    1
     MstBridgeHandle                                 569
     ?Subroutine61                                     6
     ?Subroutine217                                   10
     ?Subroutine51                                     4
     ?Subroutine48                                     4
     relCmdCnt                                         1
     macRxCompleteCallbackEx                          46
     ?Subroutine151                                    5
     ?Subroutine231                                    4
     ?Subroutine257                                    5
     ?Subroutine266                                    9
     CalcSum                                          33
     SetSleepMode                                     21
     LoadGrPara                                       53
     RfModCheck                                      169
     ?Subroutine111                                   10
     ?Subroutine110                                   12
     ?Subroutine1                                     20
     ??Subroutine317_0                                 1
     RfMstExit                                        32
     ?Subroutine9                                     26
     ExitAndSetChan_exit                              58
     ?Subroutine0                                      3
     ExitAndSetChan_setCh                             36
     ?Subroutine62                                    21
     ?Subroutine108                                   13
     ExitAndSetRfId                                  109
     ?Subroutine104                                    7
     ?Subroutine69                                     7
     ?Subroutine162                                   13
     macDelay                                         39
     CmdModeSwitchEx                                  83
     ?Subroutine90                                    12
     CmdModeSwitch                                   151
     macExUartRcvHandle                             1071
     ?Subroutine180                                    4
     ?Subroutine242                                   13
     ?Subroutine179                                    6
     ?Subroutine109                                   14
     ?Subroutine87                                     4
     ??Subroutine325_0                                 9
     ?Subroutine67                                    16
     ?Subroutine47                                    14
     macEx_UartProcessData                            79
     macExUartInit                                   116
     ?Subroutine181                                    9
     TrigerUartSend                                   83
     ?Subroutine161                                    5
     ?Subroutine233                                    6
     ?Subroutine46                                     5
     ?Subroutine238                                    8
     UartSctSend                                      55
     UartBulkSend                                     15
     ?Subroutine3                                      1
     ?Subroutine128                                    6
     ??Subroutine310_0                                 3
     ??Subroutine311_0                                 3
     BuildPreFlashInfoData                           257
     ?Subroutine144                                    6
     ?Subroutine143                                   12
     ?Subroutine123                                   11
     ?Subroutine122                                   11
     ?Subroutine103                                    5
     ?Subroutine214                                   10
     ?Subroutine145                                    4
     ?Subroutine224                                    7
     ??Subroutine332_0                                 7
     ?Subroutine173                                    4
     RfMcodeCovert                                    17
     BuildFlashInfoData                              817
     ?Subroutine130                                    3
     ??Subroutine309_0                                 3
     BuildPilotInfoData                              277
     ?Subroutine152                                    5
     ?Subroutine120                                   24
     ?Subroutine260                                    3
     ?Subroutine222                                   10
     ?Subroutine10                                     5
     PreFlashInfo                                    109
     ?Subroutine81                                    15
     ?Subroutine11                                    27
     ?Subroutine107                                    3
     flaCmdCnt                                         1
     CountDown                                       152
     ?Subroutine117                                    9
     FlashConfirm                                     72
     flaCmdCnt                                         1
     Pilot                                            88
     pilotCmdCnt                                       1
     CalcEachRssi                                    307
     ?Subroutine73                                     1
     ??Subroutine337_0                                 4
     ?Subroutine207                                    6
     ChanScan                                        174
     LinkedShotRel                                   116
     ?Subroutine76                                     1
     ?Subroutine98                                     6
     relCnt                                            1
     linkRelCnt                                        1
     DevShotRel                                      112
     relCnt                                            1
     linkRelCnt                                        1
     InqureConfirm                                    86
     ReConfirm                                        51
     ReadyInfo                                        67
     ?Subroutine36                                     2
     ?Subroutine15                                    13
     MstBridgeInfoInqure                              51
     ?Subroutine74                                     1
     macEventLoopEx                                  318
     macExTxDoneCallback                              12
     macExTxAckDoneCallback                           13
     halKeyPort0Isr                                   26
     znpTestRF                                       151
     halAesLoadKeyOrInitVector                        51
     halAesEncrDecr                                  246
     ?Subroutine178                                   14
     ?Subroutine72                                     7
     ?Subroutine64                                     5
     ?Subroutine32                                    29
     ?Subroutine79                                     9
     ?Subroutine172                                   15
     ??halKeyPort0Isr??INTVEC 107                      3
     ?<Initializer for <Constant "MakeTomorrowBest"   17
     ?<Initializer for <Constant "2015/11/13 OK\r\n   16
     ?<Initializer for <Constant {2, 11, 245, 85}>>    4
     ?<Initializer for g_modelingStyle>                1
     ?<Initializer for preCmdBuf>                      4
     ?<Initializer for multiCmd>                       4
     ?<Initializer for rxi>                           12
     ?<Initializer for ipRsv>                          4
     ?<Initializer for cpuIdKey>                      16
     ?<Initializer for cpuIdRst>                      16
     ?<Initializer for __Constant_0>                   4
     ??SearchForDevice?relay                           6
     ??RemoveDevice?relay                              6
     ??NoneUsedShortAddrSearch?relay                   6
     ??macBuildMpdu?relay                              6
     ??macRfSendPacket?relay                           6
     ??macParameterSet?relay                           6
     ??devChangeGroup?relay                            6
     ??macNetCheck?relay                               6
     ??RflsStart?relay                                 6
     ??LinkedShotShut?relay                            6
     ??macRollPolingProc?relay                         6
     ??macExRxEnable?relay                             6
     ??macExRxDisable?relay                            6
     ??VeriKeyInitial?relay                            6
     ??macTaskInitEx?relay                             6
     ??VerfiInqure?relay                               6
     ??macMallocNewDev?relay                           6
     ??macDeleteAllDevice?relay                        6
     ??BridgedMstReadyRes?relay                        6
     ??DeviceReadyRespond?relay                        6
     ??CheckEachDeviceAlloc?relay                      6
     ??VeriAndAllocID?relay                            6
     ??MstDevInfoSend?relay                            6
     ??MstDevInfoSendEx?relay                          6
     ??MstVerifyProc?relay                             6
     ??RfMcodeInvert?relay                             6
     ??DevParsInfo?relay                               6
     ??MultiInfoPars?relay                             6
     ??devJoinNetProc?relay                            6
     ??MstBridgeHandle?relay                           6
     ??macRxCompleteCallbackEx?relay                   6
     ??CalcSum?relay                                   6
     ??SetSleepMode?relay                              6
     ??LoadGrPara?relay                                6
     ??RfModCheck?relay                                6
     ??RfMstExit?relay                                 6
     ??ExitAndSetChan_exit?relay                       6
     ??ExitAndSetChan_setCh?relay                      6
     ??ExitAndSetRfId?relay                            6
     ??macDelay?relay                                  6
     ??CmdModeSwitchEx?relay                           6
     ??CmdModeSwitch?relay                             6
     ??macExUartRcvHandle?relay                        6
     ??macEx_UartProcessData?relay                     6
     ??macExUartInit?relay                             6
     ??TrigerUartSend?relay                            6
     ??UartSctSend?relay                               6
     ??UartBulkSend?relay                              6
     ??BuildPreFlashInfoData?relay                     6
     ??RfMcodeCovert?relay                             6
     ??BuildFlashInfoData?relay                        6
     ??BuildPilotInfoData?relay                        6
     ??PreFlashInfo?relay                              6
     ??CountDown?relay                                 6
     ??FlashConfirm?relay                              6
     ??Pilot?relay                                     6
     ??CalcEachRssi?relay                              6
     ??ChanScan?relay                                  6
     ??LinkedShotRel?relay                             6
     ??DevShotRel?relay                                6
     ??InqureConfirm?relay                             6
     ??ReConfirm?relay                                 6
     ??ReadyInfo?relay                                 6
     ??MstBridgeInfoInqure?relay                       6
     ??macEventLoopEx?relay                            6
     ??macExTxDoneCallback?relay                       6
     ??macExTxAckDoneCallback?relay                    6
     ??znpTestRF?relay                                 6
     ??halAesLoadKeyOrInitVector?relay                 6
     ??halAesEncrDecr?relay                            6
     ?<Constant "MakeTomorrowBest">                   17
     ?<Constant "2015/11/13 OK\r\n">                  16
     ?<Constant {0}>                                  20
     ?<Constant {0}>_1                                20
     ?<Constant {0}>_2                               100
     ?<Constant {2, 11, 245, 85}>                      4
     __Constant_0                                      4

 
 15 577 bytes in segment BANKED_CODE
    420 bytes in segment BANK_RELAYS
      3 bytes in segment INTVEC
     26 bytes in segment NEAR_CODE
     17 bytes in segment SFR_AN
     98 bytes in segment XDATA_I
     98 bytes in segment XDATA_ID
    944 bytes in segment XDATA_Z
 
 16 117 bytes of CODE  memory (+  7 bytes shared)
      0 bytes of DATA  memory (+ 17 bytes shared)
  1 038 bytes of XDATA memory (+  4 bytes shared)

Errors: none
Warnings: 28
