###############################################################################
#                                                                             #
# IAR C/C++ Compiler V8.10.4.40412/W32 for 8051         13/Aug/2016  11:34:53 #
# Copyright 2004-2011 IAR Systems AB.                                         #
#                                                                             #
#    Core               =  plain                                              #
#    Code model         =  banked                                             #
#    Data model         =  large                                              #
#    Calling convention =  xdata reentrant                                    #
#    Constant location  =  data                                               #
#    Dptr setup         =  1,16                                               #
#    Source file        =  C:\Users\freeman\Documents\work\NBK\Canon\Nbk600EX #
#                           - RF\Projects\zstack\ZMain\TI2530DB\ZMain.c       #
#    Command line       =  -f "C:\Users\freeman\Documents\work\NBK\Canon\Nbk6 #
#                          00EX - RF\Projects\zstack\Samples\SampleApp        #
#                          com\CC2530DB\..\..\..\Tools\CC2530DB\f8wCoord.cfg" #
#                           (-DCPU32MHZ -DROOT=__near_func                    #
#                          -DMAC_CFG_APP_PENDING_QUEUE=TRUE                   #
#                          -DZDO_COORDINATOR -DRTR_NWK -DBLINK_LEDS) -f       #
#                          "C:\Users\freeman\Documents\work\NBK\Canon\Nbk600E #
#                          X - RF\Projects\zstack\Samples\SampleApp           #
#                          com\CC2530DB\..\..\..\Tools\CC2530DB\f8wConfig.cfg #
#                          " (-DSECURE=0 -DZG_SECURE_DYNAMIC=0 -DREFLECTOR    #
#                          -DDEFAULT_CHANLIST=0x00000800                      #
#                          -DZDAPP_CONFIG_PAN_ID=0xFFF0                       #
#                          -DNWK_START_DELAY=100 -DEXTENDED_JOINING_RANDOM_MA #
#                          SK=0x007F -DBEACON_REQUEST_DELAY=100               #
#                          -DBEACON_REQ_DELAY_MASK=0x00FF                     #
#                          -DROUTE_EXPIRY_TIME=30 -DAPSC_ACK_WAIT_DURATION_PO #
#                          LLED=3000 -DNWK_INDIRECT_MSG_TIMEOUT=7             #
#                          -DMAX_RREQ_ENTRIES=8 -DAPSC_MAX_FRAME_RETRIES=3    #
#                          -DNWK_MAX_DATA_RETRIES=2                           #
#                          -DMAX_POLL_FAILURE_RETRIES=2 -DMAX_BCAST=9         #
#                          -DAPS_MAX_GROUPS=16 -DMAX_RTG_ENTRIES=40           #
#                          -DNWK_MAX_BINDING_ENTRIES=4                        #
#                          -DMAX_BINDING_CLUSTER_IDS=4 "-DDEFAULT_KEY={0x01,  #
#                          0x03, 0x05, 0x07, 0x09, 0x0B, 0x0D, 0x0F, 0x00,    #
#                          0x02, 0x04, 0x06, 0x08, 0x0A, 0x0C, 0x0D}"         #
#                          -DMAC_MAX_FRAME_SIZE=116 "-DCONST=const __code"    #
#                          -DGENERIC=__generic -DRFD_RCVC_ALWAYS_ON=FALSE     #
#                          -DPOLL_RATE=1000 -DQUEUED_POLL_RATE=100            #
#                          -DRESPONSE_POLL_RATE=100) -DREJOIN_POLL_RATE=440   #
#                          "C:\Users\freeman\Documents\work\NBK\Canon\Nbk600E #
#                          X - RF\Projects\zstack\ZMain\TI2530DB\ZMain.c" -D  #
#                          ZIGBEEPRO -D ZTOOL_P1 -lC                          #
#                          "C:\Users\freeman\Documents\work\NBK\Canon\Nbk600E #
#                          X - RF\Projects\zstack\Samples\SampleApp           #
#                          com\CC2530DB\CoordinatorEB\List\" -lA              #
#                          "C:\Users\freeman\Documents\work\NBK\Canon\Nbk600E #
#                          X - RF\Projects\zstack\Samples\SampleApp           #
#                          com\CC2530DB\CoordinatorEB\List\" --diag_suppress  #
#                          Pe001,Pa010 -o "C:\Users\freeman\Documents\work\NB #
#                          K\Canon\Nbk600EX - RF\Projects\zstack\Samples\Samp #
#                          leApp com\CC2530DB\CoordinatorEB\Obj\" -e --debug  #
#                          --core=plain --dptr=16,1 --data_model=large        #
#                          --code_model=banked --calling_convention=xdata_ree #
#                          ntrant --place_constants=data --nr_virtual_regs    #
#                          16 -I "C:\Users\freeman\Documents\work\NBK\Canon\N #
#                          bk600EX - RF\Projects\zstack\Samples\SampleApp     #
#                          com\CC2530DB\" -I "C:\Users\freeman\Documents\work #
#                          \NBK\Canon\Nbk600EX - RF\Projects\zstack\Samples\S #
#                          ampleApp com\CC2530DB\..\SOURCE\" -I               #
#                          "C:\Users\freeman\Documents\work\NBK\Canon\Nbk600E #
#                          X - RF\Projects\zstack\Samples\SampleApp           #
#                          com\CC2530DB\..\..\..\ZMAIN\TI2530DB\" -I          #
#                          "C:\Users\freeman\Documents\work\NBK\Canon\Nbk600E #
#                          X - RF\Projects\zstack\Samples\SampleApp           #
#                          com\CC2530DB\..\..\..\..\..\COMPONENTS\MT\" -I     #
#                          "C:\Users\freeman\Documents\work\NBK\Canon\Nbk600E #
#                          X - RF\Projects\zstack\Samples\SampleApp           #
#                          com\CC2530DB\..\..\..\..\..\COMPONENTS\HAL\INCLUDE #
#                          \" -I "C:\Users\freeman\Documents\work\NBK\Canon\N #
#                          bk600EX - RF\Projects\zstack\Samples\SampleApp     #
#                          com\CC2530DB\..\..\..\..\..\COMPONENTS\HAL\TARGET\ #
#                          CC2530EB\" -I "C:\Users\freeman\Documents\work\NBK #
#                          \Canon\Nbk600EX - RF\Projects\zstack\Samples\Sampl #
#                          eApp com\CC2530DB\..\..\..\..\..\COMPONENTS\OSAL\M #
#                          CU\CCSOC\" -I "C:\Users\freeman\Documents\work\NBK #
#                          \Canon\Nbk600EX - RF\Projects\zstack\Samples\Sampl #
#                          eApp com\CC2530DB\..\..\..\..\..\COMPONENTS\OSAL\I #
#                          NCLUDE\" -I "C:\Users\freeman\Documents\work\NBK\C #
#                          anon\Nbk600EX - RF\Projects\zstack\Samples\SampleA #
#                          pp com\CC2530DB\..\..\..\..\..\COMPONENTS\STACK\AF #
#                          \" -I "C:\Users\freeman\Documents\work\NBK\Canon\N #
#                          bk600EX - RF\Projects\zstack\Samples\SampleApp     #
#                          com\CC2530DB\..\..\..\..\..\COMPONENTS\STACK\NWK\" #
#                           -I "C:\Users\freeman\Documents\work\NBK\Canon\Nbk #
#                          600EX - RF\Projects\zstack\Samples\SampleApp       #
#                          com\CC2530DB\..\..\..\..\..\COMPONENTS\STACK\SEC\" #
#                           -I "C:\Users\freeman\Documents\work\NBK\Canon\Nbk #
#                          600EX - RF\Projects\zstack\Samples\SampleApp       #
#                          com\CC2530DB\..\..\..\..\..\COMPONENTS\STACK\SAPI\ #
#                          " -I "C:\Users\freeman\Documents\work\NBK\Canon\Nb #
#                          k600EX - RF\Projects\zstack\Samples\SampleApp      #
#                          com\CC2530DB\..\..\..\..\..\COMPONENTS\STACK\SYS\" #
#                           -I "C:\Users\freeman\Documents\work\NBK\Canon\Nbk #
#                          600EX - RF\Projects\zstack\Samples\SampleApp       #
#                          com\CC2530DB\..\..\..\..\..\COMPONENTS\STACK\ZDO\" #
#                           -I "C:\Users\freeman\Documents\work\NBK\Canon\Nbk #
#                          600EX - RF\Projects\zstack\Samples\SampleApp       #
#                          com\CC2530DB\..\..\..\..\..\COMPONENTS\ZMAC\F8W\"  #
#                          -I "C:\Users\freeman\Documents\work\NBK\Canon\Nbk6 #
#                          00EX - RF\Projects\zstack\Samples\SampleApp        #
#                          com\CC2530DB\..\..\..\..\..\COMPONENTS\ZMAC\" -I   #
#                          "C:\Users\freeman\Documents\work\NBK\Canon\Nbk600E #
#                          X - RF\Projects\zstack\Samples\SampleApp           #
#                          com\CC2530DB\..\..\..\..\..\COMPONENTS\SERVICES\SA #
#                          DDR\" -I "C:\Users\freeman\Documents\work\NBK\Cano #
#                          n\Nbk600EX - RF\Projects\zstack\Samples\SampleApp  #
#                          com\CC2530DB\..\..\..\..\..\COMPONENTS\SERVICES\SD #
#                          ATA\" -I "C:\Users\freeman\Documents\work\NBK\Cano #
#                          n\Nbk600EX - RF\Projects\zstack\Samples\SampleApp  #
#                          com\CC2530DB\..\..\..\..\..\COMPONENTS\MAC\INCLUDE #
#                          \" -I "C:\Users\freeman\Documents\work\NBK\Canon\N #
#                          bk600EX - RF\Projects\zstack\Samples\SampleApp     #
#                          com\CC2530DB\..\..\..\..\..\COMPONENTS\MAC\HIGH_LE #
#                          VEL\" -I "C:\Users\freeman\Documents\work\NBK\Cano #
#                          n\Nbk600EX - RF\Projects\zstack\Samples\SampleApp  #
#                          com\CC2530DB\..\..\..\..\..\COMPONENTS\MAC\LOW_LEV #
#                          EL\srf04\" -I "C:\Users\freeman\Documents\work\NBK #
#                          \Canon\Nbk600EX - RF\Projects\zstack\Samples\Sampl #
#                          eApp com\CC2530DB\..\..\..\..\..\COMPONENTS\MAC\LO #
#                          W_LEVEL\srf04\SINGLE_CHIP\" -Ohz                   #
#                          --require_prototypes                               #
#    List file          =  C:\Users\freeman\Documents\work\NBK\Canon\Nbk600EX #
#                           - RF\Projects\zstack\Samples\SampleApp            #
#                          com\CC2530DB\CoordinatorEB\List\ZMain.lst          #
#    Object file        =  C:\Users\freeman\Documents\work\NBK\Canon\Nbk600EX #
#                           - RF\Projects\zstack\Samples\SampleApp            #
#                          com\CC2530DB\CoordinatorEB\Obj\ZMain.r51           #
#                                                                             #
#                                                                             #
###############################################################################

C:\Users\freeman\Documents\work\NBK\Canon\Nbk600EX - RF\Projects\zstack\ZMain\TI2530DB\ZMain.c
      1          /**************************************************************************************************
      2            Filename:       ZMain.c
      3            Revised:        $Date: 2009-09-17 20:35:33 -0700 (Thu, 17 Sep 2009) $
      4            Revision:       $Revision: 20782 $
      5          
      6            Description:    Startup and shutdown code for ZStack
      7            Notes:          This version targets the Chipcon CC2530
      8          
      9          
     10            Copyright 2005-2009 Texas Instruments Incorporated. All rights reserved.
     11          
     12            IMPORTANT: Your use of this Software is limited to those specific rights
     13            granted under the terms of a software license agreement between the user
     14            who downloaded the software, his/her employer (which must be your employer)
     15            and Texas Instruments Incorporated (the "License").  You may not use this
     16            Software unless you agree to abide by the terms of the License. The License
     17            limits your use, and you acknowledge, that the Software may not be modified,
     18            copied or distributed unless embedded on a Texas Instruments microcontroller
     19            or used solely and exclusively in conjunction with a Texas Instruments radio
     20            frequency transceiver, which is integrated into your product.  Other than for
     21            the foregoing purpose, you may not use, reproduce, copy, prepare derivative
     22            works of, modify, distribute, perform, display or sell this Software and/or
     23            its documentation for any purpose.
     24          
     25            YOU FURTHER ACKNOWLEDGE AND AGREE THAT THE SOFTWARE AND DOCUMENTATION ARE
     26            PROVIDED AS IS?WITHOUT WARRANTY OF ANY KIND, EITHER EXPRESS OR IMPLIED,
     27            INCLUDING WITHOUT LIMITATION, ANY WARRANTY OF MERCHANTABILITY, TITLE,
     28            NON-INFRINGEMENT AND FITNESS FOR A PARTICULAR PURPOSE. IN NO EVENT SHALL
     29            TEXAS INSTRUMENTS OR ITS LICENSORS BE LIABLE OR OBLIGATED UNDER CONTRACT,
     30            NEGLIGENCE, STRICT LIABILITY, CONTRIBUTION, BREACH OF WARRANTY, OR OTHER
     31            LEGAL EQUITABLE THEORY ANY DIRECT OR INDIRECT DAMAGES OR EXPENSES
     32            INCLUDING BUT NOT LIMITED TO ANY INCIDENTAL, SPECIAL, INDIRECT, PUNITIVE
     33            OR CONSEQUENTIAL DAMAGES, LOST PROFITS OR LOST DATA, COST OF PROCUREMENT
     34            OF SUBSTITUTE GOODS, TECHNOLOGY, SERVICES, OR ANY CLAIMS BY THIRD PARTIES
     35            (INCLUDING BUT NOT LIMITED TO ANY DEFENSE THEREOF), OR OTHER SIMILAR COSTS.
     36          
     37            Should you have any questions regarding your right to use this Software,
     38            contact Texas Instruments Incorporated at www.TI.com.
     39          **************************************************************************************************/
     40          
     41          /*********************************************************************
     42           * INCLUDES
     43           */
     44          
     45          /***************************
     46          *zstack*
     47          ZIGBEEPRO
     48          ZTOOL_P1
     49          MT_TASK
     50          MT_SYS_FUNC
     51          MT_ZDO_FUNC
     52          ****************************/
     53          #include "ZComDef.h"
     54          #include "OSAL.h"
     55          #include "OSAL_Nv.h"
     56          #include "OnBoard.h"

   \                                 In  segment SFR_AN, at 0x8f
   \   unsigned char volatile __sfr P0INP
   \                     P0INP:
   \   000000                DS 1

   \                                 In  segment SFR_AN, at 0x90
   \   union <unnamed> volatile __sfr _A_P1
   \                     _A_P1:
   \   000000                DS 1

   \                                 In  segment SFR_AN, at 0x9d
   \   unsigned char volatile __sfr SLEEPSTA
   \                     SLEEPSTA:
   \   000000                DS 1

   \                                 In  segment SFR_AN, at 0x9e
   \   unsigned char volatile __sfr CLKCONSTA
   \                     CLKCONSTA:
   \   000000                DS 1

   \                                 In  segment SFR_AN, at 0xbe
   \   unsigned char volatile __sfr SLEEPCMD
   \                     SLEEPCMD:
   \   000000                DS 1

   \                                 In  segment SFR_AN, at 0xc6
   \   unsigned char volatile __sfr CLKCONCMD
   \                     CLKCONCMD:
   \   000000                DS 1

   \                                 In  segment SFR_AN, at 0xfd
   \   unsigned char volatile __sfr P0DIR
   \                     P0DIR:
   \   000000                DS 1

   \                                 In  segment SFR_AN, at 0xfe
   \   unsigned char volatile __sfr P1DIR
   \                     P1DIR:
   \   000000                DS 1
     57          #include "ZMAC.h"
     58          
     59          #ifndef NONWK
     60            #include "AF.h"
     61          #endif
     62          
     63          /* Hal */
     64          #include "hal_lcd.h"
     65          #include "hal_led.h"
     66          #include "hal_adc.h"
     67          #include "hal_drivers.h"
     68          #include "hal_assert.h"
     69          #include "hal_flash.h"
     70          #include "ZGlobals.h"
     71          
     72          /*********************************************************************
     73           * MACROS
     74           */
     75          
     76          /*********************************************************************
     77           * CONSTANTS
     78           */
     79          
     80          // Maximun number of Vdd samples checked before go on
     81          #define MAX_VDD_SAMPLES  3
     82          #define ZMAIN_VDD_LIMIT  HAL_ADC_VDD_LIMIT_4
     83          
     84          /*********************************************************************
     85           * TYPEDEFS
     86           */
     87          
     88          /*********************************************************************
     89           * GLOBAL VARIABLES
     90           */
     91          
     92          /*********************************************************************
     93           * EXTERNAL VARIABLES
     94           */
     95          
     96          /*********************************************************************
     97           * EXTERNAL FUNCTIONS
     98           */
     99          
    100          extern bool HalAdcCheckVdd (uint8 limit);
    101          
    102          /*********************************************************************
    103           * LOCAL VARIABLES
    104           */
    105          
    106          /*********************************************************************
    107           * LOCAL FUNCTIONS
    108           */
    109          
    110          static void zmain_dev_info( void );
    111          static void zmain_ext_addr( void );
    112          static void zmain_vdd_check( void );
    113          
    114          #ifdef LCD_SUPPORTED
    115          static void zmain_lcd_init( void );
    116          #endif
    117          
    118          /*********************************************************************
    119           * @fn      main
    120           * @brief   First function called after startup.
    121           * @return  don't care
    122           */

   \                                 In  segment BANKED_CODE, align 1, keep-with-next
    123          int main( void )
   \                     main:
    124          {
   \   000000                ; Auto size: 0
    125          
    126            // Turn off interrupts
    127            osal_int_disable( INTS_ALL );// 关闭所有中断
   \   000000                ; Setup parameters for call to function osal_int_disable
   \   000000   79FF         MOV     R1,#-0x1
   \   000002   12....       LCALL   ??osal_int_disable?relay
    128          
    129            // Initialization for board related stuff such as LEDs
    130            HAL_BOARD_INIT();
   \   000005   53BEFB       ANL     0xbe,#0xfb
   \                     ??main_0:
   \   000008   E59D         MOV     A,0x9d
   \   00000A   A2E6         MOV     C,0xE0 /* A   */.6
   \   00000C   50FA         JNC     ??main_0
   \   00000E   00           NOP
   \   00000F   78F8         MOV     R0,#-0x8
   \   000011   7901         MOV     R1,#0x1
   \                     ??main_1:
   \   000013   00           NOP
   \   000014   E8           MOV     A,R0
   \   000015   24FF         ADD     A,#-0x1
   \   000017   18           DEC     R0
   \   000018   E9           MOV     A,R1
   \   000019   34FF         ADDC    A,#-0x1
   \   00001B   F9           MOV     R1,A
   \   00001C   E8           MOV     A,R0
   \   00001D   49           ORL     A,R1
   \   00001E   70F3         JNZ     ??main_1
   \   000020   75C680       MOV     0xc6,#-0x80
   \                     ??main_2:
   \   000023   7480         MOV     A,#-0x80
   \   000025   659E         XRL     A,0x9e
   \   000027   70FA         JNZ     ??main_2
   \   000029   43BE04       ORL     0xbe,#0x4
   \   00002C   906270       MOV     DPTR,#0x6270
   \   00002F   7408         MOV     A,#0x8
   \   000031   F0           MOVX    @DPTR,A
   \   000032   43FE04       ORL     0xfe,#0x4
   \   000035   43FD80       ORL     0xfd,#0x80
   \   000038   438F01       ORL     0x8f,#0x1
   \   00003B                ; Setup parameters for call to function MAC_RfFrontendSetup
   \   00003B   12....       LCALL   ??MAC_RfFrontendSetup?relay
   \   00003E   43FE04       ORL     0xfe,#0x4
   \   000041   43FE08       ORL     0xfe,#0x8
    131          
    132            // Make sure supply voltage is high enough to run
    133            zmain_vdd_check();
   \   000044                ; Setup parameters for call to function zmain_vdd_check
   \   000044   12....       LCALL   ??zmain_vdd_check?relay
    134           
    135            // Initialize board I/O
    136            InitBoard( OB_COLD );
   \   000047                ; Setup parameters for call to function InitBoard
   \   000047   7900         MOV     R1,#0x0
   \   000049   12....       LCALL   ??InitBoard?relay
    137          
    138            // Initialze HAL drivers
    139            HalDriverInit();
   \   00004C                ; Setup parameters for call to function HalDriverInit
   \   00004C   12....       LCALL   ??HalDriverInit?relay
    140          
    141            // Initialize NV System
    142            osal_nv_init( NULL );
   \   00004F                ; Setup parameters for call to function osal_nv_init
   \   00004F   7A00         MOV     R2,#0x0
   \   000051   7B00         MOV     R3,#0x0
   \   000053   12....       LCALL   ??osal_nv_init?relay
    143          
    144            // Initialize the MAC
    145            ZMacInit();
   \   000056                ; Setup parameters for call to function ZMacInit
   \   000056   12....       LCALL   ??ZMacInit?relay
    146          
    147            // Determine the extended address
    148            zmain_ext_addr();
   \   000059                ; Setup parameters for call to function zmain_ext_addr
   \   000059   12....       LCALL   ??zmain_ext_addr?relay
    149          
    150            // Initialize basic NV items
    151            zgInit();
   \   00005C                ; Setup parameters for call to function zgInit
   \   00005C   12....       LCALL   ??zgInit?relay
    152          
    153          #ifndef NONWK
    154            // Since the AF isn't a task, call it's initialization routine
    155            afInit();
   \   00005F                ; Setup parameters for call to function afInit
   \   00005F   12....       LCALL   ??afInit?relay
    156          #endif
    157          
    158            // Initialize the operating system
    159            osal_init_system();
   \   000062                ; Setup parameters for call to function osal_init_system
   \   000062   12....       LCALL   ??osal_init_system?relay
    160          
    161            // Allow interrupts
    162            osal_int_enable( INTS_ALL );
   \   000065                ; Setup parameters for call to function osal_int_enable
   \   000065   79FF         MOV     R1,#-0x1
   \   000067   12....       LCALL   ??osal_int_enable?relay
    163          
    164            // Final board initialization
    165            InitBoard( OB_READY );
   \   00006A                ; Setup parameters for call to function InitBoard
   \   00006A   7902         MOV     R1,#0x2
   \   00006C   12....       LCALL   ??InitBoard?relay
    166          
    167            // Display information about this device
    168            //zmain_dev_info();
    169          
    170            /* Display the device info on the LCD */
    171          #ifdef LCD_SUPPORTED
    172            zmain_lcd_init();
    173          #endif
    174          
    175          #ifdef WDT_IN_PM1
    176            /* If WDT is used, this is a good place to enable it. */
    177            WatchDogEnable( WDTIMX );
    178          #endif
    179          
    180          	
    181           //T1CTL = 0x0d;          
    182           //T1STAT= 0x21;         
    183           //while(1){POWER_UP_DEBUG();}
    184          
    185            osal_start_system(); // No Return from here
   \   00006F                ; Setup parameters for call to function osal_start_system
   \   00006F   12....       LCALL   ??osal_start_system?relay
    186          
    187            return 0;  // Shouldn't get here.
   \   000072   7A00         MOV     R2,#0x0
   \   000074   7B00         MOV     R3,#0x0
   \   000076   02....       LJMP    ?BRET
   \   000079                REQUIRE SLEEPCMD
   \   000079                REQUIRE SLEEPSTA
   \   000079                REQUIRE CLKCONCMD
   \   000079                REQUIRE CLKCONSTA
   \   000079                REQUIRE P1DIR
   \   000079                REQUIRE P0DIR
   \   000079                REQUIRE P0INP
    188          } // main()
    189          
    190          /*********************************************************************
    191           * @fn      zmain_vdd_check
    192           * @brief   Check if the Vdd is OK to run the processor.
    193           * @return  Return if Vdd is ok; otherwise, flash LED, then reset
    194           *********************************************************************/

   \                                 In  segment BANKED_CODE, align 1, keep-with-next
    195          static void zmain_vdd_check( void )
   \                     zmain_vdd_check:
    196          {
   \   000000   74F7         MOV     A,#-0x9
   \   000002   12....       LCALL   ?BANKED_ENTER_XDATA
   \   000005                ; Saved register size: 9
   \   000005                ; Auto size: 0
    197            uint8 vdd_passed_count = 0;
   \   000005   7E00         MOV     R6,#0x0
    198            bool toggle = 0;
   \   000007   7F00         MOV     R7,#0x0
    199          
    200            // Repeat getting the sample until number of failures or successes hits MAX
    201            // then based on the count value, determine if the device is ready or not
    202            while ( vdd_passed_count < MAX_VDD_SAMPLES )
    203            {
    204              if ( HalAdcCheckVdd (ZMAIN_VDD_LIMIT) )
   \                     ??zmain_vdd_check_0:
   \   000009                ; Setup parameters for call to function HalAdcCheckVdd
   \   000009   7904         MOV     R1,#0x4
   \   00000B   12....       LCALL   ??HalAdcCheckVdd?relay
   \   00000E   E9           MOV     A,R1
   \   00000F   6007         JZ      ??zmain_vdd_check_1
    205              {
    206                vdd_passed_count++;    // Keep track # times Vdd passes in a row
   \   000011   0E           INC     R6
    207                MicroWait (10000);     // Wait 10ms to try again
   \   000012                ; Setup parameters for call to function Onboard_wait
   \   000012   7A10         MOV     R2,#0x10
   \   000014   7B27         MOV     R3,#0x27
   \   000016   800B         SJMP    ??zmain_vdd_check_2
    208              }
    209              else
    210              {
    211                //cbyi delete for debug //vdd_passed_count = 0;  // Reset passed counter
    212                MicroWait (50000);     // Wait 50ms
   \                     ??zmain_vdd_check_1:
   \   000018                ; Setup parameters for call to function Onboard_wait
   \   000018   7A50         MOV     R2,#0x50
   \   00001A   7BC3         MOV     R3,#-0x3d
   \   00001C   12....       LCALL   ??Onboard_wait?relay
    213                MicroWait (50000);     // Wait another 50ms to try again
   \   00001F                ; Setup parameters for call to function Onboard_wait
   \   00001F   7A50         MOV     R2,#0x50
   \   000021   7BC3         MOV     R3,#-0x3d
   \                     ??zmain_vdd_check_2:
   \   000023   12....       LCALL   ??Onboard_wait?relay
    214              }
    215          
    216              /* toggle LED1 and LED2 */
    217              if (vdd_passed_count == 0)
   \   000026   EE           MOV     A,R6
   \   000027   600E         JZ      ??zmain_vdd_check_3
   \   000029   C3           CLR     C
   \   00002A   9403         SUBB    A,#0x3
   \   00002C   40DB         JC      ??zmain_vdd_check_0
    218              {
    219                if ((toggle = !(toggle)))
    220                  HAL_TOGGLE_LED1();
    221                else
    222                  HAL_TOGGLE_LED2();
    223              }
    224            }
    225          
    226            /* turn off LED1 */
    227            HAL_TURN_OFF_LED1();
   \   00002E   D292         SETB    0x90.2
    228            HAL_TURN_OFF_LED2();
   \   000030   D293         SETB    0x90.3
    229          }
   \   000032   7F01         MOV     R7,#0x1
   \   000034   02....       LJMP    ?BANKED_LEAVE_XDATA
   \                     ??zmain_vdd_check_3:
   \   000037   EF           MOV     A,R7
   \   000038   700A         JNZ     ??zmain_vdd_check_4
   \   00003A   7F01         MOV     R7,#0x1
   \   00003C   A292         MOV     C,0x90.2
   \   00003E   400E         JC      ??zmain_vdd_check_5
   \   000040   D292         SETB    0x90.2
   \   000042   80C5         SJMP    ??zmain_vdd_check_0
   \                     ??zmain_vdd_check_4:
   \   000044   7F00         MOV     R7,#0x0
   \   000046   A293         MOV     C,0x90.3
   \   000048   4008         JC      ??zmain_vdd_check_6
   \   00004A   D293         SETB    0x90.3
   \   00004C   80BB         SJMP    ??zmain_vdd_check_0
   \                     ??zmain_vdd_check_5:
   \   00004E   C292         CLR     0x90.2
   \   000050   80B7         SJMP    ??zmain_vdd_check_0
   \                     ??zmain_vdd_check_6:
   \   000052   C293         CLR     0x90.3
   \   000054   80B3         SJMP    ??zmain_vdd_check_0
   \   000056                REQUIRE _A_P1
    230          
    231          /**************************************************************************************************
    232           * @fn          zmain_ext_addr
    233           *
    234           * @brief       Execute a prioritized search for a valid extended address and write the results
    235           *              into the OSAL NV system for use by the system. Temporary address not saved to NV.
    236           *
    237           * input parameters
    238           *
    239           * None.
    240           *
    241           * output parameters
    242           *
    243           * None.
    244           *
    245           * @return      None.
    246           **************************************************************************************************
    247           */

   \                                 In  segment BANKED_CODE, align 1, keep-with-next
    248          static void zmain_ext_addr(void)
   \                     zmain_ext_addr:
    249          {
   \   000000   74EE         MOV     A,#-0x12
   \   000002   12....       LCALL   ?BANKED_ENTER_XDATA
   \   000005                ; Saved register size: 18
   \   000005                ; Auto size: 8
   \   000005   74F8         MOV     A,#-0x8
   \   000007   12....       LCALL   ?ALLOC_XSTACK8
    250            uint8 nullAddr[Z_EXTADDR_LEN] = {0xFF, 0xFF, 0xFF, 0xFF, 0xFF, 0xFF, 0xFF, 0xFF};
   \   00000A   85..82       MOV     DPL,?XSP + 0
   \   00000D   85..83       MOV     DPH,?XSP + 1
   \   000010   AC82         MOV     R4,DPL
   \   000012   AD83         MOV     R5,DPH
   \   000014   7583..       MOV     DPH,#(`?<Constant {255, 255, 255, 255, 255, 255, 255,` >> 8) & 0xff
   \   000017   7582..       MOV     DPL,#`?<Constant {255, 255, 255, 255, 255, 255, 255,` & 0xff
   \   00001A   7408         MOV     A,#0x8
   \   00001C   12....       LCALL   ?MOVE_LONG8_XDATA_XDATA
    251            uint8 writeNV = TRUE;
    252          
    253            // First check whether a non-erased extended address exists in the OSAL NV.
    254            if ((SUCCESS != osal_nv_item_init(ZCD_NV_EXTADDR, Z_EXTADDR_LEN, NULL))  ||
    255                (SUCCESS != osal_nv_read(ZCD_NV_EXTADDR, 0, Z_EXTADDR_LEN, aExtendedAddress)) ||
    256                (osal_memcmp(aExtendedAddress, nullAddr, Z_EXTADDR_LEN)))
   \   00001F   75....       MOV     ?V0 + 0,#aExtendedAddress & 0xff
   \   000022   75....       MOV     ?V0 + 1,#(aExtendedAddress >> 8) & 0xff
   \   000025   F5..         MOV     ?V0 + 2,A
   \   000027   85..82       MOV     DPL,?XSP + 0
   \   00002A   85..83       MOV     DPH,?XSP + 1
   \   00002D   A982         MOV     R1,DPL
   \   00002F   AA83         MOV     R2,DPH
   \   000031   89..         MOV     ?V0 + 4,R1
   \   000033   8A..         MOV     ?V0 + 5,R2
   \   000035   F5..         MOV     ?V0 + 6,A
   \   000037                ; Setup parameters for call to function osal_nv_item_init
   \   000037   F5..         MOV     ?V0 + 8,A
   \   000039   F5..         MOV     ?V0 + 9,A
   \   00003B   78..         MOV     R0,#?V0 + 8
   \   00003D   12....       LCALL   ?PUSH_XSTACK_I_TWO
   \   000040   7C08         MOV     R4,#0x8
   \   000042   7D00         MOV     R5,#0x0
   \   000044   7A01         MOV     R2,#0x1
   \   000046   7B00         MOV     R3,#0x0
   \   000048   12....       LCALL   ??osal_nv_item_init?relay
   \   00004B   7402         MOV     A,#0x2
   \   00004D   12....       LCALL   ?DEALLOC_XSTACK8
   \   000050   E9           MOV     A,R1
   \   000051   7046         JNZ     ??zmain_ext_addr_0
   \   000053                ; Setup parameters for call to function osal_nv_read
   \   000053   75....       MOV     ?V0 + 8,#aExtendedAddress & 0xff
   \   000056   75....       MOV     ?V0 + 9,#(aExtendedAddress >> 8) & 0xff
   \   000059   78..         MOV     R0,#?V0 + 8
   \   00005B   12....       LCALL   ?PUSH_XSTACK_I_TWO
   \   00005E   75..08       MOV     ?V0 + 8,#0x8
   \   000061   75..00       MOV     ?V0 + 9,#0x0
   \   000064   78..         MOV     R0,#?V0 + 8
   \   000066   12....       LCALL   ?PUSH_XSTACK_I_TWO
   \   000069   7C00         MOV     R4,#0x0
   \   00006B   7D00         MOV     R5,#0x0
   \   00006D   7A01         MOV     R2,#0x1
   \   00006F   7B00         MOV     R3,#0x0
   \   000071   12....       LCALL   ??osal_nv_read?relay
   \   000074   7404         MOV     A,#0x4
   \   000076   12....       LCALL   ?DEALLOC_XSTACK8
   \   000079   E9           MOV     A,R1
   \   00007A   701D         JNZ     ??zmain_ext_addr_0
   \   00007C                ; Setup parameters for call to function osal_memcmp
   \   00007C   78..         MOV     R0,#?V0 + 4
   \   00007E   12....       LCALL   ?PUSH_XSTACK_I_THREE
   \   000081   7C08         MOV     R4,#0x8
   \   000083   7D00         MOV     R5,#0x0
   \   000085   A9..         MOV     R1,?V0 + 0
   \   000087   AA..         MOV     R2,?V0 + 1
   \   000089   AB..         MOV     R3,?V0 + 2
   \   00008B   12....       LCALL   ??osal_memcmp?relay
   \   00008E   7403         MOV     A,#0x3
   \   000090   12....       LCALL   ?DEALLOC_XSTACK8
   \   000093   E9           MOV     A,R1
   \   000094   7003         JNZ     $+5
   \   000096   02....       LJMP    ??zmain_ext_addr_1 & 0xFFFF
    257            {
    258              // Attempt to read the extended address from the location on the lock bits page
    259              // where the programming tools know to reserve it.
    260              HalFlashRead(HAL_FLASH_IEEE_PAGE, HAL_FLASH_IEEE_OSET, aExtendedAddress, Z_EXTADDR_LEN);
   \                     ??zmain_ext_addr_0:
   \   000099                ; Setup parameters for call to function HalFlashRead
   \   000099   75..08       MOV     ?V0 + 8,#0x8
   \   00009C   78..         MOV     R0,#?V0 + 8
   \   00009E   12....       LCALL   ?PUSH_XSTACK_I_TWO
   \   0000A1   7C..         MOV     R4,#aExtendedAddress & 0xff
   \   0000A3   7D..         MOV     R5,#(aExtendedAddress >> 8) & 0xff
   \   0000A5   7AE8         MOV     R2,#-0x18
   \   0000A7   7B07         MOV     R3,#0x7
   \   0000A9   797F         MOV     R1,#0x7f
   \   0000AB   12....       LCALL   ??HalFlashRead?relay
   \   0000AE   7402         MOV     A,#0x2
   \   0000B0   12....       LCALL   ?DEALLOC_XSTACK8
    261          
    262              if (osal_memcmp(aExtendedAddress, nullAddr, Z_EXTADDR_LEN))
   \   0000B3                ; Setup parameters for call to function osal_memcmp
   \   0000B3   78..         MOV     R0,#?V0 + 4
   \   0000B5   12....       LCALL   ?PUSH_XSTACK_I_THREE
   \   0000B8   7C08         MOV     R4,#0x8
   \   0000BA   7D00         MOV     R5,#0x0
   \   0000BC   A9..         MOV     R1,?V0 + 0
   \   0000BE   AA..         MOV     R2,?V0 + 1
   \   0000C0   AB..         MOV     R3,?V0 + 2
   \   0000C2   12....       LCALL   ??osal_memcmp?relay
   \   0000C5   7403         MOV     A,#0x3
   \   0000C7   12....       LCALL   ?DEALLOC_XSTACK8
   \   0000CA   E9           MOV     A,R1
   \   0000CB   6035         JZ      ??zmain_ext_addr_2
    263              {
    264                // Attempt to read the extended address from the designated location in the Info Page.
    265                if (!osal_memcmp((uint8 *)(P_INFOPAGE+HAL_INFOP_IEEE_OSET), nullAddr, Z_EXTADDR_LEN))
   \   0000CD                ; Setup parameters for call to function osal_memcmp
   \   0000CD   78..         MOV     R0,#?V0 + 4
   \   0000CF   12....       LCALL   ?PUSH_XSTACK_I_THREE
   \   0000D2   7C08         MOV     R4,#0x8
   \   0000D4   7D00         MOV     R5,#0x0
   \   0000D6   790C         MOV     R1,#0xc
   \   0000D8   7A78         MOV     R2,#0x78
   \   0000DA   7B00         MOV     R3,#0x0
   \   0000DC   12....       LCALL   ??osal_memcmp?relay
   \   0000DF   7403         MOV     A,#0x3
   \   0000E1   12....       LCALL   ?DEALLOC_XSTACK8
   \   0000E4   E9           MOV     A,R1
   \   0000E5   7054         JNZ     ??zmain_ext_addr_3
    266                {
    267                  osal_memcpy(aExtendedAddress, (uint8 *)(P_INFOPAGE+HAL_INFOP_IEEE_OSET), Z_EXTADDR_LEN);
   \   0000E7                ; Setup parameters for call to function osal_memcpy
   \   0000E7   75..0C       MOV     ?V0 + 0,#0xc
   \   0000EA   75..78       MOV     ?V0 + 1,#0x78
   \   0000ED   78..         MOV     R0,#?V0 + 0
   \   0000EF   12....       LCALL   ?PUSH_XSTACK_I_THREE
   \   0000F2   7C08         MOV     R4,#0x8
   \   0000F4   7D00         MOV     R5,#0x0
   \   0000F6   7A..         MOV     R2,#aExtendedAddress & 0xff
   \   0000F8   7B..         MOV     R3,#(aExtendedAddress >> 8) & 0xff
   \   0000FA   12....       LCALL   ??osal_memcpy?relay
   \   0000FD   7403         MOV     A,#0x3
   \   0000FF   12....       LCALL   ?DEALLOC_XSTACK8
    268                }
    269                else  // No valid extended address was found.
    270                {
    271                  uint8 idx;
    272                  
    273          #if !defined ( NV_RESTORE )
    274                  writeNV = FALSE;  // Make this a temporary IEEE address
    275          #endif
    276          
    277                  /* Attempt to create a sufficiently random extended address for expediency.
    278                   * Note: this is only valid/legal in a test environment and
    279                   *       must never be used for a commercial product.
    280                   */
    281                  for (idx = 0; idx < (Z_EXTADDR_LEN - 2);)
    282                  {
    283                    uint16 randy = osal_rand();
    284                    aExtendedAddress[idx++] = LO_UINT16(randy);
    285                    aExtendedAddress[idx++] = HI_UINT16(randy);
    286                  }
    287                  // Next-to-MSB identifies ZigBee devicetype.
    288          #if ZG_BUILD_COORDINATOR_TYPE && !ZG_BUILD_JOINING_TYPE
    289                  aExtendedAddress[idx++] = 0x10;
    290          #elif ZG_BUILD_RTRONLY_TYPE
    291                  aExtendedAddress[idx++] = 0x20;
    292          #else
    293                  aExtendedAddress[idx++] = 0x30;
    294          #endif
    295                  // MSB has historical signficance.
    296                  aExtendedAddress[idx] = 0xF8;
    297                }
    298              }
    299          
    300              if (writeNV)
    301              {
    302                (void)osal_nv_write(ZCD_NV_EXTADDR, 0, Z_EXTADDR_LEN, aExtendedAddress);
   \                     ??zmain_ext_addr_2:
   \   000102                ; Setup parameters for call to function osal_nv_write
   \   000102   75....       MOV     ?V0 + 0,#aExtendedAddress & 0xff
   \   000105   75....       MOV     ?V0 + 1,#(aExtendedAddress >> 8) & 0xff
   \   000108   78..         MOV     R0,#?V0 + 0
   \   00010A   12....       LCALL   ?PUSH_XSTACK_I_TWO
   \   00010D   75..08       MOV     ?V0 + 0,#0x8
   \   000110   75..00       MOV     ?V0 + 1,#0x0
   \   000113   78..         MOV     R0,#?V0 + 0
   \   000115   12....       LCALL   ?PUSH_XSTACK_I_TWO
   \   000118   7C00         MOV     R4,#0x0
   \   00011A   7D00         MOV     R5,#0x0
   \   00011C   7A01         MOV     R2,#0x1
   \   00011E   7B00         MOV     R3,#0x0
   \   000120   12....       LCALL   ??osal_nv_write?relay
   \   000123   7404         MOV     A,#0x4
   \   000125   12....       LCALL   ?DEALLOC_XSTACK8
    303              }
    304            }
    305          
    306            // Set the MAC PIB extended address according to results from above.
    307            (void)ZMacSetReq(MAC_EXTENDED_ADDRESS, aExtendedAddress);
   \                     ??zmain_ext_addr_1:
   \   000128                ; Setup parameters for call to function ZMacSetReq
   \   000128   7A..         MOV     R2,#aExtendedAddress & 0xff
   \   00012A   7B..         MOV     R3,#(aExtendedAddress >> 8) & 0xff
   \   00012C   79E2         MOV     R1,#-0x1e
   \   00012E   12....       LCALL   ??ZMacSetReq?relay
    308          }
   \   000131   7408         MOV     A,#0x8
   \   000133   12....       LCALL   ?DEALLOC_XSTACK8
   \   000136   7F0A         MOV     R7,#0xa
   \   000138   02....       LJMP    ?BANKED_LEAVE_XDATA
   \                     ??zmain_ext_addr_3:
   \   00013B   7E00         MOV     R6,#0x0
   \                     ??zmain_ext_addr_4:
   \   00013D                ; Setup parameters for call to function osal_rand
   \   00013D   12....       LCALL   ??osal_rand?relay
   \   000140   8A..         MOV     ?V0 + 0,R2
   \   000142   A8..         MOV     R0,?V0 + 0
   \   000144   12....       LCALL   ?Subroutine0 & 0xFFFF
   \                     ??CrossCallReturnLabel_0:
   \   000147   E8           MOV     A,R0
   \   000148   F0           MOVX    @DPTR,A
   \   000149   0E           INC     R6
   \   00014A   12....       LCALL   ?Subroutine0 & 0xFFFF
   \                     ??CrossCallReturnLabel_1:
   \   00014D   EB           MOV     A,R3
   \   00014E   F0           MOVX    @DPTR,A
   \   00014F   0E           INC     R6
   \   000150   EE           MOV     A,R6
   \   000151   C3           CLR     C
   \   000152   9406         SUBB    A,#0x6
   \   000154   40E7         JC      ??zmain_ext_addr_4
   \   000156   12....       LCALL   ?Subroutine0 & 0xFFFF
   \                     ??CrossCallReturnLabel_2:
   \   000159   7410         MOV     A,#0x10
   \   00015B   F0           MOVX    @DPTR,A
   \   00015C   7401         MOV     A,#0x1
   \   00015E   2E           ADD     A,R6
   \   00015F   F8           MOV     R0,A
   \   000160   74..         MOV     A,#aExtendedAddress & 0xff
   \   000162   28           ADD     A,R0
   \   000163   F582         MOV     DPL,A
   \   000165   74..         MOV     A,#(aExtendedAddress >> 8) & 0xff
   \   000167   3400         ADDC    A,#0x0
   \   000169   F583         MOV     DPH,A
   \   00016B   74F8         MOV     A,#-0x8
   \   00016D   F0           MOVX    @DPTR,A
   \   00016E   80B8         SJMP    ??zmain_ext_addr_1

   \                                 In  segment BANKED_CODE, align 1, keep-with-next
   \                     ?Subroutine0:
   \   000000   8E..         MOV     ?V0 + 0,R6
   \   000002   74..         MOV     A,#aExtendedAddress & 0xff
   \   000004   25..         ADD     A,?V0 + 0
   \   000006   F582         MOV     DPL,A
   \   000008   74..         MOV     A,#(aExtendedAddress >> 8) & 0xff
   \   00000A   3400         ADDC    A,#0x0
   \   00000C   F583         MOV     DPH,A
   \   00000E   22           RET

   \                                 In  segment XDATA_ID, align 1, keep-with-next
   \                     `?<Initializer for <Constant {255, 255, 255, 25`:
   \   000000   FF           DB 255
   \   000001   FF           DB 255
   \   000002   FF           DB 255
   \   000003   FF           DB 255
   \   000004   FF           DB 255
   \   000005   FF           DB 255
   \   000006   FF           DB 255
   \   000007   FF           DB 255

   \                                 In  segment BANK_RELAYS, align 1
   \                     ??main?relay:
   \   000000   12....       LCALL   ?BDISPATCH
   \   000003   ......       DC24    main

   \                                 In  segment BANK_RELAYS, align 1
   \                     ??zmain_vdd_check?relay:
   \   000000   12....       LCALL   ?BDISPATCH
   \   000003   ......       DC24    zmain_vdd_check

   \                                 In  segment BANK_RELAYS, align 1
   \                     ??zmain_ext_addr?relay:
   \   000000   12....       LCALL   ?BDISPATCH
   \   000003   ......       DC24    zmain_ext_addr

   \                                 In  segment XDATA_I, align 1, keep-with-next
   \                     `?<Constant {255, 255, 255, 255, 255, 255, 255,`:
   \   000000                DS 8
   \   000008                REQUIRE `?<Initializer for <Constant {255, 255, 255, 25`
   \   000008                REQUIRE __INIT_XDATA_I
    309          
    310          /**************************************************************************************************
    311           * @fn          zmain_dev_info
    312           *
    313           * @brief       This displays the IEEE (MSB to LSB) on the LCD.
    314           *
    315           * input parameters
    316           *
    317           * None.
    318           *
    319           * output parameters
    320           *
    321           * None.
    322           *
    323           * @return      None.
    324           **************************************************************************************************
    325           */
    326          static void zmain_dev_info(void)
                             ^
Warning[Pe177]: function "zmain_dev_info" was declared but never referenced
    327          {
    328          #ifdef LCD_SUPPORTED
    329            uint8 i;
    330            uint8 *xad;
    331            uint8 lcd_buf[Z_EXTADDR_LEN*2+1];
    332          
    333            // Display the extended address.
    334            xad = aExtendedAddress + Z_EXTADDR_LEN - 1;
    335          
    336            for (i = 0; i < Z_EXTADDR_LEN*2; xad--)
    337            {
    338              uint8 ch;
    339              ch = (*xad >> 4) & 0x0F;
    340              lcd_buf[i++] = ch + (( ch < 10 ) ? '0' : '7');
    341              ch = *xad & 0x0F;
    342              lcd_buf[i++] = ch + (( ch < 10 ) ? '0' : '7');
    343            }
    344            lcd_buf[Z_EXTADDR_LEN*2] = '\0';
    345            HalLcdWriteString( "IEEE: ", HAL_LCD_LINE_1 );
    346            HalLcdWriteString( (char*)lcd_buf, HAL_LCD_LINE_2 );
    347          #endif
    348          }
    349          
    350          #ifdef LCD_SUPPORTED
    351          /*********************************************************************
    352           * @fn      zmain_lcd_init
    353           * @brief   Initialize LCD at start up.
    354           * @return  none
    355           *********************************************************************/
    356          static void zmain_lcd_init ( void )
    357          {
    358          #ifdef SERIAL_DEBUG_SUPPORTED
    359            {
    360              HalLcdWriteString( "TexasInstruments", HAL_LCD_LINE_1 );
    361          
    362          #if defined( MT_MAC_FUNC )
    363          #if defined( ZDO_COORDINATOR )
    364                HalLcdWriteString( "MAC-MT Coord", HAL_LCD_LINE_2 );
    365          #else
    366                HalLcdWriteString( "MAC-MT Device", HAL_LCD_LINE_2 );
    367          #endif // ZDO
    368          #elif defined( MT_NWK_FUNC )
    369          #if defined( ZDO_COORDINATOR )
    370                HalLcdWriteString( "NWK Coordinator", HAL_LCD_LINE_2 );
    371          #else
    372                HalLcdWriteString( "NWK Device", HAL_LCD_LINE_2 );
    373          #endif // ZDO
    374          #endif // MT_FUNC
    375            }
    376          #endif // SERIAL_DEBUG_SUPPORTED
    377          }
    378          #endif
    379          
    380          /*********************************************************************
    381          *********************************************************************/

   Maximum stack usage in bytes:

     Function                 ISTACK PSTACK XSTACK
     --------                 ------ ------ ------
     main                         0      0      0
       -> osal_int_disable        0      0      0
       -> MAC_RfFrontendSetup     0      0      0
       -> zmain_vdd_check         0      0      0
       -> InitBoard               0      0      0
       -> HalDriverInit           0      0      0
       -> osal_nv_init            0      0      0
       -> ZMacInit                0      0      0
       -> zmain_ext_addr          0      0      0
       -> zgInit                  0      0      0
       -> afInit                  0      0      0
       -> osal_init_system        0      0      0
       -> osal_int_enable         0      0      0
       -> InitBoard               0      0      0
       -> osal_start_system       0      0      0
     zmain_ext_addr               2      0     30
       -> osal_nv_item_init       0      0     56
       -> osal_nv_read            0      0     60
       -> osal_memcmp             0      0     58
       -> HalFlashRead            0      0     56
       -> osal_memcmp             0      0     58
       -> osal_memcmp             0      0     58
       -> osal_memcpy             0      0     58
       -> osal_nv_write           0      0     60
       -> ZMacSetReq              0      0     52
       -> osal_rand               0      0     52
     zmain_vdd_check              0      0      9
       -> HalAdcCheckVdd          0      0     18
       -> Onboard_wait            0      0     18
       -> Onboard_wait            0      0     18
       -> Onboard_wait            0      0     18


   Segment part sizes:

     Function/Label                                 Bytes
     --------------                                 -----
     P0INP                                             1
     _A_P1                                             1
     SLEEPSTA                                          1
     CLKCONSTA                                         1
     SLEEPCMD                                          1
     CLKCONCMD                                         1
     P0DIR                                             1
     P1DIR                                             1
     main                                            121
     zmain_vdd_check                                  86
     zmain_ext_addr                                  368
     ?Subroutine0                                     15
     ?<Initializer for <Constant {255, 255, 255, 25    8
     ??main?relay                                      6
     ??zmain_vdd_check?relay                           6
     ??zmain_ext_addr?relay                            6
     ?<Constant {255, 255, 255, 255, 255, 255, 255,    8

 
 590 bytes in segment BANKED_CODE
  18 bytes in segment BANK_RELAYS
   8 bytes in segment SFR_AN
   8 bytes in segment XDATA_I
   8 bytes in segment XDATA_ID
 
 616 bytes of CODE  memory
   0 bytes of DATA  memory (+ 8 bytes shared)
   8 bytes of XDATA memory

Errors: none
Warnings: 1
