###############################################################################
#
# IAR ELF Linker V2.10.4.157 for STM8                     26/Jun/2018  17:09:05
# Copyright 2010-2015 IAR Systems AB.
#
#    Output file  =  
#        D:\ycb\LED\STM8S903\STM8S903_RC\Project\Debug\Exe\Project.out
#    Map file     =  
#        D:\ycb\LED\STM8S903\STM8S903_RC\Project\Debug\List\Project.map
#    Command line =  
#        D:\ycb\LED\STM8S903\STM8S903_RC\Project\Debug\Obj\a7105.o
#        D:\ycb\LED\STM8S903\STM8S903_RC\Project\Debug\Obj\drv.o
#        D:\ycb\LED\STM8S903\STM8S903_RC\Project\Debug\Obj\eeprom.o
#        D:\ycb\LED\STM8S903\STM8S903_RC\Project\Debug\Obj\key.o
#        D:\ycb\LED\STM8S903\STM8S903_RC\Project\Debug\Obj\main.o
#        D:\ycb\LED\STM8S903\STM8S903_RC\Project\Debug\Obj\stm8s_adc1.o
#        D:\ycb\LED\STM8S903\STM8S903_RC\Project\Debug\Obj\stm8s_awu.o
#        D:\ycb\LED\STM8S903\STM8S903_RC\Project\Debug\Obj\stm8s_beep.o
#        D:\ycb\LED\STM8S903\STM8S903_RC\Project\Debug\Obj\stm8s_clk.o
#        D:\ycb\LED\STM8S903\STM8S903_RC\Project\Debug\Obj\stm8s_exti.o
#        D:\ycb\LED\STM8S903\STM8S903_RC\Project\Debug\Obj\stm8s_flash.o
#        D:\ycb\LED\STM8S903\STM8S903_RC\Project\Debug\Obj\stm8s_gpio.o
#        D:\ycb\LED\STM8S903\STM8S903_RC\Project\Debug\Obj\stm8s_i2c.o
#        D:\ycb\LED\STM8S903\STM8S903_RC\Project\Debug\Obj\stm8s_itc.o
#        D:\ycb\LED\STM8S903\STM8S903_RC\Project\Debug\Obj\stm8s_iwdg.o
#        D:\ycb\LED\STM8S903\STM8S903_RC\Project\Debug\Obj\stm8s_rst.o
#        D:\ycb\LED\STM8S903\STM8S903_RC\Project\Debug\Obj\stm8s_spi.o
#        D:\ycb\LED\STM8S903\STM8S903_RC\Project\Debug\Obj\stm8s_tim1.o
#        D:\ycb\LED\STM8S903\STM8S903_RC\Project\Debug\Obj\stm8s_tim5.o
#        D:\ycb\LED\STM8S903\STM8S903_RC\Project\Debug\Obj\stm8s_tim6.o
#        D:\ycb\LED\STM8S903\STM8S903_RC\Project\Debug\Obj\stm8s_uart1.o
#        D:\ycb\LED\STM8S903\STM8S903_RC\Project\Debug\Obj\stm8s_wwdg.o
#        D:\ycb\LED\STM8S903\STM8S903_RC\Project\Debug\Obj\sys.o
#        D:\ycb\LED\STM8S903\STM8S903_RC\Project\Debug\Obj\uart.o --redirect
#        _Printf=_PrintfFullNoMb --redirect _Scanf=_ScanfFullNoMb -o
#        D:\ycb\LED\STM8S903\STM8S903_RC\Project\Debug\Exe\Project.out --map
#        D:\ycb\LED\STM8S903\STM8S903_RC\Project\Debug\List\Project.map
#        --config "C:\Program Files (x86)\IAR Systems\Embedded Workbench
#        7.0\stm8\config\lnkstm8s903k3.icf" --config_def _CSTACK_SIZE=0x100
#        --config_def _HEAP_SIZE=0x100 --entry __iar_program_start --debug_lib
#
###############################################################################

*******************************************************************************
*** RUNTIME MODEL ATTRIBUTES
***

__SystemLibrary            = DLib
__code_model               = small
__core                     = stm8
__data_model               = medium
__dlib_file_descriptor     = 0
__dlib_full_locale_support = 0
__rt_version               = 4


*******************************************************************************
*** PLACEMENT SUMMARY
***

"A1":  place at start of [0x000000-0x0000ff] { rw section .vregs };
"A2":  place at end of [0x000000-0x0003ff] { block CSTACK };
"P2":  place in [from 0x000000 to 0x0003ff] {
          block HEAP, rw section __DLIB_PERTHREAD, rw section .far.bss,
          rw section .far.data, rw section .far.noinit,
          rw section .far_func.textrw, rw section .huge.bss,
          rw section .huge.data, rw section .huge.noinit,
          rw section .huge_func.textrw, rw section .iar.dynexit,
          rw section .near.bss, rw section .near.data, rw section .near.noinit,
          rw section .near_func.textrw };
"A3":  place at start of [0x008000-0x009fff] { block INTVEC };
"P3":  place in [from 0x008000 to 0x009fff] {
          ro section __DLIB_PERTHREAD_init, ro section .far.data_init,
          ro section .far_func.textrw_init, ro section .huge.data_init,
          ro section .huge_func.textrw_init, ro section .iar.init_table,
          ro section .init_array, ro section .near.data_init,
          ro section .near.rodata, ro section .near_func.text,
          ro section .near_func.textrw_init, ro section .tiny.data_init,
          ro section .tiny.rodata_init };

  Section          Kind      Address    Size  Object
  -------          ----      -------    ----  ------
"A1":                                   0x10
  .vregs           uninit   0x000000    0x10  vregs.o [4]
                          - 0x000010    0x10

"P2":                                   0x5c
  .near.bss        zero     0x000010    0x31  a7105.o [1]
  .near.bss        zero     0x000041     0x4  a7105.o [1]
  .near.bss        zero     0x000045     0x4  eeprom.o [1]
  .near.bss        zero     0x000049     0x4  key.o [1]
  .near.bss        zero     0x00004d     0x2  drv.o [1]
  .near.bss        zero     0x00004f     0x2  eeprom.o [1]
  .near.bss        zero     0x000051     0x2  key.o [1]
  .near.bss        zero     0x000053     0x2  key.o [1]
  .near.bss        zero     0x000055     0x2  key.o [1]
  .near.bss        zero     0x000057     0x2  main.o [1]
  .near.bss        zero     0x000059     0x2  main.o [1]
  .near.bss        zero     0x00005b     0x1  a7105.o [1]
  .near.bss        zero     0x00005c     0x1  a7105.o [1]
  .near.bss        zero     0x00005d     0x1  drv.o [1]
  .near.bss        zero     0x00005e     0x1  key.o [1]
  .near.bss        zero     0x00005f     0x1  key.o [1]
  .near.bss        zero     0x000060     0x1  key.o [1]
  .near.bss        zero     0x000061     0x1  key.o [1]
  .near.bss        zero     0x000062     0x1  key.o [1]
  .near.bss        zero     0x000063     0x1  key.o [1]
  .near.bss        zero     0x000064     0x1  key.o [1]
  .near.bss        zero     0x000065     0x1  key.o [1]
  .near.bss        zero     0x000066     0x1  key.o [1]
  .near.bss        zero     0x000067     0x1  key.o [1]
  .near.bss        zero     0x000068     0x1  key.o [1]
  .near.bss        zero     0x000069     0x1  main.o [1]
  .near.bss        zero     0x00006a     0x1  main.o [1]
  .near.bss        zero     0x00006b     0x1  main.o [1]
                          - 0x00006c    0x5c

"A2":                                  0x100
  CSTACK                    0x000300   0x100  <Block>
    CSTACK         uninit   0x000300   0x100  <Block tail>
                          - 0x000400   0x100

"A3":                                   0x80
  INTVEC                    0x008000    0x80  <Block>
    .intvec        const    0x008000    0x80  interrupt.o [4]
                          - 0x008080    0x80

"P3":                                 0x1933
  .near_func.text  ro code  0x008080   0x24f  a7105.o [1]
  .near_func.text  ro code  0x0082cf   0x145  key.o [1]
  .near_func.text  ro code  0x008414    0xf5  main.o [1]
  .near_func.text  ro code  0x008509    0xf1  drv.o [1]
  .near_func.text  ro code  0x0085fa    0xdd  vreg_util.o [4]
  .near_func.text  ro code  0x0086d7    0xcc  a7105.o [1]
  .near_func.text  ro code  0x0087a3    0xb6  stm8s_gpio.o [1]
  .near_func.text  ro code  0x008859    0xac  key.o [1]
  .near_func.text  ro code  0x008905    0x96  drv.o [1]
  .near_func.text  ro code  0x00899b    0x83  stm8s_adc1.o [1]
  .near_func.text  ro code  0x008a1e    0x7c  key.o [1]
  .near_func.text  ro code  0x008a9a    0x7c  key.o [1]
  .near_func.text  ro code  0x008b16    0x78  stm8s_exti.o [1]
  .near_func.text  ro code  0x008b8e    0x72  drv.o [1]
  .near_func.text  ro code  0x008c00    0x6c  stm8s_tim1.o [1]
  .near_func.text  ro code  0x008c6c    0x6c  stm8s_tim1.o [1]
  .near_func.text  ro code  0x008cd8    0x69  eeprom.o [1]
  .near_func.text  ro code  0x008d41    0x67  main.o [1]
  .near_func.text  ro code  0x008da8    0x61  a7105.o [1]
  .near_func.text  ro code  0x008e09    0x5b  stm8s_clk.o [1]
  .near_func.text  ro code  0x008e64    0x58  a7105.o [1]
  .near_func.text  ro code  0x008ebc    0x57  a7105.o [1]
  .near_func.text  ro code  0x008f13    0x56  a7105.o [1]
  .near_func.text  ro code  0x008f69    0x55  stm8s_adc1.o [1]
  .near_func.text  ro code  0x008fbe    0x54  key.o [1]
  .near_func.text  ro code  0x009012    0x54  stm8s_adc1.o [1]
  .near_func.text  ro code  0x009066    0x52  main.o [1]
  .near_func.text  ro code  0x0090b8    0x4d  eeprom.o [1]
  .near_func.text  ro code  0x009105    0x4d  key.o [1]
  .near_func.text  ro code  0x009152    0x4c  eeprom.o [1]
  .near_func.text  ro code  0x00919e    0x48  a7105.o [1]
  .near_func.text  ro code  0x0091e6    0x46  a7105.o [1]
  .near_func.text  ro code  0x00922c    0x44  sys.o [1]
  .near_func.text  ro code  0x009270    0x3c  main.o [1]
  .near_func.text  ro code  0x0092ac    0x3b  stm8s_adc1.o [1]
  .near_func.text  ro code  0x0092e7    0x36  a7105.o [1]
  .near_func.text  ro code  0x00931d    0x36  stm8s_clk.o [1]
  .near_func.text  ro code  0x009353    0x35  a7105.o [1]
  .near_func.text  ro code  0x009388    0x34  long.o [4]
  .near_func.text  ro code  0x0093bc    0x32  eeprom.o [1]
  .near_func.text  ro code  0x0093ee    0x32  short.o [4]
  .near_func.text  ro code  0x009420    0x31  stm8s_adc1.o [1]
  .near_func.text  ro code  0x009451    0x2f  stm8s_adc1.o [1]
  .near_func.text  ro code  0x009480    0x2e  a7105.o [1]
  .near_func.text  ro code  0x0094ae    0x2e  stm8s_gpio.o [1]
  .near_func.text  ro code  0x0094dc    0x2d  stm8s_tim1.o [1]
  .near_func.text  ro code  0x009509    0x2c  key.o [1]
  .near_func.text  ro code  0x009535    0x2b  key.o [1]
  .near_func.text  ro code  0x009560    0x2b  main.o [1]
  .near_func.text  ro code  0x00958b    0x29  drv.o [1]
  .near_func.text  ro code  0x0095b4    0x29  key.o [1]
  .near_func.text  ro code  0x0095dd    0x28  drv.o [1]
  .near_func.text  ro code  0x009605    0x28  main.o [1]
  .near_func.text  ro code  0x00962d    0x26  eeprom.o [1]
  .near_func.text  ro code  0x009653    0x26  key.o [1]
  .near_func.text  ro code  0x009679    0x21  key.o [1]
  .near_func.text  ro code  0x00969a    0x21  main.o [1]
  .near_func.text  ro code  0x0096bb    0x21  stm8s_adc1.o [1]
  .iar.init_table  const    0x0096dc     0x8  - Linker created -
  .near_func.text  ro code  0x0096e4    0x1e  init_small.o [4]
  .near_func.text  ro code  0x009702    0x1b  drv.o [1]
  .near_func.text  ro code  0x00971d    0x1b  stm8s_tim5.o [1]
  .near_func.text  ro code  0x009738    0x1a  long_util.o [4]
  .near_func.text  ro code  0x009752    0x19  a7105.o [1]
  .near_func.text  ro code  0x00976b    0x19  eeprom.o [1]
  .near_func.text  ro code  0x009784    0x17  main.o [1]
  .near_func.text  ro code  0x00979b    0x17  stm8s_flash.o [1]
  .near_func.text  ro code  0x0097b2    0x17  init.o [4]
  .near_func.text  ro code  0x0097c9    0x16  main.o [1]
  .near_func.text  ro code  0x0097df    0x16  stm8s_tim5.o [1]
  .near_func.text  ro code  0x0097f5    0x14  __dbg_xxexit.o [3]
  .near_func.text  ro code  0x009809    0x13  stm8s_adc1.o [1]
  .near_func.text  ro code  0x00981c    0x13  stm8s_clk.o [1]
  .near_func.text  ro code  0x00982f    0x13  stm8s_tim1.o [1]
  .near_func.text  ro code  0x009842    0x13  cstartup.o [4]
  .near_func.text  ro code  0x009855    0x12  stm8s_gpio.o [1]
  .near_func.text  ro code  0x009867     0xf  drv.o [1]
  .near_func.text  ro code  0x009876     0xf  drv.o [1]
  .near_func.text  ro code  0x009885     0xe  main.o [1]
  .near_func.text  ro code  0x009893     0xe  stm8s_adc1.o [1]
  .near_func.text  ro code  0x0098a1     0xe  stm8s_adc1.o [1]
  .near_func.text  ro code  0x0098af     0xe  stm8s_clk.o [1]
  .near_func.text  ro code  0x0098bd     0xe  stm8s_tim1.o [1]
  .near_func.text  ro code  0x0098cb     0xe  stm8s_tim1.o [1]
  .near_func.text  ro code  0x0098d9     0xe  stm8s_tim5.o [1]
  .near_func.text  ro code  0x0098e7     0xd  drv.o [1]
  .near_func.text  ro code  0x0098f4     0xd  drv.o [1]
  .near_func.text  ro code  0x009901     0xd  drv.o [1]
  .near_func.text  ro code  0x00990e     0xd  main.o [1]
  .near_func.text  ro code  0x00991b     0xd  main.o [1]
  .near_func.text  ro code  0x009928     0xb  drv.o [1]
  .near_func.text  ro code  0x009933     0xb  drv.o [1]
  .near_func.text  ro code  0x00993e     0xb  drv.o [1]
  .near_func.text  ro code  0x009949     0xb  stm8s_flash.o [1]
  .near.rodata     const    0x009954     0xa  drv.o [1]
  .near_func.text  ro code  0x00995e     0x9  stm8s_exti.o [1]
  .near_func.text  ro code  0x009967     0x7  main.o [1]
  .near_func.text  ro code  0x00996e     0x6  char.o [4]
  .near_func.text  ro code  0x009974     0x5  stm8s_adc1.o [1]
  .near_func.text  ro code  0x009979     0x5  stm8s_flash.o [1]
  .near_func.text  ro code  0x00997e     0x5  sys.o [1]
  .near_func.text  ro code  0x009983     0x5  cexit.o [4]
  .near.rodata     const    0x009988     0x4  a7105.o [1]
  .near_func.text  ro code  0x00998c     0x4  drv.o [1]
  .near_func.text  ro code  0x009990     0x4  drv.o [1]
  .near_func.text  ro code  0x009994     0x4  stm8s_flash.o [1]
  .near_func.text  ro code  0x009998     0x4  stm8s_flash.o [1]
  .near_func.text  ro code  0x00999c     0x4  sys.o [1]
  .near_func.text  ro code  0x0099a0     0x3  key.o [1]
  .near_func.text  ro code  0x0099a3     0x3  stm8s_gpio.o [1]
  .near_func.text  ro code  0x0099a6     0x3  interrupt.o [4]
  .near_func.text  ro code  0x0099a9     0x3  low_level_init.o [4]
  .near_func.text  ro code  0x0099ac     0x3  exit.o [4]
  .near_func.text  ro code  0x0099af     0x3  unhandled_exception.o [4]
  .near_func.text  ro code  0x0099b2     0x1  __dbg_break.o [3]
                          - 0x0099b3  0x1933


*******************************************************************************
*** INIT TABLE
***

          Address   Size
          -------   ----
Zero (__iar_zero_init2)
    1 destination range, total size 0x5c:
          0x000010  0x5c



*******************************************************************************
*** MODULE SUMMARY
***

    Module                 ro code  ro data  rw data
    ------                 -------  -------  -------
D:\ycb\LED\STM8S903\STM8S903_RC\Project\Debug\Obj: [1]
    a7105.o                  1 473        4       55
    drv.o                      723       10        3
    eeprom.o                   371                 6
    key.o                    1 108                21
    main.o                     698                 7
    stm8s_adc1.o               540
    stm8s_clk.o                178
    stm8s_exti.o               129
    stm8s_flash.o               47
    stm8s_gpio.o               249
    stm8s_tim1.o               308
    stm8s_tim5.o                63
    sys.o                       77
    ------------------------------------------------
    Total:                   5 964       14       92

command line: [2]
    ------------------------------------------------
    Total:

dbgstm8smd.a: [3]
    __dbg_break.o                1
    __dbg_xxexit.o              20
    ------------------------------------------------
    Total:                      21

dlstm8smn.a: [4]
    cexit.o                      5
    char.o                       6
    cstartup.o                  19
    exit.o                       3
    init.o                      23
    init_small.o                30
    interrupt.o                  3      128
    long.o                      52
    long_util.o                 26
    low_level_init.o             3
    short.o                     50
    unhandled_exception.o        3
    vreg_util.o                221
    vregs.o                                       16
    ------------------------------------------------
    Total:                     444      128       16

    Linker created                        8      256
----------------------------------------------------
    Grand Total:             6 429      150      364


*******************************************************************************
*** ENTRY LIST
***

Entry                    Address   Size  Type      Object
-----                    -------   ----  ----      ------
.iar.init_table$$Base   0x0096dc          --   Gb  - Linker created -
.iar.init_table$$Limit  0x0096e4          --   Gb  - Linker created -
?b0                     0x000000         Data  Gb  vregs.o [4]
?b1                     0x000001         Data  Gb  vregs.o [4]
?b10                    0x00000a         Data  Gb  vregs.o [4]
?b11                    0x00000b         Data  Gb  vregs.o [4]
?b12                    0x00000c         Data  Gb  vregs.o [4]
?b13                    0x00000d         Data  Gb  vregs.o [4]
?b14                    0x00000e         Data  Gb  vregs.o [4]
?b15                    0x00000f         Data  Gb  vregs.o [4]
?b2                     0x000002         Data  Gb  vregs.o [4]
?b3                     0x000003         Data  Gb  vregs.o [4]
?b4                     0x000004         Data  Gb  vregs.o [4]
?b5                     0x000005         Data  Gb  vregs.o [4]
?b6                     0x000006         Data  Gb  vregs.o [4]
?b7                     0x000007         Data  Gb  vregs.o [4]
?b8                     0x000008         Data  Gb  vregs.o [4]
?b9                     0x000009         Data  Gb  vregs.o [4]
?dec32_0x_0x            0x009392         Code  Gb  long.o [4]
?dec32_l2_l2            0x009388         Code  Gb  long.o [4]
?dec32_l3_l3            0x00938d         Code  Gb  long.o [4]
?e0                     0x000001         Data  Gb  vregs.o [4]
?e1                     0x000005         Data  Gb  vregs.o [4]
?e2                     0x000009         Data  Gb  vregs.o [4]
?e3                     0x00000d         Data  Gb  vregs.o [4]
?epilogue_l2            0x0086a1         Code  Gb  vreg_util.o [4]
?epilogue_l2_l3         0x00869e         Code  Gb  vreg_util.o [4]
?epilogue_l2_w6         0x0086a5         Code  Gb  vreg_util.o [4]
?epilogue_w4            0x0086ac         Code  Gb  vreg_util.o [4]
?l0                     0x000000         Data  Gb  vregs.o [4]
?l1                     0x000004         Data  Gb  vregs.o [4]
?l2                     0x000008         Data  Gb  vregs.o [4]
?l3                     0x00000c         Data  Gb  vregs.o [4]
?load32_0x_l0           0x009744         Code  Gb  long_util.o [4]
?load32_l0_0x           0x009738         Code  Gb  long_util.o [4]
?mov_e0_e3              0x0086b3         Code  Gb  vreg_util.o [4]
?mov_e2_e0              0x0086c0         Code  Gb  vreg_util.o [4]
?mov_e3_e0              0x0086cd         Code  Gb  vreg_util.o [4]
?mov_l0_l3              0x0086b0         Code  Gb  vreg_util.o [4]
?mov_l2_l0              0x0086bd         Code  Gb  vreg_util.o [4]
?mov_l3_l0              0x0086ca         Code  Gb  vreg_util.o [4]
?mov_w1_w7              0x0086b6         Code  Gb  vreg_util.o [4]
?mov_w5_w1              0x0086c3         Code  Gb  vreg_util.o [4]
?mov_w7_w1              0x0086d0         Code  Gb  vreg_util.o [4]
?mul16_x_x_w0           0x0093ee         Code  Gb  short.o [4]
?pop_l0                 0x00866a         Code  Gb  vreg_util.o [4]
?pop_l1                 0x008675         Code  Gb  vreg_util.o [4]
?pop_l2                 0x008680         Code  Gb  vreg_util.o [4]
?pop_l3                 0x00868b         Code  Gb  vreg_util.o [4]
?pop_w4                 0x00861c         Code  Gb  vreg_util.o [4]
?pop_w5                 0x008623         Code  Gb  vreg_util.o [4]
?pop_w6                 0x00862a         Code  Gb  vreg_util.o [4]
?push_l0                0x008639         Code  Gb  vreg_util.o [4]
?push_l1                0x00863e         Code  Gb  vreg_util.o [4]
?push_l2                0x008643         Code  Gb  vreg_util.o [4]
?push_l3                0x008648         Code  Gb  vreg_util.o [4]
?push_w4                0x0085fa         Code  Gb  vreg_util.o [4]
?push_w5                0x0085ff         Code  Gb  vreg_util.o [4]
?push_w6                0x008604         Code  Gb  vreg_util.o [4]
?sext32_l0_x            0x0093b1         Code  Gb  long.o [4]
?sll16_x_x_4            0x009416         Code  Gb  short.o [4]
?sll16_x_x_5            0x009415         Code  Gb  short.o [4]
?sll16_x_x_6            0x009414         Code  Gb  short.o [4]
?sll16_x_x_a            0x00940c         Code  Gb  short.o [4]
?sll8_a_a_5             0x00996f         Code  Gb  char.o [4]
?sll8_a_a_6             0x00996e         Code  Gb  char.o [4]
?srl16_x_x_4            0x00941b         Code  Gb  short.o [4]
?ucmp32_c_l0_l1         0x0093a6         Code  Gb  long.o [4]
?w0                     0x000000         Data  Gb  vregs.o [4]
?w1                     0x000002         Data  Gb  vregs.o [4]
?w2                     0x000004         Data  Gb  vregs.o [4]
?w3                     0x000006         Data  Gb  vregs.o [4]
?w4                     0x000008         Data  Gb  vregs.o [4]
?w5                     0x00000a         Data  Gb  vregs.o [4]
?w6                     0x00000c         Data  Gb  vregs.o [4]
?w7                     0x00000e         Data  Gb  vregs.o [4]
A7105_Init              0x008080  0x24f  Code  Gb  a7105.o [1]
A7105_Read_Ram          0x008da8   0x61  Code  Gb  a7105.o [1]
A7105_Read_Reg          0x0092e7   0x36  Code  Gb  a7105.o [1]
A7105_Slave_Proc        0x00919e   0x48  Code  Gb  a7105.o [1]
A7105_Write_Ram         0x008e64   0x58  Code  Gb  a7105.o [1]
A7105_Write_Reg         0x009353   0x35  Code  Gb  a7105.o [1]
A7105_strobe_cmd        0x009480   0x2e  Code  Gb  a7105.o [1]
ADC1_Cmd                0x009893    0xe  Code  Gb  stm8s_adc1.o [1]
ADC1_ConversionConfig   0x009451   0x2f  Code  Gb  stm8s_adc1.o [1]
ADC1_DataBufferCmd      0x0098a1    0xe  Code  Gb  stm8s_adc1.o [1]
ADC1_DeInit             0x009420   0x31  Code  Gb  stm8s_adc1.o [1]
ADC1_ExternalTriggerConfig
                        0x0096bb   0x21  Code  Gb  stm8s_adc1.o [1]
ADC1_GetConversionValue
                        0x009012   0x54  Code  Gb  stm8s_adc1.o [1]
ADC1_GetFlagStatus      0x008f69   0x55  Code  Gb  stm8s_adc1.o [1]
ADC1_Init               0x0092ac   0x3b  Code  Gb  stm8s_adc1.o [1]
ADC1_PrescalerConfig    0x009809   0x13  Code  Gb  stm8s_adc1.o [1]
ADC1_SchmittTriggerConfig
                        0x00899b   0x83  Code  Gb  stm8s_adc1.o [1]
ADC1_StartConversion    0x009974    0x5  Code  Gb  stm8s_adc1.o [1]
ADC_Init                0x009270   0x3c  Code  Gb  main.o [1]
CHAN_1_Set_Duty         0x009867    0xf  Code  Gb  drv.o [1]
CHAN_2_Set_Duty         0x009876    0xf  Code  Gb  drv.o [1]
CLK_Config              0x00990e    0xd  Code  Lc  main.o [1]
CLK_DeInit              0x00931d   0x36  Code  Gb  stm8s_clk.o [1]
CLK_HSICmd              0x0098af    0xe  Code  Gb  stm8s_clk.o [1]
CLK_HSIPrescalerConfig  0x00981c   0x13  Code  Gb  stm8s_clk.o [1]
CLK_PeripheralClockConfig
                        0x008e09   0x5b  Code  Gb  stm8s_clk.o [1]
CSTACK$$Base            0x000300          --   Gb  - Linker created -
CSTACK$$Limit           0x000400          --   Gb  - Linker created -
CheckBatteryPercentage  0x008905   0x96  Code  Gb  drv.o [1]
CopyParam               0x00976b   0x19  Code  Gb  eeprom.o [1]
Delayus                 0x00997e    0x5  Code  Gb  sys.o [1]
EXTI_DeInit             0x00995e    0x9  Code  Gb  stm8s_exti.o [1]
EXTI_Init               0x00991b    0xd  Code  Gb  main.o [1]
EXTI_PORTB_IRQHandler   0x008859   0xac  Code  Gb  key.o [1]
EXTI_SetExtIntSensitivity
                        0x008b16   0x78  Code  Gb  stm8s_exti.o [1]
FLASH_EraseByte         0x009979    0x5  Code  Gb  stm8s_flash.o [1]
FLASH_Lock              0x009949    0xb  Code  Gb  stm8s_flash.o [1]
FLASH_ProgramByte       0x009994    0x4  Code  Gb  stm8s_flash.o [1]
FLASH_ReadByte          0x009998    0x4  Code  Gb  stm8s_flash.o [1]
FLASH_Unlock            0x00979b   0x17  Code  Gb  stm8s_flash.o [1]
GPIO_Config             0x008414   0xf5  Code  Gb  main.o [1]
GPIO_Init               0x0087a3   0xb6  Code  Gb  stm8s_gpio.o [1]
GPIO_ReadInputPin       0x0099a3    0x3  Code  Gb  stm8s_gpio.o [1]
GPIO_WriteBit           0x009855   0x12  Code  Gb  stm8s_gpio.o [1]
GPIO_WriteCr2Bit        0x0094ae   0x2e  Code  Gb  stm8s_gpio.o [1]
GeneralTaskLoop         0x00969a   0x21  Code  Gb  main.o [1]
GetKeyAdc               0x009702   0x1b  Code  Gb  drv.o [1]
INTVEC$$Base            0x008000          --   Gb  - Linker created -
INTVEC$$Limit           0x008080          --   Gb  - Linker created -
IS_PARA_NEED_SAVE       0x0093bc   0x32  Code  Gb  eeprom.o [1]
KeyBat1                 0x009535   0x2b  Code  Gb  key.o [1]
KeyBat2                 0x009509   0x2c  Code  Gb  key.o [1]
KeyControl              0x009653   0x26  Code  Gb  key.o [1]
KeyEventLoop            0x008fbe   0x54  Code  Gb  key.o [1]
KeyLeftProc             0x008a9a   0x7c  Code  Gb  key.o [1]
KeyOnOffProc            0x009679   0x21  Code  Gb  key.o [1]
KeyRfChanProc           0x0095b4   0x29  Code  Gb  key.o [1]
KeyRightProc            0x008a1e   0x7c  Code  Gb  key.o [1]
KeyToIndex              0x009105   0x4d  Code  Gb  key.o [1]
LED_init                0x009066   0x52  Code  Gb  main.o [1]
LedDisplayLoop          0x008509   0xf1  Code  Gb  drv.o [1]
LedDspBat               0x009990    0x4  Code  Gb  drv.o [1]
LedDspRfChan            0x00998c    0x4  Code  Gb  drv.o [1]
Led_1_off               0x0098e7    0xd  Code  Gb  drv.o [1]
Led_1_on                0x009928    0xb  Code  Gb  drv.o [1]
Led_1_twinkle           0x0095dd   0x28  Code  Gb  drv.o [1]
Led_2_off               0x0098f4    0xd  Code  Gb  drv.o [1]
Led_2_on                0x009933    0xb  Code  Gb  drv.o [1]
Led_2_twinkle           0x00958b   0x29  Code  Gb  drv.o [1]
Led_3_off               0x009901    0xd  Code  Gb  drv.o [1]
Led_3_on                0x00993e    0xb  Code  Gb  drv.o [1]
LowbatTwinkle           0x009605   0x28  Code  Gb  main.o [1]
ParaReadProc            0x0090b8   0x4d  Code  Gb  eeprom.o [1]
ParaSaveLoop            0x00962d   0x26  Code  Gb  eeprom.o [1]
ParseKey                0x0082cf  0x145  Code  Gb  key.o [1]
ParseRfData             0x0086d7   0xcc  Code  Gb  a7105.o [1]
RC_ControlData          0x008ebc   0x57  Code  Gb  a7105.o [1]
ReadPilot               0x0099a0    0x3  Code  Gb  key.o [1]
Read_EEPROM             0x009152   0x4c  Code  Gb  eeprom.o [1]
Region$$Table$$Base     0x0096dc          --   Gb  - Linker created -
Region$$Table$$Limit    0x0096e4          --   Gb  - Linker created -
RfSetChan               0x009752   0x19  Code  Gb  a7105.o [1]
SYSTEM_Init             0x009560   0x2b  Code  Gb  main.o [1]
SetRfTxRx               0x009784   0x17  Code  Gb  main.o [1]
Spi_Rcv_byte            0x0091e6   0x46  Code  Gb  a7105.o [1]
Spi_Send_byte           0x008f13   0x56  Code  Gb  a7105.o [1]
StartSystem             0x009885    0xe  Code  Gb  main.o [1]
TIM1_ClearFlag          0x00982f   0x13  Code  Gb  stm8s_tim1.o [1]
TIM1_Cmd                0x0098bd    0xe  Code  Gb  stm8s_tim1.o [1]
TIM1_Config             0x008d41   0x67  Code  Gb  main.o [1]
TIM1_CtrlPWMOutputs     0x0098cb    0xe  Code  Gb  stm8s_tim1.o [1]
TIM1_OC1Init            0x008c00   0x6c  Code  Gb  stm8s_tim1.o [1]
TIM1_OC2Init            0x008c6c   0x6c  Code  Gb  stm8s_tim1.o [1]
TIM1_TimeBaseInit       0x0094dc   0x2d  Code  Gb  stm8s_tim1.o [1]
TIM5_Cmd                0x0098d9    0xe  Code  Gb  stm8s_tim5.o [1]
TIM5_GetCounter         0x00971d   0x1b  Code  Gb  stm8s_tim5.o [1]
TIM5_TimeBaseInit       0x0097df   0x16  Code  Gb  stm8s_tim5.o [1]
Timer5Init              0x0097c9   0x16  Code  Gb  main.o [1]
Write_EEPROM            0x008cd8   0x69  Code  Gb  eeprom.o [1]
__DebugBreak            0x0099b2    0x1  Code  Gb  __dbg_break.o [3]
__exit                  0x0097f5   0x14  Code  Gb  __dbg_xxexit.o [3]
__iar_data_init2        0x0097b2   0x17  Code  Gb  init.o [4]
__iar_program_start     0x009842         Code  Gb  cstartup.o [4]
__iar_unhandled_exception
                        0x0099af         Code  Gb  unhandled_exception.o [4]
__iar_zero_init2        0x0096e4         Code  Gb  init_small.o [4]
__intvec                0x008000         Data  Gb  interrupt.o [4]
__low_level_init        0x0099a9    0x3  Code  Gb  low_level_init.o [4]
_exit                   0x009983         Code  Gb  cexit.o [4]
_interrupt_6            0x008859         Code  Gb  key.o [1]
delay_ms                0x00922c   0x44  Code  Gb  sys.o [1]
exit                    0x0099ac    0x3  Code  Gb  exit.o [4]
filter                  0x008b8e   0x72  Code  Gb  drv.o [1]
g_CtrlSelect            0x000063    0x1  Data  Gb  key.o [1]
g_a7105_id1             0x009988    0x4  Data  Gb  a7105.o [1]
g_bat1LowTwinkle        0x000061    0x1  Data  Gb  key.o [1]
g_bat2LowTwinkle        0x000062    0x1  Data  Gb  key.o [1]
g_chan1_duty_bak        0x000065    0x1  Data  Gb  key.o [1]
g_chan2_duty_bak        0x000066    0x1  Data  Gb  key.o [1]
g_dot_left              0x00006a    0x1  Data  Gb  main.o [1]
g_dot_right             0x00006b    0x1  Data  Gb  main.o [1]
g_generalTaskTimer      0x000057    0x2  Data  Gb  main.o [1]
g_isLedON               0x000064    0x1  Data  Gb  key.o [1]
g_keyDir                0x00005f    0x1  Data  Gb  key.o [1]
g_keyTimer              0x000051    0x2  Data  Gb  key.o [1]
g_ledChar               0x000069    0x1  Data  Gb  main.o [1]
g_ledDisplayTimer       0x00004d    0x2  Data  Gb  drv.o [1]
g_lowBatTwinkleTimer    0x000059    0x2  Data  Gb  main.o [1]
g_paraReadBuf           0x000045    0x4  Data  Gb  eeprom.o [1]
g_paraSaveTimer         0x00004f    0x2  Data  Gb  eeprom.o [1]
g_pwm_chan1_duty        0x000067    0x1  Data  Gb  key.o [1]
g_pwm_chan2_duty        0x000068    0x1  Data  Gb  key.o [1]
g_rfChan                0x00005b    0x1  Data  Gb  a7105.o [1]
g_rfIdBuf               0x000041    0x4  Data  Gb  a7105.o [1]
g_rfSendBuf             0x000010   0x31  Data  Gb  a7105.o [1]
g_sendFlag              0x00005c    0x1  Data  Gb  a7105.o [1]
g_shadowKey             0x000060    0x1  Data  Gb  key.o [1]
g_sysSleepCnt           0x000055    0x2  Data  Gb  key.o [1]
get_counter             0x00999c    0x4  Code  Gb  sys.o [1]
led_template            0x009954    0xa  Data  Gb  drv.o [1]
main                    0x009967    0x7  Code  Gb  main.o [1]
s_keyCounter            0x000053    0x2  Data  Gb  key.o [1]
s_keyFlag               0x00005e    0x1  Data  Gb  key.o [1]
s_keyShadow             0x000049    0x4  Data  Gb  key.o [1]


[1] = D:\ycb\LED\STM8S903\STM8S903_RC\Project\Debug\Obj
[2] = command line
[3] = dbgstm8smd.a
[4] = dlstm8smn.a

  6 429 bytes of readonly  code memory
    150 bytes of readonly  data memory
    364 bytes of readwrite data memory

Errors: none
Warnings: none
