Component: ARM Compiler 5.06 update 1 (build 61) Tool: armlink [4d35a8]

==============================================================================

Section Cross References

    stm32f10x.o(RESET) refers to stm32f10x.o(STACK) for __initial_sp
    stm32f10x.o(RESET) refers to stm32f10x.o(.text) for Reset_Handler
    stm32f10x.o(RESET) refers to os_cpu_a.o(.text) for PendSV_Handler
    stm32f10x.o(RESET) refers to main.o(.text) for SysTick_Handler
    stm32f10x.o(RESET) refers to sys.o(.text) for EXTI0_IRQHandler
    stm32f10x.o(RESET) refers to keyproc.o(.text) for EXTI1_IRQHandler
    stm32f10x.o(RESET) refers to spi.o(.text) for EXTI9_5_IRQHandler
    stm32f10x.o(RESET) refers to timer.o(.text) for TIM3_IRQHandler
    stm32f10x.o(RESET) refers to usart.o(.text) for USART2_IRQHandler
    stm32f10x.o(RESET) refers to keyadc.o(.text) for EXTI15_10_IRQHandler
    stm32f10x.o(.text) refers to entry.o(.ARM.Collect$$$$00000000) for __main
    flash.o(.text) refers to memseta.o(.text) for __aeabi_memclr4
    flash.o(.text) refers to delay.o(.text) for HP_SHOT_ONCE
    flash.o(.text) refers to fmul.o(.text) for __aeabi_fmul
    flash.o(.text) refers to ffltui.o(.text) for __aeabi_ui2f
    flash.o(.text) refers to ffixui.o(.text) for __aeabi_f2uiz
    flash.o(.text) refers to fdiv.o(.text) for __aeabi_fdiv
    flash.o(.text) refers to timer.o(.text) for StopCapture
    flash.o(.text) refers to os_task.o(.text) for OSTaskResume
    flash.o(.text) refers to flash.o(.bss) for .bss
    flash.o(.text) refers to flash.o(.constdata) for .constdata
    flash.o(.text) refers to main.o(.data) for g_isHotProtect
    flash.o(.text) refers to main.o(.bss) for mainPara
    flash.o(.text) refers to os_tmr.o(.text) for OSTmrReload
    flash.o(.text) refers to flash.o(.data) for .data
    flash.o(.text) refers to spi.o(.data) for g_dspUpdateFlag
    flash.o(.text) refers to keyproc.o(.data) for g_isIndividualSlave
    flash.o(.text) refers to spi.o(.constdata) for wl_opArr
    flash.o(.text) refers to usart.o(.data) for g_rfSlaveFlashCode
    funclayout.o(.text) refers to lcddriver.o(.text) for LcdClearFeild
    funclayout.o(.text) refers to menu.o(.data) for pSnrSet
    funclayout.o(.text) refers to font.o(.constdata) for ettl_TBitmap
    funclayout.o(.text) refers to font.o(.constdata) for ettl_LBitmap
    funclayout.o(.text) refers to font.o(.constdata) for ettl_EBitmap
    funclayout.o(.text) refers to font.o(.constdata) for mBitmap
    funclayout.o(.text) refers to font.o(.constdata) for uBitmap
    funclayout.o(.text) refers to font.o(.constdata) for multi_ltBitmap
    funclayout.o(.text) refers to font.o(.constdata) for iBitmap
    funclayout.o(.text) refers to font.o(.constdata) for gBitmap
    funclayout.o(.text) refers to font.o(.constdata) for rBitmap
    funclayout.o(.text) refers to font.o(.constdata) for ext_xBitmap
    funclayout.o(.text) refers to font.o(.constdata) for ext_tBitmap
    funclayout.o(.text) refers to font.o(.constdata) for ext_dotBitmap
    funclayout.o(.text) refers to font.o(.constdata) for ext_aBitmap
    keyadc.o(.text) refers to stm32f10x_adc.o(.text) for ADC_DeInit
    keyadc.o(.text) refers to stm32f10x_exti.o(.text) for EXTI_GetITStatus
    keyadc.o(.text) refers to sys.o(.text) for Ex_NVIC_Disable
    keyadc.o(.text) refers to main.o(.data) for g_keyAdcEnable
    keyadc.o(.text) refers to keyadc.o(.data) for .data
    keyadc.o(.text) refers to keyproc.o(.data) for g_keyDir
    keyproc.o(.text) refers to os_time.o(.text) for OSTimeDlyHMSM
    keyproc.o(.text) refers to keyadc.o(.text) for GetKeyAdc
    keyproc.o(.text) refers to memseta.o(.text) for __aeabi_memclr
    keyproc.o(.text) refers to lcddriver.o(.text) for AreaSet
    keyproc.o(.text) refers to keyproc.o(.data) for .data
    keyproc.o(.text) refers to spi.o(.data) for g_isModeling
    keyproc.o(.text) refers to menu.o(.data) for pSnrSet
    keyproc.o(.text) refers to stmflash.o(.bss) for STMFLASH_BUF
    keyproc.o(.text) refers to lcddriver.o(.data) for g_paraSetBufIndex
    keyproc.o(.text) refers to font.o(.constdata) for font_cmp
    keyproc.o(.text) refers to font.o(.constdata) for font_feb
    keyproc.o(.text) refers to keyproc.o(.bss) for .bss
    keyproc.o(.text) refers to main.o(.data) for g_stepLength
    keyproc.o(.text) refers to lcddriver.o(.constdata) for cmpArr_5
    keyproc.o(.text) refers to lcddriver.o(.constdata) for cmpArr
    keyproc.o(.text) refers to lcddriver.o(.constdata) for m_dotSetLocEx
    keyproc.o(.text) refers to font.o(.constdata) for fontIso
    keyproc.o(.text) refers to lcddriver.o(.constdata) for multi_dotSetLocEx
    keyproc.o(.text) refers to funclayout.o(.text) for LayModeEttl
    keyproc.o(.text) refers to ffltui.o(.text) for __aeabi_ui2f
    keyproc.o(.text) refers to font.o(.constdata) for synFp
    keyproc.o(.text) refers to font.o(.constdata) for synRear
    keyproc.o(.text) refers to main.o(.bss) for mainPara
    keyproc.o(.text) refers to lcddriver.o(.constdata) for cmpStringEx_5
    keyproc.o(.text) refers to font.o(.constdata) for mstBitMap
    keyproc.o(.text) refers to lcddriver.o(.constdata) for cmpStringEx
    keyproc.o(.text) refers to font.o(.constdata) for slvBitMap
    keyproc.o(.text) refers to font.o(.constdata) for font_sLinkShot
    keyproc.o(.text) refers to font.o(.constdata) for font_individualSlave
    keyproc.o(.text) refers to spi.o(.bss) for multiSet
    keyproc.o(.text) refers to font.o(.constdata) for fontIsoIcon
    keyproc.o(.text) refers to main.o(.data) for g_grDspStart
    keyproc.o(.text) refers to main.o(.data) for g_grSel
    keyproc.o(.text) refers to memcpya.o(.text) for __aeabi_memcpy
    keyproc.o(.text) refers to timer.o(.text) for StopCapture
    keyproc.o(.text) refers to main.o(.text) for BkLiteOn
    keyproc.o(.text) refers to flash.o(.text) for LightSlaveParaClear
    keyproc.o(.text) refers to usart.o(.text) for WaitForUartIdle
    keyproc.o(.text) refers to lcddriver.o(.bss) for funcMenu
    keyproc.o(.text) refers to font.o(.constdata) for LkDevMark
    keyproc.o(.text) refers to menu.o(.data) for pfnSet
    keyproc.o(.text) refers to font.o(.constdata) for font_clear
    keyproc.o(.text) refers to main.o(.data) for g_isReflectPulled
    keyproc.o(.text) refers to moto.o(.constdata) for focLenScape
    keyproc.o(.text) refers to moto.o(.constdata) for focLenCode
    keyproc.o(.text) refers to spi.o(.constdata) for output_table
    keyproc.o(.text) refers to spi.o(.constdata) for compensation_table_5
    keyproc.o(.text) refers to spi.o(.constdata) for feb_table
    keyproc.o(.text) refers to spi.o(.constdata) for feb_table_5
    keyproc.o(.text) refers to led.o(.text) for SavePara
    keyproc.o(.text) refers to menu.o(.data) for g_cfnStart
    keyproc.o(.text) refers to menu.o(.data) for g_cfnIndex
    keyproc.o(.text) refers to menu.o(.data) for g_pfnStart
    keyproc.o(.text) refers to menu.o(.data) for g_pfnIndex
    keyproc.o(.text) refers to menu.o(.constdata) for sm_Cfn
    keyproc.o(.text) refers to menu.o(.constdata) for sm_Pfn
    keyproc.o(.text) refers to lcddriver.o(.constdata) for apertValue
    keyproc.o(.text) refers to usart.o(.data) for g_slaveReady
    keyproc.o(.text) refers to delay.o(.text) for delay_ms
    keyproc.o(.text) refers to spi.o(.text) for BuildExposeCmd
    keyproc.o(.text) refers to os_cpu_a.o(.text) for OS_ENTER_CRITICAL
    keyproc.o(.text) refers to sys.o(.text) for Ex_NVIC_Enable
    keyproc.o(.text) refers to font.o(.constdata) for font_locked
    keyproc.o(.text) refers to moto.o(.data) for g_chargeShadow
    keyproc.o(.text) refers to stm32f10x_pwr.o(.text) for PWR_EnterSTOPMode
    main.o(.text) refers to sys.o(.text) for Ex_NVIC_Config
    main.o(.text) refers to keyadc.o(.text) for GetBatteryAdc
    main.o(.text) refers to delay.o(.text) for delay_ms
    main.o(.text) refers to lcddriver.o(.text) for LoadLowBatIcon
    main.o(.text) refers to stm32f10x_pwr.o(.text) for PWR_EnterSTOPMode
    main.o(.text) refers to encrypto.o(.text) for Boot_Decrypt
    main.o(.text) refers to stmflash.o(.text) for STMFLASH_Read
    main.o(.text) refers to memcmp.o(.text) for memcmp
    main.o(.text) refers to timer.o(.text) for TmCaptureInit
    main.o(.text) refers to flash.o(.text) for LightSlaveParaClear
    main.o(.text) refers to led.o(.text) for PWM_Init
    main.o(.text) refers to keyproc.o(.text) for ChanSetConfirm
    main.o(.text) refers to os_time.o(.text) for OSTimeDlyHMSM
    main.o(.text) refers to usart.o(.text) for UartSctSend
    main.o(.text) refers to moto.o(.text) for MotoReset
    main.o(.text) refers to main.o(.data) for .data
    main.o(.text) refers to keyproc.o(.data) for uart_tran_flag
    main.o(.text) refers to spi.o(.data) for g_menuLock
    main.o(.text) refers to main.o(.bss) for .bss
    main.o(.text) refers to keyproc.o(.bss) for motoSet
    main.o(.text) refers to keyproc.o(.data) for g_chargeflag
    main.o(.text) refers to usart.o(.data) for g_slaveReady
    main.o(.text) refers to keyproc.o(.data) for g_bzDuration
    main.o(.text) refers to keyproc.o(.data) for g_bzCount
    main.o(.text) refers to menu.o(.data) for pSnrSet
    main.o(.text) refers to keyproc.o(.data) for bkParas
    main.o(.text) refers to keyadc.o(.data) for g_shadowKey
    main.o(.text) refers to font.o(.constdata) for font_cfn10
    main.o(.text) refers to spi.o(.text) for EXTIx_Init
    main.o(.text) refers to memseta.o(.text) for __aeabi_memclr4
    main.o(.text) refers to os_tmr.o(.text) for OSTmrStart
    main.o(.text) refers to keyproc.o(.data) for g_RgbCheckTurn
    main.o(.text) refers to menu.o(.data) for pfnSet
    main.o(.text) refers to spi.o(.bss) for multiSet
    main.o(.text) refers to flash.o(.constdata) for g_flaExpCode
    main.o(.text) refers to os_cpu_a.o(.text) for OS_ENTER_CRITICAL
    main.o(.text) refers to flash.o(.constdata) for g_colorTemperature
    main.o(.text) refers to flash.o(.data) for g_colorTempRt
    main.o(.text) refers to flash.o(.bss) for canWireless
    main.o(.text) refers to os_task.o(.text) for OSTaskSuspend
    main.o(.text) refers to spi.o(.constdata) for compensation_table
    main.o(.text) refers to os_core.o(.text) for OSInit
    main.o(.text) refers to spi.o(.constdata) for output_table
    main.o(.text) refers to os_core.o(.data) for OSIntNesting
    main.o(.data) refers to main.o(.bss) for mainPara
    main.o(.data) refers to main.o(.conststring) for .conststring
    menu.o(.text) refers to lcddriver.o(.text) for AreaSet
    menu.o(.text) refers to memseta.o(.text) for __aeabi_memclr
    menu.o(.text) refers to main.o(.text) for BkLiteOn
    menu.o(.text) refers to stmflash.o(.bss) for STMFLASH_BUF
    menu.o(.text) refers to font.o(.constdata) for font_ctrSet
    menu.o(.text) refers to menu.o(.data) for .data
    menu.o(.text) refers to spi.o(.data) for g_cmdMode
    menu.o(.text) refers to main.o(.data) for g_isHotProtect
    menu.o(.constdata) refers to font.o(.constdata) for font_cfn0
    menu.o(.constdata) refers to menu.o(.data) for subCfn0
    menu.o(.constdata) refers to font.o(.constdata) for font_cfn1
    menu.o(.constdata) refers to menu.o(.data) for subCfn1
    menu.o(.constdata) refers to font.o(.constdata) for font_cfn2
    menu.o(.constdata) refers to menu.o(.conststring) for .conststring
    menu.o(.constdata) refers to menu.o(.data) for subCfn2
    menu.o(.constdata) refers to font.o(.constdata) for font_cfn3
    menu.o(.constdata) refers to menu.o(.data) for subCfn4
    menu.o(.constdata) refers to menu.o(.data) for subCfn5
    menu.o(.constdata) refers to font.o(.constdata) for font_cfn6
    menu.o(.constdata) refers to menu.o(.data) for subCfn6
    menu.o(.constdata) refers to menu.o(.data) for subCfn7
    menu.o(.constdata) refers to font.o(.constdata) for font_cfn8
    menu.o(.constdata) refers to font.o(.constdata) for font_cfn9
    menu.o(.constdata) refers to font.o(.constdata) for font_cfn10
    menu.o(.constdata) refers to menu.o(.data) for subCfn10
    menu.o(.constdata) refers to font.o(.constdata) for font_cfn11
    menu.o(.constdata) refers to menu.o(.data) for subCfn11
    menu.o(.constdata) refers to font.o(.constdata) for font_cfn12
    menu.o(.constdata) refers to menu.o(.data) for subCfn12
    menu.o(.constdata) refers to font.o(.constdata) for font_cmp
    menu.o(.constdata) refers to menu.o(.data) for subCfn13
    menu.o(.constdata) refers to font.o(.constdata) for font_cfn20
    menu.o(.constdata) refers to font.o(.constdata) for font_cfn21
    menu.o(.constdata) refers to menu.o(.data) for subCfn21
    menu.o(.constdata) refers to font.o(.constdata) for font_cfn22
    menu.o(.constdata) refers to menu.o(.data) for subCfn22
    menu.o(.constdata) refers to menu.o(.text) for BkLiteSelect
    menu.o(.constdata) refers to font.o(.constdata) for font_cfn23
    menu.o(.constdata) refers to menu.o(.data) for subCfn23
    menu.o(.constdata) refers to menu.o(.text) for ContrastDsp
    menu.o(.constdata) refers to font.o(.constdata) for font_pfn1
    menu.o(.constdata) refers to menu.o(.data) for subPfn0
    menu.o(.constdata) refers to font.o(.constdata) for font_pfn2
    menu.o(.constdata) refers to menu.o(.data) for subPfn1
    menu.o(.constdata) refers to font.o(.constdata) for font_pfn3
    menu.o(.constdata) refers to font.o(.constdata) for font_pfn4
    menu.o(.constdata) refers to menu.o(.data) for subPfn4
    menu.o(.constdata) refers to font.o(.constdata) for font_pfn5
    menu.o(.constdata) refers to menu.o(.data) for subPfn5
    menu.o(.constdata) refers to font.o(.constdata) for font_pfn6
    menu.o(.constdata) refers to menu.o(.data) for subPfn6
    menu.o(.constdata) refers to font.o(.constdata) for font_cfn6
    menu.o(.constdata) refers to menu.o(.conststring) for .conststring
    menu.o(.constdata) refers to menu.o(.data) for subPfn7
    menu.o(.data) refers to menu.o(.conststring) for .conststring
    menu.o(.data) refers to menu.o(.conststring) for .conststring
    menu.o(.data) refers to menu.o(.conststring) for .conststring
    menu.o(.data) refers to menu.o(.conststring) for .conststring
    menu.o(.data) refers to menu.o(.conststring) for .conststring
    menu.o(.data) refers to menu.o(.conststring) for .conststring
    menu.o(.data) refers to menu.o(.conststring) for .conststring
    menu.o(.data) refers to menu.o(.conststring) for .conststring
    menu.o(.data) refers to menu.o(.conststring) for .conststring
    menu.o(.data) refers to menu.o(.conststring) for .conststring
    menu.o(.data) refers to menu.o(.conststring) for .conststring
    menu.o(.data) refers to menu.o(.conststring) for .conststring
    menu.o(.data) refers to menu.o(.conststring) for .conststring
    menu.o(.data) refers to menu.o(.conststring) for .conststring
    menu.o(.data) refers to menu.o(.text) for ContrastSet
    menu.o(.data) refers to menu.o(.conststring) for .conststring
    menu.o(.data) refers to menu.o(.conststring) for .conststring
    menu.o(.data) refers to menu.o(.conststring) for .conststring
    menu.o(.data) refers to menu.o(.conststring) for .conststring
    menu.o(.data) refers to menu.o(.conststring) for .conststring
    moto.o(.text) refers to os_time.o(.text) for OSTimeDlyHMSM
    moto.o(.text) refers to lcddriver.o(.text) for DisplayFocLen
    moto.o(.text) refers to moto.o(.data) for .data
    moto.o(.text) refers to keyproc.o(.bss) for motoSet
    moto.o(.text) refers to moto.o(.constdata) for .constdata
    moto.o(.text) refers to spi.o(.data) for g_dspUpdateFlag
    moto.o(.text) refers to main.o(.data) for g_isReflectPulled
    moto.o(.text) refers to os_task.o(.text) for OSTaskSuspend
    delay.o(.text) refers to delay.o(.data) for .data
    delay.o(.text) refers to main.o(.data) for g_isHotProtect
    sys.o(.text) refers to sys.o(.emb_text) for WFI_SET
    sys.o(.text) refers to stm32f10x_rcc.o(.text) for RCC_DeInit
    sys.o(.text) refers to stm32f10x_flash.o(.text) for FLASH_SetLatency
    sys.o(.text) refers to stm32f10x_gpio.o(.text) for GPIO_Init
    sys.o(.text) refers to stm32f10x_exti.o(.text) for EXTI_ClearITPendingBit
    sys.o(.text) refers to misc.o(.text) for NVIC_PriorityGroupConfig
    sys.o(.text) refers to keyadc.o(.text) for KeyAdcDisable
    sys.o(.text) refers to stm32f10x_spi.o(.text) for SPI_I2S_DeInit
    sys.o(.text) refers to stm32f10x_usart.o(.text) for USART_DeInit
    sys.o(.text) refers to stm32f10x_pwr.o(.text) for PWR_EnterSTOPMode
    sys.o(.text) refers to led.o(.text) for PortUninit
    sys.o(.text) refers to main.o(.data) for g_comStatue
    sys.o(.text) refers to memseta.o(.text) for __aeabi_memclr4
    sys.o(.text) refers to lcddriver.o(.text) for DisplayOff
    sys.o(.text) refers to delay.o(.text) for delay_ms
    sys.o(.text) refers to spi.o(.text) for EXTIx_Init
    sys.o(.text) refers to keyproc.o(.text) for Mode
    sys.o(.text) refers to spi.o(.data) for g_cmdMode
    sys.o(.text) refers to keyproc.o(.data) for g_SettingIndex
    usart.o(.text) refers to flash.o(.text) for WlMultiFrqConver
    usart.o(.text) refers to memcpya.o(.text) for __aeabi_memcpy
    usart.o(.text) refers to main.o(.text) for RfParaSend
    usart.o(.text) refers to spi.o(.text) for EXTIx_Init
    usart.o(.text) refers to os_task.o(.text) for OSTaskResume
    usart.o(.text) refers to spi.o(.constdata) for output_table
    usart.o(.text) refers to usart.o(.data) for .data
    usart.o(.text) refers to flash.o(.bss) for canWireless
    usart.o(.text) refers to main.o(.data) for g_expTTLPara1
    usart.o(.text) refers to spi.o(.data) for g_shutterFlag
    usart.o(.text) refers to main.o(.bss) for radioStatue
    usart.o(.text) refers to keyproc.o(.data) for gWSleepCounter
    usart.o(.text) refers to lcddriver.o(.data) for g_isChScan
    usart.o(.text) refers to spi.o(.bss) for menuPara
    usart.o(.text) refers to keyproc.o(.bss) for flaPara
    usart.o(.text) refers to ffltui.o(.text) for __aeabi_ui2f
    usart.o(.text) refers to fdiv.o(.text) for __aeabi_fdiv
    usart.o(.text) refers to ffixui.o(.text) for __aeabi_f2uiz
    usart.o(.text) refers to fadd.o(.text) for __aeabi_frsub
    usart.o(.text) refers to fscalb.o(.text) for __ARM_scalbnf
    usart.o(.text) refers to sys.o(.text) for MY_NVIC_Init
    usart.o(.text) refers to os_cpu_a.o(.text) for OS_ENTER_CRITICAL
    usart.o(.text) refers to usart.o(.bss) for .bss
    usart.o(.text) refers to keyproc.o(.data) for uart_tran_flag
    usart.o(.text) refers to delay.o(.text) for delay_ms
    usart.o(.text) refers to spi.o(.constdata) for compensation_table
    led.o(.text) refers to sys.o(.text) for JTAG_Set
    led.o(.text) refers to delay.o(.text) for delay_ms
    led.o(.text) refers to main.o(.text) for Flash_Interrupt_init
    led.o(.text) refers to spi.o(.text) for EXTIx_Init
    led.o(.text) refers to usart.o(.text) for CalcSum
    led.o(.text) refers to stmflash.o(.text) for STMFLASH_Write
    led.o(.text) refers to stm32f10x_gpio.o(.text) for GPIO_Init
    led.o(.text) refers to main.o(.data) for g_comStatue
    led.o(.text) refers to main.o(.bss) for mainPara
    spi.o(.text) refers to sys.o(.text) for MY_NVIC_Init
    spi.o(.text) refers to flash.o(.text) for CalcCmpPower
    spi.o(.text) refers to ffltui.o(.text) for __aeabi_ui2f
    spi.o(.text) refers to fmul.o(.text) for __aeabi_fmul
    spi.o(.text) refers to fdiv.o(.text) for __aeabi_fdiv
    spi.o(.text) refers to ffixui.o(.text) for __aeabi_f2uiz
    spi.o(.text) refers to main.o(.text) for IsKeyValid
    spi.o(.text) refers to delay.o(.text) for TakePreFlash
    spi.o(.text) refers to timer.o(.text) for Timer4_Init
    spi.o(.text) refers to os_task.o(.text) for OSTaskResume
    spi.o(.text) refers to flash.o(.data) for hpSetting
    spi.o(.text) refers to main.o(.bss) for mainPara
    spi.o(.text) refers to main.o(.data) for g_isHotProtect
    spi.o(.text) refers to spi.o(.data) for .data
    spi.o(.text) refers to keyproc.o(.bss) for wlSet
    spi.o(.text) refers to menu.o(.data) for pfnSet
    spi.o(.text) refers to stm32f10x_exti.o(.text) for EXTI_GetITStatus
    spi.o(.text) refers to usart.o(.data) for g_isRfSlaveLinked
    spi.o(.text) refers to spi.o(.bss) for .bss
    spi.o(.text) refers to menu.o(.data) for pSnrSet
    spi.o(.text) refers to spi.o(.constdata) for .constdata
    spi.o(.text) refers to usart.o(.text) for RfMasterReadyCheck
    spi.o(.text) refers to keyproc.o(.data) for g_chargeOk
    spi.o(.text) refers to flash.o(.data) for g_colorTempRt
    spi.o(.text) refers to main.o(.data) for g_grDspStart
    spi.o(.text) refers to flash.o(.bss) for canWireless
    spi.o(.text) refers to moto.o(.text) for GetMotoStdIndex
    spi.o(.text) refers to lcddriver.o(.text) for DisplayFocLen
    spi.o(.text) refers to keyproc.o(.text) for Mode
    spi.o(.text) refers to os_tmr.o(.text) for OSTmrStart
    spi.o(.text) refers to os_time.o(.text) for OSTimeDlyHMSM
    spi.o(.text) refers to moto.o(.constdata) for focLenScape
    spi.o(.text) refers to flash.o(.data) for g_slaveTimer
    timer.o(.text) refers to spi.o(.text) for Com_Stop
    timer.o(.text) refers to sys.o(.text) for Ex_NVIC_Config
    timer.o(.text) refers to os_task.o(.text) for OSTaskResume
    timer.o(.text) refers to flash.o(.text) for LightSlaveProc
    timer.o(.text) refers to os_time.o(.text) for OSTimeDlyHMSM
    timer.o(.text) refers to main.o(.data) for g_comStatue
    timer.o(.text) refers to spi.o(.bss) for menuPara
    timer.o(.text) refers to spi.o(.data) for g_spiRcvTotal
    timer.o(.text) refers to keyproc.o(.data) for g_SettingIndex
    timer.o(.text) refers to keyproc.o(.bss) for wlSet
    timer.o(.text) refers to main.o(.bss) for radioStatue
    stmflash.o(.text) refers to delay.o(.text) for delay_us
    stmflash.o(.text) refers to stmflash.o(.bss) for .bss
    lcddriver.o(.text) refers to delay.o(.text) for delay_ms
    lcddriver.o(.text) refers to memseta.o(.text) for __aeabi_memclr
    lcddriver.o(.text) refers to stmflash.o(.bss) for STMFLASH_BUF
    lcddriver.o(.text) refers to lcddriver.o(.data) for .data
    lcddriver.o(.text) refers to font.o(.constdata) for fontIso
    lcddriver.o(.text) refers to keyproc.o(.text) for Mode
    lcddriver.o(.text) refers to lcddriver.o(.constdata) for .constdata
    lcddriver.o(.text) refers to keyproc.o(.data) for g_SettingIndex
    lcddriver.o(.text) refers to lcddriver.o(.bss) for .bss
    lcddriver.o(.text) refers to main.o(.bss) for mainPara
    lcddriver.o(.text) refers to spi.o(.data) for g_cmdMode
    lcddriver.o(.text) refers to menu.o(.data) for pfnSet
    lcddriver.o(.text) refers to keyproc.o(.bss) for wlSet
    lcddriver.o(.text) refers to usart.o(.text) for UartSctSend
    lcddriver.o(.text) refers to main.o(.data) for g_grSel
    lcddriver.o(.text) refers to main.o(.data) for radioSet
    lcddriver.o(.text) refers to keyproc.o(.data) for g_menuIdRsv
    lcddriver.o(.text) refers to main.o(.data) for g_grDspStart
    lcddriver.o(.text) refers to main.o(.data) for g_isReflectPulled
    lcddriver.o(.text) refers to font.o(.constdata) for scaleFont
    lcddriver.o(.text) refers to font.o(.constdata) for scaleNum
    lcddriver.o(.text) refers to moto.o(.text) for GetMotoStdIndex
    lcddriver.o(.text) refers to spi.o(.bss) for menuPara
    lcddriver.o(.text) refers to menu.o(.data) for pSnrSet
    lcddriver.o(.text) refers to font.o(.constdata) for font_window
    lcddriver.o(.text) refers to font.o(.constdata) for cfnBitMap
    lcddriver.o(.text) refers to font.o(.constdata) for pfnBitMap
    lcddriver.o(.text) refers to font.o(.constdata) for titleFont
    lcddriver.o(.text) refers to font.o(.constdata) for font_amoto
    lcddriver.o(.text) refers to font.o(.constdata) for font_mmoto
    lcddriver.o(.text) refers to font.o(.constdata) for font_zoom
    lcddriver.o(.text) refers to font.o(.constdata) for font_mm
    lcddriver.o(.text) refers to font.o(.constdata) for font_motoWarn
    lcddriver.o(.text) refers to font.o(.constdata) for font_motoWp
    lcddriver.o(.text) refers to font.o(.constdata) for font_motoBlank
    lcddriver.o(.text) refers to font.o(.constdata) for sensor_flaOn
    lcddriver.o(.text) refers to font.o(.constdata) for sensor_up
    lcddriver.o(.text) refers to font.o(.constdata) for sensor_down
    lcddriver.o(.text) refers to font.o(.constdata) for sensor_head
    lcddriver.o(.text) refers to font.o(.constdata) for sensor_sla
    lcddriver.o(.text) refers to font.o(.constdata) for hot_warn
    lcddriver.o(.text) refers to font.o(.constdata) for sensor_mst
    lcddriver.o(.text) refers to font.o(.constdata) for font_rgbWarn
    lcddriver.o(.text) refers to font.o(.constdata) for sensor_flaOn_1
    lcddriver.o(.text) refers to font.o(.constdata) for sensor_head_1
    lcddriver.o(.text) refers to main.o(.text) for TurnOnChargeLed
    lcddriver.o(.text) refers to moto.o(.data) for g_moto_error
    lcddriver.o(.text) refers to font.o(.constdata) for font_speak
    lcddriver.o(.text) refers to font.o(.constdata) for Id_Dbitmap
    lcddriver.o(.text) refers to stmflash.o(.text) for STMFLASH_Write
    lcddriver.o(.text) refers to led.o(.text) for SavePara
    lcddriver.o(.text) refers to memcpya.o(.text) for __aeabi_memcpy
    lcddriver.o(.text) refers to font.o(.constdata) for pfnFont
    lcddriver.o(.text) refers to font.o(.constdata) for pfnSubFont
    lcddriver.o(.text) refers to font.o(.constdata) for cfnNum1
    lcddriver.o(.text) refers to menu.o(.data) for g_cfnIndex
    lcddriver.o(.text) refers to font.o(.constdata) for f_cfn
    lcddriver.o(.text) refers to menu.o(.data) for g_cfnStart
    lcddriver.o(.text) refers to menu.o(.constdata) for sm_Cfn
    lcddriver.o(.text) refers to menu.o(.data) for g_pfnIndex
    lcddriver.o(.text) refers to font.o(.constdata) for f_pfn
    lcddriver.o(.text) refers to menu.o(.data) for g_pfnStart
    lcddriver.o(.text) refers to menu.o(.constdata) for sm_Pfn
    lcddriver.o(.text) refers to font.o(.constdata) for canFontPara
    lcddriver.o(.text) refers to ffltui.o(.text) for __aeabi_ui2f
    lcddriver.o(.text) refers to fmul.o(.text) for __aeabi_fmul
    lcddriver.o(.text) refers to ffixui.o(.text) for __aeabi_f2uiz
    lcddriver.o(.text) refers to fflti.o(.text) for __aeabi_i2f
    lcddriver.o(.text) refers to font.o(.constdata) for rationBitmap
    lcddriver.o(.text) refers to font.o(.constdata) for offBitmap
    lcddriver.o(.text) refers to font.o(.constdata) for a_b_cBitMap
    lcddriver.o(.text) refers to font.o(.constdata) for a_bcBitMap
    lcddriver.o(.text) refers to font.o(.constdata) for abBitMap
    lcddriver.o(.text) refers to keyproc.o(.data) for g_RgbCheckTurn
    lcddriver.o(.text) refers to font.o(.constdata) for canFontCmpFeb
    lcddriver.o(.text) refers to font.o(.constdata) for chAuto
    lcddriver.o(.text) refers to font.o(.constdata) for fontGood
    lcddriver.o(.text) refers to font.o(.constdata) for picArrow
    lcddriver.o(.text) refers to os_time.o(.text) for OSTimeDlyHMSM
    lcddriver.o(.text) refers to font.o(.constdata) for scanRstScale
    lcddriver.o(.text) refers to font.o(.constdata) for fontChSan
    lcddriver.o(.text) refers to font.o(.constdata) for picScan_1
    lcddriver.o(.text) refers to font.o(.constdata) for picScan_2
    lcddriver.o(.text) refers to font.o(.constdata) for picScan_3
    lcddriver.o(.text) refers to font.o(.constdata) for canFontMenu
    lcddriver.o(.text) refers to font.o(.constdata) for rfBitmap
    lcddriver.o(.text) refers to font.o(.constdata) for liteBitmap
    lcddriver.o(.text) refers to font.o(.constdata) for font_chdot
    lcddriver.o(.text) refers to font.o(.constdata) for font_sAuto
    lcddriver.o(.text) refers to usart.o(.data) for g_expTTLPara3
    lcddriver.o(.text) refers to font.o(.constdata) for synFp
    lcddriver.o(.text) refers to flash.o(.bss) for canWireless
    lcddriver.o(.text) refers to fdiv.o(.text) for __aeabi_fdiv
    lcddriver.o(.text) refers to fadd.o(.text) for __aeabi_fadd
    lcddriver.o(.text) refers to fscalb.o(.text) for __ARM_scalbnf
    lcddriver.o(.text) refers to f2d.o(.text) for __aeabi_f2d
    lcddriver.o(.text) refers to dadd.o(.text) for __aeabi_dadd
    lcddriver.o(.text) refers to cdcmple.o(.text) for __aeabi_cdcmple
    lcddriver.o(.text) refers to cdrcmple.o(.text) for __aeabi_cdrcmple
    lcddriver.o(.text) refers to cfcmple.o(.text) for __aeabi_cfcmple
    lcddriver.o(.text) refers to flash.o(.text) for HpExpCodeSend
    lcddriver.o(.text) refers to sys.o(.text) for Ex_NVIC_Disable
    lcddriver.o(.text) refers to stm32f10x_adc.o(.text) for ADC_DeInit
    lcddriver.o(.text) refers to stm32f10x_spi.o(.text) for SPI_I2S_DeInit
    lcddriver.o(.text) refers to flash.o(.constdata) for g_extExpCode
    lcddriver.o(.text) refers to font.o(.constdata) for font_lowBat
    lcddriver.o(.text) refers to font.o(.constdata) for font_cfnClr1
    lcddriver.o(.text) refers to font.o(.constdata) for font_pfnClr1
    lcddriver.o(.text) refers to font.o(.constdata) for font_cfnClr2
    lcddriver.o(.text) refers to font.o(.constdata) for font_clear
    lcddriver.o(.text) refers to font.o(.constdata) for font_wenhao
    lcddriver.o(.data) refers to lcddriver.o(.conststring) for .conststring
    lcddriver.o(.data) refers to lcddriver.o(.text) for BtnZoon
    lcddriver.o(.data) refers to font.o(.constdata) for font_flaSw
    lcddriver.o(.data) refers to font.o(.constdata) for f_menuCmp
    lcddriver.o(.data) refers to font.o(.constdata) for f_menuBack
    lcddriver.o(.data) refers to lcddriver.o(.conststring) for .conststring
    lcddriver.o(.data) refers to lcddriver.o(.text) for BtnIdSet
    lcddriver.o(.data) refers to lcddriver.o(.conststring) for .conststring
    lcddriver.o(.data) refers to lcddriver.o(.text) for BtnReset
    lcddriver.o(.data) refers to lcddriver.o(.conststring) for .conststring
    lcddriver.o(.data) refers to lcddriver.o(.text) for BtnSmSel
    lcddriver.o(.data) refers to lcddriver.o(.conststring) for .conststring
    lcddriver.o(.data) refers to lcddriver.o(.text) for BtnSmSub
    os_core.o(.text) refers to os_time.o(.text) for OSTimeDly
    os_core.o(.text) refers to os_cpu_a.o(.text) for OS_ENTER_CRITICAL
    os_core.o(.text) refers to os_cpu_c.o(.text) for OSTaskStatHook
    os_core.o(.text) refers to os_flag.o(.text) for OS_FlagInit
    os_core.o(.text) refers to os_mem.o(.text) for OS_MemInit
    os_core.o(.text) refers to os_q.o(.text) for OS_QInit
    os_core.o(.text) refers to os_task.o(.text) for OSTaskCreate
    os_core.o(.text) refers to os_tmr.o(.text) for OSTmr_Init
    os_core.o(.text) refers to os_core.o(.data) for .data
    os_core.o(.text) refers to os_core.o(.bss) for .bss
    os_core.o(.text) refers to os_core.o(.constdata) for .constdata
    os_flag.o(.text) refers to os_cpu_a.o(.text) for OS_ENTER_CRITICAL
    os_flag.o(.text) refers to os_core.o(.text) for OS_Sched
    os_flag.o(.text) refers to os_core.o(.data) for OSIntNesting
    os_flag.o(.text) refers to os_core.o(.data) for OSFlagFreeList
    os_flag.o(.text) refers to os_core.o(.bss) for OSFlagTbl
    os_mbox.o(.text) refers to os_cpu_a.o(.text) for OS_ENTER_CRITICAL
    os_mbox.o(.text) refers to os_core.o(.text) for OS_EventWaitListInit
    os_mbox.o(.text) refers to os_core.o(.data) for OSIntNesting
    os_mem.o(.text) refers to os_cpu_a.o(.text) for OS_ENTER_CRITICAL
    os_mem.o(.text) refers to os_core.o(.data) for OSMemFreeList
    os_mem.o(.text) refers to os_core.o(.bss) for OSMemTbl
    os_mutex.o(.text) refers to os_cpu_a.o(.text) for OS_ENTER_CRITICAL
    os_mutex.o(.text) refers to os_core.o(.text) for OS_EventWaitListInit
    os_mutex.o(.text) refers to os_core.o(.data) for OSIntNesting
    os_mutex.o(.text) refers to os_core.o(.bss) for OSTCBPrioTbl
    os_mutex.o(.text) refers to os_core.o(.constdata) for OSMapTbl
    os_q.o(.text) refers to os_cpu_a.o(.text) for OS_ENTER_CRITICAL
    os_q.o(.text) refers to os_core.o(.text) for OS_EventWaitListInit
    os_q.o(.text) refers to os_core.o(.data) for OSIntNesting
    os_q.o(.text) refers to os_core.o(.data) for OSQFreeList
    os_q.o(.text) refers to os_core.o(.bss) for OSQTbl
    os_sem.o(.text) refers to os_cpu_a.o(.text) for OS_ENTER_CRITICAL
    os_sem.o(.text) refers to os_core.o(.text) for OS_EventWaitListInit
    os_sem.o(.text) refers to os_core.o(.data) for OSIntNesting
    os_task.o(.text) refers to os_cpu_a.o(.text) for OS_ENTER_CRITICAL
    os_task.o(.text) refers to os_core.o(.text) for OS_Sched
    os_task.o(.text) refers to os_cpu_c.o(.text) for OSTaskStkInit
    os_task.o(.text) refers to os_flag.o(.text) for OS_FlagUnlink
    os_task.o(.text) refers to memcpya.o(.text) for __aeabi_memcpy4
    os_task.o(.text) refers to os_core.o(.bss) for OSTCBPrioTbl
    os_task.o(.text) refers to os_core.o(.constdata) for OSMapTbl
    os_task.o(.text) refers to os_core.o(.data) for OSTCBCur
    os_time.o(.text) refers to os_cpu_a.o(.text) for OS_ENTER_CRITICAL
    os_time.o(.text) refers to os_core.o(.text) for OS_Sched
    os_time.o(.text) refers to os_core.o(.data) for OSTCBCur
    os_time.o(.text) refers to os_core.o(.bss) for OSTCBPrioTbl
    os_tmr.o(.text) refers to os_sem.o(.text) for OSSemPost
    os_tmr.o(.text) refers to os_core.o(.text) for OS_MemClr
    os_tmr.o(.text) refers to os_core.o(.data) for OSIntNesting
    os_tmr.o(.text) refers to os_core.o(.data) for OSTmrFreeList
    os_tmr.o(.text) refers to os_core.o(.data) for OSTmrUsed
    os_tmr.o(.text) refers to os_core.o(.data) for OSTmrFree
    os_tmr.o(.text) refers to os_core.o(.bss) for OSTmrWheelTbl
    os_tmr.o(.text) refers to os_core.o(.data) for OSTmrTime
    os_tmr.o(.text) refers to os_core.o(.data) for OSTmrSemSignal
    os_tmr.o(.text) refers to os_core.o(.bss) for OSTmrTbl
    os_tmr.o(.text) refers to os_task.o(.text) for OSTaskCreate
    os_tmr.o(.text) refers to os_core.o(.data) for OSTmrSem
    os_tmr.o(.text) refers to os_core.o(.bss) for OSTmrTaskStk
    os_cpu_a.o(.text) refers to os_cpu_c.o(.data) for OSInterrputSum
    os_cpu_a.o(.text) refers to os_core.o(.data) for OSRunning
    os_cpu_a.o(.text) refers to os_cpu_c.o(.text) for OSTaskSwHook
    stm32f10x_adc.o(.text) refers to stm32f10x_rcc.o(.text) for RCC_APB2PeriphResetCmd
    stm32f10x_bkp.o(.text) refers to stm32f10x_rcc.o(.text) for RCC_BackupResetCmd
    stm32f10x_can.o(.text) refers to stm32f10x_rcc.o(.text) for RCC_APB1PeriphResetCmd
    stm32f10x_cec.o(.text) refers to stm32f10x_rcc.o(.text) for RCC_APB1PeriphResetCmd
    stm32f10x_dac.o(.text) refers to stm32f10x_rcc.o(.text) for RCC_APB1PeriphResetCmd
    stm32f10x_gpio.o(.text) refers to stm32f10x_rcc.o(.text) for RCC_APB2PeriphResetCmd
    stm32f10x_i2c.o(.text) refers to stm32f10x_rcc.o(.text) for RCC_APB1PeriphResetCmd
    stm32f10x_pwr.o(.text) refers to stm32f10x_rcc.o(.text) for RCC_APB1PeriphResetCmd
    stm32f10x_rcc.o(.text) refers to stm32f10x_rcc.o(.data) for .data
    stm32f10x_spi.o(.text) refers to stm32f10x_rcc.o(.text) for RCC_APB2PeriphResetCmd
    stm32f10x_tim.o(.text) refers to stm32f10x_rcc.o(.text) for RCC_APB1PeriphResetCmd
    stm32f10x_usart.o(.text) refers to stm32f10x_rcc.o(.text) for RCC_APB2PeriphResetCmd
    stm32f10x_wwdg.o(.text) refers to stm32f10x_rcc.o(.text) for RCC_APB1PeriphResetCmd
    encrypto.o(.text) refers to encrypto.o(.data) for .data
    encrypto.o(.text) refers to encrypto.o(.bss) for .bss
    entry.o(.ARM.Collect$$$$00000000) refers (Special) to entry10a.o(.ARM.Collect$$$$0000000D) for __rt_final_cpp
    entry.o(.ARM.Collect$$$$00000000) refers (Special) to entry11a.o(.ARM.Collect$$$$0000000F) for __rt_final_exit
    entry.o(.ARM.Collect$$$$00000000) refers (Special) to entry7b.o(.ARM.Collect$$$$00000008) for _main_clock
    entry.o(.ARM.Collect$$$$00000000) refers (Special) to entry8b.o(.ARM.Collect$$$$0000000A) for _main_cpp_init
    entry.o(.ARM.Collect$$$$00000000) refers (Special) to entry9a.o(.ARM.Collect$$$$0000000B) for _main_init
    entry.o(.ARM.Collect$$$$00000000) refers (Special) to entry5.o(.ARM.Collect$$$$00000004) for _main_scatterload
    entry.o(.ARM.Collect$$$$00000000) refers (Special) to entry2.o(.ARM.Collect$$$$00000001) for _main_stk
    fadd.o(.text) refers (Special) to iusefp.o(.text) for __I$use$fp
    fadd.o(.text) refers to fepilogue.o(.text) for _float_epilogue
    fmul.o(.text) refers (Special) to iusefp.o(.text) for __I$use$fp
    fdiv.o(.text) refers (Special) to iusefp.o(.text) for __I$use$fp
    fdiv.o(.text) refers to fepilogue.o(.text) for _float_round
    fscalb.o(.text) refers (Special) to iusefp.o(.text) for __I$use$fp
    dadd.o(.text) refers (Special) to iusefp.o(.text) for __I$use$fp
    dadd.o(.text) refers to llshl.o(.text) for __aeabi_llsl
    dadd.o(.text) refers to llsshr.o(.text) for __aeabi_lasr
    dadd.o(.text) refers to depilogue.o(.text) for _double_epilogue
    fflti.o(.text) refers (Special) to iusefp.o(.text) for __I$use$fp
    fflti.o(.text) refers to fepilogue.o(.text) for _float_epilogue
    ffltui.o(.text) refers (Special) to iusefp.o(.text) for __I$use$fp
    ffltui.o(.text) refers to fepilogue.o(.text) for _float_epilogue
    ffixui.o(.text) refers (Special) to iusefp.o(.text) for __I$use$fp
    f2d.o(.text) refers (Special) to iusefp.o(.text) for __I$use$fp
    cdcmple.o(.text) refers (Special) to iusefp.o(.text) for __I$use$fp
    cdrcmple.o(.text) refers (Special) to iusefp.o(.text) for __I$use$fp
    cfcmple.o(.text) refers (Special) to iusefp.o(.text) for __I$use$fp
    entry2.o(.ARM.Collect$$$$00000001) refers to entry2.o(.ARM.Collect$$$$00002712) for __lit__00000000
    entry2.o(.ARM.Collect$$$$00002712) refers to stm32f10x.o(STACK) for __initial_sp
    entry2.o(__vectab_stack_and_reset_area) refers to stm32f10x.o(STACK) for __initial_sp
    entry2.o(__vectab_stack_and_reset_area) refers to entry.o(.ARM.Collect$$$$00000000) for __main
    entry5.o(.ARM.Collect$$$$00000004) refers to init.o(.text) for __scatterload
    entry9a.o(.ARM.Collect$$$$0000000B) refers to main.o(.text) for main
    entry9b.o(.ARM.Collect$$$$0000000C) refers to main.o(.text) for main
    depilogue.o(.text) refers to llshl.o(.text) for __aeabi_llsl
    depilogue.o(.text) refers to llushr.o(.text) for __aeabi_llsr
    init.o(.text) refers to entry5.o(.ARM.Collect$$$$00000004) for __main_after_scatterload


==============================================================================

Removing Unused input sections from the image.

    Removing stm32f10x.o(HEAP), (0 bytes).
    Removing flash.o(.data), (1 bytes).
    Removing keyadc.o(.data), (4 bytes).
    Removing keyproc.o(.data), (1 bytes).
    Removing keyproc.o(.data), (1 bytes).
    Removing keyproc.o(.data), (1 bytes).
    Removing keyproc.o(.data), (1 bytes).
    Removing keyproc.o(.data), (1 bytes).
    Removing keyproc.o(.data), (2 bytes).
    Removing keyproc.o(.data), (1 bytes).
    Removing main.o(.bss), (512 bytes).
    Removing main.o(.bss), (512 bytes).
    Removing main.o(.data), (1 bytes).
    Removing main.o(.data), (2 bytes).
    Removing main.o(.data), (4 bytes).
    Removing sys.o(.data), (1 bytes).
    Removing usart.o(.data), (4 bytes).
    Removing spi.o(.data), (1 bytes).
    Removing font.o(.constdata), (87 bytes).
    Removing font.o(.constdata), (2 bytes).
    Removing lcddriver.o(.constdata), (44 bytes).
    Removing lcddriver.o(.conststring), (4 bytes).
    Removing lcddriver.o(.conststring), (1 bytes).
    Removing lcddriver.o(.conststring), (4 bytes).
    Removing lcddriver.o(.conststring), (4 bytes).
    Removing lcddriver.o(.data), (20 bytes).
    Removing lcddriver.o(.data), (20 bytes).
    Removing lcddriver.o(.data), (20 bytes).
    Removing lcddriver.o(.data), (20 bytes).
    Removing os_mbox.o(.text), (620 bytes).
    Removing os_mutex.o(.text), (1016 bytes).
    Removing core_cm3.o(.emb_text), (32 bytes).
    Removing stm32f10x_bkp.o(.text), (152 bytes).
    Removing stm32f10x_can.o(.text), (1800 bytes).
    Removing stm32f10x_cec.o(.text), (248 bytes).
    Removing stm32f10x_crc.o(.text), (64 bytes).
    Removing stm32f10x_dac.o(.text), (252 bytes).
    Removing stm32f10x_dbgmcu.o(.text), (40 bytes).
    Removing stm32f10x_dma.o(.text), (456 bytes).
    Removing stm32f10x_fsmc.o(.text), (1148 bytes).
    Removing stm32f10x_i2c.o(.text), (808 bytes).
    Removing stm32f10x_iwdg.o(.text), (60 bytes).
    Removing stm32f10x_rtc.o(.text), (272 bytes).
    Removing stm32f10x_sdio.o(.text), (428 bytes).
    Removing stm32f10x_tim.o(.text), (2804 bytes).
    Removing stm32f10x_wwdg.o(.text), (124 bytes).

46 unused section(s) (total 11600 bytes) removed from the image.

==============================================================================

Image Symbol Table

    Local Symbols

    Symbol Name                              Value     Ov Type        Size  Object(Section)

    ../clib/../cmprslib/zerorunl2.c          0x00000000   Number         0  __dczerorl2.o ABSOLUTE
    ../clib/microlib/init/entry.s            0x00000000   Number         0  entry11b.o ABSOLUTE
    ../clib/microlib/init/entry.s            0x00000000   Number         0  entry7a.o ABSOLUTE
    ../clib/microlib/init/entry.s            0x00000000   Number         0  entry2.o ABSOLUTE
    ../clib/microlib/init/entry.s            0x00000000   Number         0  entry5.o ABSOLUTE
    ../clib/microlib/init/entry.s            0x00000000   Number         0  entry7b.o ABSOLUTE
    ../clib/microlib/init/entry.s            0x00000000   Number         0  entry8a.o ABSOLUTE
    ../clib/microlib/init/entry.s            0x00000000   Number         0  entry8b.o ABSOLUTE
    ../clib/microlib/init/entry.s            0x00000000   Number         0  entry9a.o ABSOLUTE
    ../clib/microlib/init/entry.s            0x00000000   Number         0  entry9b.o ABSOLUTE
    ../clib/microlib/init/entry.s            0x00000000   Number         0  entry10a.o ABSOLUTE
    ../clib/microlib/init/entry.s            0x00000000   Number         0  entry.o ABSOLUTE
    ../clib/microlib/init/entry.s            0x00000000   Number         0  entry10b.o ABSOLUTE
    ../clib/microlib/init/entry.s            0x00000000   Number         0  entry11a.o ABSOLUTE
    ../clib/microlib/longlong.c              0x00000000   Number         0  llushr.o ABSOLUTE
    ../clib/microlib/longlong.c              0x00000000   Number         0  llsshr.o ABSOLUTE
    ../clib/microlib/longlong.c              0x00000000   Number         0  llshl.o ABSOLUTE
    ../clib/microlib/string/memcmp.c         0x00000000   Number         0  memcmp.o ABSOLUTE
    ../clib/microlib/string/memcpy.c         0x00000000   Number         0  memcpyb.o ABSOLUTE
    ../clib/microlib/string/memcpy.c         0x00000000   Number         0  memcpya.o ABSOLUTE
    ../clib/microlib/string/memset.c         0x00000000   Number         0  memseta.o ABSOLUTE
    ../clib/microlib/stubs.s                 0x00000000   Number         0  useno.o ABSOLUTE
    ../clib/microlib/stubs.s                 0x00000000   Number         0  iusefp.o ABSOLUTE
    ../fplib/microlib/f2d.c                  0x00000000   Number         0  f2d.o ABSOLUTE
    ../fplib/microlib/fpadd.c                0x00000000   Number         0  fadd.o ABSOLUTE
    ../fplib/microlib/fpadd.c                0x00000000   Number         0  dadd.o ABSOLUTE
    ../fplib/microlib/fpdiv.c                0x00000000   Number         0  fdiv.o ABSOLUTE
    ../fplib/microlib/fpepilogue.c           0x00000000   Number         0  fepilogue.o ABSOLUTE
    ../fplib/microlib/fpepilogue.c           0x00000000   Number         0  depilogue.o ABSOLUTE
    ../fplib/microlib/fpfix.c                0x00000000   Number         0  ffixui.o ABSOLUTE
    ../fplib/microlib/fpflt.c                0x00000000   Number         0  ffltui.o ABSOLUTE
    ../fplib/microlib/fpflt.c                0x00000000   Number         0  fflti.o ABSOLUTE
    ../fplib/microlib/fpmul.c                0x00000000   Number         0  fmul.o ABSOLUTE
    ../fplib/microlib/fpscalb.c              0x00000000   Number         0  fscalb.o ABSOLUTE
    ..\APP\Flash.c                           0x00000000   Number         0  flash.o ABSOLUTE
    ..\APP\FuncLayout.c                      0x00000000   Number         0  funclayout.o ABSOLUTE
    ..\APP\KeyAdc.c                          0x00000000   Number         0  keyadc.o ABSOLUTE
    ..\APP\KeyProc.c                         0x00000000   Number         0  keyproc.o ABSOLUTE
    ..\APP\Menu.c                            0x00000000   Number         0  menu.o ABSOLUTE
    ..\APP\STM32F10x.s                       0x00000000   Number         0  stm32f10x.o ABSOLUTE
    ..\APP\main.c                            0x00000000   Number         0  main.o ABSOLUTE
    ..\APP\moto.c                            0x00000000   Number         0  moto.o ABSOLUTE
    ..\Enc_Dec\encrypto.c                    0x00000000   Number         0  encrypto.o ABSOLUTE
    ..\HARDWARE\DMA\dma.c                    0x00000000   Number         0  dma.o ABSOLUTE
    ..\HARDWARE\LCD\Font.c                   0x00000000   Number         0  font.o ABSOLUTE
    ..\HARDWARE\LCD\LcdDriver.c              0x00000000   Number         0  lcddriver.o ABSOLUTE
    ..\HARDWARE\LED\led.c                    0x00000000   Number         0  led.o ABSOLUTE
    ..\HARDWARE\SPI\spi.c                    0x00000000   Number         0  spi.o ABSOLUTE
    ..\HARDWARE\STMFLASH\stmflash.c          0x00000000   Number         0  stmflash.o ABSOLUTE
    ..\HARDWARE\TIMER\timer.c                0x00000000   Number         0  timer.o ABSOLUTE
    ..\Libraries\CMSIS\CM3\CoreSupport\core_cm3.c 0x00000000   Number         0  core_cm3.o ABSOLUTE
    ..\Libraries\STM32F10x_StdPeriph_Driver\src\misc.c 0x00000000   Number         0  misc.o ABSOLUTE
    ..\Libraries\STM32F10x_StdPeriph_Driver\src\stm32f10x_adc.c 0x00000000   Number         0  stm32f10x_adc.o ABSOLUTE
    ..\Libraries\STM32F10x_StdPeriph_Driver\src\stm32f10x_bkp.c 0x00000000   Number         0  stm32f10x_bkp.o ABSOLUTE
    ..\Libraries\STM32F10x_StdPeriph_Driver\src\stm32f10x_can.c 0x00000000   Number         0  stm32f10x_can.o ABSOLUTE
    ..\Libraries\STM32F10x_StdPeriph_Driver\src\stm32f10x_cec.c 0x00000000   Number         0  stm32f10x_cec.o ABSOLUTE
    ..\Libraries\STM32F10x_StdPeriph_Driver\src\stm32f10x_crc.c 0x00000000   Number         0  stm32f10x_crc.o ABSOLUTE
    ..\Libraries\STM32F10x_StdPeriph_Driver\src\stm32f10x_dac.c 0x00000000   Number         0  stm32f10x_dac.o ABSOLUTE
    ..\Libraries\STM32F10x_StdPeriph_Driver\src\stm32f10x_dbgmcu.c 0x00000000   Number         0  stm32f10x_dbgmcu.o ABSOLUTE
    ..\Libraries\STM32F10x_StdPeriph_Driver\src\stm32f10x_dma.c 0x00000000   Number         0  stm32f10x_dma.o ABSOLUTE
    ..\Libraries\STM32F10x_StdPeriph_Driver\src\stm32f10x_exti.c 0x00000000   Number         0  stm32f10x_exti.o ABSOLUTE
    ..\Libraries\STM32F10x_StdPeriph_Driver\src\stm32f10x_flash.c 0x00000000   Number         0  stm32f10x_flash.o ABSOLUTE
    ..\Libraries\STM32F10x_StdPeriph_Driver\src\stm32f10x_fsmc.c 0x00000000   Number         0  stm32f10x_fsmc.o ABSOLUTE
    ..\Libraries\STM32F10x_StdPeriph_Driver\src\stm32f10x_gpio.c 0x00000000   Number         0  stm32f10x_gpio.o ABSOLUTE
    ..\Libraries\STM32F10x_StdPeriph_Driver\src\stm32f10x_i2c.c 0x00000000   Number         0  stm32f10x_i2c.o ABSOLUTE
    ..\Libraries\STM32F10x_StdPeriph_Driver\src\stm32f10x_iwdg.c 0x00000000   Number         0  stm32f10x_iwdg.o ABSOLUTE
    ..\Libraries\STM32F10x_StdPeriph_Driver\src\stm32f10x_pwr.c 0x00000000   Number         0  stm32f10x_pwr.o ABSOLUTE
    ..\Libraries\STM32F10x_StdPeriph_Driver\src\stm32f10x_rcc.c 0x00000000   Number         0  stm32f10x_rcc.o ABSOLUTE
    ..\Libraries\STM32F10x_StdPeriph_Driver\src\stm32f10x_rtc.c 0x00000000   Number         0  stm32f10x_rtc.o ABSOLUTE
    ..\Libraries\STM32F10x_StdPeriph_Driver\src\stm32f10x_sdio.c 0x00000000   Number         0  stm32f10x_sdio.o ABSOLUTE
    ..\Libraries\STM32F10x_StdPeriph_Driver\src\stm32f10x_spi.c 0x00000000   Number         0  stm32f10x_spi.o ABSOLUTE
    ..\Libraries\STM32F10x_StdPeriph_Driver\src\stm32f10x_tim.c 0x00000000   Number         0  stm32f10x_tim.o ABSOLUTE
    ..\Libraries\STM32F10x_StdPeriph_Driver\src\stm32f10x_usart.c 0x00000000   Number         0  stm32f10x_usart.o ABSOLUTE
    ..\Libraries\STM32F10x_StdPeriph_Driver\src\stm32f10x_wwdg.c 0x00000000   Number         0  stm32f10x_wwdg.o ABSOLUTE
    ..\SYSTEM\delay\delay.c                  0x00000000   Number         0  delay.o ABSOLUTE
    ..\SYSTEM\sys\sys.c                      0x00000000   Number         0  sys.o ABSOLUTE
    ..\SYSTEM\usart\usart.c                  0x00000000   Number         0  usart.o ABSOLUTE
    ..\UCOSII\CORE\OS_CORE.C                 0x00000000   Number         0  os_core.o ABSOLUTE
    ..\UCOSII\CORE\OS_FLAG.C                 0x00000000   Number         0  os_flag.o ABSOLUTE
    ..\UCOSII\CORE\OS_MBOX.C                 0x00000000   Number         0  os_mbox.o ABSOLUTE
    ..\UCOSII\CORE\OS_MEM.C                  0x00000000   Number         0  os_mem.o ABSOLUTE
    ..\UCOSII\CORE\OS_MUTEX.C                0x00000000   Number         0  os_mutex.o ABSOLUTE
    ..\UCOSII\CORE\OS_Q.C                    0x00000000   Number         0  os_q.o ABSOLUTE
    ..\UCOSII\CORE\OS_SEM.C                  0x00000000   Number         0  os_sem.o ABSOLUTE
    ..\UCOSII\CORE\OS_TASK.C                 0x00000000   Number         0  os_task.o ABSOLUTE
    ..\UCOSII\CORE\OS_TIME.C                 0x00000000   Number         0  os_time.o ABSOLUTE
    ..\UCOSII\CORE\os_tmr.c                  0x00000000   Number         0  os_tmr.o ABSOLUTE
    ..\UCOSII\PORT\os_cpu_a.asm              0x00000000   Number         0  os_cpu_a.o ABSOLUTE
    ..\UCOSII\PORT\os_cpu_c.c                0x00000000   Number         0  os_cpu_c.o ABSOLUTE
    ..\\Libraries\\CMSIS\\CM3\\CoreSupport\\core_cm3.c 0x00000000   Number         0  core_cm3.o ABSOLUTE
    ..\\SYSTEM\\sys\\sys.c                   0x00000000   Number         0  sys.o ABSOLUTE
    cdcmple.s                                0x00000000   Number         0  cdcmple.o ABSOLUTE
    cdrcmple.s                               0x00000000   Number         0  cdrcmple.o ABSOLUTE
    cfcmple.s                                0x00000000   Number         0  cfcmple.o ABSOLUTE
    dc.s                                     0x00000000   Number         0  dc.o ABSOLUTE
    handlers.s                               0x00000000   Number         0  handlers.o ABSOLUTE
    init.s                                   0x00000000   Number         0  init.o ABSOLUTE
    RESET                                    0x08005000   Section      236  stm32f10x.o(RESET)
    .ARM.Collect$$$$00000000                 0x080050ec   Section        0  entry.o(.ARM.Collect$$$$00000000)
    .ARM.Collect$$$$00000001                 0x080050ec   Section        4  entry2.o(.ARM.Collect$$$$00000001)
    .ARM.Collect$$$$00000004                 0x080050f0   Section        4  entry5.o(.ARM.Collect$$$$00000004)
    .ARM.Collect$$$$00000008                 0x080050f4   Section        0  entry7b.o(.ARM.Collect$$$$00000008)
    .ARM.Collect$$$$0000000A                 0x080050f4   Section        0  entry8b.o(.ARM.Collect$$$$0000000A)
    .ARM.Collect$$$$0000000B                 0x080050f4   Section        8  entry9a.o(.ARM.Collect$$$$0000000B)
    .ARM.Collect$$$$0000000D                 0x080050fc   Section        0  entry10a.o(.ARM.Collect$$$$0000000D)
    .ARM.Collect$$$$0000000F                 0x080050fc   Section        0  entry11a.o(.ARM.Collect$$$$0000000F)
    .ARM.Collect$$$$00002712                 0x080050fc   Section        4  entry2.o(.ARM.Collect$$$$00002712)
    __lit__00000000                          0x080050fc   Data           4  entry2.o(.ARM.Collect$$$$00002712)
    .emb_text                                0x08005100   Section       12  sys.o(.emb_text)
    .text                                    0x0800510c   Section       28  stm32f10x.o(.text)
    .text                                    0x08005128   Section        0  flash.o(.text)
    .text                                    0x08005a8c   Section        0  funclayout.o(.text)
    .text                                    0x08005ca0   Section        0  keyadc.o(.text)
    .text                                    0x08005ebc   Section        0  keyproc.o(.text)
    .text                                    0x08009d38   Section        0  main.o(.text)
    .text                                    0x0800c228   Section        0  menu.o(.text)
    .text                                    0x0800c4e4   Section        0  moto.o(.text)
    .text                                    0x0800c974   Section        0  delay.o(.text)
    .text                                    0x0800ce68   Section        0  sys.o(.text)
    .text                                    0x0800d6c8   Section        0  usart.o(.text)
    .text                                    0x0800e3a8   Section        0  led.o(.text)
    .text                                    0x0800eb1c   Section        0  spi.o(.text)
    .text                                    0x080114c0   Section        0  timer.o(.text)
    .text                                    0x08011770   Section        0  stmflash.o(.text)
    .text                                    0x08011954   Section        0  lcddriver.o(.text)
    .text                                    0x080172f0   Section        0  os_core.o(.text)
    .text                                    0x080177e0   Section        0  os_flag.o(.text)
    OS_FlagTaskRdy                           0x080178ef   Thumb Code    64  os_flag.o(.text)
    OS_FlagBlock                             0x080179d3   Thumb Code    76  os_flag.o(.text)
    .text                                    0x08017c54   Section        0  os_mem.o(.text)
    .text                                    0x08017db8   Section        0  os_q.o(.text)
    .text                                    0x080181d8   Section        0  os_sem.o(.text)
    .text                                    0x080183dc   Section        0  os_task.o(.text)
    .text                                    0x080187e4   Section        0  os_time.o(.text)
    .text                                    0x08018934   Section        0  os_tmr.o(.text)
    OSTmr_Free                               0x080189cd   Thumb Code    46  os_tmr.o(.text)
    OSTmr_Unlink                             0x080189fb   Thumb Code    58  os_tmr.o(.text)
    OSTmr_Link                               0x08018b6f   Thumb Code    66  os_tmr.o(.text)
    OSTmr_Task                               0x08018cbb   Thumb Code   106  os_tmr.o(.text)
    OSTmr_Unlock                             0x08018dbf   Thumb Code     8  os_tmr.o(.text)
    OSTmr_Lock                               0x08018dc7   Thumb Code    16  os_tmr.o(.text)
    .text                                    0x08018dfc   Section      220  os_cpu_a.o(.text)
    .text                                    0x08018ed8   Section        0  os_cpu_c.o(.text)
    .text                                    0x08018f60   Section        0  misc.o(.text)
    .text                                    0x08019010   Section        0  stm32f10x_adc.o(.text)
    .text                                    0x08019340   Section        0  stm32f10x_exti.o(.text)
    .text                                    0x08019428   Section        0  stm32f10x_flash.o(.text)
    .text                                    0x080198a4   Section        0  stm32f10x_gpio.o(.text)
    .text                                    0x08019b10   Section        0  stm32f10x_pwr.o(.text)
    .text                                    0x08019be4   Section        0  stm32f10x_rcc.o(.text)
    .text                                    0x08019e98   Section        0  stm32f10x_spi.o(.text)
    .text                                    0x0801a10c   Section        0  stm32f10x_usart.o(.text)
    .text                                    0x0801a434   Section        0  encrypto.o(.text)
    .text                                    0x0801a86c   Section        0  memcpya.o(.text)
    .text                                    0x0801a890   Section        0  memseta.o(.text)
    .text                                    0x0801a8b4   Section        0  memcmp.o(.text)
    .text                                    0x0801a8ce   Section        0  fadd.o(.text)
    .text                                    0x0801a97e   Section        0  fmul.o(.text)
    .text                                    0x0801a9e2   Section        0  fdiv.o(.text)
    .text                                    0x0801aa5e   Section        0  fscalb.o(.text)
    .text                                    0x0801aa76   Section        0  dadd.o(.text)
    .text                                    0x0801abc4   Section        0  fflti.o(.text)
    .text                                    0x0801abd6   Section        0  ffltui.o(.text)
    .text                                    0x0801abe0   Section        0  ffixui.o(.text)
    .text                                    0x0801ac08   Section        0  f2d.o(.text)
    .text                                    0x0801ac30   Section       48  cdcmple.o(.text)
    .text                                    0x0801ac60   Section       48  cdrcmple.o(.text)
    .text                                    0x0801ac90   Section       20  cfcmple.o(.text)
    .text                                    0x0801aca4   Section        0  llshl.o(.text)
    .text                                    0x0801acc2   Section        0  llsshr.o(.text)
    .text                                    0x0801ace6   Section        0  iusefp.o(.text)
    .text                                    0x0801ace6   Section        0  fepilogue.o(.text)
    .text                                    0x0801ad54   Section        0  depilogue.o(.text)
    .text                                    0x0801ae10   Section       36  init.o(.text)
    .text                                    0x0801ae34   Section        0  llushr.o(.text)
    .text                                    0x0801ae54   Section        0  __dczerorl2.o(.text)
    i.__scatterload_copy                     0x0801aeaa   Section       14  handlers.o(i.__scatterload_copy)
    i.__scatterload_null                     0x0801aeb8   Section        2  handlers.o(i.__scatterload_null)
    i.__scatterload_zeroinit                 0x0801aeba   Section       14  handlers.o(i.__scatterload_zeroinit)
    .constdata                               0x0801aec8   Section      106  flash.o(.constdata)
    .constdata                               0x0801af32   Section       56  flash.o(.constdata)
    .constdata                               0x0801af6a   Section       62  flash.o(.constdata)
    .constdata                               0x0801afa8   Section       88  flash.o(.constdata)
    .constdata                               0x0801b000   Section      504  menu.o(.constdata)
    .constdata                               0x0801b1f8   Section      196  menu.o(.constdata)
    .constdata                               0x0801b2bc   Section       52  moto.o(.constdata)
    .constdata                               0x0801b2f0   Section       10  moto.o(.constdata)
    .constdata                               0x0801b2fc   Section      624  spi.o(.constdata)
    .constdata                               0x0801b56c   Section       22  spi.o(.constdata)
    .constdata                               0x0801b582   Section       10  spi.o(.constdata)
    .constdata                               0x0801b58c   Section        7  spi.o(.constdata)
    .constdata                               0x0801b593   Section       38  font.o(.constdata)
    .constdata                               0x0801b5b9   Section       38  font.o(.constdata)
    .constdata                               0x0801b5df   Section       20  font.o(.constdata)
    .constdata                               0x0801b5f3   Section       22  font.o(.constdata)
    .constdata                               0x0801b609   Section      592  font.o(.constdata)
    .constdata                               0x0801b859   Section      272  font.o(.constdata)
    .constdata                               0x0801b969   Section       26  font.o(.constdata)
    .constdata                               0x0801b983   Section       26  font.o(.constdata)
    .constdata                               0x0801b99d   Section       44  font.o(.constdata)
    .constdata                               0x0801b9c9   Section       12  font.o(.constdata)
    .constdata                               0x0801b9d5   Section       34  font.o(.constdata)
    .constdata                               0x0801b9f7   Section       34  font.o(.constdata)
    .constdata                               0x0801ba19   Section       45  font.o(.constdata)
    .constdata                               0x0801ba46   Section       45  font.o(.constdata)
    .constdata                               0x0801ba73   Section        7  font.o(.constdata)
    .constdata                               0x0801ba7a   Section        5  font.o(.constdata)
    .constdata                               0x0801ba7f   Section        7  font.o(.constdata)
    .constdata                               0x0801ba86   Section       10  font.o(.constdata)
    .constdata                               0x0801ba90   Section       10  font.o(.constdata)
    .constdata                               0x0801ba9a   Section      496  font.o(.constdata)
    .constdata                               0x0801bc8a   Section      676  font.o(.constdata)
    .constdata                               0x0801bf2e   Section       72  font.o(.constdata)
    .constdata                               0x0801bf76   Section       72  font.o(.constdata)
    .constdata                               0x0801bfbe   Section       72  font.o(.constdata)
    .constdata                               0x0801c006   Section       58  font.o(.constdata)
    .constdata                               0x0801c040   Section       26  font.o(.constdata)
    .constdata                               0x0801c05a   Section       16  font.o(.constdata)
    .constdata                               0x0801c06a   Section       14  font.o(.constdata)
    .constdata                               0x0801c078   Section       22  font.o(.constdata)
    .constdata                               0x0801c08e   Section       22  font.o(.constdata)
    .constdata                               0x0801c0a4   Section       42  font.o(.constdata)
    .constdata                               0x0801c0ce   Section       42  font.o(.constdata)
    .constdata                               0x0801c0f8   Section       21  font.o(.constdata)
    .constdata                               0x0801c10d   Section       21  font.o(.constdata)
    .constdata                               0x0801c122   Section       18  font.o(.constdata)
    .constdata                               0x0801c134   Section       22  font.o(.constdata)
    .constdata                               0x0801c14a   Section       18  font.o(.constdata)
    .constdata                               0x0801c15c   Section       36  font.o(.constdata)
    .constdata                               0x0801c180   Section       18  font.o(.constdata)
    .constdata                               0x0801c192   Section       14  font.o(.constdata)
    .constdata                               0x0801c1a0   Section        3  font.o(.constdata)
    .constdata                               0x0801c1a3   Section       38  font.o(.constdata)
    .constdata                               0x0801c1c9   Section       70  font.o(.constdata)
    .constdata                               0x0801c20f   Section       34  font.o(.constdata)
    .constdata                               0x0801c231   Section       18  font.o(.constdata)
    .constdata                               0x0801c243   Section       30  font.o(.constdata)
    .constdata                               0x0801c261   Section        6  font.o(.constdata)
    .constdata                               0x0801c267   Section       22  font.o(.constdata)
    .constdata                               0x0801c27d   Section       24  font.o(.constdata)
    .constdata                               0x0801c295   Section       18  font.o(.constdata)
    .constdata                               0x0801c2a7   Section       28  font.o(.constdata)
    .constdata                               0x0801c2c3   Section       28  font.o(.constdata)
    .constdata                               0x0801c2df   Section       40  font.o(.constdata)
    .constdata                               0x0801c307   Section       26  font.o(.constdata)
    .constdata                               0x0801c321   Section      120  font.o(.constdata)
    .constdata                               0x0801c399   Section      200  font.o(.constdata)
    .constdata                               0x0801c461   Section       98  font.o(.constdata)
    .constdata                               0x0801c4c3   Section       63  font.o(.constdata)
    .constdata                               0x0801c502   Section       69  font.o(.constdata)
    .constdata                               0x0801c547   Section       48  font.o(.constdata)
    .constdata                               0x0801c577   Section       69  font.o(.constdata)
    .constdata                               0x0801c5bc   Section       57  font.o(.constdata)
    .constdata                               0x0801c5f5   Section       57  font.o(.constdata)
    .constdata                               0x0801c62e   Section       66  font.o(.constdata)
    .constdata                               0x0801c670   Section      183  font.o(.constdata)
    .constdata                               0x0801c727   Section       84  font.o(.constdata)
    .constdata                               0x0801c77b   Section       36  font.o(.constdata)
    .constdata                               0x0801c79f   Section      327  font.o(.constdata)
    .constdata                               0x0801c8e6   Section       57  font.o(.constdata)
    .constdata                               0x0801c91f   Section       81  font.o(.constdata)
    .constdata                               0x0801c970   Section      660  font.o(.constdata)
    .constdata                               0x0801cc04   Section       21  font.o(.constdata)
    .constdata                               0x0801cc19   Section       21  font.o(.constdata)
    .constdata                               0x0801cc2e   Section     1920  font.o(.constdata)
    .constdata                               0x0801d3ae   Section       48  font.o(.constdata)
    .constdata                               0x0801d3de   Section      117  font.o(.constdata)
    .constdata                               0x0801d453   Section      117  font.o(.constdata)
    .constdata                               0x0801d4c8   Section      117  font.o(.constdata)
    .constdata                               0x0801d53d   Section       60  font.o(.constdata)
    .constdata                               0x0801d579   Section       63  font.o(.constdata)
    .constdata                               0x0801d5b8   Section       16  font.o(.constdata)
    .constdata                               0x0801d5c8   Section       60  font.o(.constdata)
    .constdata                               0x0801d604   Section       68  font.o(.constdata)
    .constdata                               0x0801d648   Section       25  font.o(.constdata)
    .constdata                               0x0801d661   Section      144  font.o(.constdata)
    .constdata                               0x0801d6f1   Section       40  font.o(.constdata)
    .constdata                               0x0801d719   Section      128  font.o(.constdata)
    .constdata                               0x0801d799   Section       56  font.o(.constdata)
    .constdata                               0x0801d7d1   Section        9  font.o(.constdata)
    .constdata                               0x0801d7da   Section       50  font.o(.constdata)
    .constdata                               0x0801d80c   Section       84  font.o(.constdata)
    .constdata                               0x0801d860   Section       94  font.o(.constdata)
    .constdata                               0x0801d8be   Section       84  font.o(.constdata)
    .constdata                               0x0801d912   Section       32  font.o(.constdata)
    .constdata                               0x0801d932   Section       44  font.o(.constdata)
    .constdata                               0x0801d95e   Section       22  font.o(.constdata)
    .constdata                               0x0801d974   Section       18  font.o(.constdata)
    .constdata                               0x0801d986   Section       11  font.o(.constdata)
    .constdata                               0x0801d991   Section      140  font.o(.constdata)
    .constdata                               0x0801da1d   Section       28  font.o(.constdata)
    .constdata                               0x0801da39   Section       42  font.o(.constdata)
    .constdata                               0x0801da63   Section       42  font.o(.constdata)
    .constdata                               0x0801da8d   Section       42  font.o(.constdata)
    .constdata                               0x0801dab7   Section       10  font.o(.constdata)
    .constdata                               0x0801dac1   Section       94  font.o(.constdata)
    .constdata                               0x0801db20   Section      564  lcddriver.o(.constdata)
    .constdata                               0x0801dd54   Section       52  lcddriver.o(.constdata)
    .constdata                               0x0801dd88   Section       21  lcddriver.o(.constdata)
    .constdata                               0x0801dd9d   Section       15  lcddriver.o(.constdata)
    .constdata                               0x0801ddac   Section        7  lcddriver.o(.constdata)
    .constdata                               0x0801ddb3   Section        7  lcddriver.o(.constdata)
    .constdata                               0x0801ddbc   Section      160  lcddriver.o(.constdata)
    .constdata                               0x0801de5c   Section      264  os_core.o(.constdata)
    .conststring                             0x0801df64   Section       17  main.o(.conststring)
    .conststring                             0x0801df78   Section       13  menu.o(.conststring)
    .conststring                             0x0801df88   Section       14  menu.o(.conststring)
    .conststring                             0x0801df98   Section       31  menu.o(.conststring)
    .conststring                             0x0801dfb8   Section       21  menu.o(.conststring)
    .conststring                             0x0801dfd0   Section       45  menu.o(.conststring)
    .conststring                             0x0801e000   Section       14  menu.o(.conststring)
    .conststring                             0x0801e010   Section       16  menu.o(.conststring)
    .conststring                             0x0801e020   Section       21  menu.o(.conststring)
    .conststring                             0x0801e038   Section       14  menu.o(.conststring)
    .conststring                             0x0801e048   Section       15  menu.o(.conststring)
    .conststring                             0x0801e058   Section       15  menu.o(.conststring)
    .conststring                             0x0801e068   Section       22  menu.o(.conststring)
    .conststring                             0x0801e080   Section       17  menu.o(.conststring)
    .conststring                             0x0801e094   Section       16  menu.o(.conststring)
    .conststring                             0x0801e0a4   Section       21  menu.o(.conststring)
    .conststring                             0x0801e0bc   Section       21  menu.o(.conststring)
    .conststring                             0x0801e0d4   Section        8  menu.o(.conststring)
    .conststring                             0x0801e0dc   Section       35  menu.o(.conststring)
    .conststring                             0x0801e100   Section       49  menu.o(.conststring)
    .conststring                             0x0801e134   Section       12  menu.o(.conststring)
    .conststring                             0x0801e140   Section      217  lcddriver.o(.conststring)
    .data                                    0x20000000   Section        4  flash.o(.data)
    .data                                    0x20000004   Section        4  flash.o(.data)
    .data                                    0x20000008   Section        4  flash.o(.data)
    .data                                    0x2000000c   Section        1  keyadc.o(.data)
    .data                                    0x20000010   Section      128  keyproc.o(.data)
    pilotEn                                  0x20000018   Data           1  keyproc.o(.data)
    short_once                               0x20000019   Data           1  keyproc.o(.data)
    long_once                                0x2000001a   Data           1  keyproc.o(.data)
    keyIndexRsv                              0x2000001b   Data           1  keyproc.o(.data)
    lockRs                                   0x2000001c   Data           1  keyproc.o(.data)
    lockTirFlag                              0x2000001d   Data           1  keyproc.o(.data)
    lockCnt                                  0x2000001e   Data           1  keyproc.o(.data)
    afInRsv                                  0x2000001f   Data           1  keyproc.o(.data)
    ckTimes                                  0x20000020   Data           1  keyproc.o(.data)
    lowbatCnt                                0x20000021   Data           1  keyproc.o(.data)
    keytimedata                              0x20000034   Data           4  keyproc.o(.data)
    adSum                                    0x20000038   Data           4  keyproc.o(.data)
    .data                                    0x20000090   Section        1  keyproc.o(.data)
    .data                                    0x20000094   Section        4  keyproc.o(.data)
    .data                                    0x20000098   Section        1  keyproc.o(.data)
    .data                                    0x20000099   Section        1  keyproc.o(.data)
    .data                                    0x2000009a   Section        1  keyproc.o(.data)
    .data                                    0x2000009b   Section        3  keyproc.o(.data)
    .data                                    0x200000a0   Section      108  main.o(.data)
    upSensor                                 0x200000ae   Data           1  main.o(.data)
    dnSensor                                 0x200000af   Data           1  main.o(.data)
    autoDestRsv                              0x200000b0   Data           1  main.o(.data)
    cnt                                      0x200000b1   Data           1  main.o(.data)
    tempWarn                                 0x200000b2   Data           1  main.o(.data)
    togTmr                                   0x200000b3   Data           1  main.o(.data)
    togflag                                  0x200000b4   Data           1  main.o(.data)
    du                                       0x200000b6   Data           2  main.o(.data)
    ts                                       0x200000b8   Data           2  main.o(.data)
    tempAdSum                                0x200000c8   Data           4  main.o(.data)
    mulCnt                                   0x200000cc   Data           4  main.o(.data)
    .data                                    0x2000010c   Section        1  main.o(.data)
    .data                                    0x2000010d   Section        1  main.o(.data)
    .data                                    0x2000010e   Section        1  main.o(.data)
    .data                                    0x2000010f   Section        1  menu.o(.data)
    .data                                    0x20000110   Section        1  menu.o(.data)
    .data                                    0x20000111   Section        1  menu.o(.data)
    .data                                    0x20000112   Section        1  menu.o(.data)
    .data                                    0x20000114   Section       24  menu.o(.data)
    .data                                    0x2000012c   Section       24  menu.o(.data)
    .data                                    0x20000144   Section       24  menu.o(.data)
    .data                                    0x2000015c   Section       24  menu.o(.data)
    .data                                    0x20000174   Section       24  menu.o(.data)
    .data                                    0x2000018c   Section       24  menu.o(.data)
    .data                                    0x200001a4   Section       24  menu.o(.data)
    .data                                    0x200001bc   Section       24  menu.o(.data)
    .data                                    0x200001d4   Section       24  menu.o(.data)
    .data                                    0x200001ec   Section       24  menu.o(.data)
    .data                                    0x20000204   Section       24  menu.o(.data)
    .data                                    0x2000021c   Section       24  menu.o(.data)
    .data                                    0x20000234   Section       24  menu.o(.data)
    .data                                    0x2000024c   Section       24  menu.o(.data)
    .data                                    0x20000264   Section       24  menu.o(.data)
    .data                                    0x2000027c   Section       24  menu.o(.data)
    .data                                    0x20000294   Section       24  menu.o(.data)
    .data                                    0x200002ac   Section       24  menu.o(.data)
    .data                                    0x200002c4   Section       24  menu.o(.data)
    .data                                    0x200002dc   Section       24  menu.o(.data)
    .data                                    0x200002f4   Section        4  menu.o(.data)
    .data                                    0x200002f8   Section        4  menu.o(.data)
    .data                                    0x200002fc   Section       10  moto.o(.data)
    s_chargeCon                              0x200002fd   Data           1  moto.o(.data)
    s_chargeLock                             0x200002fe   Data           1  moto.o(.data)
    ref_flag                                 0x20000300   Data           1  moto.o(.data)
    mModRsv                                  0x20000301   Data           1  moto.o(.data)
    i                                        0x20000302   Data           1  moto.o(.data)
    mDestRsv                                 0x20000304   Data           2  moto.o(.data)
    .data                                    0x20000306   Section        4  delay.o(.data)
    fac_us                                   0x20000306   Data           1  delay.o(.data)
    fac_ms                                   0x20000308   Data           2  delay.o(.data)
    .data                                    0x2000030a   Section       10  usart.o(.data)
    loaden                                   0x20000311   Data           1  usart.o(.data)
    rcvLen                                   0x20000312   Data           1  usart.o(.data)
    bufIndex                                 0x20000313   Data           1  usart.o(.data)
    .data                                    0x20000314   Section       45  spi.o(.data)
    info_get                                 0x20000328   Data           1  spi.o(.data)
    motoRsv                                  0x20000329   Data           1  spi.o(.data)
    .data                                    0x20000344   Section      844  lcddriver.o(.data)
    .data                                    0x20000690   Section       56  os_core.o(.data)
    .data                                    0x200006c8   Section        4  os_core.o(.data)
    .data                                    0x200006cc   Section        4  os_core.o(.data)
    .data                                    0x200006d0   Section        4  os_core.o(.data)
    .data                                    0x200006d4   Section        2  os_core.o(.data)
    .data                                    0x200006d6   Section        2  os_core.o(.data)
    .data                                    0x200006d8   Section        4  os_core.o(.data)
    .data                                    0x200006dc   Section        4  os_core.o(.data)
    .data                                    0x200006e0   Section        4  os_core.o(.data)
    .data                                    0x200006e4   Section        4  os_core.o(.data)
    .data                                    0x200006e8   Section        4  os_cpu_c.o(.data)
    .data                                    0x200006ec   Section       20  stm32f10x_rcc.o(.data)
    ADCPrescTable                            0x200006ec   Data           4  stm32f10x_rcc.o(.data)
    APBAHBPrescTable                         0x200006f0   Data          16  stm32f10x_rcc.o(.data)
    .data                                    0x20000700   Section      512  encrypto.o(.data)
    .bss                                     0x20000900   Section       84  flash.o(.bss)
    .bss                                     0x20000954   Section      156  keyproc.o(.bss)
    .bss                                     0x200009f0   Section     2544  main.o(.bss)
    .bss                                     0x200013e0   Section      164  usart.o(.bss)
    .bss                                     0x20001484   Section      248  spi.o(.bss)
    .bss                                     0x2000157c   Section     2048  stmflash.o(.bss)
    .bss                                     0x20001d7c   Section       84  lcddriver.o(.bss)
    .bss                                     0x20001dd0   Section     4668  os_core.o(.bss)
    .bss                                     0x2000300c   Section       60  os_core.o(.bss)
    .bss                                     0x20003048   Section      100  os_core.o(.bss)
    .bss                                     0x200030ac   Section       48  os_core.o(.bss)
    .bss                                     0x200030dc   Section      576  os_core.o(.bss)
    .bss                                     0x2000331c   Section      512  os_core.o(.bss)
    .bss                                     0x2000351c   Section       64  os_core.o(.bss)
    .bss                                     0x2000355c   Section      176  encrypto.o(.bss)
    STACK                                    0x20003610   Section      512  stm32f10x.o(STACK)

    Global Symbols

    Symbol Name                              Value     Ov Type        Size  Object(Section)

    BuildAttributes$$THM_ISAv4$P$D$K$B$S$PE$A:L22UL41UL21$X:L11$S22US41US21$IEEE1$IW$USESV6$~STKCKD$USESV7$~SHL$OTIME$ROPI$EBA8$MICROLIB$REQ8$PRES8$EABIv2 0x00000000   Number         0  anon$$obj.o ABSOLUTE
    __ARM_use_no_argv                        0x00000000   Number         0  main.o ABSOLUTE
    __use_no_errno                           0x00000000   Number         0  useno.o ABSOLUTE
    __use_no_exception_handling              0x00000000   Number         0  useno.o ABSOLUTE
    __use_no_fp                              0x00000000   Number         0  useno.o ABSOLUTE
    __use_no_heap                            0x00000000   Number         0  useno.o ABSOLUTE
    __use_no_heap_region                     0x00000000   Number         0  useno.o ABSOLUTE
    __use_no_semihosting                     0x00000000   Number         0  useno.o ABSOLUTE
    __use_no_semihosting_swi                 0x00000000   Number         0  useno.o ABSOLUTE
    __use_no_signal_handling                 0x00000000   Number         0  useno.o ABSOLUTE
    __cpp_initialize__aeabi_                  - Undefined Weak Reference
    __cxa_finalize                            - Undefined Weak Reference
    _clock_init                               - Undefined Weak Reference
    _microlib_exit                            - Undefined Weak Reference
    __Vectors                                0x08005000   Data           4  stm32f10x.o(RESET)
    __main                                   0x080050ed   Thumb Code     0  entry.o(.ARM.Collect$$$$00000000)
    _main_stk                                0x080050ed   Thumb Code     0  entry2.o(.ARM.Collect$$$$00000001)
    _main_scatterload                        0x080050f1   Thumb Code     0  entry5.o(.ARM.Collect$$$$00000004)
    __main_after_scatterload                 0x080050f5   Thumb Code     0  entry5.o(.ARM.Collect$$$$00000004)
    _main_clock                              0x080050f5   Thumb Code     0  entry7b.o(.ARM.Collect$$$$00000008)
    _main_cpp_init                           0x080050f5   Thumb Code     0  entry8b.o(.ARM.Collect$$$$0000000A)
    _main_init                               0x080050f5   Thumb Code     0  entry9a.o(.ARM.Collect$$$$0000000B)
    __rt_final_cpp                           0x080050fd   Thumb Code     0  entry10a.o(.ARM.Collect$$$$0000000D)
    __rt_final_exit                          0x080050fd   Thumb Code     0  entry11a.o(.ARM.Collect$$$$0000000F)
    WFI_SET                                  0x08005101   Thumb Code     2  sys.o(.emb_text)
    INTX_DISABLE                             0x08005103   Thumb Code     2  sys.o(.emb_text)
    INTX_ENABLE                              0x08005105   Thumb Code     2  sys.o(.emb_text)
    MSR_MSP                                  0x08005107   Thumb Code     6  sys.o(.emb_text)
    Reset_Handler                            0x0800510d   Thumb Code     4  stm32f10x.o(.text)
    NMI_Handler                              0x08005111   Thumb Code     2  stm32f10x.o(.text)
    HardFault_Handler                        0x08005113   Thumb Code     2  stm32f10x.o(.text)
    MemManage_Handler                        0x08005115   Thumb Code     2  stm32f10x.o(.text)
    BusFault_Handler                         0x08005117   Thumb Code     2  stm32f10x.o(.text)
    UsageFault_Handler                       0x08005119   Thumb Code     2  stm32f10x.o(.text)
    SVC_Handler                              0x0800511b   Thumb Code     2  stm32f10x.o(.text)
    DebugMon_Handler                         0x0800511d   Thumb Code     2  stm32f10x.o(.text)
    ADC_IRQHandler                           0x08005123   Thumb Code     0  stm32f10x.o(.text)
    CAN_RX1_IRQHandler                       0x08005123   Thumb Code     0  stm32f10x.o(.text)
    CAN_SCE_IRQHandler                       0x08005123   Thumb Code     0  stm32f10x.o(.text)
    DMAChannel1_IRQHandler                   0x08005123   Thumb Code     0  stm32f10x.o(.text)
    DMAChannel2_IRQHandler                   0x08005123   Thumb Code     0  stm32f10x.o(.text)
    DMAChannel3_IRQHandler                   0x08005123   Thumb Code     0  stm32f10x.o(.text)
    DMAChannel4_IRQHandler                   0x08005123   Thumb Code     0  stm32f10x.o(.text)
    DMAChannel5_IRQHandler                   0x08005123   Thumb Code     0  stm32f10x.o(.text)
    DMAChannel6_IRQHandler                   0x08005123   Thumb Code     0  stm32f10x.o(.text)
    DMAChannel7_IRQHandler                   0x08005123   Thumb Code     0  stm32f10x.o(.text)
    EXTI2_IRQHandler                         0x08005123   Thumb Code     0  stm32f10x.o(.text)
    EXTI3_IRQHandler                         0x08005123   Thumb Code     0  stm32f10x.o(.text)
    FLASH_IRQHandler                         0x08005123   Thumb Code     0  stm32f10x.o(.text)
    I2C1_ER_IRQHandler                       0x08005123   Thumb Code     0  stm32f10x.o(.text)
    I2C1_EV_IRQHandler                       0x08005123   Thumb Code     0  stm32f10x.o(.text)
    I2C2_ER_IRQHandler                       0x08005123   Thumb Code     0  stm32f10x.o(.text)
    I2C2_EV_IRQHandler                       0x08005123   Thumb Code     0  stm32f10x.o(.text)
    PVD_IRQHandler                           0x08005123   Thumb Code     0  stm32f10x.o(.text)
    RCC_IRQHandler                           0x08005123   Thumb Code     0  stm32f10x.o(.text)
    RTCAlarm_IRQHandler                      0x08005123   Thumb Code     0  stm32f10x.o(.text)
    RTC_IRQHandler                           0x08005123   Thumb Code     0  stm32f10x.o(.text)
    SPI2_IRQHandler                          0x08005123   Thumb Code     0  stm32f10x.o(.text)
    TAMPER_IRQHandler                        0x08005123   Thumb Code     0  stm32f10x.o(.text)
    TIM1_BRK_IRQHandler                      0x08005123   Thumb Code     0  stm32f10x.o(.text)
    TIM1_CC_IRQHandler                       0x08005123   Thumb Code     0  stm32f10x.o(.text)
    TIM1_TRG_COM_IRQHandler                  0x08005123   Thumb Code     0  stm32f10x.o(.text)
    TIM1_UP_IRQHandler                       0x08005123   Thumb Code     0  stm32f10x.o(.text)
    TIM2_IRQHandler                          0x08005123   Thumb Code     0  stm32f10x.o(.text)
    USART1_IRQHandler                        0x08005123   Thumb Code     0  stm32f10x.o(.text)
    USART3_IRQHandler                        0x08005123   Thumb Code     0  stm32f10x.o(.text)
    USBWakeUp_IRQHandler                     0x08005123   Thumb Code     0  stm32f10x.o(.text)
    USB_HP_CAN_TX_IRQHandler                 0x08005123   Thumb Code     0  stm32f10x.o(.text)
    USB_LP_CAN_RX0_IRQHandler                0x08005123   Thumb Code     0  stm32f10x.o(.text)
    WWDG_IRQHandler                          0x08005123   Thumb Code     0  stm32f10x.o(.text)
    ClearWlcBuf                              0x08005129   Thumb Code    24  flash.o(.text)
    HpExpCalc                                0x08005141   Thumb Code    52  flash.o(.text)
    HwTriger                                 0x08005175   Thumb Code    14  flash.o(.text)
    CalcCmpPower                             0x08005183   Thumb Code    30  flash.o(.text)
    IIcDelay                                 0x080051a1   Thumb Code    12  flash.o(.text)
    hp_IIcStop                               0x080051ad   Thumb Code    54  flash.o(.text)
    hp_IIcAck                                0x080051e3   Thumb Code    58  flash.o(.text)
    hp_IicSendByte                           0x0800521d   Thumb Code    96  flash.o(.text)
    HpIicSendByte                            0x0800527d   Thumb Code     2  flash.o(.text)
    hp_IIcStart                              0x0800527f   Thumb Code    58  flash.o(.text)
    HpExpCodeSend                            0x080052b9   Thumb Code    36  flash.o(.text)
    HighSpeedTriger                          0x080052dd   Thumb Code   136  flash.o(.text)
    LightSlaveParaClear                      0x08005365   Thumb Code    64  flash.o(.text)
    UnexpectHandle                           0x080053a5   Thumb Code    64  flash.o(.text)
    LightSlaveProc                           0x080053e5   Thumb Code   212  flash.o(.text)
    WlmCodeExtract                           0x080054b9   Thumb Code    46  flash.o(.text)
    WlmCodeExcludeNone                       0x080054e7   Thumb Code    78  flash.o(.text)
    CodeSearch                               0x08005535   Thumb Code    24  flash.o(.text)
    IndexToOutput                            0x0800554d   Thumb Code    24  flash.o(.text)
    WlMultiFrqConver                         0x08005565   Thumb Code    56  flash.o(.text)
    WlMultiTimeConver                        0x0800559d   Thumb Code    28  flash.o(.text)
    CanExposeTimeCal                         0x080055b9   Thumb Code   100  flash.o(.text)
    LightSlaveTmrProc                        0x0800561d   Thumb Code    26  flash.o(.text)
    LightSlaveTtlPilot                       0x08005637   Thumb Code   176  flash.o(.text)
    SetFlashTimeOut                          0x080056e7   Thumb Code    22  flash.o(.text)
    LightSlaveManu                           0x080056fd   Thumb Code   230  flash.o(.text)
    LightSlaveMulti                          0x080057e3   Thumb Code   194  flash.o(.text)
    LightSlavePilot                          0x080058a5   Thumb Code     2  flash.o(.text)
    LightSlaveTtl                            0x080058a7   Thumb Code   204  flash.o(.text)
    LightSlaveTtlPreFlash                    0x08005973   Thumb Code   154  flash.o(.text)
    ParseMstCmd                              0x08005a0d   Thumb Code    94  flash.o(.text)
    CanOutputSwitch                          0x08005a6b   Thumb Code    26  flash.o(.text)
    LayoutClear                              0x08005a8d   Thumb Code     4  funclayout.o(.text)
    LayModeClear                             0x08005a91   Thumb Code    10  funclayout.o(.text)
    LayModeEttl                              0x08005a9b   Thumb Code   126  funclayout.o(.text)
    LayModeManu                              0x08005b19   Thumb Code    24  funclayout.o(.text)
    LayModeMulti                             0x08005b31   Thumb Code    78  funclayout.o(.text)
    LayModeGr                                0x08005b7f   Thumb Code    42  funclayout.o(.text)
    LayModeExtA                              0x08005ba9   Thumb Code    96  funclayout.o(.text)
    LayModeExtM                              0x08005c09   Thumb Code    96  funclayout.o(.text)
    Adc_Init                                 0x08005ca1   Thumb Code   204  keyadc.o(.text)
    KeyAdcEnable                             0x08005d6d   Thumb Code     8  keyadc.o(.text)
    KeyAdcDisable                            0x08005d75   Thumb Code    14  keyadc.o(.text)
    GetKeyAdc                                0x08005d83   Thumb Code    54  keyadc.o(.text)
    GetBatteryAdc                            0x08005db9   Thumb Code    54  keyadc.o(.text)
    EXTI15_10_IRQHandler                     0x08005def   Thumb Code   166  keyadc.o(.text)
    KeyValid                                 0x08005ebd   Thumb Code    24  keyproc.o(.text)
    KeyReArmed                               0x08005ed5   Thumb Code    20  keyproc.o(.text)
    ReadPilot                                0x08005ee9   Thumb Code    54  keyproc.o(.text)
    ReadKey                                  0x08005f1f   Thumb Code   334  keyproc.o(.text)
    DspCmpIcon                               0x0800606d   Thumb Code    80  keyproc.o(.text)
    DspFebIcon                               0x080060bd   Thumb Code    80  keyproc.o(.text)
    SetCmpFeb                                0x0800610d   Thumb Code   816  keyproc.o(.text)
    SetManuPara                              0x0800643d   Thumb Code    44  keyproc.o(.text)
    SetRmtPara                               0x08006469   Thumb Code    22  keyproc.o(.text)
    SetMultiLink                             0x0800647f   Thumb Code    46  keyproc.o(.text)
    DspMultiHz                               0x080064ad   Thumb Code    58  keyproc.o(.text)
    MultiDspNum                              0x080064e7   Thumb Code   382  keyproc.o(.text)
    SetMultiTmFrq                            0x08006665   Thumb Code   140  keyproc.o(.text)
    SetMultiPara                             0x080066f1   Thumb Code   112  keyproc.o(.text)
    CanSynMode                               0x08006761   Thumb Code    94  keyproc.o(.text)
    SetTtlScr                                0x080067bf   Thumb Code  1396  keyproc.o(.text)
    SetManuScr                               0x08006d33   Thumb Code   770  keyproc.o(.text)
    SetMultiScr                              0x08007035   Thumb Code   684  keyproc.o(.text)
    SetExtaScr                               0x080072e1   Thumb Code   460  keyproc.o(.text)
    SetExtmScr                               0x080074ad   Thumb Code   200  keyproc.o(.text)
    GrDrawSelBar                             0x08007575   Thumb Code   226  keyproc.o(.text)
    GrDspPara                                0x08007657   Thumb Code    66  keyproc.o(.text)
    GrDspHead                                0x08007699   Thumb Code    84  keyproc.o(.text)
    RfGrDspPara                              0x080076ed   Thumb Code   324  keyproc.o(.text)
    IsGrModExta                              0x08007831   Thumb Code    38  keyproc.o(.text)
    CheckGrSynMod                            0x08007857   Thumb Code   102  keyproc.o(.text)
    SetRfGrScr                               0x080078bd   Thumb Code   144  keyproc.o(.text)
    SetRmtC                                  0x0800794d   Thumb Code    16  keyproc.o(.text)
    SetRmtF1                                 0x0800795d   Thumb Code    12  keyproc.o(.text)
    SetRmtF2                                 0x08007969   Thumb Code    12  keyproc.o(.text)
    KeyMenuSw                                0x08007975   Thumb Code    40  keyproc.o(.text)
    LoadButtons                              0x0800799d   Thumb Code    12  keyproc.o(.text)
    DspMenuIcon                              0x080079a9   Thumb Code    96  keyproc.o(.text)
    ModPasteScr                              0x08007a09   Thumb Code    36  keyproc.o(.text)
    FuncModuleSw                             0x08007a2d   Thumb Code    40  keyproc.o(.text)
    UartIntSet                               0x08007a55   Thumb Code    56  keyproc.o(.text)
    ModLinkedShot                            0x08007a8d   Thumb Code   158  keyproc.o(.text)
    RfDevLinkMark                            0x08007b2b   Thumb Code   298  keyproc.o(.text)
    Mode                                     0x08007c55   Thumb Code   234  keyproc.o(.text)
    ModeClear                                0x08007d3f   Thumb Code    78  keyproc.o(.text)
    SelectMode                               0x08007d8d   Thumb Code     2  keyproc.o(.text)
    SwithMode                                0x08007d8f   Thumb Code    30  keyproc.o(.text)
    MultiMaxTimes                            0x08007dad   Thumb Code   104  keyproc.o(.text)
    MotoShift                                0x08007e15   Thumb Code   188  keyproc.o(.text)
    ExposeAddSub                             0x08007ed1   Thumb Code   374  keyproc.o(.text)
    SynModShift                              0x08008047   Thumb Code    78  keyproc.o(.text)
    TtlFebAddSub                             0x08008095   Thumb Code   236  keyproc.o(.text)
    RatioSubAdd                              0x08008181   Thumb Code    84  keyproc.o(.text)
    Arr_SubAdd                               0x080081d5   Thumb Code   122  keyproc.o(.text)
    RfArrParaSubAdd                          0x0800824f   Thumb Code   778  keyproc.o(.text)
    ChSanSubAdd                              0x08008559   Thumb Code   158  keyproc.o(.text)
    LightChanSet                             0x080085f7   Thumb Code    70  keyproc.o(.text)
    RfChanSet                                0x0800863d   Thumb Code    88  keyproc.o(.text)
    TtlDebugDspDat                           0x08008695   Thumb Code   168  keyproc.o(.text)
    MulTiDspFrq                              0x0800873d   Thumb Code     2  keyproc.o(.text)
    MultiTimesShift                          0x0800873f   Thumb Code    98  keyproc.o(.text)
    MultiFrqShift                            0x080087a1   Thumb Code   150  keyproc.o(.text)
    IdSelSubAdd                              0x08008837   Thumb Code    38  keyproc.o(.text)
    IdSetSubAdd                              0x0800885d   Thumb Code    86  keyproc.o(.text)
    RfGrModSubAdd                            0x080088b3   Thumb Code    90  keyproc.o(.text)
    RfGrParaSubAdd                           0x0800890d   Thumb Code   570  keyproc.o(.text)
    SnrMenuSubAdd                            0x08008b47   Thumb Code    54  keyproc.o(.text)
    PfnMenuSubAdd                            0x08008b7d   Thumb Code    54  keyproc.o(.text)
    SnrSubMenu                               0x08008bb3   Thumb Code   106  keyproc.o(.text)
    PfnSubMenu                               0x08008c1d   Thumb Code   106  keyproc.o(.text)
    ExtmIsoIndex                             0x08008c87   Thumb Code    26  keyproc.o(.text)
    ExtmApertIndex                           0x08008ca1   Thumb Code    28  keyproc.o(.text)
    ExtmApertSubAdd                          0x08008cbd   Thumb Code    68  keyproc.o(.text)
    ExtmIsoSubAdd                            0x08008d01   Thumb Code    72  keyproc.o(.text)
    FbAdjSubAdd                              0x08008d49   Thumb Code    48  keyproc.o(.text)
    FbExpSubAdd                              0x08008d79   Thumb Code    78  keyproc.o(.text)
    KeySubAdd                                0x08008dc7   Thumb Code   180  keyproc.o(.text)
    ChanSetConfirm                           0x08008e7b   Thumb Code   318  keyproc.o(.text)
    KeyOk                                    0x08008fb9   Thumb Code   308  keyproc.o(.text)
    KeyMotoSet                               0x080090ed   Thumb Code    38  keyproc.o(.text)
    ModeSw                                   0x08009113   Thumb Code   104  keyproc.o(.text)
    RfMoudleSet                              0x0800917b   Thumb Code    88  keyproc.o(.text)
    MstModCheck                              0x080091d3   Thumb Code   224  keyproc.o(.text)
    KeyToLinkMod                             0x080092b3   Thumb Code    48  keyproc.o(.text)
    TtlTestProc                              0x080092e3   Thumb Code    76  keyproc.o(.text)
    Pilot                                    0x0800932f   Thumb Code  1390  keyproc.o(.text)
    ResetKeyInt                              0x0800989d   Thumb Code     6  keyproc.o(.text)
    ModeFuncJudge                            0x080098a3   Thumb Code    52  keyproc.o(.text)
    IsModSwitchValid                         0x080098d7   Thumb Code    50  keyproc.o(.text)
    KeyProcess                               0x08009909   Thumb Code   594  keyproc.o(.text)
    AfAutoCtrl                               0x08009b5b   Thumb Code    94  keyproc.o(.text)
    ChargeBuzzer                             0x08009bb9   Thumb Code    24  keyproc.o(.text)
    ChkVoltage                               0x08009bd1   Thumb Code   288  keyproc.o(.text)
    TaskKeyScan                              0x08009cf1   Thumb Code    32  keyproc.o(.text)
    EXTI1_IRQHandler                         0x08009d11   Thumb Code    28  keyproc.o(.text)
    Flash_Interrupt_init                     0x08009d39   Thumb Code    68  main.o(.text)
    CheckBattery                             0x08009d7d   Thumb Code    74  main.o(.text)
    GolbalParaInit                           0x08009dc7   Thumb Code   124  main.o(.text)
    KeyDecrypto                              0x08009e43   Thumb Code    66  main.o(.text)
    IsKeyValid                               0x08009e85   Thumb Code    26  main.o(.text)
    SlaveResume                              0x08009e9f   Thumb Code    20  main.o(.text)
    FlaOkAutoOff                             0x08009eb3   Thumb Code    10  main.o(.text)
    CmrShutterPull                           0x08009ebd   Thumb Code    26  main.o(.text)
    BzOff                                    0x08009ed7   Thumb Code   144  main.o(.text)
    BkLiteAutoOff                            0x08009f67   Thumb Code    86  main.o(.text)
    TaskVoltageCheck                         0x08009fbd   Thumb Code    18  main.o(.text)
    PowerDownProc                            0x08009fcf   Thumb Code   178  main.o(.text)
    DspSlaveSleepScr                         0x0800a081   Thumb Code   426  main.o(.text)
    SleepTimerProc                           0x0800a22b   Thumb Code   194  main.o(.text)
    LightSlaveToggle                         0x0800a2ed   Thumb Code    68  main.o(.text)
    CalcRgbFilterStyle                       0x0800a331   Thumb Code   716  main.o(.text)
    SensorMonitor                            0x0800a5fd   Thumb Code   420  main.o(.text)
    RgbCheckProc                             0x0800a7a1   Thumb Code   424  main.o(.text)
    BkLiteOn                                 0x0800a949   Thumb Code   138  main.o(.text)
    FlashTimesCheck                          0x0800a9d3   Thumb Code   126  main.o(.text)
    TempCheck                                0x0800aa51   Thumb Code   152  main.o(.text)
    TempMonitorProc                          0x0800aae9   Thumb Code    12  main.o(.text)
    TaskMonitor                              0x0800aaf5   Thumb Code    76  main.o(.text)
    StopMultiFlash                           0x0800ab41   Thumb Code    18  main.o(.text)
    TURN_ON_TRIGER                           0x0800ab53   Thumb Code    34  main.o(.text)
    WlmFlaADSet                              0x0800ab75   Thumb Code    88  main.o(.text)
    TakeMultiFlash                           0x0800abcd   Thumb Code   144  main.o(.text)
    FlashOkLedTwinkle                        0x0800ac5d   Thumb Code    22  main.o(.text)
    SetMultiFlashTimer                       0x0800ac73   Thumb Code    28  main.o(.text)
    FlashInResMode                           0x0800ac8f   Thumb Code   316  main.o(.text)
    TtlFebFlashUpdate                        0x0800adcb   Thumb Code    60  main.o(.text)
    MultiZero                                0x0800ae07   Thumb Code   122  main.o(.text)
    MultiFlashPrepear                        0x0800ae81   Thumb Code    40  main.o(.text)
    TakeFlash                                0x0800aea9   Thumb Code   308  main.o(.text)
    SlaveMultiFlashPrepear                   0x0800afdd   Thumb Code    42  main.o(.text)
    LightSlaveFlash                          0x0800b007   Thumb Code    78  main.o(.text)
    RfSlaveMultiFlashPrepear                 0x0800b055   Thumb Code    50  main.o(.text)
    FlashFinishProc                          0x0800b087   Thumb Code    80  main.o(.text)
    RfMstPreflaProc                          0x0800b0d7   Thumb Code   182  main.o(.text)
    WlmCmdSet                                0x0800b18d   Thumb Code     8  main.o(.text)
    WLM_SendChanhead                         0x0800b195   Thumb Code    62  main.o(.text)
    WLM_SendData                             0x0800b1d3   Thumb Code    98  main.o(.text)
    WLMCmdSend                               0x0800b235   Thumb Code  1874  main.o(.text)
    TaskCmdSend                              0x0800b987   Thumb Code    26  main.o(.text)
    TaskStart                                0x0800b9a1   Thumb Code   228  main.o(.text)
    SysTick_Configuration                    0x0800ba85   Thumb Code    50  main.o(.text)
    UserScreenOn                             0x0800bab7   Thumb Code    38  main.o(.text)
    UserInit                                 0x0800badd   Thumb Code   828  main.o(.text)
    main                                     0x0800be19   Thumb Code   122  main.o(.text)
    BUZZER_ON                                0x0800be93   Thumb Code    52  main.o(.text)
    CmrParaReflash                           0x0800bec7   Thumb Code    18  main.o(.text)
    RfParaSend                               0x0800bed9   Thumb Code    60  main.o(.text)
    SysTick_Handler                          0x0800bf15   Thumb Code    38  main.o(.text)
    RgbTest                                  0x0800bf3b   Thumb Code    96  main.o(.text)
    LightSlaveMultiFlash                     0x0800bf9b   Thumb Code   112  main.o(.text)
    ComIdleFlash                             0x0800c00b   Thumb Code   260  main.o(.text)
    EXTI4_IRQHandler                         0x0800c10f   Thumb Code   120  main.o(.text)
    TurnOnChargeLed                          0x0800c187   Thumb Code   114  main.o(.text)
    ContrastDsp                              0x0800c229   Thumb Code   242  menu.o(.text)
    ContrastSet                              0x0800c31b   Thumb Code   328  menu.o(.text)
    MstModUpdate                             0x0800c463   Thumb Code    52  menu.o(.text)
    BkLiteSw                                 0x0800c497   Thumb Code     4  menu.o(.text)
    BkLiteSelect                             0x0800c49b   Thumb Code    50  menu.o(.text)
    CheckZmAdc                               0x0800c4e5   Thumb Code    52  moto.o(.text)
    GetZoomAdc                               0x0800c519   Thumb Code   100  moto.o(.text)
    GetZoomByAdc                             0x0800c57d   Thumb Code    28  moto.o(.text)
    LockCharge                               0x0800c599   Thumb Code    26  moto.o(.text)
    ReleaseCharge                            0x0800c5b3   Thumb Code    22  moto.o(.text)
    SetChargeEnable                          0x0800c5c9   Thumb Code    24  moto.o(.text)
    SetChargeDisable                         0x0800c5e1   Thumb Code    24  moto.o(.text)
    MotoReset                                0x0800c5f9   Thumb Code    40  moto.o(.text)
    GetMotoIndex                             0x0800c621   Thumb Code    36  moto.o(.text)
    MotoLocation                             0x0800c645   Thumb Code   354  moto.o(.text)
    MotoDrvPinSet                            0x0800c7a7   Thumb Code    56  moto.o(.text)
    MotoProc                                 0x0800c7df   Thumb Code   312  moto.o(.text)
    TaskMotoProc                             0x0800c917   Thumb Code    14  moto.o(.text)
    MotoTickDriver                           0x0800c925   Thumb Code    24  moto.o(.text)
    GetMotoStdIndex                          0x0800c93d   Thumb Code    42  moto.o(.text)
    delay_init                               0x0800c975   Thumb Code    38  delay.o(.text)
    delay_ms                                 0x0800c99b   Thumb Code    50  delay.o(.text)
    delay_us                                 0x0800c9cd   Thumb Code    50  delay.o(.text)
    WLM_COMMAND_TRIGER                       0x0800c9ff   Thumb Code   148  delay.o(.text)
    WLM_HEAD_TRIGER                          0x0800ca93   Thumb Code   164  delay.o(.text)
    FlashBaseFiber                           0x0800cb37   Thumb Code   116  delay.o(.text)
    WlmCmdOneShot                            0x0800cbab   Thumb Code    26  delay.o(.text)
    WlmCmdHeadSend                           0x0800cbc5   Thumb Code    26  delay.o(.text)
    WLM_SHOT_ONCE                            0x0800cbdf   Thumb Code    28  delay.o(.text)
    HP_SHOT_ONCE                             0x0800cbfb   Thumb Code   114  delay.o(.text)
    TakePreFlash                             0x0800cc6d   Thumb Code   136  delay.o(.text)
    ExtModFlash                              0x0800ccf5   Thumb Code   184  delay.o(.text)
    TTLModFlash                              0x0800cdad   Thumb Code   138  delay.o(.text)
    delay_seconds                            0x0800ce37   Thumb Code    24  delay.o(.text)
    MY_NVIC_SetVectorTable                   0x0800ce69   Thumb Code    12  sys.o(.text)
    MY_NVIC_PriorityGroupConfig              0x0800ce75   Thumb Code    28  sys.o(.text)
    MY_NVIC_Init                             0x0800ce91   Thumb Code   122  sys.o(.text)
    Ex_NVIC_Config                           0x0800cf0b   Thumb Code   120  sys.o(.text)
    Ex_NVIC_Enable                           0x0800cf83   Thumb Code    16  sys.o(.text)
    Ex_NVIC_Disable                          0x0800cf93   Thumb Code    16  sys.o(.text)
    MYRCC_DeInit                             0x0800cfa3   Thumb Code    66  sys.o(.text)
    Sys_Standby                              0x0800cfe5   Thumb Code    52  sys.o(.text)
    Sys_StopMode                             0x0800d019   Thumb Code    52  sys.o(.text)
    RCC_Configuration                        0x0800d04d   Thumb Code   108  sys.o(.text)
    SetPwrOnExti                             0x0800d0b9   Thumb Code   112  sys.o(.text)
    LowPow_Init                              0x0800d129   Thumb Code   134  sys.o(.text)
    SleepPortUninit                          0x0800d1af   Thumb Code   106  sys.o(.text)
    SleepWakeIntSet                          0x0800d219   Thumb Code   170  sys.o(.text)
    SlaveSleepWakeIntSet                     0x0800d2c3   Thumb Code   242  sys.o(.text)
    SlaveSleepWakeIntClear                   0x0800d3b5   Thumb Code    40  sys.o(.text)
    SleepPortInit                            0x0800d3dd   Thumb Code    98  sys.o(.text)
    Sleep_Init                               0x0800d43f   Thumb Code   394  sys.o(.text)
    EXTI0_IRQHandler                         0x0800d5c9   Thumb Code    28  sys.o(.text)
    Sys_Soft_Reset                           0x0800d5e5   Thumb Code     8  sys.o(.text)
    JTAG_Set                                 0x0800d5ed   Thumb Code    30  sys.o(.text)
    Stm32_Clock_Init                         0x0800d60b   Thumb Code    94  sys.o(.text)
    _sys_exit                                0x0800d6c9   Thumb Code     2  usart.o(.text)
    fputc                                    0x0800d6cb   Thumb Code    18  usart.o(.text)
    IsSlaveModValid                          0x0800d6dd   Thumb Code    22  usart.o(.text)
    RfSlaveMulticodeInvert                   0x0800d6f3   Thumb Code    82  usart.o(.text)
    RfSlaveMcodeInvert                       0x0800d745   Thumb Code    84  usart.o(.text)
    RfSlaveFlashCalc                         0x0800d799   Thumb Code   124  usart.o(.text)
    CalcSum                                  0x0800d815   Thumb Code    26  usart.o(.text)
    UartRcvHandle                            0x0800d82f   Thumb Code   720  usart.o(.text)
    USART2_IRQHandler                        0x0800daff   Thumb Code   160  usart.o(.text)
    RfMcodeCovert                            0x0800db9f   Thumb Code    16  usart.o(.text)
    RfMcodeInvert                            0x0800dbaf   Thumb Code    48  usart.o(.text)
    SlaveStatueCheck                         0x0800dbdf   Thumb Code   166  usart.o(.text)
    RfMasterReadyCheck                       0x0800dc85   Thumb Code    64  usart.o(.text)
    RfMasterReadySet                         0x0800dcc5   Thumb Code    52  usart.o(.text)
    uart1_init                               0x0800dcf9   Thumb Code   136  usart.o(.text)
    Uart2PortSet                             0x0800dd81   Thumb Code    22  usart.o(.text)
    uart2_init                               0x0800dd97   Thumb Code   162  usart.o(.text)
    LoadUartSendBuf                          0x0800de39   Thumb Code    48  usart.o(.text)
    LoadUartArray                            0x0800de69   Thumb Code    54  usart.o(.text)
    TrigerUartSend                           0x0800de9f   Thumb Code   192  usart.o(.text)
    UartSctSend                              0x0800df5f   Thumb Code    16  usart.o(.text)
    RfPreFlashInfo                           0x0800df6f   Thumb Code    66  usart.o(.text)
    WaitForUartIdle                          0x0800dfb1   Thumb Code    56  usart.o(.text)
    RfCountDownInfo                          0x0800dfe9   Thumb Code    30  usart.o(.text)
    RfRecoverInfo                            0x0800e007   Thumb Code    26  usart.o(.text)
    GR_EXT_CODE                              0x0800e021   Thumb Code   158  usart.o(.text)
    GrModConvert                             0x0800e0bf   Thumb Code    36  usart.o(.text)
    GrModRevert                              0x0800e0e3   Thumb Code    20  usart.o(.text)
    GrLoadPara                               0x0800e0f7   Thumb Code   454  usart.o(.text)
    RfFlashConfirm                           0x0800e2bd   Thumb Code   184  usart.o(.text)
    U2SendData                               0x0800e375   Thumb Code    18  usart.o(.text)
    uartSendData                             0x0800e387   Thumb Code    26  usart.o(.text)
    noprintf                                 0x0800e3a1   Thumb Code     4  usart.o(.text)
    PortInit                                 0x0800e3a9   Thumb Code   570  led.o(.text)
    SavePara                                 0x0800e5e3   Thumb Code    30  led.o(.text)
    PortUninit                               0x0800e601   Thumb Code   210  led.o(.text)
    PWM_Init                                 0x0800e6d3   Thumb Code   134  led.o(.text)
    RGB_IIcAck                               0x0800e759   Thumb Code   176  led.o(.text)
    RGB_IIcStart                             0x0800e809   Thumb Code    68  led.o(.text)
    RGB_IIcStop                              0x0800e84d   Thumb Code    68  led.o(.text)
    RGB_IicSendByte                          0x0800e891   Thumb Code   120  led.o(.text)
    RGB_IicReadByte                          0x0800e909   Thumb Code   174  led.o(.text)
    Rgb_IIC_WriteByte                        0x0800e9b7   Thumb Code    38  led.o(.text)
    Rgb_IIC_ReadByte                         0x0800e9dd   Thumb Code    56  led.o(.text)
    Rgb_IIC_ReadWord                         0x0800ea15   Thumb Code    70  led.o(.text)
    StartBH1745                              0x0800ea5b   Thumb Code    32  led.o(.text)
    StopBH1745                               0x0800ea7b   Thumb Code     8  led.o(.text)
    BH1745_ReadChan                          0x0800ea83   Thumb Code    50  led.o(.text)
    BH1745_Init                              0x0800eab5   Thumb Code    60  led.o(.text)
    StartRgbSample                           0x0800eaf1   Thumb Code     2  led.o(.text)
    StopRgbSample                            0x0800eaf3   Thumb Code     2  led.o(.text)
    GetRgbCvtState                           0x0800eaf5   Thumb Code    28  led.o(.text)
    Rgb_ReadChan                             0x0800eb11   Thumb Code     2  led.o(.text)
    Rgb_Init                                 0x0800eb13   Thumb Code     2  led.o(.text)
    SPIx_Init                                0x0800eb1d   Thumb Code   160  spi.o(.text)
    EXTIx_Init                               0x0800ebbd   Thumb Code   100  spi.o(.text)
    SetPreFlashDA                            0x0800ec21   Thumb Code    96  spi.o(.text)
    HpPreflash                               0x0800ec81   Thumb Code    76  spi.o(.text)
    SPIx_Disable                             0x0800eccd   Thumb Code    52  spi.o(.text)
    SetComResumeInt                          0x0800ed01   Thumb Code    26  spi.o(.text)
    SetComSpiReady                           0x0800ed1b   Thumb Code    28  spi.o(.text)
    Com_Stop                                 0x0800ed37   Thumb Code    28  spi.o(.text)
    EXTI9_5_IRQHandler                       0x0800ed53   Thumb Code   690  spi.o(.text)
    SPIx_Enable                              0x0800f005   Thumb Code    20  spi.o(.text)
    SPIx_SetSpeed                            0x0800f019   Thumb Code    56  spi.o(.text)
    SpiRearUp                                0x0800f051   Thumb Code    16  spi.o(.text)
    CodeAnalysis                             0x0800f061   Thumb Code  3452  spi.o(.text)
    GetParameter                             0x0800fddd   Thumb Code  2402  spi.o(.text)
    CanInquire                               0x0801073f   Thumb Code    92  spi.o(.text)
    MulTimeRev                               0x0801079b   Thumb Code   206  spi.o(.text)
    WlmMulTimeRev                            0x08010869   Thumb Code     2  spi.o(.text)
    WlmMulFrqRev                             0x0801086b   Thumb Code    60  spi.o(.text)
    BuildExposeCmd                           0x080108a7   Thumb Code   596  spi.o(.text)
    FlashHandle                              0x08010afb   Thumb Code  1350  spi.o(.text)
    SPI1_IRQHandler                          0x08011041   Thumb Code   164  spi.o(.text)
    RfMulTimeCalc                            0x080110e5   Thumb Code    92  spi.o(.text)
    RfMulTimeRev                             0x08011141   Thumb Code   120  spi.o(.text)
    FoclenRefresh                            0x080111b9   Thumb Code    54  spi.o(.text)
    ChkAllNone                               0x080111ef   Thumb Code    24  spi.o(.text)
    ClearSlavesStatue                        0x08011207   Thumb Code    40  spi.o(.text)
    DspUpdate                                0x0801122f   Thumb Code   472  spi.o(.text)
    TaskDspUpdate                            0x08011407   Thumb Code    20  spi.o(.text)
    RfSlaveZeroTimes                         0x0801141b   Thumb Code    76  spi.o(.text)
    UnlinkCmrHandle                          0x080114c1   Thumb Code    84  timer.o(.text)
    TIM4_IRQHandler                          0x08011515   Thumb Code   118  timer.o(.text)
    Timer4_Init                              0x0801158b   Thumb Code    74  timer.o(.text)
    Timer4_Update                            0x080115d5   Thumb Code    32  timer.o(.text)
    TmCaptureInit                            0x080115f5   Thumb Code   150  timer.o(.text)
    StopCapture                              0x0801168b   Thumb Code    34  timer.o(.text)
    StartCapture                             0x080116ad   Thumb Code    36  timer.o(.text)
    TIM3_IRQHandler                          0x080116d1   Thumb Code    70  timer.o(.text)
    TmTickHandle                             0x08011717   Thumb Code     2  timer.o(.text)
    TaskTimerTickCom                         0x08011719   Thumb Code    14  timer.o(.text)
    STMFLASH_Unlock                          0x08011771   Thumb Code    12  stmflash.o(.text)
    STMFLASH_Lock                            0x0801177d   Thumb Code    12  stmflash.o(.text)
    STMFLASH_GetStatus                       0x08011789   Thumb Code    32  stmflash.o(.text)
    STMFLASH_WaitDone                        0x080117a9   Thumb Code    36  stmflash.o(.text)
    STMFLASH_ErasePage                       0x080117cd   Thumb Code    58  stmflash.o(.text)
    STMFLASH_WriteHalfWord                   0x08011807   Thumb Code    48  stmflash.o(.text)
    STMFLASH_ReadHalfWord                    0x08011837   Thumb Code     4  stmflash.o(.text)
    STMFLASH_Write_NoCheck                   0x0801183b   Thumb Code    38  stmflash.o(.text)
    STMFLASH_Read                            0x08011861   Thumb Code    26  stmflash.o(.text)
    STMFLASH_Write                           0x0801187b   Thumb Code   190  stmflash.o(.text)
    Test_Write                               0x08011939   Thumb Code    12  stmflash.o(.text)
    LcdDelay                                 0x08011955   Thumb Code     2  lcddriver.o(.text)
    LCD_Writ_Bus                             0x08011957   Thumb Code    34  lcddriver.o(.text)
    LCD_WRITE_CMD                            0x08011979   Thumb Code    38  lcddriver.o(.text)
    LCD_WRITE_BYTE                           0x0801199f   Thumb Code    38  lcddriver.o(.text)
    AreaSet                                  0x080119c5   Thumb Code    74  lcddriver.o(.text)
    ST75256_Init                             0x08011a0f   Thumb Code   244  lcddriver.o(.text)
    SetContrast                              0x08011b03   Thumb Code    46  lcddriver.o(.text)
    LcdPortInit                              0x08011b31   Thumb Code   172  lcddriver.o(.text)
    LCD_Init                                 0x08011bdd   Thumb Code    12  lcddriver.o(.text)
    DisplayOff                               0x08011be9   Thumb Code     4  lcddriver.o(.text)
    DisplayPicture                           0x08011bed   Thumb Code    68  lcddriver.o(.text)
    LcdCopyToRam                             0x08011c31   Thumb Code    40  lcddriver.o(.text)
    LcdClearFeild                            0x08011c59   Thumb Code    44  lcddriver.o(.text)
    DspIsoValue                              0x08011c85   Thumb Code   324  lcddriver.o(.text)
    Lcd_test                                 0x08011dc9   Thumb Code    34  lcddriver.o(.text)
    LCD_Clear                                0x08011deb   Thumb Code    78  lcddriver.o(.text)
    LcdGrAllClear                            0x08011e39   Thumb Code     2  lcddriver.o(.text)
    DspClearAllPara                          0x08011e3b   Thumb Code    10  lcddriver.o(.text)
    LcdLoadPicture                           0x08011e45   Thumb Code    24  lcddriver.o(.text)
    DspTest                                  0x08011e5d   Thumb Code     2  lcddriver.o(.text)
    BtnAddSub                                0x08011e5f   Thumb Code    26  lcddriver.o(.text)
    BtnTtlFeb                                0x08011e79   Thumb Code    26  lcddriver.o(.text)
    AddButtons                               0x08011e93   Thumb Code    26  lcddriver.o(.text)
    BuildFuncMenu                            0x08011ead   Thumb Code  1796  lcddriver.o(.text)
    BtnRatio                                 0x080125b1   Thumb Code    68  lcddriver.o(.text)
    BtnMulti                                 0x080125f5   Thumb Code    30  lcddriver.o(.text)
    BtnFrq                                   0x08012613   Thumb Code    30  lcddriver.o(.text)
    RfArrSelMenu                             0x08012631   Thumb Code   100  lcddriver.o(.text)
    RfgrSelMenu                              0x08012695   Thumb Code   148  lcddriver.o(.text)
    BtnGrSel                                 0x08012729   Thumb Code   230  lcddriver.o(.text)
    BtnMenu                                  0x0801280f   Thumb Code    42  lcddriver.o(.text)
    BtnZoon                                  0x08012839   Thumb Code    30  lcddriver.o(.text)
    DspApertValue                            0x08012857   Thumb Code   574  lcddriver.o(.text)
    ResScaleFont                             0x08012a95   Thumb Code    28  lcddriver.o(.text)
    DrawScaleRuler                           0x08012ab1   Thumb Code   450  lcddriver.o(.text)
    DrawScopeNum                             0x08012c73   Thumb Code   458  lcddriver.o(.text)
    ReStdPara                                0x08012e3d   Thumb Code    38  lcddriver.o(.text)
    GetMotoIncremental                       0x08012e63   Thumb Code    38  lcddriver.o(.text)
    CalcAvailScale                           0x08012e89   Thumb Code   364  lcddriver.o(.text)
    CalcAvailScaleHp                         0x08012ff5   Thumb Code   438  lcddriver.o(.text)
    CalcAvailScaleEx                         0x080131ab   Thumb Code   222  lcddriver.o(.text)
    ScaleStrLen                              0x08013289   Thumb Code    72  lcddriver.o(.text)
    DrawScaleNum                             0x080132d1   Thumb Code   172  lcddriver.o(.text)
    DrawScale                                0x0801337d   Thumb Code   274  lcddriver.o(.text)
    LoadUncompetibleIcon                     0x0801348f   Thumb Code    24  lcddriver.o(.text)
    DspFnIcon                                0x080134a7   Thumb Code   118  lcddriver.o(.text)
    TitleGetIndex                            0x0801351d   Thumb Code    36  lcddriver.o(.text)
    LoadZoomChar                             0x08013541   Thumb Code    88  lcddriver.o(.text)
    DisplayFocLen                            0x08013599   Thumb Code   420  lcddriver.o(.text)
    DspMotoWarn                              0x0801373d   Thumb Code   106  lcddriver.o(.text)
    DspSensors                               0x080137a7   Thumb Code   440  lcddriver.o(.text)
    DspSensorRgbWarn                         0x0801395f   Thumb Code    30  lcddriver.o(.text)
    AreaScroll                               0x0801397d   Thumb Code   120  lcddriver.o(.text)
    DspSensorsEx                             0x080139f5   Thumb Code   536  lcddriver.o(.text)
    FuncDsp                                  0x08013c0d   Thumb Code   652  lcddriver.o(.text)
    BtnMstSw                                 0x08013e99   Thumb Code    38  lcddriver.o(.text)
    DspRfIdChar                              0x08013ebf   Thumb Code    76  lcddriver.o(.text)
    DspID                                    0x08013f0b   Thumb Code   326  lcddriver.o(.text)
    BtnIdSel                                 0x08014051   Thumb Code    78  lcddriver.o(.text)
    BtnIdSet                                 0x0801409f   Thumb Code    32  lcddriver.o(.text)
    BtnChSet                                 0x080140bf   Thumb Code    26  lcddriver.o(.text)
    BtnReset                                 0x080140d9   Thumb Code    24  lcddriver.o(.text)
    BtnRel                                   0x080140f1   Thumb Code    20  lcddriver.o(.text)
    BtnMemory                                0x08014105   Thumb Code    66  lcddriver.o(.text)
    BtnSmSel                                 0x08014147   Thumb Code     4  lcddriver.o(.text)
    BtnSmSub                                 0x0801414b   Thumb Code     4  lcddriver.o(.text)
    BtnHome                                  0x0801414f   Thumb Code    86  lcddriver.o(.text)
    BtnSynSet                                0x080141a5   Thumb Code    62  lcddriver.o(.text)
    PfnCharGetIndex                          0x080141e3   Thumb Code    30  lcddriver.o(.text)
    LoadPfnChar                              0x08014201   Thumb Code    80  lcddriver.o(.text)
    LoadPfnString                            0x08014251   Thumb Code    60  lcddriver.o(.text)
    PfnSubCharGetIndex                       0x0801428d   Thumb Code    32  lcddriver.o(.text)
    DspSnrSubStr                             0x080142ad   Thumb Code   138  lcddriver.o(.text)
    RamLoadPicture                           0x08014337   Thumb Code    80  lcddriver.o(.text)
    DspSnrMenu                               0x08014387   Thumb Code   460  lcddriver.o(.text)
    DspSnrBar                                0x08014553   Thumb Code   240  lcddriver.o(.text)
    DspSnrTitle                              0x08014643   Thumb Code   106  lcddriver.o(.text)
    DspCfnMenu                               0x080146ad   Thumb Code   258  lcddriver.o(.text)
    DspPfnMenu                               0x080147af   Thumb Code   172  lcddriver.o(.text)
    DspSubMenu                               0x0801485b   Thumb Code   300  lcddriver.o(.text)
    EnterCfnSubMenu                          0x08014987   Thumb Code   202  lcddriver.o(.text)
    EnterPfnSubMenu                          0x08014a51   Thumb Code   190  lcddriver.o(.text)
    BtnSnrMenu                               0x08014b0f   Thumb Code    30  lcddriver.o(.text)
    BtnPfnMenu                               0x08014b2d   Thumb Code    22  lcddriver.o(.text)
    BtnGrOnOff                               0x08014b43   Thumb Code    50  lcddriver.o(.text)
    BtnGrParaRes                             0x08014b75   Thumb Code   100  lcddriver.o(.text)
    CanCharLen                               0x08014bd9   Thumb Code    38  lcddriver.o(.text)
    CanCharGetIndex                          0x08014bff   Thumb Code    32  lcddriver.o(.text)
    LoadCanParaChar                          0x08014c1f   Thumb Code    86  lcddriver.o(.text)
    DisplayCanOtpString                      0x08014c75   Thumb Code   302  lcddriver.o(.text)
    DisplayMstOtp_canStyle                   0x08014da3   Thumb Code   438  lcddriver.o(.text)
    DisplayMstOtp                            0x08014f59   Thumb Code    56  lcddriver.o(.text)
    TitleLen                                 0x08014f91   Thumb Code    52  lcddriver.o(.text)
    DisplayTitleChar                         0x08014fc5   Thumb Code    92  lcddriver.o(.text)
    DspMstRatioHead                          0x08015021   Thumb Code   264  lcddriver.o(.text)
    DisplayCanCmpString                      0x08015129   Thumb Code    50  lcddriver.o(.text)
    DisplayTtlCmp_canStyle                   0x0801515b   Thumb Code   974  lcddriver.o(.text)
    DisplayTtlCmp                            0x08015529   Thumb Code   122  lcddriver.o(.text)
    DisplayABRation                          0x080155a3   Thumb Code   400  lcddriver.o(.text)
    DisplayCanMstHead                        0x08015733   Thumb Code  1416  lcddriver.o(.text)
    BtnArrParaRes                            0x08015cbb   Thumb Code    54  lcddriver.o(.text)
    BtnExtmIso                               0x08015cf1   Thumb Code    30  lcddriver.o(.text)
    BtnExtmApert                             0x08015d0f   Thumb Code    30  lcddriver.o(.text)
    BtnGrModRes                              0x08015d2d   Thumb Code    88  lcddriver.o(.text)
    BtnSave                                  0x08015d85   Thumb Code    24  lcddriver.o(.text)
    BtnLoad                                  0x08015d9d   Thumb Code    24  lcddriver.o(.text)
    FiberAdjustProc                          0x08015db5   Thumb Code   306  lcddriver.o(.text)
    BtnFbAdj                                 0x08015ee7   Thumb Code    16  lcddriver.o(.text)
    BtnFbAddSub                              0x08015ef7   Thumb Code    16  lcddriver.o(.text)
    BtnRgbCheck                              0x08015f07   Thumb Code    28  lcddriver.o(.text)
    BtnCfnClear                              0x08015f23   Thumb Code    68  lcddriver.o(.text)
    BtnCfnClearCancel                        0x08015f67   Thumb Code    42  lcddriver.o(.text)
    BtnSlaveModel                            0x08015f91   Thumb Code    20  lcddriver.o(.text)
    BtnSlaveTest                             0x08015fa5   Thumb Code    20  lcddriver.o(.text)
    LoadCmpFebChar                           0x08015fb9   Thumb Code    86  lcddriver.o(.text)
    SetMstChan                               0x0801600f   Thumb Code   344  lcddriver.o(.text)
    DspScanResult                            0x08016167   Thumb Code   524  lcddriver.o(.text)
    DrawFrame                                0x08016373   Thumb Code   148  lcddriver.o(.text)
    BtnChScan                                0x08016407   Thumb Code   274  lcddriver.o(.text)
    RePaint                                  0x08016519   Thumb Code     4  lcddriver.o(.text)
    DspGrMode                                0x0801651d   Thumb Code   398  lcddriver.o(.text)
    LcdFillBlank                             0x080166ab   Thumb Code     2  lcddriver.o(.text)
    LoadMenuChar                             0x080166ad   Thumb Code    84  lcddriver.o(.text)
    DisplayButton                            0x08016701   Thumb Code   290  lcddriver.o(.text)
    InsertList                               0x08016823   Thumb Code    90  lcddriver.o(.text)
    DisplayMstSetDot                         0x0801687d   Thumb Code     2  lcddriver.o(.text)
    DspCmpFeb                                0x0801687f   Thumb Code   184  lcddriver.o(.text)
    Lcd_ShowCmpFebChar                       0x08016937   Thumb Code    60  lcddriver.o(.text)
    DisplayTtlCmp_classStyle                 0x08016973   Thumb Code   162  lcddriver.o(.text)
    DisplayTtlScale                          0x08016a15   Thumb Code     2  lcddriver.o(.text)
    DisplayParaCmlSkip                       0x08016a17   Thumb Code   100  lcddriver.o(.text)
    DisplayOutput                            0x08016a7b   Thumb Code    74  lcddriver.o(.text)
    DspMstModIcon                            0x08016ac5   Thumb Code    70  lcddriver.o(.text)
    TakeOnCharge                             0x08016b0b   Thumb Code    70  lcddriver.o(.text)
    SetMstHead                               0x08016b51   Thumb Code     2  lcddriver.o(.text)
    SetLinkshotChan                          0x08016b53   Thumb Code   198  lcddriver.o(.text)
    DisplayMstSetting                        0x08016c19   Thumb Code     2  lcddriver.o(.text)
    DspSlavePara                             0x08016c1b   Thumb Code    86  lcddriver.o(.text)
    DspIndividualSlavePara                   0x08016c71   Thumb Code    56  lcddriver.o(.text)
    DspLightSlavePara                        0x08016ca9   Thumb Code   148  lcddriver.o(.text)
    DspRfSlavePara                           0x08016d3d   Thumb Code   144  lcddriver.o(.text)
    DisplayRmt                               0x08016dcd   Thumb Code     2  lcddriver.o(.text)
    LoadMaskData                             0x08016dcf   Thumb Code    24  lcddriver.o(.text)
    LoadCmpFebData                           0x08016de7   Thumb Code    94  lcddriver.o(.text)
    ParaPreserve                             0x08016e45   Thumb Code     2  lcddriver.o(.text)
    SeniorMenuProc                           0x08016e47   Thumb Code     2  lcddriver.o(.text)
    BuildLinkedShotMenu                      0x08016e49   Thumb Code    70  lcddriver.o(.text)
    ScaleNumLen                              0x08016e8f   Thumb Code   122  lcddriver.o(.text)
    calcSqrt                                 0x08016f09   Thumb Code    44  lcddriver.o(.text)
    SearchScaleIndex                         0x08016f35   Thumb Code   128  lcddriver.o(.text)
    ExtaModSet                               0x08016fb5   Thumb Code   438  lcddriver.o(.text)
    ExtmModSet                               0x0801716b   Thumb Code    94  lcddriver.o(.text)
    LoadLowBatIcon                           0x080171c9   Thumb Code    80  lcddriver.o(.text)
    LoadCfnAllClear                          0x08017219   Thumb Code   136  lcddriver.o(.text)
    OS_TaskStat                              0x080172f1   Thumb Code    96  os_core.o(.text)
    OS_TaskIdle                              0x08017351   Thumb Code    24  os_core.o(.text)
    OSInit                                   0x08017369   Thumb Code   192  os_core.o(.text)
    OSIntEnter                               0x08017429   Thumb Code    20  os_core.o(.text)
    OSIntExit                                0x0801743d   Thumb Code    88  os_core.o(.text)
    OSSchedLock                              0x08017495   Thumb Code    34  os_core.o(.text)
    OS_Sched                                 0x080174b7   Thumb Code    70  os_core.o(.text)
    OSSchedUnlock                            0x080174fd   Thumb Code    50  os_core.o(.text)
    OSStart                                  0x0801752f   Thumb Code    48  os_core.o(.text)
    OSStatInit                               0x0801755f   Thumb Code    50  os_core.o(.text)
    OSTimeTick                               0x08017591   Thumb Code   106  os_core.o(.text)
    OSVersion                                0x080175fb   Thumb Code     4  os_core.o(.text)
    OS_Dummy                                 0x080175ff   Thumb Code     2  os_core.o(.text)
    OS_EventTaskRdy                          0x08017601   Thumb Code    88  os_core.o(.text)
    OS_EventTaskWait                         0x08017659   Thumb Code    66  os_core.o(.text)
    OS_EventTO                               0x0801769b   Thumb Code    46  os_core.o(.text)
    OS_EventWaitListInit                     0x080176c9   Thumb Code    32  os_core.o(.text)
    OS_TCBInit                               0x080176e9   Thumb Code   148  os_core.o(.text)
    OS_MemClr                                0x0801777d   Thumb Code    18  os_core.o(.text)
    OS_MemCopy                               0x0801778f   Thumb Code    20  os_core.o(.text)
    OS_StrLen                                0x080177a3   Thumb Code    20  os_core.o(.text)
    OS_StrCopy                               0x080177b7   Thumb Code    28  os_core.o(.text)
    OSFlagAccept                             0x080177e1   Thumb Code   174  os_flag.o(.text)
    OSFlagCreate                             0x0801788f   Thumb Code    64  os_flag.o(.text)
    OS_FlagUnlink                            0x080178cf   Thumb Code    32  os_flag.o(.text)
    OSFlagDel                                0x0801792f   Thumb Code   164  os_flag.o(.text)
    OSFlagPend                               0x08017a1f   Thumb Code   282  os_flag.o(.text)
    OSFlagPost                               0x08017b39   Thumb Code   178  os_flag.o(.text)
    OSFlagQuery                              0x08017beb   Thumb Code    44  os_flag.o(.text)
    OS_FlagInit                              0x08017c17   Thumb Code    38  os_flag.o(.text)
    OSMemCreate                              0x08017c55   Thumb Code   112  os_mem.o(.text)
    OSMemGet                                 0x08017cc5   Thumb Code    56  os_mem.o(.text)
    OSMemPut                                 0x08017cfd   Thumb Code    58  os_mem.o(.text)
    OSMemQuery                               0x08017d37   Thumb Code    58  os_mem.o(.text)
    OS_MemInit                               0x08017d71   Thumb Code    62  os_mem.o(.text)
    OSQAccept                                0x08017db9   Thumb Code    62  os_q.o(.text)
    OSQCreate                                0x08017df7   Thumb Code   110  os_q.o(.text)
    OSQDel                                   0x08017e65   Thumb Code   186  os_q.o(.text)
    OSQFlush                                 0x08017f1f   Thumb Code    44  os_q.o(.text)
    OSQPend                                  0x08017f4b   Thumb Code   158  os_q.o(.text)
    OSQPost                                  0x08017fe9   Thumb Code   108  os_q.o(.text)
    OSQPostFront                             0x08018055   Thumb Code   106  os_q.o(.text)
    OSQPostOpt                               0x080180bf   Thumb Code   156  os_q.o(.text)
    OSQQuery                                 0x0801815b   Thumb Code    70  os_q.o(.text)
    OS_QInit                                 0x080181a1   Thumb Code    34  os_q.o(.text)
    OSSemAccept                              0x080181d9   Thumb Code    36  os_sem.o(.text)
    OSSemCreate                              0x080181fd   Thumb Code    54  os_sem.o(.text)
    OSSemDel                                 0x08018233   Thumb Code   156  os_sem.o(.text)
    OSSemPend                                0x080182cf   Thumb Code   124  os_sem.o(.text)
    OSSemPost                                0x0801834b   Thumb Code    78  os_sem.o(.text)
    OSSemQuery                               0x08018399   Thumb Code    56  os_sem.o(.text)
    OSTaskChangePrio                         0x080183dd   Thumb Code   252  os_task.o(.text)
    OSTaskCreate                             0x080184d9   Thumb Code   134  os_task.o(.text)
    OSTaskDel                                0x0801855f   Thumb Code   242  os_task.o(.text)
    OSTaskDelReq                             0x08018651   Thumb Code    68  os_task.o(.text)
    OSTaskResume                             0x08018695   Thumb Code   104  os_task.o(.text)
    OSTaskSuspend                            0x080186fd   Thumb Code   120  os_task.o(.text)
    OSTaskQuery                              0x08018775   Thumb Code    66  os_task.o(.text)
    OSTimeDly                                0x080187e5   Thumb Code    58  os_time.o(.text)
    OSTimeDlyHMSM                            0x0801881f   Thumb Code   120  os_time.o(.text)
    OSTimeDlyResume                          0x08018897   Thumb Code    98  os_time.o(.text)
    OSTimeGet                                0x080188f9   Thumb Code    18  os_time.o(.text)
    OSTimeSet                                0x0801890b   Thumb Code    20  os_time.o(.text)
    OSTmrCreate                              0x08018935   Thumb Code   142  os_tmr.o(.text)
    OSTmrReload                              0x080189c3   Thumb Code    10  os_tmr.o(.text)
    OSTmrDel                                 0x08018a35   Thumb Code   102  os_tmr.o(.text)
    OSTmrRemainGet                           0x08018a9b   Thumb Code   134  os_tmr.o(.text)
    OSTmrStateGet                            0x08018b21   Thumb Code    78  os_tmr.o(.text)
    OSTmrStart                               0x08018bb1   Thumb Code   104  os_tmr.o(.text)
    OSTmrStop                                0x08018c19   Thumb Code   154  os_tmr.o(.text)
    OSTmrSignal                              0x08018cb3   Thumb Code     8  os_tmr.o(.text)
    OSTmr_Init                               0x08018d25   Thumb Code   154  os_tmr.o(.text)
    OS_ENTER_CRITICAL                        0x08018dfd   Thumb Code     0  os_cpu_a.o(.text)
    OS_EXIT_CRITICAL                         0x08018e0f   Thumb Code     0  os_cpu_a.o(.text)
    OSStartHighRdy                           0x08018e2b   Thumb Code     0  os_cpu_a.o(.text)
    OSCtxSw                                  0x08018e4d   Thumb Code     0  os_cpu_a.o(.text)
    OSIntCtxSw                               0x08018e5b   Thumb Code     0  os_cpu_a.o(.text)
    PendSV_Handler                           0x08018e6b   Thumb Code     0  os_cpu_a.o(.text)
    ItDisAll                                 0x08018ead   Thumb Code     0  os_cpu_a.o(.text)
    OSTaskStkInit                            0x08018ed9   Thumb Code   116  os_cpu_c.o(.text)
    OSInitHookBegin                          0x08018f4d   Thumb Code     2  os_cpu_c.o(.text)
    OSInitHookEnd                            0x08018f4f   Thumb Code     2  os_cpu_c.o(.text)
    OSTaskCreateHook                         0x08018f51   Thumb Code     2  os_cpu_c.o(.text)
    OSTaskDelHook                            0x08018f53   Thumb Code     2  os_cpu_c.o(.text)
    OSTaskSwHook                             0x08018f55   Thumb Code     2  os_cpu_c.o(.text)
    OSTaskStatHook                           0x08018f57   Thumb Code     2  os_cpu_c.o(.text)
    OSTCBInitHook                            0x08018f59   Thumb Code     2  os_cpu_c.o(.text)
    OSTimeTickHook                           0x08018f5b   Thumb Code     2  os_cpu_c.o(.text)
    OSTaskIdleHook                           0x08018f5d   Thumb Code     2  os_cpu_c.o(.text)
    NVIC_PriorityGroupConfig                 0x08018f61   Thumb Code    10  misc.o(.text)
    NVIC_Init                                0x08018f6b   Thumb Code    94  misc.o(.text)
    NVIC_SetVectorTable                      0x08018fc9   Thumb Code    14  misc.o(.text)
    NVIC_SystemLPConfig                      0x08018fd7   Thumb Code    20  misc.o(.text)
    SysTick_CLKSourceConfig                  0x08018feb   Thumb Code    24  misc.o(.text)
    ADC_DeInit                               0x08019011   Thumb Code    56  stm32f10x_adc.o(.text)
    ADC_Init                                 0x08019049   Thumb Code    62  stm32f10x_adc.o(.text)
    ADC_StructInit                           0x08019087   Thumb Code    18  stm32f10x_adc.o(.text)
    ADC_Cmd                                  0x08019099   Thumb Code    20  stm32f10x_adc.o(.text)
    ADC_DMACmd                               0x080190ad   Thumb Code    20  stm32f10x_adc.o(.text)
    ADC_ITConfig                             0x080190c1   Thumb Code    18  stm32f10x_adc.o(.text)
    ADC_ResetCalibration                     0x080190d3   Thumb Code    10  stm32f10x_adc.o(.text)
    ADC_GetResetCalibrationStatus            0x080190dd   Thumb Code    14  stm32f10x_adc.o(.text)
    ADC_StartCalibration                     0x080190eb   Thumb Code    10  stm32f10x_adc.o(.text)
    ADC_GetCalibrationStatus                 0x080190f5   Thumb Code    14  stm32f10x_adc.o(.text)
    ADC_SoftwareStartConvCmd                 0x08019103   Thumb Code    20  stm32f10x_adc.o(.text)
    ADC_GetSoftwareStartConvStatus           0x08019117   Thumb Code    14  stm32f10x_adc.o(.text)
    ADC_DiscModeChannelCountConfig           0x08019125   Thumb Code    16  stm32f10x_adc.o(.text)
    ADC_DiscModeCmd                          0x08019135   Thumb Code    20  stm32f10x_adc.o(.text)
    ADC_RegularChannelConfig                 0x08019149   Thumb Code   116  stm32f10x_adc.o(.text)
    ADC_ExternalTrigConvCmd                  0x080191bd   Thumb Code    20  stm32f10x_adc.o(.text)
    ADC_GetConversionValue                   0x080191d1   Thumb Code     6  stm32f10x_adc.o(.text)
    ADC_GetDualModeConversionValue           0x080191d7   Thumb Code     8  stm32f10x_adc.o(.text)
    ADC_AutoInjectedConvCmd                  0x080191df   Thumb Code    20  stm32f10x_adc.o(.text)
    ADC_InjectedDiscModeCmd                  0x080191f3   Thumb Code    20  stm32f10x_adc.o(.text)
    ADC_ExternalTrigInjectedConvConfig       0x08019207   Thumb Code    12  stm32f10x_adc.o(.text)
    ADC_ExternalTrigInjectedConvCmd          0x08019213   Thumb Code    20  stm32f10x_adc.o(.text)
    ADC_SoftwareStartInjectedConvCmd         0x08019227   Thumb Code    20  stm32f10x_adc.o(.text)
    ADC_GetSoftwareStartInjectedConvCmdStatus 0x0801923b   Thumb Code    14  stm32f10x_adc.o(.text)
    ADC_InjectedChannelConfig                0x08019249   Thumb Code    74  stm32f10x_adc.o(.text)
    ADC_InjectedSequencerLengthConfig        0x08019293   Thumb Code    16  stm32f10x_adc.o(.text)
    ADC_SetInjectedOffset                    0x080192a3   Thumb Code    10  stm32f10x_adc.o(.text)
    ADC_GetInjectedConversionValue           0x080192ad   Thumb Code    14  stm32f10x_adc.o(.text)
    ADC_AnalogWatchdogCmd                    0x080192bb   Thumb Code    12  stm32f10x_adc.o(.text)
    ADC_AnalogWatchdogThresholdsConfig       0x080192c7   Thumb Code     6  stm32f10x_adc.o(.text)
    ADC_AnalogWatchdogSingleChannelConfig    0x080192cd   Thumb Code    12  stm32f10x_adc.o(.text)
    ADC_TempSensorVrefintCmd                 0x080192d9   Thumb Code    24  stm32f10x_adc.o(.text)
    ADC_GetFlagStatus                        0x080192f1   Thumb Code    14  stm32f10x_adc.o(.text)
    ADC_ClearFlag                            0x080192ff   Thumb Code     6  stm32f10x_adc.o(.text)
    ADC_GetITStatus                          0x08019305   Thumb Code    28  stm32f10x_adc.o(.text)
    ADC_ClearITPendingBit                    0x08019321   Thumb Code     8  stm32f10x_adc.o(.text)
    EXTI_DeInit                              0x08019341   Thumb Code    28  stm32f10x_exti.o(.text)
    EXTI_Init                                0x0801935d   Thumb Code   108  stm32f10x_exti.o(.text)
    EXTI_StructInit                          0x080193c9   Thumb Code    14  stm32f10x_exti.o(.text)
    EXTI_GenerateSWInterrupt                 0x080193d7   Thumb Code    12  stm32f10x_exti.o(.text)
    EXTI_GetFlagStatus                       0x080193e3   Thumb Code    18  stm32f10x_exti.o(.text)
    EXTI_ClearFlag                           0x080193f5   Thumb Code     8  stm32f10x_exti.o(.text)
    EXTI_GetITStatus                         0x080193fd   Thumb Code    28  stm32f10x_exti.o(.text)
    EXTI_ClearITPendingBit                   0x08019419   Thumb Code     8  stm32f10x_exti.o(.text)
    FLASH_SetLatency                         0x08019429   Thumb Code    14  stm32f10x_flash.o(.text)
    FLASH_HalfCycleAccessCmd                 0x08019437   Thumb Code    18  stm32f10x_flash.o(.text)
    FLASH_PrefetchBufferCmd                  0x08019449   Thumb Code    18  stm32f10x_flash.o(.text)
    FLASH_Unlock                             0x0801945b   Thumb Code    12  stm32f10x_flash.o(.text)
    FLASH_UnlockBank1                        0x08019467   Thumb Code    12  stm32f10x_flash.o(.text)
    FLASH_Lock                               0x08019473   Thumb Code    12  stm32f10x_flash.o(.text)
    FLASH_LockBank1                          0x0801947f   Thumb Code    12  stm32f10x_flash.o(.text)
    FLASH_GetBank1Status                     0x0801948b   Thumb Code    34  stm32f10x_flash.o(.text)
    FLASH_WaitForLastOperation               0x080194ad   Thumb Code    36  stm32f10x_flash.o(.text)
    FLASH_ErasePage                          0x080194d1   Thumb Code    56  stm32f10x_flash.o(.text)
    FLASH_EraseAllPages                      0x08019509   Thumb Code    52  stm32f10x_flash.o(.text)
    FLASH_WaitForLastBank1Operation          0x0801953d   Thumb Code    36  stm32f10x_flash.o(.text)
    FLASH_EraseAllBank1Pages                 0x08019561   Thumb Code    52  stm32f10x_flash.o(.text)
    FLASH_GetReadOutProtectionStatus         0x08019595   Thumb Code    14  stm32f10x_flash.o(.text)
    FLASH_EraseOptionBytes                   0x080195a3   Thumb Code   108  stm32f10x_flash.o(.text)
    FLASH_ProgramWord                        0x0801960f   Thumb Code    72  stm32f10x_flash.o(.text)
    FLASH_ProgramHalfWord                    0x08019657   Thumb Code    48  stm32f10x_flash.o(.text)
    FLASH_ProgramOptionByteData              0x08019687   Thumb Code    62  stm32f10x_flash.o(.text)
    FLASH_EnableWriteProtection              0x080196c5   Thumb Code   150  stm32f10x_flash.o(.text)
    FLASH_ReadOutProtection                  0x0801975b   Thumb Code   118  stm32f10x_flash.o(.text)
    FLASH_UserOptionByteConfig               0x080197d1   Thumb Code    92  stm32f10x_flash.o(.text)
    FLASH_GetUserOptionByte                  0x0801982d   Thumb Code     8  stm32f10x_flash.o(.text)
    FLASH_GetWriteProtectionOptionByte       0x08019835   Thumb Code     6  stm32f10x_flash.o(.text)
    FLASH_GetPrefetchBufferStatus            0x0801983b   Thumb Code    14  stm32f10x_flash.o(.text)
    FLASH_ITConfig                           0x08019849   Thumb Code    18  stm32f10x_flash.o(.text)
    FLASH_GetFlagStatus                      0x0801985b   Thumb Code    28  stm32f10x_flash.o(.text)
    FLASH_ClearFlag                          0x08019877   Thumb Code     6  stm32f10x_flash.o(.text)
    FLASH_GetStatus                          0x0801987d   Thumb Code    34  stm32f10x_flash.o(.text)
    GPIO_DeInit                              0x080198a5   Thumb Code   152  stm32f10x_gpio.o(.text)
    GPIO_AFIODeInit                          0x0801993d   Thumb Code    22  stm32f10x_gpio.o(.text)
    GPIO_Init                                0x08019953   Thumb Code   164  stm32f10x_gpio.o(.text)
    GPIO_StructInit                          0x080199f7   Thumb Code    16  stm32f10x_gpio.o(.text)
    GPIO_ReadInputDataBit                    0x08019a07   Thumb Code    14  stm32f10x_gpio.o(.text)
    GPIO_ReadInputData                       0x08019a15   Thumb Code     6  stm32f10x_gpio.o(.text)
    GPIO_ReadOutputDataBit                   0x08019a1b   Thumb Code    14  stm32f10x_gpio.o(.text)
    GPIO_ReadOutputData                      0x08019a29   Thumb Code     6  stm32f10x_gpio.o(.text)
    GPIO_SetBits                             0x08019a2f   Thumb Code     4  stm32f10x_gpio.o(.text)
    GPIO_ResetBits                           0x08019a33   Thumb Code     4  stm32f10x_gpio.o(.text)
    GPIO_WriteBit                            0x08019a37   Thumb Code    10  stm32f10x_gpio.o(.text)
    GPIO_Write                               0x08019a41   Thumb Code     4  stm32f10x_gpio.o(.text)
    GPIO_PinLockConfig                       0x08019a45   Thumb Code    16  stm32f10x_gpio.o(.text)
    GPIO_EventOutputConfig                   0x08019a55   Thumb Code    22  stm32f10x_gpio.o(.text)
    GPIO_EventOutputCmd                      0x08019a6b   Thumb Code     6  stm32f10x_gpio.o(.text)
    GPIO_PinRemapConfig                      0x08019a71   Thumb Code    82  stm32f10x_gpio.o(.text)
    GPIO_EXTILineConfig                      0x08019ac3   Thumb Code    34  stm32f10x_gpio.o(.text)
    GPIO_ETH_MediaInterfaceConfig            0x08019ae5   Thumb Code     8  stm32f10x_gpio.o(.text)
    PWR_DeInit                               0x08019b11   Thumb Code    24  stm32f10x_pwr.o(.text)
    PWR_BackupAccessCmd                      0x08019b29   Thumb Code     6  stm32f10x_pwr.o(.text)
    PWR_PVDCmd                               0x08019b2f   Thumb Code     6  stm32f10x_pwr.o(.text)
    PWR_PVDLevelConfig                       0x08019b35   Thumb Code    14  stm32f10x_pwr.o(.text)
    PWR_WakeUpPinCmd                         0x08019b43   Thumb Code     8  stm32f10x_pwr.o(.text)
    PWR_EnterSLEEPMode                       0x08019b4b   Thumb Code    40  stm32f10x_pwr.o(.text)
    PWR_EnterSTOPMode                        0x08019b73   Thumb Code    42  stm32f10x_pwr.o(.text)
    PWR_EnterSTANDBYMode                     0x08019b9d   Thumb Code    32  stm32f10x_pwr.o(.text)
    PWR_GetFlagStatus                        0x08019bbd   Thumb Code    16  stm32f10x_pwr.o(.text)
    PWR_ClearFlag                            0x08019bcd   Thumb Code    12  stm32f10x_pwr.o(.text)
    RCC_DeInit                               0x08019be5   Thumb Code    50  stm32f10x_rcc.o(.text)
    RCC_HSEConfig                            0x08019c17   Thumb Code    48  stm32f10x_rcc.o(.text)
    RCC_GetFlagStatus                        0x08019c47   Thumb Code    42  stm32f10x_rcc.o(.text)
    RCC_WaitForHSEStartUp                    0x08019c71   Thumb Code    44  stm32f10x_rcc.o(.text)
    RCC_AdjustHSICalibrationValue            0x08019c9d   Thumb Code    16  stm32f10x_rcc.o(.text)
    RCC_HSICmd                               0x08019cad   Thumb Code     6  stm32f10x_rcc.o(.text)
    RCC_PLLConfig                            0x08019cb3   Thumb Code    16  stm32f10x_rcc.o(.text)
    RCC_PLLCmd                               0x08019cc3   Thumb Code     6  stm32f10x_rcc.o(.text)
    RCC_SYSCLKConfig                         0x08019cc9   Thumb Code    14  stm32f10x_rcc.o(.text)
    RCC_GetSYSCLKSource                      0x08019cd7   Thumb Code    10  stm32f10x_rcc.o(.text)
    RCC_HCLKConfig                           0x08019ce1   Thumb Code    14  stm32f10x_rcc.o(.text)
    RCC_PCLK1Config                          0x08019cef   Thumb Code    14  stm32f10x_rcc.o(.text)
    RCC_PCLK2Config                          0x08019cfd   Thumb Code    16  stm32f10x_rcc.o(.text)
    RCC_ITConfig                             0x08019d0d   Thumb Code    18  stm32f10x_rcc.o(.text)
    RCC_USBCLKConfig                         0x08019d1f   Thumb Code     8  stm32f10x_rcc.o(.text)
    RCC_ADCCLKConfig                         0x08019d27   Thumb Code    14  stm32f10x_rcc.o(.text)
    RCC_LSEConfig                            0x08019d35   Thumb Code    28  stm32f10x_rcc.o(.text)
    RCC_LSICmd                               0x08019d51   Thumb Code     6  stm32f10x_rcc.o(.text)
    RCC_RTCCLKConfig                         0x08019d57   Thumb Code    10  stm32f10x_rcc.o(.text)
    RCC_RTCCLKCmd                            0x08019d61   Thumb Code     8  stm32f10x_rcc.o(.text)
    RCC_GetClocksFreq                        0x08019d69   Thumb Code   128  stm32f10x_rcc.o(.text)
    RCC_AHBPeriphClockCmd                    0x08019de9   Thumb Code    18  stm32f10x_rcc.o(.text)
    RCC_APB2PeriphClockCmd                   0x08019dfb   Thumb Code    18  stm32f10x_rcc.o(.text)
    RCC_APB1PeriphClockCmd                   0x08019e0d   Thumb Code    18  stm32f10x_rcc.o(.text)
    RCC_APB2PeriphResetCmd                   0x08019e1f   Thumb Code    18  stm32f10x_rcc.o(.text)
    RCC_APB1PeriphResetCmd                   0x08019e31   Thumb Code    18  stm32f10x_rcc.o(.text)
    RCC_BackupResetCmd                       0x08019e43   Thumb Code     8  stm32f10x_rcc.o(.text)
    RCC_ClockSecuritySystemCmd               0x08019e4b   Thumb Code     6  stm32f10x_rcc.o(.text)
    RCC_MCOConfig                            0x08019e51   Thumb Code     6  stm32f10x_rcc.o(.text)
    RCC_ClearFlag                            0x08019e57   Thumb Code    12  stm32f10x_rcc.o(.text)
    RCC_GetITStatus                          0x08019e63   Thumb Code    16  stm32f10x_rcc.o(.text)
    RCC_ClearITPendingBit                    0x08019e73   Thumb Code     6  stm32f10x_rcc.o(.text)
    SPI_I2S_DeInit                           0x08019e99   Thumb Code    72  stm32f10x_spi.o(.text)
    SPI_Init                                 0x08019ee1   Thumb Code    56  stm32f10x_spi.o(.text)
    I2S_Init                                 0x08019f19   Thumb Code   152  stm32f10x_spi.o(.text)
    SPI_StructInit                           0x08019fb1   Thumb Code    24  stm32f10x_spi.o(.text)
    I2S_StructInit                           0x08019fc9   Thumb Code    18  stm32f10x_spi.o(.text)
    SPI_Cmd                                  0x08019fdb   Thumb Code    20  stm32f10x_spi.o(.text)
    I2S_Cmd                                  0x08019fef   Thumb Code    20  stm32f10x_spi.o(.text)
    SPI_I2S_ITConfig                         0x0801a003   Thumb Code    24  stm32f10x_spi.o(.text)
    SPI_I2S_DMACmd                           0x0801a01b   Thumb Code    16  stm32f10x_spi.o(.text)
    SPI_I2S_SendData                         0x0801a02b   Thumb Code     4  stm32f10x_spi.o(.text)
    SPI_I2S_ReceiveData                      0x0801a02f   Thumb Code     4  stm32f10x_spi.o(.text)
    SPI_NSSInternalSoftwareConfig            0x0801a033   Thumb Code    24  stm32f10x_spi.o(.text)
    SPI_SSOutputCmd                          0x0801a04b   Thumb Code    20  stm32f10x_spi.o(.text)
    SPI_DataSizeConfig                       0x0801a05f   Thumb Code    16  stm32f10x_spi.o(.text)
    SPI_TransmitCRC                          0x0801a06f   Thumb Code    10  stm32f10x_spi.o(.text)
    SPI_CalculateCRC                         0x0801a079   Thumb Code    20  stm32f10x_spi.o(.text)
    SPI_GetCRC                               0x0801a08d   Thumb Code    12  stm32f10x_spi.o(.text)
    SPI_GetCRCPolynomial                     0x0801a099   Thumb Code     4  stm32f10x_spi.o(.text)
    SPI_BiDirectionalLineConfig              0x0801a09d   Thumb Code    22  stm32f10x_spi.o(.text)
    SPI_I2S_GetFlagStatus                    0x0801a0b3   Thumb Code    14  stm32f10x_spi.o(.text)
    SPI_I2S_ClearFlag                        0x0801a0c1   Thumb Code     6  stm32f10x_spi.o(.text)
    SPI_I2S_GetITStatus                      0x0801a0c7   Thumb Code    42  stm32f10x_spi.o(.text)
    SPI_I2S_ClearITPendingBit                0x0801a0f1   Thumb Code    14  stm32f10x_spi.o(.text)
    USART_DeInit                             0x0801a10d   Thumb Code    96  stm32f10x_usart.o(.text)
    USART_Init                               0x0801a16d   Thumb Code   166  stm32f10x_usart.o(.text)
    USART_StructInit                         0x0801a213   Thumb Code    22  stm32f10x_usart.o(.text)
    USART_ClockInit                          0x0801a229   Thumb Code    30  stm32f10x_usart.o(.text)
    USART_ClockStructInit                    0x0801a247   Thumb Code    12  stm32f10x_usart.o(.text)
    USART_Cmd                                0x0801a253   Thumb Code    20  stm32f10x_usart.o(.text)
    USART_ITConfig                           0x0801a267   Thumb Code    48  stm32f10x_usart.o(.text)
    USART_DMACmd                             0x0801a297   Thumb Code    16  stm32f10x_usart.o(.text)
    USART_SetAddress                         0x0801a2a7   Thumb Code    16  stm32f10x_usart.o(.text)
    USART_WakeUpConfig                       0x0801a2b7   Thumb Code    16  stm32f10x_usart.o(.text)
    USART_ReceiverWakeUpCmd                  0x0801a2c7   Thumb Code    20  stm32f10x_usart.o(.text)
    USART_LINBreakDetectLengthConfig         0x0801a2db   Thumb Code    16  stm32f10x_usart.o(.text)
    USART_LINCmd                             0x0801a2eb   Thumb Code    20  stm32f10x_usart.o(.text)
    USART_SendData                           0x0801a2ff   Thumb Code     8  stm32f10x_usart.o(.text)
    USART_ReceiveData                        0x0801a307   Thumb Code     8  stm32f10x_usart.o(.text)
    USART_SendBreak                          0x0801a30f   Thumb Code    10  stm32f10x_usart.o(.text)
    USART_SetGuardTime                       0x0801a319   Thumb Code    16  stm32f10x_usart.o(.text)
    USART_SetPrescaler                       0x0801a329   Thumb Code    16  stm32f10x_usart.o(.text)
    USART_SmartCardCmd                       0x0801a339   Thumb Code    20  stm32f10x_usart.o(.text)
    USART_SmartCardNACKCmd                   0x0801a34d   Thumb Code    20  stm32f10x_usart.o(.text)
    USART_HalfDuplexCmd                      0x0801a361   Thumb Code    20  stm32f10x_usart.o(.text)
    USART_OverSampling8Cmd                   0x0801a375   Thumb Code    20  stm32f10x_usart.o(.text)
    USART_OneBitMethodCmd                    0x0801a389   Thumb Code    20  stm32f10x_usart.o(.text)
    USART_IrDAConfig                         0x0801a39d   Thumb Code    16  stm32f10x_usart.o(.text)
    USART_IrDACmd                            0x0801a3ad   Thumb Code    20  stm32f10x_usart.o(.text)
    USART_GetFlagStatus                      0x0801a3c1   Thumb Code    14  stm32f10x_usart.o(.text)
    USART_ClearFlag                          0x0801a3cf   Thumb Code     6  stm32f10x_usart.o(.text)
    USART_GetITStatus                        0x0801a3d5   Thumb Code    62  stm32f10x_usart.o(.text)
    USART_ClearITPendingBit                  0x0801a413   Thumb Code    12  stm32f10x_usart.o(.text)
    KeyExpansion                             0x0801a435   Thumb Code   204  encrypto.o(.text)
    FFmul                                    0x0801a501   Thumb Code    64  encrypto.o(.text)
    SubBytes                                 0x0801a541   Thumb Code    32  encrypto.o(.text)
    ShiftRows                                0x0801a561   Thumb Code    56  encrypto.o(.text)
    MixColumns                               0x0801a599   Thumb Code   130  encrypto.o(.text)
    AddRoundKey                              0x0801a61b   Thumb Code    36  encrypto.o(.text)
    InvSubBytes                              0x0801a63f   Thumb Code    32  encrypto.o(.text)
    InvShiftRows                             0x0801a65f   Thumb Code    58  encrypto.o(.text)
    InvMixColumns                            0x0801a699   Thumb Code   130  encrypto.o(.text)
    Aes_Encrypt                              0x0801a71b   Thumb Code   128  encrypto.o(.text)
    Aes_Decrypt                              0x0801a79b   Thumb Code   112  encrypto.o(.text)
    Boot_Encrypt                             0x0801a80b   Thumb Code    60  encrypto.o(.text)
    Boot_Decrypt                             0x0801a847   Thumb Code    34  encrypto.o(.text)
    __aeabi_memcpy                           0x0801a86d   Thumb Code    36  memcpya.o(.text)
    __aeabi_memcpy4                          0x0801a86d   Thumb Code     0  memcpya.o(.text)
    __aeabi_memcpy8                          0x0801a86d   Thumb Code     0  memcpya.o(.text)
    __aeabi_memset                           0x0801a891   Thumb Code    14  memseta.o(.text)
    __aeabi_memset4                          0x0801a891   Thumb Code     0  memseta.o(.text)
    __aeabi_memset8                          0x0801a891   Thumb Code     0  memseta.o(.text)
    __aeabi_memclr                           0x0801a89f   Thumb Code     4  memseta.o(.text)
    __aeabi_memclr4                          0x0801a89f   Thumb Code     0  memseta.o(.text)
    __aeabi_memclr8                          0x0801a89f   Thumb Code     0  memseta.o(.text)
    _memset$wrapper                          0x0801a8a3   Thumb Code    18  memseta.o(.text)
    memcmp                                   0x0801a8b5   Thumb Code    26  memcmp.o(.text)
    __aeabi_fadd                             0x0801a8cf   Thumb Code   164  fadd.o(.text)
    __aeabi_fsub                             0x0801a973   Thumb Code     6  fadd.o(.text)
    __aeabi_frsub                            0x0801a979   Thumb Code     6  fadd.o(.text)
    __aeabi_fmul                             0x0801a97f   Thumb Code   100  fmul.o(.text)
    __aeabi_fdiv                             0x0801a9e3   Thumb Code   124  fdiv.o(.text)
    __ARM_scalbnf                            0x0801aa5f   Thumb Code    24  fscalb.o(.text)
    scalbnf                                  0x0801aa5f   Thumb Code     0  fscalb.o(.text)
    __aeabi_dadd                             0x0801aa77   Thumb Code   322  dadd.o(.text)
    __aeabi_dsub                             0x0801abb9   Thumb Code     6  dadd.o(.text)
    __aeabi_drsub                            0x0801abbf   Thumb Code     6  dadd.o(.text)
    __aeabi_i2f                              0x0801abc5   Thumb Code    18  fflti.o(.text)
    __aeabi_ui2f                             0x0801abd7   Thumb Code    10  ffltui.o(.text)
    __aeabi_f2uiz                            0x0801abe1   Thumb Code    40  ffixui.o(.text)
    __aeabi_f2d                              0x0801ac09   Thumb Code    38  f2d.o(.text)
    __aeabi_cdcmpeq                          0x0801ac31   Thumb Code     0  cdcmple.o(.text)
    __aeabi_cdcmple                          0x0801ac31   Thumb Code    48  cdcmple.o(.text)
    __aeabi_cdrcmple                         0x0801ac61   Thumb Code    48  cdrcmple.o(.text)
    __aeabi_cfcmpeq                          0x0801ac91   Thumb Code     0  cfcmple.o(.text)
    __aeabi_cfcmple                          0x0801ac91   Thumb Code    20  cfcmple.o(.text)
    __aeabi_llsl                             0x0801aca5   Thumb Code    30  llshl.o(.text)
    _ll_shift_l                              0x0801aca5   Thumb Code     0  llshl.o(.text)
    __aeabi_lasr                             0x0801acc3   Thumb Code    36  llsshr.o(.text)
    _ll_sshift_r                             0x0801acc3   Thumb Code     0  llsshr.o(.text)
    __I$use$fp                               0x0801ace7   Thumb Code     0  iusefp.o(.text)
    _float_round                             0x0801ace7   Thumb Code    18  fepilogue.o(.text)
    _float_epilogue                          0x0801acf9   Thumb Code    92  fepilogue.o(.text)
    _double_round                            0x0801ad55   Thumb Code    30  depilogue.o(.text)
    _double_epilogue                         0x0801ad73   Thumb Code   156  depilogue.o(.text)
    __scatterload                            0x0801ae11   Thumb Code    28  init.o(.text)
    __scatterload_rt2                        0x0801ae11   Thumb Code     0  init.o(.text)
    __aeabi_llsr                             0x0801ae35   Thumb Code    32  llushr.o(.text)
    _ll_ushift_r                             0x0801ae35   Thumb Code     0  llushr.o(.text)
    __decompress                             0x0801ae55   Thumb Code     0  __dczerorl2.o(.text)
    __decompress1                            0x0801ae55   Thumb Code    86  __dczerorl2.o(.text)
    __scatterload_copy                       0x0801aeab   Thumb Code    14  handlers.o(i.__scatterload_copy)
    __scatterload_null                       0x0801aeb9   Thumb Code     2  handlers.o(i.__scatterload_null)
    __scatterload_zeroinit                   0x0801aebb   Thumb Code    14  handlers.o(i.__scatterload_zeroinit)
    g_expTime                                0x0801aec8   Data          62  flash.o(.constdata)
    g_hpExpCode                              0x0801af06   Data          44  flash.o(.constdata)
    g_extExpCode                             0x0801af32   Data          56  flash.o(.constdata)
    g_flaExpCode                             0x0801af6a   Data          62  flash.o(.constdata)
    g_colorTemperature                       0x0801afa8   Data          88  flash.o(.constdata)
    sm_Cfn                                   0x0801b000   Data         504  menu.o(.constdata)
    sm_Pfn                                   0x0801b1f8   Data         196  menu.o(.constdata)
    MotoDrv_Forward                          0x0801b2bc   Data           4  moto.o(.constdata)
    MotoDrv_Backward                         0x0801b2c0   Data           4  moto.o(.constdata)
    focLenVal                                0x0801b2c4   Data          11  moto.o(.constdata)
    focLenCoordinate                         0x0801b2d0   Data          22  moto.o(.constdata)
    focLenScape                              0x0801b2e6   Data          10  moto.o(.constdata)
    focLenCode                               0x0801b2f0   Data          10  moto.o(.constdata)
    wl_opArr                                 0x0801b2fc   Data          22  spi.o(.constdata)
    cfnCntMask                               0x0801b312   Data          24  spi.o(.constdata)
    compensation_table                       0x0801b32a   Data          37  spi.o(.constdata)
    compensation_table_5                     0x0801b34f   Data          25  spi.o(.constdata)
    shutterTable                             0x0801b368   Data         336  spi.o(.constdata)
    wlm_abRation_fillwords                   0x0801b4b8   Data          26  spi.o(.constdata)
    CannonApertVal                           0x0801b4d4   Data         152  spi.o(.constdata)
    output_table                             0x0801b56c   Data          22  spi.o(.constdata)
    feb_table                                0x0801b582   Data          10  spi.o(.constdata)
    feb_table_5                              0x0801b58c   Data           7  spi.o(.constdata)
    rfBitmap                                 0x0801b593   Data          38  font.o(.constdata)
    liteBitmap                               0x0801b5b9   Data          38  font.o(.constdata)
    f_menuCmp                                0x0801b5df   Data          20  font.o(.constdata)
    f_menuBack                               0x0801b5f3   Data          22  font.o(.constdata)
    canFontMenu                              0x0801b609   Data         592  font.o(.constdata)
    canFontCmpFeb                            0x0801b859   Data         272  font.o(.constdata)
    font_amoto                               0x0801b969   Data          26  font.o(.constdata)
    font_mmoto                               0x0801b983   Data          26  font.o(.constdata)
    font_zoom                                0x0801b99d   Data          44  font.o(.constdata)
    font_mm                                  0x0801b9c9   Data          12  font.o(.constdata)
    sensor_head                              0x0801b9d5   Data          34  font.o(.constdata)
    sensor_head_1                            0x0801b9f7   Data          34  font.o(.constdata)
    sensor_flaOn                             0x0801ba19   Data          45  font.o(.constdata)
    sensor_flaOn_1                           0x0801ba46   Data          45  font.o(.constdata)
    sensor_up                                0x0801ba73   Data           7  font.o(.constdata)
    hot_warn                                 0x0801ba7a   Data           5  font.o(.constdata)
    sensor_down                              0x0801ba7f   Data           7  font.o(.constdata)
    sensor_mst                               0x0801ba86   Data          10  font.o(.constdata)
    sensor_sla                               0x0801ba90   Data          10  font.o(.constdata)
    canFontPara                              0x0801ba9a   Data         496  font.o(.constdata)
    titleFont                                0x0801bc8a   Data         676  font.o(.constdata)
    picScan_1                                0x0801bf2e   Data          72  font.o(.constdata)
    picScan_2                                0x0801bf76   Data          72  font.o(.constdata)
    picScan_3                                0x0801bfbe   Data          72  font.o(.constdata)
    chAuto                                   0x0801c006   Data          58  font.o(.constdata)
    rationBitmap                             0x0801c040   Data          26  font.o(.constdata)
    offBitmap                                0x0801c05a   Data          16  font.o(.constdata)
    abBitMap                                 0x0801c06a   Data          14  font.o(.constdata)
    a_bcBitMap                               0x0801c078   Data          22  font.o(.constdata)
    a_b_cBitMap                              0x0801c08e   Data          22  font.o(.constdata)
    mstBitMap                                0x0801c0a4   Data          42  font.o(.constdata)
    slvBitMap                                0x0801c0ce   Data          42  font.o(.constdata)
    pfnBitMap                                0x0801c0f8   Data          21  font.o(.constdata)
    cfnBitMap                                0x0801c10d   Data          21  font.o(.constdata)
    ettl_EBitmap                             0x0801c122   Data          18  font.o(.constdata)
    ettl_TBitmap                             0x0801c134   Data          22  font.o(.constdata)
    ettl_LBitmap                             0x0801c14a   Data          18  font.o(.constdata)
    multi_ltBitmap                           0x0801c15c   Data          36  font.o(.constdata)
    ext_xBitmap                              0x0801c180   Data          18  font.o(.constdata)
    ext_tBitmap                              0x0801c192   Data          14  font.o(.constdata)
    ext_dotBitmap                            0x0801c1a0   Data           3  font.o(.constdata)
    Id_Dbitmap                               0x0801c1a3   Data          38  font.o(.constdata)
    font_flaSw                               0x0801c1c9   Data          70  font.o(.constdata)
    ext_aBitmap                              0x0801c20f   Data          34  font.o(.constdata)
    LkDevMark                                0x0801c231   Data          18  font.o(.constdata)
    mBitmap                                  0x0801c243   Data          30  font.o(.constdata)
    iBitmap                                  0x0801c261   Data           6  font.o(.constdata)
    uBitmap                                  0x0801c267   Data          22  font.o(.constdata)
    gBitmap                                  0x0801c27d   Data          24  font.o(.constdata)
    rBitmap                                  0x0801c295   Data          18  font.o(.constdata)
    synRear                                  0x0801c2a7   Data          28  font.o(.constdata)
    synFp                                    0x0801c2c3   Data          28  font.o(.constdata)
    font_cmp                                 0x0801c2df   Data          40  font.o(.constdata)
    font_feb                                 0x0801c307   Data          26  font.o(.constdata)
    scaleFont                                0x0801c321   Data         120  font.o(.constdata)
    scaleNum                                 0x0801c399   Data         200  font.o(.constdata)
    font_cfn0                                0x0801c461   Data          98  font.o(.constdata)
    font_cfn1                                0x0801c4c3   Data          63  font.o(.constdata)
    font_cfn2                                0x0801c502   Data          69  font.o(.constdata)
    font_cfn3                                0x0801c547   Data          48  font.o(.constdata)
    font_cfn6                                0x0801c577   Data          69  font.o(.constdata)
    font_cfn8                                0x0801c5bc   Data          57  font.o(.constdata)
    font_cfn9                                0x0801c5f5   Data          57  font.o(.constdata)
    font_cfn10                               0x0801c62e   Data          66  font.o(.constdata)
    font_cfn11                               0x0801c670   Data         183  font.o(.constdata)
    font_cfn12                               0x0801c727   Data          84  font.o(.constdata)
    font_cfn20                               0x0801c77b   Data          36  font.o(.constdata)
    font_cfn21                               0x0801c79f   Data         327  font.o(.constdata)
    font_cfn22                               0x0801c8e6   Data          57  font.o(.constdata)
    font_cfn23                               0x0801c91f   Data          81  font.o(.constdata)
    pfnFont                                  0x0801c970   Data         660  font.o(.constdata)
    f_cfn                                    0x0801cc04   Data          21  font.o(.constdata)
    f_pfn                                    0x0801cc19   Data          21  font.o(.constdata)
    pfnSubFont                               0x0801cc2e   Data        1920  font.o(.constdata)
    font_pfn1                                0x0801d3ae   Data          48  font.o(.constdata)
    font_pfn2                                0x0801d3de   Data         117  font.o(.constdata)
    font_pfn3                                0x0801d453   Data         117  font.o(.constdata)
    font_pfn4                                0x0801d4c8   Data         117  font.o(.constdata)
    font_pfn5                                0x0801d53d   Data          60  font.o(.constdata)
    font_pfn6                                0x0801d579   Data          63  font.o(.constdata)
    font_ctrSet                              0x0801d5b8   Data          16  font.o(.constdata)
    cfnNum1                                  0x0801d5c8   Data          60  font.o(.constdata)
    font_sLinkShot                           0x0801d604   Data          68  font.o(.constdata)
    font_sAuto                               0x0801d648   Data          25  font.o(.constdata)
    fontIso                                  0x0801d661   Data         144  font.o(.constdata)
    fontIsoIcon                              0x0801d6f1   Data          40  font.o(.constdata)
    fontChSan                                0x0801d719   Data         128  font.o(.constdata)
    fontGood                                 0x0801d799   Data          56  font.o(.constdata)
    picArrow                                 0x0801d7d1   Data           9  font.o(.constdata)
    scanRstScale                             0x0801d7da   Data          50  font.o(.constdata)
    font_locked                              0x0801d80c   Data          84  font.o(.constdata)
    font_clear                               0x0801d860   Data          94  font.o(.constdata)
    font_rgbWarn                             0x0801d8be   Data          84  font.o(.constdata)
    font_motoWarn                            0x0801d912   Data          32  font.o(.constdata)
    font_motoWp                              0x0801d932   Data          44  font.o(.constdata)
    font_motoBlank                           0x0801d95e   Data          22  font.o(.constdata)
    font_speak                               0x0801d974   Data          18  font.o(.constdata)
    font_chdot                               0x0801d986   Data          11  font.o(.constdata)
    font_lowBat                              0x0801d991   Data         140  font.o(.constdata)
    font_window                              0x0801da1d   Data          28  font.o(.constdata)
    font_cfnClr1                             0x0801da39   Data          42  font.o(.constdata)
    font_pfnClr1                             0x0801da63   Data          42  font.o(.constdata)
    font_cfnClr2                             0x0801da8d   Data          42  font.o(.constdata)
    font_wenhao                              0x0801dab7   Data          10  font.o(.constdata)
    font_individualSlave                     0x0801dac1   Data          94  font.o(.constdata)
    m_dotSetLoc                              0x0801db20   Data           7  lcddriver.o(.constdata)
    multi_dotSetLoc                          0x0801db27   Data           7  lcddriver.o(.constdata)
    cmpArr                                   0x0801db2e   Data          76  lcddriver.o(.constdata)
    scaleArr                                 0x0801db7a   Data          24  lcddriver.o(.constdata)
    scaleArrEx                               0x0801db92   Data          24  lcddriver.o(.constdata)
    scopeNum                                 0x0801dbaa   Data          44  lcddriver.o(.constdata)
    scopeNumEx                               0x0801dbd6   Data          44  lcddriver.o(.constdata)
    outputString                             0x0801dc02   Data          62  lcddriver.o(.constdata)
    otpStrIndex                              0x0801dc40   Data          22  lcddriver.o(.constdata)
    cmpString                                0x0801dc56   Data          21  lcddriver.o(.constdata)
    cmpString_5                              0x0801dc6b   Data          21  lcddriver.o(.constdata)
    abRatio                                  0x0801dc80   Data          29  lcddriver.o(.constdata)
    isoValue                                 0x0801dca0   Data         136  lcddriver.o(.constdata)
    scaleStep                                0x0801dd28   Data          44  lcddriver.o(.constdata)
    cmpArr_5                                 0x0801dd54   Data          52  lcddriver.o(.constdata)
    cmpStringEx                              0x0801dd88   Data          21  lcddriver.o(.constdata)
    cmpStringEx_5                            0x0801dd9d   Data          15  lcddriver.o(.constdata)
    m_dotSetLocEx                            0x0801ddac   Data           7  lcddriver.o(.constdata)
    multi_dotSetLocEx                        0x0801ddb3   Data           7  lcddriver.o(.constdata)
    apertValue                               0x0801ddbc   Data         160  lcddriver.o(.constdata)
    OSMapTbl                                 0x0801de5c   Data           8  os_core.o(.constdata)
    OSUnMapTbl                               0x0801de64   Data         256  os_core.o(.constdata)
    Region$$Table$$Base                      0x0801e21c   Number         0  anon$$obj.o(Region$$Table)
    Region$$Table$$Limit                     0x0801e23c   Number         0  anon$$obj.o(Region$$Table)
    hpSetting                                0x20000000   Data           4  flash.o(.data)
    g_slaveTimer                             0x20000004   Data           4  flash.o(.data)
    g_colorTempRt                            0x20000008   Data           4  flash.o(.data)
    g_shadowKey                              0x2000000c   Data           1  keyadc.o(.data)
    g_rfChanSet                              0x20000010   Data           1  keyproc.o(.data)
    g_SettingIndex                           0x20000011   Data           1  keyproc.o(.data)
    g_ArrSel                                 0x20000012   Data           1  keyproc.o(.data)
    g_idSetIndex                             0x20000013   Data           1  keyproc.o(.data)
    g_chargeOk                               0x20000014   Data           1  keyproc.o(.data)
    g_menuId                                 0x20000015   Data           1  keyproc.o(.data)
    g_keyDir                                 0x20000016   Data           1  keyproc.o(.data)
    g_isIndividualSlave                      0x20000017   Data           1  keyproc.o(.data)
    g_chargeflag                             0x20000022   Data           1  keyproc.o(.data)
    g_rfIdSet                                0x20000024   Data           4  keyproc.o(.data)
    gWSleepCounter                           0x20000028   Data           4  keyproc.o(.data)
    pTime                                    0x2000002c   Data           4  keyproc.o(.data)
    pMenuList                                0x20000030   Data           4  keyproc.o(.data)
    canMaxCalc                               0x2000003c   Data          84  keyproc.o(.data)
    g_RgbCheckTurn                           0x20000090   Data           1  keyproc.o(.data)
    g_bzDuration                             0x20000094   Data           4  keyproc.o(.data)
    g_bzCount                                0x20000098   Data           1  keyproc.o(.data)
    uart_tran_flag                           0x20000099   Data           1  keyproc.o(.data)
    g_menuIdRsv                              0x2000009a   Data           1  keyproc.o(.data)
    bkParas                                  0x2000009b   Data           3  keyproc.o(.data)
    g_expTTLPara1                            0x200000a0   Data           1  main.o(.data)
    g_expTTLPara2                            0x200000a1   Data           1  main.o(.data)
    g_cmrLinked                              0x200000a2   Data           1  main.o(.data)
    g_cmrPressed                             0x200000a3   Data           1  main.o(.data)
    g_keyAdcEnable                           0x200000a4   Data           1  main.o(.data)
    g_motoInvalidCounter                     0x200000a5   Data           1  main.o(.data)
    g_isRfModuleLinked                       0x200000a6   Data           1  main.o(.data)
    g_stepLength                             0x200000a7   Data           1  main.o(.data)
    g_isHotProtect                           0x200000a8   Data           1  main.o(.data)
    g_isRgbFilter                            0x200000a9   Data           1  main.o(.data)
    g_upDnSensor                             0x200000aa   Data           1  main.o(.data)
    g_rgbStyle                               0x200000ab   Data           1  main.o(.data)
    g_isFullFrame                            0x200000ac   Data           1  main.o(.data)
    g_comStatue                              0x200000ad   Data           1  main.o(.data)
    radioSet                                 0x200000bc   Data           4  main.o(.data)
    g_decKey                                 0x200000c0   Data           4  main.o(.data)
    g_expAccHotWarnValue                     0x200000c4   Data           4  main.o(.data)
    mstPara                                  0x200000d0   Data           4  main.o(.data)
    g_bkTmr                                  0x200000d4   Data           4  main.o(.data)
    g_bzTmr                                  0x200000d8   Data           4  main.o(.data)
    g_flashTmr                               0x200000dc   Data           4  main.o(.data)
    g_shutterPullTmr                         0x200000e0   Data           4  main.o(.data)
    g_1ShotTmr                               0x200000e4   Data           4  main.o(.data)
    g_slaChanDivTmr                          0x200000e8   Data           4  main.o(.data)
    g_cupIdKey                               0x200000ec   Data          16  main.o(.data)
    g_cupIdRst                               0x200000fc   Data          16  main.o(.data)
    g_grDspStart                             0x2000010c   Data           1  main.o(.data)
    g_grSel                                  0x2000010d   Data           1  main.o(.data)
    g_isReflectPulled                        0x2000010e   Data           1  main.o(.data)
    g_cfnIndex                               0x2000010f   Data           1  menu.o(.data)
    g_cfnStart                               0x20000110   Data           1  menu.o(.data)
    g_pfnIndex                               0x20000111   Data           1  menu.o(.data)
    g_pfnStart                               0x20000112   Data           1  menu.o(.data)
    subCfn0                                  0x20000114   Data          24  menu.o(.data)
    subCfn1                                  0x2000012c   Data          24  menu.o(.data)
    subCfn2                                  0x20000144   Data          24  menu.o(.data)
    subCfn4                                  0x2000015c   Data          24  menu.o(.data)
    subCfn5                                  0x20000174   Data          24  menu.o(.data)
    subCfn6                                  0x2000018c   Data          24  menu.o(.data)
    subCfn7                                  0x200001a4   Data          24  menu.o(.data)
    subCfn10                                 0x200001bc   Data          24  menu.o(.data)
    subCfn11                                 0x200001d4   Data          24  menu.o(.data)
    subCfn12                                 0x200001ec   Data          24  menu.o(.data)
    subCfn13                                 0x20000204   Data          24  menu.o(.data)
    subCfn21                                 0x2000021c   Data          24  menu.o(.data)
    subCfn22                                 0x20000234   Data          24  menu.o(.data)
    subCfn23                                 0x2000024c   Data          24  menu.o(.data)
    subPfn0                                  0x20000264   Data          24  menu.o(.data)
    subPfn1                                  0x2000027c   Data          24  menu.o(.data)
    subPfn4                                  0x20000294   Data          24  menu.o(.data)
    subPfn5                                  0x200002ac   Data          24  menu.o(.data)
    subPfn6                                  0x200002c4   Data          24  menu.o(.data)
    subPfn7                                  0x200002dc   Data          24  menu.o(.data)
    pSnrSet                                  0x200002f4   Data           4  menu.o(.data)
    pfnSet                                   0x200002f8   Data           4  menu.o(.data)
    g_moto_error                             0x200002fc   Data           1  moto.o(.data)
    g_chargeShadow                           0x200002ff   Data           1  moto.o(.data)
    gBUartTotalByte                          0x2000030a   Data           1  usart.o(.data)
    gBUartLen                                0x2000030b   Data           1  usart.o(.data)
    g_rfSlaveFlashCode                       0x2000030c   Data           1  usart.o(.data)
    g_expTTLPara3                            0x2000030d   Data           1  usart.o(.data)
    g_rfSlavePreOn                           0x2000030e   Data           1  usart.o(.data)
    g_isRfSlaveLinked                        0x2000030f   Data           1  usart.o(.data)
    g_slaveReady                             0x20000310   Data           1  usart.o(.data)
    g_spiRcvIndex                            0x20000314   Data           1  spi.o(.data)
    g_spiSendIndex                           0x20000315   Data           1  spi.o(.data)
    g_spiRcvTotal                            0x20000316   Data           1  spi.o(.data)
    g_tmHandleFlag                           0x20000317   Data           1  spi.o(.data)
    g_vCmr                                   0x20000318   Data           1  spi.o(.data)
    g_AfIndex                                0x20000319   Data           1  spi.o(.data)
    g_comStart                               0x2000031a   Data           1  spi.o(.data)
    g_mstPrefla                              0x2000031b   Data           1  spi.o(.data)
    g_isModeling                             0x2000031c   Data           1  spi.o(.data)
    g_getTtlFlashCode                        0x2000031d   Data           1  spi.o(.data)
    ttl_expCodeRsv                           0x2000031e   Data           1  spi.o(.data)
    g_shutterFlag                            0x2000031f   Data           1  spi.o(.data)
    g_menuLock                               0x20000320   Data           1  spi.o(.data)
    g_menuModRsv                             0x20000321   Data           1  spi.o(.data)
    g_motoModRsv                             0x20000322   Data           1  spi.o(.data)
    g_motoDestRsv                            0x20000323   Data           1  spi.o(.data)
    g_cmdModRsv                              0x20000324   Data           1  spi.o(.data)
    g_sckFlash                               0x20000325   Data           1  spi.o(.data)
    abRation_fill1                           0x20000326   Data           1  spi.o(.data)
    abRation_fill2                           0x20000327   Data           1  spi.o(.data)
    g_hpLev                                  0x2000032a   Data           1  spi.o(.data)
    g_cmrCode                                0x2000032b   Data           1  spi.o(.data)
    g_cmrA9Id                                0x2000032c   Data           1  spi.o(.data)
    g_dspUpdateFlag                          0x2000032e   Data           2  spi.o(.data)
    g_cmdMode                                0x20000330   Data           4  spi.o(.data)
    Parameter_Array                          0x20000334   Data          13  spi.o(.data)
    g_chSan                                  0x20000344   Data           1  lcddriver.o(.data)
    g_isChScan                               0x20000345   Data           1  lcddriver.o(.data)
    g_paraSetBufIndex                        0x20000346   Data           1  lcddriver.o(.data)
    mNull                                    0x20000348   Data          20  lcddriver.o(.data)
    cfn                                      0x2000035c   Data          20  lcddriver.o(.data)
    cfnNul                                   0x20000370   Data          20  lcddriver.o(.data)
    mstFlaSw                                 0x20000384   Data          20  lcddriver.o(.data)
    addSub                                   0x20000398   Data          20  lcddriver.o(.data)
    ttlFeb                                   0x200003ac   Data          20  lcddriver.o(.data)
    menu1                                    0x200003c0   Data          20  lcddriver.o(.data)
    menu2                                    0x200003d4   Data          20  lcddriver.o(.data)
    menu3                                    0x200003e8   Data          20  lcddriver.o(.data)
    menu4                                    0x200003fc   Data          20  lcddriver.o(.data)
    mRatio                                   0x20000410   Data          20  lcddriver.o(.data)
    mGr                                      0x20000424   Data          20  lcddriver.o(.data)
    mCh                                      0x20000438   Data          20  lcddriver.o(.data)
    mId                                      0x2000044c   Data          20  lcddriver.o(.data)
    mScan                                    0x20000460   Data          20  lcddriver.o(.data)
    mSync                                    0x20000474   Data          20  lcddriver.o(.data)
    mMemory                                  0x20000488   Data          20  lcddriver.o(.data)
    mMulti                                   0x2000049c   Data          20  lcddriver.o(.data)
    mFrq                                     0x200004b0   Data          20  lcddriver.o(.data)
    mCancel                                  0x200004c4   Data          20  lcddriver.o(.data)
    mOK                                      0x200004d8   Data          20  lcddriver.o(.data)
    mRel                                     0x200004ec   Data          20  lcddriver.o(.data)
    cfnEx                                    0x20000500   Data          20  lcddriver.o(.data)
    mPfn                                     0x20000514   Data          20  lcddriver.o(.data)
    mClear                                   0x20000528   Data          20  lcddriver.o(.data)
    mGrIsOff                                 0x2000053c   Data          20  lcddriver.o(.data)
    mGrResMod                                0x20000550   Data          20  lcddriver.o(.data)
    mGrResPara                               0x20000564   Data          20  lcddriver.o(.data)
    mArrResPara                              0x20000578   Data          20  lcddriver.o(.data)
    mBack                                    0x2000058c   Data          20  lcddriver.o(.data)
    mModel                                   0x200005a0   Data          20  lcddriver.o(.data)
    mTest                                    0x200005b4   Data          20  lcddriver.o(.data)
    mIso                                     0x200005c8   Data          20  lcddriver.o(.data)
    mApert                                   0x200005dc   Data          20  lcddriver.o(.data)
    mSave                                    0x200005f0   Data          20  lcddriver.o(.data)
    mLoad                                    0x20000604   Data          20  lcddriver.o(.data)
    mFbAdj                                   0x20000618   Data          20  lcddriver.o(.data)
    mFbAddSub                                0x2000062c   Data          20  lcddriver.o(.data)
    mRgbChk1                                 0x20000640   Data          20  lcddriver.o(.data)
    mRgbChk2                                 0x20000654   Data          20  lcddriver.o(.data)
    mRgbChk3                                 0x20000668   Data          20  lcddriver.o(.data)
    mRgbChk4                                 0x2000067c   Data          20  lcddriver.o(.data)
    OSCPUUsage                               0x20000690   Data           1  os_core.o(.data)
    OSStatRdy                                0x20000691   Data           1  os_core.o(.data)
    OSIntNesting                             0x20000692   Data           1  os_core.o(.data)
    OSIntExitY                               0x20000693   Data           1  os_core.o(.data)
    OSLockNesting                            0x20000694   Data           1  os_core.o(.data)
    OSPrioCur                                0x20000695   Data           1  os_core.o(.data)
    OSPrioHighRdy                            0x20000696   Data           1  os_core.o(.data)
    OSRdyGrp                                 0x20000697   Data           1  os_core.o(.data)
    OSRunning                                0x20000698   Data           1  os_core.o(.data)
    OSTaskCtr                                0x20000699   Data           1  os_core.o(.data)
    OSRdyTbl                                 0x2000069a   Data           3  os_core.o(.data)
    OSCtxSwCtr                               0x200006a0   Data           4  os_core.o(.data)
    OSEventFreeList                          0x200006a4   Data           4  os_core.o(.data)
    OSIdleCtrMax                             0x200006a8   Data           4  os_core.o(.data)
    OSIdleCtrRun                             0x200006ac   Data           4  os_core.o(.data)
    OSIdleCtr                                0x200006b0   Data           4  os_core.o(.data)
    OSTCBCur                                 0x200006b4   Data           4  os_core.o(.data)
    OSTCBFreeList                            0x200006b8   Data           4  os_core.o(.data)
    OSTCBHighRdy                             0x200006bc   Data           4  os_core.o(.data)
    OSTCBList                                0x200006c0   Data           4  os_core.o(.data)
    OSTime                                   0x200006c4   Data           4  os_core.o(.data)
    OSFlagFreeList                           0x200006c8   Data           4  os_core.o(.data)
    OSMemFreeList                            0x200006cc   Data           4  os_core.o(.data)
    OSQFreeList                              0x200006d0   Data           4  os_core.o(.data)
    OSTmrFree                                0x200006d4   Data           2  os_core.o(.data)
    OSTmrUsed                                0x200006d6   Data           2  os_core.o(.data)
    OSTmrTime                                0x200006d8   Data           4  os_core.o(.data)
    OSTmrSem                                 0x200006dc   Data           4  os_core.o(.data)
    OSTmrSemSignal                           0x200006e0   Data           4  os_core.o(.data)
    OSTmrFreeList                            0x200006e4   Data           4  os_core.o(.data)
    OSInterrputSum                           0x200006e8   Data           4  os_cpu_c.o(.data)
    sBox                                     0x20000700   Data         256  encrypto.o(.data)
    invsBox                                  0x20000800   Data         256  encrypto.o(.data)
    canWireless                              0x20000900   Data          84  flash.o(.bss)
    flaPara                                  0x20000954   Data          56  keyproc.o(.bss)
    motoSet                                  0x2000098c   Data          36  keyproc.o(.bss)
    wlSet                                    0x200009b0   Data          64  keyproc.o(.bss)
    TASK_KEYPROC_STK                         0x200009f0   Data         512  main.o(.bss)
    TASK_START_STK                           0x20000bf0   Data         512  main.o(.bss)
    TASK_LED_STK                             0x20000df0   Data         256  main.o(.bss)
    TASK_CMDSEND_STK                         0x20000ef0   Data         512  main.o(.bss)
    TASK_VOLTAGE_STK                         0x200010f0   Data         256  main.o(.bss)
    TASK_MOTOTICK_STK                        0x200011f0   Data         256  main.o(.bss)
    mainPara                                 0x200012f0   Data         156  main.o(.bss)
    radioStatue                              0x2000138c   Data          32  main.o(.bss)
    wlSlave                                  0x200013ac   Data          20  main.o(.bss)
    g_keyVeriBuf                             0x200013c0   Data          16  main.o(.bss)
    g_keyCpuId                               0x200013d0   Data          16  main.o(.bss)
    gBUartBuf                                0x200013e0   Data         100  usart.o(.bss)
    rcvBuf                                   0x20001444   Data          64  usart.o(.bss)
    g_spiRcvData                             0x20001484   Data         100  spi.o(.bss)
    g_spiSendData                            0x200014e8   Data         100  spi.o(.bss)
    menuPara                                 0x2000154c   Data          23  spi.o(.bss)
    multiSet                                 0x20001564   Data          24  spi.o(.bss)
    STMFLASH_BUF                             0x2000157c   Data        2048  stmflash.o(.bss)
    funcMenu                                 0x20001d7c   Data          84  lcddriver.o(.bss)
    OSEventTbl                               0x20001dd0   Data          24  os_core.o(.bss)
    OSTaskStatStk                            0x20001de8   Data        2048  os_core.o(.bss)
    OSTaskIdleStk                            0x200025e8   Data        2048  os_core.o(.bss)
    OSTCBPrioTbl                             0x20002de8   Data          80  os_core.o(.bss)
    OSTCBTbl                                 0x20002e38   Data         468  os_core.o(.bss)
    OSFlagTbl                                0x2000300c   Data          60  os_core.o(.bss)
    OSMemTbl                                 0x20003048   Data         100  os_core.o(.bss)
    OSQTbl                                   0x200030ac   Data          48  os_core.o(.bss)
    OSTmrTbl                                 0x200030dc   Data         576  os_core.o(.bss)
    OSTmrTaskStk                             0x2000331c   Data         512  os_core.o(.bss)
    OSTmrWheelTbl                            0x2000351c   Data          64  os_core.o(.bss)
    w                                        0x2000355c   Data         176  encrypto.o(.bss)
    __initial_sp                             0x20003810   Data           0  stm32f10x.o(STACK)



==============================================================================

Memory Map of the image

  Image Entry point : 0x080050ed

  Load Region LR_IROM1 (Base: 0x08005000, Size: 0x00019b3c, Max: 0x00020000, ABSOLUTE, COMPRESSED[0x000196b4])

    Execution Region ER_IROM1 (Base: 0x08005000, Size: 0x0001923c, Max: 0x00020000, ABSOLUTE)

    Base Addr    Size         Type   Attr      Idx    E Section Name        Object

    0x08005000   0x000000ec   Data   RO            3    RESET               stm32f10x.o
    0x080050ec   0x00000000   Code   RO         1403  * .ARM.Collect$$$$00000000  mc_w.l(entry.o)
    0x080050ec   0x00000004   Code   RO         1438    .ARM.Collect$$$$00000001  mc_w.l(entry2.o)
    0x080050f0   0x00000004   Code   RO         1441    .ARM.Collect$$$$00000004  mc_w.l(entry5.o)
    0x080050f4   0x00000000   Code   RO         1443    .ARM.Collect$$$$00000008  mc_w.l(entry7b.o)
    0x080050f4   0x00000000   Code   RO         1445    .ARM.Collect$$$$0000000A  mc_w.l(entry8b.o)
    0x080050f4   0x00000008   Code   RO         1446    .ARM.Collect$$$$0000000B  mc_w.l(entry9a.o)
    0x080050fc   0x00000000   Code   RO         1448    .ARM.Collect$$$$0000000D  mc_w.l(entry10a.o)
    0x080050fc   0x00000000   Code   RO         1450    .ARM.Collect$$$$0000000F  mc_w.l(entry11a.o)
    0x080050fc   0x00000004   Code   RO         1439    .ARM.Collect$$$$00002712  mc_w.l(entry2.o)
    0x08005100   0x0000000c   Code   RO          476    .emb_text           sys.o
    0x0800510c   0x0000001c   Code   RO            4    .text               stm32f10x.o
    0x08005128   0x00000964   Code   RO           10    .text               flash.o
    0x08005a8c   0x00000214   Code   RO          210    .text               funclayout.o
    0x08005ca0   0x0000021c   Code   RO          243    .text               keyadc.o
    0x08005ebc   0x00003e7c   Code   RO          260    .text               keyproc.o
    0x08009d38   0x000024f0   Code   RO          318    .text               main.o
    0x0800c228   0x000002bc   Code   RO          359    .text               menu.o
    0x0800c4e4   0x00000490   Code   RO          426    .text               moto.o
    0x0800c974   0x000004f4   Code   RO          448    .text               delay.o
    0x0800ce68   0x00000860   Code   RO          477    .text               sys.o
    0x0800d6c8   0x00000ce0   Code   RO          506    .text               usart.o
    0x0800e3a8   0x00000774   Code   RO          550    .text               led.o
    0x0800eb1c   0x000029a4   Code   RO          581    .text               spi.o
    0x080114c0   0x000002b0   Code   RO          762    .text               timer.o
    0x08011770   0x000001e4   Code   RO          796    .text               stmflash.o
    0x08011954   0x0000599c   Code   RO          824    .text               lcddriver.o
    0x080172f0   0x000004f0   Code   RO          905    .text               os_core.o
    0x080177e0   0x00000474   Code   RO          940    .text               os_flag.o
    0x08017c54   0x00000164   Code   RO          965    .text               os_mem.o
    0x08017db8   0x00000420   Code   RO          989    .text               os_q.o
    0x080181d8   0x00000204   Code   RO         1001    .text               os_sem.o
    0x080183dc   0x00000408   Code   RO         1013    .text               os_task.o
    0x080187e4   0x00000150   Code   RO         1025    .text               os_time.o
    0x08018934   0x000004c8   Code   RO         1037    .text               os_tmr.o
    0x08018dfc   0x000000dc   Code   RO         1060    .text               os_cpu_a.o
    0x08018ed8   0x00000086   Code   RO         1063    .text               os_cpu_c.o
    0x08018f5e   0x00000002   PAD
    0x08018f60   0x000000b0   Code   RO         1095    .text               misc.o
    0x08019010   0x00000330   Code   RO         1107    .text               stm32f10x_adc.o
    0x08019340   0x000000e8   Code   RO         1203    .text               stm32f10x_exti.o
    0x08019428   0x0000047c   Code   RO         1215    .text               stm32f10x_flash.o
    0x080198a4   0x0000026c   Code   RO         1240    .text               stm32f10x_gpio.o
    0x08019b10   0x000000d4   Code   RO         1276    .text               stm32f10x_pwr.o
    0x08019be4   0x000002b4   Code   RO         1288    .text               stm32f10x_rcc.o
    0x08019e98   0x00000274   Code   RO         1327    .text               stm32f10x_spi.o
    0x0801a10c   0x00000328   Code   RO         1352    .text               stm32f10x_usart.o
    0x0801a434   0x00000438   Code   RO         1376    .text               encrypto.o
    0x0801a86c   0x00000024   Code   RO         1406    .text               mc_w.l(memcpya.o)
    0x0801a890   0x00000024   Code   RO         1408    .text               mc_w.l(memseta.o)
    0x0801a8b4   0x0000001a   Code   RO         1410    .text               mc_w.l(memcmp.o)
    0x0801a8ce   0x000000b0   Code   RO         1414    .text               mf_w.l(fadd.o)
    0x0801a97e   0x00000064   Code   RO         1416    .text               mf_w.l(fmul.o)
    0x0801a9e2   0x0000007c   Code   RO         1418    .text               mf_w.l(fdiv.o)
    0x0801aa5e   0x00000018   Code   RO         1420    .text               mf_w.l(fscalb.o)
    0x0801aa76   0x0000014e   Code   RO         1422    .text               mf_w.l(dadd.o)
    0x0801abc4   0x00000012   Code   RO         1424    .text               mf_w.l(fflti.o)
    0x0801abd6   0x0000000a   Code   RO         1426    .text               mf_w.l(ffltui.o)
    0x0801abe0   0x00000028   Code   RO         1428    .text               mf_w.l(ffixui.o)
    0x0801ac08   0x00000026   Code   RO         1430    .text               mf_w.l(f2d.o)
    0x0801ac2e   0x00000002   PAD
    0x0801ac30   0x00000030   Code   RO         1432    .text               mf_w.l(cdcmple.o)
    0x0801ac60   0x00000030   Code   RO         1434    .text               mf_w.l(cdrcmple.o)
    0x0801ac90   0x00000014   Code   RO         1436    .text               mf_w.l(cfcmple.o)
    0x0801aca4   0x0000001e   Code   RO         1452    .text               mc_w.l(llshl.o)
    0x0801acc2   0x00000024   Code   RO         1454    .text               mc_w.l(llsshr.o)
    0x0801ace6   0x00000000   Code   RO         1456    .text               mc_w.l(iusefp.o)
    0x0801ace6   0x0000006e   Code   RO         1457    .text               mf_w.l(fepilogue.o)
    0x0801ad54   0x000000ba   Code   RO         1459    .text               mf_w.l(depilogue.o)
    0x0801ae0e   0x00000002   PAD
    0x0801ae10   0x00000024   Code   RO         1461    .text               mc_w.l(init.o)
    0x0801ae34   0x00000020   Code   RO         1463    .text               mc_w.l(llushr.o)
    0x0801ae54   0x00000056   Code   RO         1473    .text               mc_w.l(__dczerorl2.o)
    0x0801aeaa   0x0000000e   Code   RO         1467    i.__scatterload_copy  mc_w.l(handlers.o)
    0x0801aeb8   0x00000002   Code   RO         1468    i.__scatterload_null  mc_w.l(handlers.o)
    0x0801aeba   0x0000000e   Code   RO         1469    i.__scatterload_zeroinit  mc_w.l(handlers.o)
    0x0801aec8   0x0000006a   Data   RO           12    .constdata          flash.o
    0x0801af32   0x00000038   Data   RO           13    .constdata          flash.o
    0x0801af6a   0x0000003e   Data   RO           14    .constdata          flash.o
    0x0801afa8   0x00000058   Data   RO           15    .constdata          flash.o
    0x0801b000   0x000001f8   Data   RO          360    .constdata          menu.o
    0x0801b1f8   0x000000c4   Data   RO          361    .constdata          menu.o
    0x0801b2bc   0x00000034   Data   RO          427    .constdata          moto.o
    0x0801b2f0   0x0000000a   Data   RO          428    .constdata          moto.o
    0x0801b2fa   0x00000002   PAD
    0x0801b2fc   0x00000270   Data   RO          583    .constdata          spi.o
    0x0801b56c   0x00000016   Data   RO          584    .constdata          spi.o
    0x0801b582   0x0000000a   Data   RO          585    .constdata          spi.o
    0x0801b58c   0x00000007   Data   RO          586    .constdata          spi.o
    0x0801b593   0x00000026   Data   RO          639    .constdata          font.o
    0x0801b5b9   0x00000026   Data   RO          640    .constdata          font.o
    0x0801b5df   0x00000014   Data   RO          641    .constdata          font.o
    0x0801b5f3   0x00000016   Data   RO          642    .constdata          font.o
    0x0801b609   0x00000250   Data   RO          643    .constdata          font.o
    0x0801b859   0x00000110   Data   RO          644    .constdata          font.o
    0x0801b969   0x0000001a   Data   RO          645    .constdata          font.o
    0x0801b983   0x0000001a   Data   RO          646    .constdata          font.o
    0x0801b99d   0x0000002c   Data   RO          647    .constdata          font.o
    0x0801b9c9   0x0000000c   Data   RO          648    .constdata          font.o
    0x0801b9d5   0x00000022   Data   RO          649    .constdata          font.o
    0x0801b9f7   0x00000022   Data   RO          650    .constdata          font.o
    0x0801ba19   0x0000002d   Data   RO          652    .constdata          font.o
    0x0801ba46   0x0000002d   Data   RO          653    .constdata          font.o
    0x0801ba73   0x00000007   Data   RO          654    .constdata          font.o
    0x0801ba7a   0x00000005   Data   RO          655    .constdata          font.o
    0x0801ba7f   0x00000007   Data   RO          656    .constdata          font.o
    0x0801ba86   0x0000000a   Data   RO          658    .constdata          font.o
    0x0801ba90   0x0000000a   Data   RO          659    .constdata          font.o
    0x0801ba9a   0x000001f0   Data   RO          660    .constdata          font.o
    0x0801bc8a   0x000002a4   Data   RO          661    .constdata          font.o
    0x0801bf2e   0x00000048   Data   RO          662    .constdata          font.o
    0x0801bf76   0x00000048   Data   RO          663    .constdata          font.o
    0x0801bfbe   0x00000048   Data   RO          664    .constdata          font.o
    0x0801c006   0x0000003a   Data   RO          665    .constdata          font.o
    0x0801c040   0x0000001a   Data   RO          666    .constdata          font.o
    0x0801c05a   0x00000010   Data   RO          667    .constdata          font.o
    0x0801c06a   0x0000000e   Data   RO          668    .constdata          font.o
    0x0801c078   0x00000016   Data   RO          669    .constdata          font.o
    0x0801c08e   0x00000016   Data   RO          670    .constdata          font.o
    0x0801c0a4   0x0000002a   Data   RO          671    .constdata          font.o
    0x0801c0ce   0x0000002a   Data   RO          672    .constdata          font.o
    0x0801c0f8   0x00000015   Data   RO          673    .constdata          font.o
    0x0801c10d   0x00000015   Data   RO          674    .constdata          font.o
    0x0801c122   0x00000012   Data   RO          675    .constdata          font.o
    0x0801c134   0x00000016   Data   RO          676    .constdata          font.o
    0x0801c14a   0x00000012   Data   RO          677    .constdata          font.o
    0x0801c15c   0x00000024   Data   RO          678    .constdata          font.o
    0x0801c180   0x00000012   Data   RO          679    .constdata          font.o
    0x0801c192   0x0000000e   Data   RO          680    .constdata          font.o
    0x0801c1a0   0x00000003   Data   RO          681    .constdata          font.o
    0x0801c1a3   0x00000026   Data   RO          682    .constdata          font.o
    0x0801c1c9   0x00000046   Data   RO          683    .constdata          font.o
    0x0801c20f   0x00000022   Data   RO          684    .constdata          font.o
    0x0801c231   0x00000012   Data   RO          685    .constdata          font.o
    0x0801c243   0x0000001e   Data   RO          686    .constdata          font.o
    0x0801c261   0x00000006   Data   RO          687    .constdata          font.o
    0x0801c267   0x00000016   Data   RO          688    .constdata          font.o
    0x0801c27d   0x00000018   Data   RO          689    .constdata          font.o
    0x0801c295   0x00000012   Data   RO          690    .constdata          font.o
    0x0801c2a7   0x0000001c   Data   RO          691    .constdata          font.o
    0x0801c2c3   0x0000001c   Data   RO          692    .constdata          font.o
    0x0801c2df   0x00000028   Data   RO          693    .constdata          font.o
    0x0801c307   0x0000001a   Data   RO          694    .constdata          font.o
    0x0801c321   0x00000078   Data   RO          695    .constdata          font.o
    0x0801c399   0x000000c8   Data   RO          696    .constdata          font.o
    0x0801c461   0x00000062   Data   RO          697    .constdata          font.o
    0x0801c4c3   0x0000003f   Data   RO          698    .constdata          font.o
    0x0801c502   0x00000045   Data   RO          699    .constdata          font.o
    0x0801c547   0x00000030   Data   RO          700    .constdata          font.o
    0x0801c577   0x00000045   Data   RO          701    .constdata          font.o
    0x0801c5bc   0x00000039   Data   RO          702    .constdata          font.o
    0x0801c5f5   0x00000039   Data   RO          703    .constdata          font.o
    0x0801c62e   0x00000042   Data   RO          704    .constdata          font.o
    0x0801c670   0x000000b7   Data   RO          705    .constdata          font.o
    0x0801c727   0x00000054   Data   RO          706    .constdata          font.o
    0x0801c77b   0x00000024   Data   RO          707    .constdata          font.o
    0x0801c79f   0x00000147   Data   RO          708    .constdata          font.o
    0x0801c8e6   0x00000039   Data   RO          709    .constdata          font.o
    0x0801c91f   0x00000051   Data   RO          710    .constdata          font.o
    0x0801c970   0x00000294   Data   RO          711    .constdata          font.o
    0x0801cc04   0x00000015   Data   RO          712    .constdata          font.o
    0x0801cc19   0x00000015   Data   RO          713    .constdata          font.o
    0x0801cc2e   0x00000780   Data   RO          714    .constdata          font.o
    0x0801d3ae   0x00000030   Data   RO          715    .constdata          font.o
    0x0801d3de   0x00000075   Data   RO          716    .constdata          font.o
    0x0801d453   0x00000075   Data   RO          717    .constdata          font.o
    0x0801d4c8   0x00000075   Data   RO          718    .constdata          font.o
    0x0801d53d   0x0000003c   Data   RO          719    .constdata          font.o
    0x0801d579   0x0000003f   Data   RO          720    .constdata          font.o
    0x0801d5b8   0x00000010   Data   RO          721    .constdata          font.o
    0x0801d5c8   0x0000003c   Data   RO          722    .constdata          font.o
    0x0801d604   0x00000044   Data   RO          723    .constdata          font.o
    0x0801d648   0x00000019   Data   RO          724    .constdata          font.o
    0x0801d661   0x00000090   Data   RO          725    .constdata          font.o
    0x0801d6f1   0x00000028   Data   RO          726    .constdata          font.o
    0x0801d719   0x00000080   Data   RO          727    .constdata          font.o
    0x0801d799   0x00000038   Data   RO          728    .constdata          font.o
    0x0801d7d1   0x00000009   Data   RO          729    .constdata          font.o
    0x0801d7da   0x00000032   Data   RO          730    .constdata          font.o
    0x0801d80c   0x00000054   Data   RO          731    .constdata          font.o
    0x0801d860   0x0000005e   Data   RO          732    .constdata          font.o
    0x0801d8be   0x00000054   Data   RO          733    .constdata          font.o
    0x0801d912   0x00000020   Data   RO          734    .constdata          font.o
    0x0801d932   0x0000002c   Data   RO          735    .constdata          font.o
    0x0801d95e   0x00000016   Data   RO          736    .constdata          font.o
    0x0801d974   0x00000012   Data   RO          737    .constdata          font.o
    0x0801d986   0x0000000b   Data   RO          738    .constdata          font.o
    0x0801d991   0x0000008c   Data   RO          739    .constdata          font.o
    0x0801da1d   0x0000001c   Data   RO          740    .constdata          font.o
    0x0801da39   0x0000002a   Data   RO          741    .constdata          font.o
    0x0801da63   0x0000002a   Data   RO          742    .constdata          font.o
    0x0801da8d   0x0000002a   Data   RO          743    .constdata          font.o
    0x0801dab7   0x0000000a   Data   RO          744    .constdata          font.o
    0x0801dac1   0x0000005e   Data   RO          745    .constdata          font.o
    0x0801db1f   0x00000001   PAD
    0x0801db20   0x00000234   Data   RO          826    .constdata          lcddriver.o
    0x0801dd54   0x00000034   Data   RO          827    .constdata          lcddriver.o
    0x0801dd88   0x00000015   Data   RO          828    .constdata          lcddriver.o
    0x0801dd9d   0x0000000f   Data   RO          829    .constdata          lcddriver.o
    0x0801ddac   0x00000007   Data   RO          830    .constdata          lcddriver.o
    0x0801ddb3   0x00000007   Data   RO          831    .constdata          lcddriver.o
    0x0801ddba   0x00000002   PAD
    0x0801ddbc   0x000000a0   Data   RO          833    .constdata          lcddriver.o
    0x0801de5c   0x00000108   Data   RO          913    .constdata          os_core.o
    0x0801df64   0x00000011   Data   RO          322    .conststring        main.o
    0x0801df75   0x00000003   PAD
    0x0801df78   0x0000000d   Data   RO          362    .conststring        menu.o
    0x0801df85   0x00000003   PAD
    0x0801df88   0x0000000e   Data   RO          363    .conststring        menu.o
    0x0801df96   0x00000002   PAD
    0x0801df98   0x0000001f   Data   RO          364    .conststring        menu.o
    0x0801dfb7   0x00000001   PAD
    0x0801dfb8   0x00000015   Data   RO          365    .conststring        menu.o
    0x0801dfcd   0x00000003   PAD
    0x0801dfd0   0x0000002d   Data   RO          366    .conststring        menu.o
    0x0801dffd   0x00000003   PAD
    0x0801e000   0x0000000e   Data   RO          367    .conststring        menu.o
    0x0801e00e   0x00000002   PAD
    0x0801e010   0x00000010   Data   RO          368    .conststring        menu.o
    0x0801e020   0x00000015   Data   RO          369    .conststring        menu.o
    0x0801e035   0x00000003   PAD
    0x0801e038   0x0000000e   Data   RO          370    .conststring        menu.o
    0x0801e046   0x00000002   PAD
    0x0801e048   0x0000000f   Data   RO          371    .conststring        menu.o
    0x0801e057   0x00000001   PAD
    0x0801e058   0x0000000f   Data   RO          372    .conststring        menu.o
    0x0801e067   0x00000001   PAD
    0x0801e068   0x00000016   Data   RO          373    .conststring        menu.o
    0x0801e07e   0x00000002   PAD
    0x0801e080   0x00000011   Data   RO          374    .conststring        menu.o
    0x0801e091   0x00000003   PAD
    0x0801e094   0x00000010   Data   RO          375    .conststring        menu.o
    0x0801e0a4   0x00000015   Data   RO          376    .conststring        menu.o
    0x0801e0b9   0x00000003   PAD
    0x0801e0bc   0x00000015   Data   RO          377    .conststring        menu.o
    0x0801e0d1   0x00000003   PAD
    0x0801e0d4   0x00000008   Data   RO          378    .conststring        menu.o
    0x0801e0dc   0x00000023   Data   RO          379    .conststring        menu.o
    0x0801e0ff   0x00000001   PAD
    0x0801e100   0x00000031   Data   RO          381    .conststring        menu.o
    0x0801e131   0x00000003   PAD
    0x0801e134   0x0000000c   Data   RO          382    .conststring        menu.o
    0x0801e140   0x000000d9   Data   RO          834    .conststring        lcddriver.o
    0x0801e219   0x00000003   PAD
    0x0801e21c   0x00000020   Data   RO         1465    Region$$Table       anon$$obj.o


    Execution Region RW_IRAM1 (Base: 0x20000000, Size: 0x00003810, Max: 0x00005000, ABSOLUTE, COMPRESSED[0x00000478])

    Base Addr    Size         Type   Attr      Idx    E Section Name        Object

    0x20000000   0x00000004   Data   RW           16    .data               flash.o
    0x20000004   0x00000004   Data   RW           17    .data               flash.o
    0x20000008   0x00000004   Data   RW           18    .data               flash.o
    0x2000000c   0x00000001   Data   RW          244    .data               keyadc.o
    0x2000000d   0x00000003   PAD
    0x20000010   0x00000080   Data   RW          262    .data               keyproc.o
    0x20000090   0x00000001   Data   RW          264    .data               keyproc.o
    0x20000091   0x00000003   PAD
    0x20000094   0x00000004   Data   RW          265    .data               keyproc.o
    0x20000098   0x00000001   Data   RW          266    .data               keyproc.o
    0x20000099   0x00000001   Data   RW          270    .data               keyproc.o
    0x2000009a   0x00000001   Data   RW          271    .data               keyproc.o
    0x2000009b   0x00000003   Data   RW          275    .data               keyproc.o
    0x2000009e   0x00000002   PAD
    0x200000a0   0x0000006c   Data   RW          323    .data               main.o
    0x2000010c   0x00000001   Data   RW          324    .data               main.o
    0x2000010d   0x00000001   Data   RW          325    .data               main.o
    0x2000010e   0x00000001   Data   RW          327    .data               main.o
    0x2000010f   0x00000001   Data   RW          383    .data               menu.o
    0x20000110   0x00000001   Data   RW          384    .data               menu.o
    0x20000111   0x00000001   Data   RW          385    .data               menu.o
    0x20000112   0x00000001   Data   RW          386    .data               menu.o
    0x20000113   0x00000001   PAD
    0x20000114   0x00000018   Data   RW          387    .data               menu.o
    0x2000012c   0x00000018   Data   RW          388    .data               menu.o
    0x20000144   0x00000018   Data   RW          389    .data               menu.o
    0x2000015c   0x00000018   Data   RW          390    .data               menu.o
    0x20000174   0x00000018   Data   RW          391    .data               menu.o
    0x2000018c   0x00000018   Data   RW          392    .data               menu.o
    0x200001a4   0x00000018   Data   RW          393    .data               menu.o
    0x200001bc   0x00000018   Data   RW          394    .data               menu.o
    0x200001d4   0x00000018   Data   RW          395    .data               menu.o
    0x200001ec   0x00000018   Data   RW          396    .data               menu.o
    0x20000204   0x00000018   Data   RW          397    .data               menu.o
    0x2000021c   0x00000018   Data   RW          398    .data               menu.o
    0x20000234   0x00000018   Data   RW          399    .data               menu.o
    0x2000024c   0x00000018   Data   RW          400    .data               menu.o
    0x20000264   0x00000018   Data   RW          401    .data               menu.o
    0x2000027c   0x00000018   Data   RW          402    .data               menu.o
    0x20000294   0x00000018   Data   RW          403    .data               menu.o
    0x200002ac   0x00000018   Data   RW          404    .data               menu.o
    0x200002c4   0x00000018   Data   RW          405    .data               menu.o
    0x200002dc   0x00000018   Data   RW          406    .data               menu.o
    0x200002f4   0x00000004   Data   RW          407    .data               menu.o
    0x200002f8   0x00000004   Data   RW          408    .data               menu.o
    0x200002fc   0x0000000a   Data   RW          429    .data               moto.o
    0x20000306   0x00000004   Data   RW          449    .data               delay.o
    0x2000030a   0x0000000a   Data   RW          508    .data               usart.o
    0x20000314   0x0000002d   Data   RW          587    .data               spi.o
    0x20000341   0x00000003   PAD
    0x20000344   0x0000034c   Data   RW          839    .data               lcddriver.o
    0x20000690   0x00000038   Data   RW          914    .data               os_core.o
    0x200006c8   0x00000004   Data   RW          915    .data               os_core.o
    0x200006cc   0x00000004   Data   RW          916    .data               os_core.o
    0x200006d0   0x00000004   Data   RW          917    .data               os_core.o
    0x200006d4   0x00000002   Data   RW          918    .data               os_core.o
    0x200006d6   0x00000002   Data   RW          919    .data               os_core.o
    0x200006d8   0x00000004   Data   RW          920    .data               os_core.o
    0x200006dc   0x00000004   Data   RW          921    .data               os_core.o
    0x200006e0   0x00000004   Data   RW          922    .data               os_core.o
    0x200006e4   0x00000004   Data   RW          923    .data               os_core.o
    0x200006e8   0x00000004   Data   RW         1064    .data               os_cpu_c.o
    0x200006ec   0x00000014   Data   RW         1289    .data               stm32f10x_rcc.o
    0x20000700   0x00000200   Data   RW         1378    .data               encrypto.o
    0x20000900   0x00000054   Zero   RW           11    .bss                flash.o
    0x20000954   0x0000009c   Zero   RW          261    .bss                keyproc.o
    0x200009f0   0x000009f0   Zero   RW          319    .bss                main.o
    0x200013e0   0x000000a4   Zero   RW          507    .bss                usart.o
    0x20001484   0x000000f8   Zero   RW          582    .bss                spi.o
    0x2000157c   0x00000800   Zero   RW          797    .bss                stmflash.o
    0x20001d7c   0x00000054   Zero   RW          825    .bss                lcddriver.o
    0x20001dd0   0x0000123c   Zero   RW          906    .bss                os_core.o
    0x2000300c   0x0000003c   Zero   RW          907    .bss                os_core.o
    0x20003048   0x00000064   Zero   RW          908    .bss                os_core.o
    0x200030ac   0x00000030   Zero   RW          909    .bss                os_core.o
    0x200030dc   0x00000240   Zero   RW          910    .bss                os_core.o
    0x2000331c   0x00000200   Zero   RW          911    .bss                os_core.o
    0x2000351c   0x00000040   Zero   RW          912    .bss                os_core.o
    0x2000355c   0x000000b0   Zero   RW         1377    .bss                encrypto.o
    0x2000360c   0x00000004   PAD
    0x20003610   0x00000200   Zero   RW            1    STACK               stm32f10x.o


==============================================================================

Image component sizes


      Code (inc. data)   RO Data    RW Data    ZI Data      Debug   Object Name

      1268         50          0          4          0       4780   delay.o
      1080         30          0        512        176       6043   encrypto.o
      2404        122        312         12         84     294604   flash.o
         0          0       9612          0          0       9223   font.o
       532         56          0          0          0       1884   funclayout.o
       540         40          0          1          0       1711   keyadc.o
     15996       1074          0        139        156      56540   keyproc.o
     22940       1308       1043        844         84      90292   lcddriver.o
      1908        124          0          0          0      10499   led.o
      9456        874         17        111       2544      40445   main.o
       700         24       1120        492          0       5343   menu.o
       176         14          0          0          0       1953   misc.o
      1168         54         62         10          0      15134   moto.o
      1264         34        264         88       6028      13823   os_core.o
       220         40          0          0          0        344   os_cpu_a.o
       134          0          0          4          0       9901   os_cpu_c.o
      1140         24          0          0          0       5732   os_flag.o
       356         10          0          0          0       2594   os_mem.o
      1056         22          0          0          0       4972   os_q.o
       516         12          0          0          0       2890   os_sem.o
      1032         46          0          0          0       4242   os_task.o
       336         22          0          0          0       1822   os_time.o
      1224         72          0          0          0      12615   os_tmr.o
     10660        648        663         45        248      35113   spi.o
        28          4        236          0        512        792   stm32f10x.o
       816         24          0          0          0      11341   stm32f10x_adc.o
       232          8          0          0          0       2455   stm32f10x_exti.o
      1148         22          0          0          0       9360   stm32f10x_flash.o
       620         36          0          0          0       5917   stm32f10x_gpio.o
       212         12          0          0          0       2262   stm32f10x_pwr.o
       692         32          0         20          0       9088   stm32f10x_rcc.o
       628         14          0          0          0       7058   stm32f10x_spi.o
       808         22          0          0          0       8836   stm32f10x_usart.o
       484         16          0          0       2048       4305   stmflash.o
      2156        184          0          0          0       6802   sys.o
       688         74          0          0          0       2153   timer.o
      3296        192          0         10        164      25381   usart.o

    ----------------------------------------------------------------------
     87916       5340      13408       2304      12048     728249   Object Totals
         0          0         32          0          0          0   (incl. Generated)
         2          0         47         12          4          0   (incl. Padding)

    ----------------------------------------------------------------------

      Code (inc. data)   RO Data    RW Data    ZI Data      Debug   Library Member Name

        86          0          0          0          0          0   __dczerorl2.o
         0          0          0          0          0          0   entry.o
         0          0          0          0          0          0   entry10a.o
         0          0          0          0          0          0   entry11a.o
         8          4          0          0          0          0   entry2.o
         4          0          0          0          0          0   entry5.o
         0          0          0          0          0          0   entry7b.o
         0          0          0          0          0          0   entry8b.o
         8          4          0          0          0          0   entry9a.o
        30          0          0          0          0          0   handlers.o
        36          8          0          0          0         68   init.o
         0          0          0          0          0          0   iusefp.o
        30          0          0          0          0         68   llshl.o
        36          0          0          0          0         68   llsshr.o
        32          0          0          0          0         68   llushr.o
        26          0          0          0          0         80   memcmp.o
        36          0          0          0          0         68   memcpya.o
        36          0          0          0          0        108   memseta.o
        48          0          0          0          0         68   cdcmple.o
        48          0          0          0          0         68   cdrcmple.o
        20          0          0          0          0         68   cfcmple.o
       334          0          0          0          0        148   dadd.o
       186          0          0          0          0        176   depilogue.o
        38          0          0          0          0         68   f2d.o
       176          0          0          0          0        140   fadd.o
       124          0          0          0          0         88   fdiv.o
       110          0          0          0          0        168   fepilogue.o
        40          0          0          0          0         68   ffixui.o
        18          0          0          0          0         68   fflti.o
        10          0          0          0          0         68   ffltui.o
       100          0          0          0          0         76   fmul.o
        24          0          0          0          0         68   fscalb.o

    ----------------------------------------------------------------------
      1648         16          0          0          0       1868   Library Totals
         4          0          0          0          0          0   (incl. Padding)

    ----------------------------------------------------------------------

      Code (inc. data)   RO Data    RW Data    ZI Data      Debug   Library Name

       368         16          0          0          0        528   mc_w.l
      1276          0          0          0          0       1340   mf_w.l

    ----------------------------------------------------------------------
      1648         16          0          0          0       1868   Library Totals

    ----------------------------------------------------------------------

==============================================================================


      Code (inc. data)   RO Data    RW Data    ZI Data      Debug   

     89564       5356      13408       2304      12048     723381   Grand Totals
     89564       5356      13408       1144      12048     723381   ELF Image Totals (compressed)
     89564       5356      13408       1144          0          0   ROM Totals

==============================================================================

    Total RO  Size (Code + RO Data)               102972 ( 100.56kB)
    Total RW  Size (RW Data + ZI Data)             14352 (  14.02kB)
    Total ROM Size (Code + RO Data + RW Data)     104116 ( 101.68kB)

==============================================================================

