Component: ARM Compiler 5.06 update 1 (build 61) Tool: armlink [4d35a8]

==============================================================================

Section Cross References

    stm32f10x.o(RESET) refers to stm32f10x.o(STACK) for __initial_sp
    stm32f10x.o(RESET) refers to stm32f10x.o(.text) for Reset_Handler
    stm32f10x.o(RESET) refers to os_cpu_a.o(.text) for PendSV_Handler
    stm32f10x.o(RESET) refers to main.o(.text) for SysTick_Handler
    stm32f10x.o(RESET) refers to keyproc.o(.text) for EXTI1_IRQHandler
    stm32f10x.o(RESET) refers to spi.o(.text) for EXTI2_IRQHandler
    stm32f10x.o(RESET) refers to sys.o(.text) for EXTI3_IRQHandler
    stm32f10x.o(RESET) refers to flash.o(.text) for EXTI4_IRQHandler
    stm32f10x.o(RESET) refers to timer.o(.text) for TIM2_IRQHandler
    stm32f10x.o(.text) refers to entry.o(.ARM.Collect$$$$00000000) for __main
    flash.o(.text) refers to timer.o(.text) for Timer4_Init
    flash.o(.text) refers to memseta.o(.text) for __aeabi_memclr
    flash.o(.text) refers to os_task.o(.text) for OSTaskResume
    flash.o(.text) refers to nikdisplay.o(.text) for GetIsoStdIndex
    flash.o(.text) refers to timer.o(.data) for g_tmHandleFlag
    flash.o(.text) refers to flash.o(.bss) for .bss
    flash.o(.text) refers to flash.o(.data) for .data
    flash.o(.text) refers to main.o(.data) for g_comStatue
    flash.o(.text) refers to main.o(.data) for g_expTTLPara2
    flash.o(.text) refers to main.o(.data) for g_expTTLPara1
    flash.o(.text) refers to spi.o(.bss) for cmrPara
    flash.o(.text) refers to nikdisplay.o(.constdata) for isoValue
    flash.o(.text) refers to spi.o(.data) for g_isFlashWeak
    flash.o(.text) refers to spi.o(.data) for g_FlashWeakLevels
    flash.o(.text) refers to usart.o(.text) for noprintf
    flash.o(.text) refers to moto.o(.text) for SetChargeEnable
    flash.o(.text) refers to delay.o(.text) for delay_us
    flash.o(.text) refers to os_cpu_a.o(.text) for OS_ENTER_CRITICAL
    flash.o(.text) refers to fmul.o(.text) for __aeabi_fmul
    flash.o(.text) refers to ffltui.o(.text) for __aeabi_ui2f
    flash.o(.text) refers to ffixui.o(.text) for __aeabi_f2uiz
    flash.o(.text) refers to fdiv.o(.text) for __aeabi_fdiv
    flash.o(.text) refers to delay.o(.data) for fac_us
    flash.o(.text) refers to flash.o(.constdata) for .constdata
    flash.o(.text) refers to keyproc.o(.data) for g_chargeOk
    flash.o(.text) refers to spi.o(.data) for g_isHotProtect
    flash.o(.text) refers to main.o(.bss) for mainPara
    flash.o(.text) refers to main.o(.data) for flashPara
    flash.o(.text) refers to main.o(.data) for g_GnScale
    flash.o(.text) refers to keyproc.o(.data) for g_rptPilotFlag
    flash.o(.text) refers to nikdisplay.o(.data) for g_dspUpdateFlag
    keyproc.o(.text) refers to timer.o(.text) for StopCapture
    keyproc.o(.text) refers to led.o(.text) for PWM_Init
    keyproc.o(.text) refers to os_tmr.o(.text) for OSTmrReload
    keyproc.o(.text) refers to os_time.o(.text) for OSTimeDlyHMSM
    keyproc.o(.text) refers to sys.o(.text) for Ex_NVIC_Enable
    keyproc.o(.text) refers to moto.o(.text) for SetChargeEnable
    keyproc.o(.text) refers to main.o(.data) for g_isSlaveVoice
    keyproc.o(.text) refers to main.o(.data) for g_bzCount
    keyproc.o(.text) refers to keyproc.o(.data) for .data
    keyproc.o(.text) refers to flash.o(.data) for g_buzzerOn
    keyproc.o(.text) refers to flash.o(.data) for g_slaveBzEn
    keyproc.o(.text) refers to flash.o(.data) for g_slaveBzCnt
    keyproc.o(.text) refers to nikdisplay.o(.data) for g_dspUpdateFlag
    keyproc.o(.text) refers to spi.o(.text) for SetBkLightInfo
    keyproc.o(.text) refers to delay.o(.text) for delay_ms
    keyproc.o(.text) refers to flash.o(.text) for LightSlaveParaClear
    keyproc.o(.text) refers to lcddriver.o(.text) for DspClearAllPara
    keyproc.o(.text) refers to nikdisplay.o(.text) for BuildRfOnlyMenu
    keyproc.o(.text) refers to usart.o(.text) for noprintf
    keyproc.o(.text) refers to spi.o(.data) for g_isHotProtect
    keyproc.o(.text) refers to spi.o(.bss) for cmrPara
    keyproc.o(.text) refers to font.o(.constdata) for pic_mod_rfOnly
    keyproc.o(.text) refers to font.o(.constdata) for pic_mod_afill
    keyproc.o(.text) refers to font.o(.constdata) for pic_mod_Only
    keyproc.o(.text) refers to main.o(.bss) for mainPara
    keyproc.o(.text) refers to menu.o(.constdata) for g_snrPageCnt
    keyproc.o(.text) refers to menu.o(.data) for g_snrPageIndex
    keyproc.o(.text) refers to menu.o(.data) for g_snrStart
    keyproc.o(.text) refers to menu.o(.text) for DspSnrMenu
    keyproc.o(.text) refers to nikdisplay.o(.constdata) for apertValue
    keyproc.o(.text) refers to menu.o(.data) for g_snrMyMenuSelIndex
    keyproc.o(.text) refers to menu.o(.data) for g_snrMyMenuSelStart
    keyproc.o(.text) refers to main.o(.data) for g_GnScale
    keyproc.o(.text) refers to main.o(.data) for g_isReflectPulled
    keyproc.o(.text) refers to moto.o(.constdata) for focLenScape
    keyproc.o(.text) refers to font.o(.constdata) for picBtnLock
    keyproc.o(.text) refers to os_cpu_a.o(.text) for OS_ENTER_CRITICAL
    keyproc.o(.text) refers to main.o(.text) for SavePara
    keyproc.o(.text) refers to stm32f10x_exti.o(.text) for EXTI_GetITStatus
    keyproc.o(.text) refers to moto.o(.data) for g_chargeShadow
    keyproc.o(.text) refers to font.o(.constdata) for picStby
    main.o(.text) refers to stmflash.o(.text) for STMFLASH_Read
    main.o(.text) refers to memseta.o(.text) for __aeabi_memclr4
    main.o(.text) refers to nikdisplay.o(.text) for MultiMaxTimes
    main.o(.text) refers to delay.o(.text) for delay_ms
    main.o(.text) refers to lcddriver.o(.text) for LCD_Clear
    main.o(.text) refers to stm32f10x_pwr.o(.text) for PWR_EnterSTOPMode
    main.o(.text) refers to keyproc.o(.text) for KeyOk
    main.o(.text) refers to spi.o(.text) for VerCodeCal
    main.o(.text) refers to os_time.o(.text) for OSTimeDlyHMSM
    main.o(.text) refers to main.o(.data) for .data
    main.o(.text) refers to keyproc.o(.data) for g_shadowKey
    main.o(.text) refers to menu.o(.data) for g_snrIndex
    main.o(.text) refers to menu.o(.data) for g_snrStart
    main.o(.text) refers to menu.o(.data) for g_snrMyMenuSelStart
    main.o(.text) refers to menu.o(.data) for g_snrMyMenuSelIndex
    main.o(.text) refers to spi.o(.bss) for cmrPara
    main.o(.text) refers to nikdisplay.o(.data) for g_dspCmpMod
    main.o(.text) refers to keyproc.o(.data) for g_mstFlaEnable
    main.o(.text) refers to keyproc.o(.data) for g_mstEnFlag
    main.o(.text) refers to main.o(.bss) for .bss
    main.o(.text) refers to nikdisplay.o(.constdata) for isoValue
    main.o(.text) refers to moto.o(.constdata) for focLenScape
    main.o(.text) refers to spi.o(.data) for g_isHotProtect
    main.o(.text) refers to sys.o(.text) for Stm32_Clock_Init
    main.o(.text) refers to led.o(.text) for PortInit
    main.o(.text) refers to os_task.o(.text) for OSTaskResume
    main.o(.text) refers to moto.o(.text) for MotoReset
    main.o(.text) refers to os_cpu_a.o(.text) for OS_ENTER_CRITICAL
    main.o(.text) refers to flash.o(.data) for g_slaveBzEn
    main.o(.text) refers to flash.o(.data) for g_slaveBzCnt
    main.o(.text) refers to flash.o(.text) for NikRptFlashProc
    main.o(.text) refers to os_tmr.o(.text) for OSTmrCreate
    main.o(.text) refers to timer.o(.text) for Timer4_Init
    main.o(.text) refers to usart.o(.text) for noprintf
    main.o(.text) refers to os_core.o(.text) for OSInit
    main.o(.text) refers to os_core.o(.data) for OSIntNesting
    main.o(.data) refers to main.o(.bss) for mainPara
    menu.o(.text) refers to memseta.o(.text) for __aeabi_memclr
    menu.o(.text) refers to memcpya.o(.text) for __aeabi_memcpy
    menu.o(.text) refers to lcddriver.o(.text) for LcdCopyToRam
    menu.o(.text) refers to stmflash.o(.bss) for STMFLASH_BUF
    menu.o(.text) refers to font.o(.constdata) for picSnrSubMyMenu_sel
    menu.o(.text) refers to font.o(.constdata) for picSnrSubMyMenu_unsel
    menu.o(.text) refers to font.o(.constdata) for picSubModAuto
    menu.o(.text) refers to font.o(.constdata) for picSubModGn
    menu.o(.text) refers to font.o(.constdata) for picSubModManu
    menu.o(.text) refers to font.o(.constdata) for picSubModRpt
    menu.o(.text) refers to font.o(.constdata) for picSubModFunc
    menu.o(.text) refers to menu.o(.data) for .data
    menu.o(.text) refers to keyproc.o(.data) for g_mpIndex
    menu.o(.text) refers to main.o(.data) for pSnrSet
    menu.o(.text) refers to font.o(.constdata) for picMenuShadowLeft_2
    menu.o(.text) refers to font.o(.constdata) for picMenuShadowRight_2
    menu.o(.text) refers to font.o(.constdata) for picMenuShadowLeft_1
    menu.o(.text) refers to font.o(.constdata) for picMenuShadowRight_1
    menu.o(.text) refers to menu.o(.constdata) for .constdata
    menu.o(.text) refers to font.o(.constdata) for picMenuReset0
    menu.o(.text) refers to font.o(.constdata) for picSnrFrame
    menu.o(.text) refers to font.o(.constdata) for picMenuLabel
    menu.o(.text) refers to font.o(.constdata) for picMenuLabel_1
    menu.o(.text) refers to font.o(.constdata) for picMenuLabel_s1
    menu.o(.text) refers to font.o(.constdata) for picMenuLabel_2
    menu.o(.text) refers to font.o(.constdata) for picMenuLabel_s2
    menu.o(.text) refers to font.o(.constdata) for picMenuLabel_3
    menu.o(.text) refers to font.o(.constdata) for picMenuLabel_s3
    menu.o(.text) refers to font.o(.constdata) for picMenuLabel_f1
    menu.o(.text) refers to font.o(.constdata) for picMenuLabel_f2
    menu.o(.text) refers to font.o(.constdata) for picMenuLabel_f3
    menu.o(.text) refers to font.o(.constdata) for fontSnrSubChar
    menu.o(.text) refers to spi.o(.text) for SetSpiComData
    menu.o(.text) refers to keyproc.o(.text) for BkLiteOn
    menu.o(.text) refers to delay.o(.text) for delay_ms
    menu.o(.text) refers to font.o(.constdata) for picSnrSubArrow
    menu.o(.text) refers to font.o(.constdata) for picSnrSubArrowEx
    menu.o(.text) refers to moto.o(.data) for g_flectDestRsv
    menu.o(.text) refers to spi.o(.bss) for motoSet
    menu.o(.text) refers to nikdisplay.o(.data) for g_dspUpdateFlag
    menu.o(.text) refers to nikdisplay.o(.constdata) for isoValue
    menu.o(.text) refers to main.o(.bss) for mainPara
    menu.o(.text) refers to font.o(.constdata) for picReset
    menu.o(.constdata) refers to font.o(.constdata) for picMenuMode
    menu.o(.constdata) refers to menu.o(.data) for snrSubMode
    menu.o(.constdata) refers to font.o(.constdata) for picMenuAuto
    menu.o(.constdata) refers to menu.o(.data) for snrSubApert
    menu.o(.constdata) refers to font.o(.constdata) for picMenuFxDx
    menu.o(.constdata) refers to menu.o(.data) for snrSubFxDx
    menu.o(.constdata) refers to font.o(.constdata) for picMenuAf
    menu.o(.constdata) refers to menu.o(.data) for snrSubAf
    menu.o(.constdata) refers to font.o(.constdata) for picMenuIso
    menu.o(.constdata) refers to menu.o(.data) for snrSubIso
    menu.o(.constdata) refers to font.o(.constdata) for picMenuReset0
    menu.o(.constdata) refers to menu.o(.data) for snrSubReset0
    menu.o(.constdata) refers to font.o(.constdata) for picMenuChan
    menu.o(.constdata) refers to menu.o(.data) for snrSubChan
    menu.o(.constdata) refers to font.o(.constdata) for picMenuLinkMode
    menu.o(.constdata) refers to menu.o(.data) for snrSubLinkMode
    menu.o(.constdata) refers to font.o(.constdata) for picMenuPair
    menu.o(.constdata) refers to menu.o(.data) for snrSubPair
    menu.o(.constdata) refers to font.o(.constdata) for picMenuPin
    menu.o(.constdata) refers to menu.o(.data) for snrSubPin
    menu.o(.constdata) refers to font.o(.constdata) for picMenuName
    menu.o(.constdata) refers to menu.o(.data) for snrSubName
    menu.o(.constdata) refers to font.o(.constdata) for picMenuMft
    menu.o(.constdata) refers to menu.o(.data) for snrSubMft
    menu.o(.constdata) refers to font.o(.constdata) for picMenuVer
    menu.o(.constdata) refers to menu.o(.data) for snrSubVer
    menu.o(.constdata) refers to font.o(.constdata) for picMenuReset1
    menu.o(.constdata) refers to menu.o(.data) for snrSubReset1
    menu.o(.data) refers to menu.o(.text) for SubDspMode
    menu.o(.data) refers to menu.o(.text) for SubDspApert
    menu.o(.data) refers to menu.o(.text) for SubDspFxDx
    menu.o(.data) refers to menu.o(.text) for SubDspAf
    menu.o(.data) refers to menu.o(.text) for SubDspIso
    menu.o(.data) refers to menu.o(.text) for SubDspReset0
    menu.o(.data) refers to menu.o(.text) for SubDspChan
    menu.o(.data) refers to menu.o(.text) for SubDspLinkMode
    menu.o(.data) refers to menu.o(.text) for SubDspPair
    menu.o(.data) refers to menu.o(.text) for SubDspPin
    menu.o(.data) refers to menu.o(.text) for SubDspName
    menu.o(.data) refers to menu.o(.text) for SubDspMft
    menu.o(.data) refers to menu.o(.text) for SubDspVer
    menu.o(.data) refers to menu.o(.text) for SubDspReset1
    moto.o(.text) refers to os_time.o(.text) for OSTimeDlyHMSM
    moto.o(.text) refers to delay.o(.text) for delay_ms
    moto.o(.text) refers to moto.o(.data) for .data
    moto.o(.text) refers to spi.o(.bss) for motoSet
    moto.o(.text) refers to moto.o(.constdata) for .constdata
    moto.o(.text) refers to nikdisplay.o(.data) for g_dspUpdateFlag
    moto.o(.text) refers to main.o(.data) for g_isReflectPulled
    moto.o(.text) refers to os_task.o(.text) for OSTaskSuspend
    nikdisplay.o(.text) refers to memseta.o(.text) for __aeabi_memset
    nikdisplay.o(.text) refers to lcddriver.o(.text) for CalcArrayMask
    nikdisplay.o(.text) refers to memcpya.o(.text) for __aeabi_memcpy
    nikdisplay.o(.text) refers to stmflash.o(.bss) for STMFLASH_BUF
    nikdisplay.o(.text) refers to font.o(.constdata) for pic_mod_ttl
    nikdisplay.o(.text) refers to font.o(.constdata) for pic_mod_gn
    nikdisplay.o(.text) refers to font.o(.constdata) for pic_mod_m
    nikdisplay.o(.text) refers to font.o(.constdata) for pic_mod_rpt
    nikdisplay.o(.text) refers to font.o(.constdata) for picLinkFla
    nikdisplay.o(.text) refers to font.o(.constdata) for picMstIcon
    nikdisplay.o(.text) refers to font.o(.constdata) for fontSu4
    nikdisplay.o(.text) refers to spi.o(.bss) for cmrPara
    nikdisplay.o(.text) refers to font.o(.constdata) for pic_mod_ak
    nikdisplay.o(.text) refers to font.o(.constdata) for pic_mod_a
    nikdisplay.o(.text) refers to font.o(.constdata) for font_apertNum
    nikdisplay.o(.text) refers to font.o(.constdata) for font_mExpApart
    nikdisplay.o(.text) refers to font.o(.constdata) for picCmpSub
    nikdisplay.o(.text) refers to font.o(.constdata) for picCmpAdd
    nikdisplay.o(.text) refers to font.o(.constdata) for font_exp2Num
    nikdisplay.o(.text) refers to font.o(.constdata) for picExp2Dot
    nikdisplay.o(.text) refers to font.o(.constdata) for picBtnFlashWeak
    nikdisplay.o(.text) refers to menu.o(.text) for BufAngleCut
    nikdisplay.o(.text) refers to font.o(.constdata) for picMstEv
    nikdisplay.o(.text) refers to font.o(.constdata) for picEv
    nikdisplay.o(.text) refers to font.o(.constdata) for picIso
    nikdisplay.o(.text) refers to font.o(.constdata) for picIsoAuto
    nikdisplay.o(.text) refers to font.o(.constdata) for font_isoNum
    nikdisplay.o(.text) refers to font.o(.constdata) for picMultiTimes
    nikdisplay.o(.text) refers to font.o(.constdata) for picMultiHz
    nikdisplay.o(.text) refers to font.o(.constdata) for picMstRptTimes
    nikdisplay.o(.text) refers to font.o(.constdata) for picMstRptHz
    nikdisplay.o(.text) refers to ffltui.o(.text) for __aeabi_ui2f
    nikdisplay.o(.text) refers to fdiv.o(.text) for __aeabi_fdiv
    nikdisplay.o(.text) refers to fmul.o(.text) for __aeabi_fmul
    nikdisplay.o(.text) refers to ffixi.o(.text) for __aeabi_f2iz
    nikdisplay.o(.text) refers to font.o(.constdata) for fontScale_ft
    nikdisplay.o(.text) refers to font.o(.constdata) for fontScale_m
    nikdisplay.o(.text) refers to font.o(.constdata) for font_scaleNum
    nikdisplay.o(.text) refers to font.o(.constdata) for fontScaleDot
    nikdisplay.o(.text) refers to main.o(.data) for pSnrSet
    nikdisplay.o(.text) refers to font.o(.constdata) for picScale_ft
    nikdisplay.o(.text) refers to font.o(.constdata) for picScale_m
    nikdisplay.o(.text) refers to font.o(.constdata) for picCurse
    nikdisplay.o(.text) refers to nikdisplay.o(.data) for .data
    nikdisplay.o(.text) refers to nikdisplay.o(.constdata) for .constdata
    nikdisplay.o(.text) refers to cfcmple.o(.text) for __aeabi_cfcmple
    nikdisplay.o(.text) refers to moto.o(.text) for GetMotoStdIndex
    nikdisplay.o(.text) refers to main.o(.bss) for mainPara
    nikdisplay.o(.text) refers to main.o(.data) for g_isReflectPulled
    nikdisplay.o(.text) refers to font.o(.constdata) for picScaleUnder
    nikdisplay.o(.text) refers to font.o(.constdata) for fontScale_div
    nikdisplay.o(.text) refers to font.o(.constdata) for picScaleOver
    nikdisplay.o(.text) refers to spi.o(.data) for g_FlashWeakLevels
    nikdisplay.o(.text) refers to keyproc.o(.data) for g_SettingIndex
    nikdisplay.o(.text) refers to font.o(.constdata) for pic_mod_bl
    nikdisplay.o(.text) refers to font.o(.constdata) for pic_mod_fp
    nikdisplay.o(.text) refers to main.o(.data) for g_GnScale
    nikdisplay.o(.text) refers to font.o(.constdata) for font_gnScaleSmNum
    nikdisplay.o(.text) refers to font.o(.constdata) for picGnSmDot
    nikdisplay.o(.text) refers to font.o(.constdata) for fontGn_Arrow_Left
    nikdisplay.o(.text) refers to font.o(.constdata) for fontGn_Arrow_Right
    nikdisplay.o(.text) refers to font.o(.constdata) for picGnScale_ft
    nikdisplay.o(.text) refers to font.o(.constdata) for picGnScale_m
    nikdisplay.o(.text) refers to font.o(.constdata) for picGnFoc
    nikdisplay.o(.text) refers to font.o(.constdata) for picGnFocMask
    nikdisplay.o(.text) refers to ffixui.o(.text) for __aeabi_f2uiz
    nikdisplay.o(.text) refers to main.o(.data) for flashPara
    nikdisplay.o(.text) refers to font.o(.constdata) for picMultiTmsHz
    nikdisplay.o(.text) refers to font.o(.constdata) for picRmtGrMsk
    nikdisplay.o(.text) refers to font.o(.constdata) for picRmtGr
    nikdisplay.o(.text) refers to font.o(.constdata) for picRmtDot
    nikdisplay.o(.text) refers to font.o(.constdata) for fontRmtGrSel
    nikdisplay.o(.text) refers to font.o(.constdata) for fontRmtGr
    nikdisplay.o(.text) refers to font.o(.constdata) for picRmtLeft
    nikdisplay.o(.text) refers to font.o(.constdata) for picRmtRight
    nikdisplay.o(.text) refers to font.o(.constdata) for picRmtChMsk
    nikdisplay.o(.text) refers to font.o(.constdata) for picRmtCh
    nikdisplay.o(.text) refers to font.o(.constdata) for fontRmtCh
    nikdisplay.o(.text) refers to font.o(.constdata) for picRmtSu4ModOff
    nikdisplay.o(.text) refers to font.o(.constdata) for picRmtSu4ModAuto
    nikdisplay.o(.text) refers to font.o(.constdata) for picRmtIcon
    nikdisplay.o(.text) refers to font.o(.constdata) for picRmtTitle
    nikdisplay.o(.text) refers to font.o(.constdata) for picMstGrm
    nikdisplay.o(.text) refers to font.o(.constdata) for picMstGra
    nikdisplay.o(.text) refers to font.o(.constdata) for picMstGrb
    nikdisplay.o(.text) refers to font.o(.constdata) for picMstGrc
    nikdisplay.o(.text) refers to font.o(.constdata) for picMstFrame
    nikdisplay.o(.text) refers to font.o(.constdata) for picMstModOff
    nikdisplay.o(.text) refers to font.o(.constdata) for picMstModTtl
    nikdisplay.o(.text) refers to font.o(.constdata) for picMstModM
    nikdisplay.o(.text) refers to font.o(.constdata) for picMstModAuto
    nikdisplay.o(.text) refers to font.o(.constdata) for fontMstManuExp
    nikdisplay.o(.text) refers to font.o(.constdata) for picMstExpHead
    nikdisplay.o(.text) refers to font.o(.constdata) for picMstRptOn
    nikdisplay.o(.text) refers to font.o(.constdata) for picMstRptOff
    nikdisplay.o(.text) refers to font.o(.constdata) for picZoomModM
    nikdisplay.o(.text) refers to font.o(.constdata) for picZoomModZoom
    nikdisplay.o(.text) refers to font.o(.constdata) for picZoomMin
    nikdisplay.o(.text) refers to keyproc.o(.text) for GetMotoDest
    nikdisplay.o(.text) refers to font.o(.constdata) for picZoomMax
    nikdisplay.o(.text) refers to font.o(.constdata) for picMm
    nikdisplay.o(.text) refers to font.o(.constdata) for picZoomFixedFrame
    nikdisplay.o(.text) refers to font.o(.constdata) for picApert_F
    nikdisplay.o(.text) refers to moto.o(.constdata) for focLenScape
    nikdisplay.o(.text) refers to menu.o(.data) for g_snrStart
    nikdisplay.o(.text) refers to menu.o(.data) for g_snrIndex
    nikdisplay.o(.text) refers to menu.o(.data) for g_snrMyMenuSelIndex
    nikdisplay.o(.text) refers to nikdisplay.o(.bss) for .bss
    nikdisplay.o(.text) refers to sys.o(.text) for Ex_NVIC_Disable
    nikdisplay.o(.text) refers to stm32f10x_adc.o(.text) for ADC_DeInit
    nikdisplay.o(.text) refers to stm32f10x_spi.o(.text) for SPI_I2S_DeInit
    nikdisplay.o(.text) refers to font.o(.constdata) for fontMstCh
    nikdisplay.o(.text) refers to font.o(.constdata) for picChFrameMask
    nikdisplay.o(.text) refers to font.o(.constdata) for picChFrame
    nikdisplay.o(.text) refers to font.o(.constdata) for picLightBody_fr_reflect
    nikdisplay.o(.text) refers to font.o(.constdata) for picLightBody_fr_parallel
    nikdisplay.o(.text) refers to font.o(.constdata) for picLightBody_up
    nikdisplay.o(.text) refers to font.o(.constdata) for picHeadUp
    nikdisplay.o(.text) refers to font.o(.constdata) for picHeadDn
    nikdisplay.o(.text) refers to font.o(.constdata) for picLightBody_af
    nikdisplay.o(.text) refers to font.o(.constdata) for picLightBody_bk
    nikdisplay.o(.text) refers to font.o(.constdata) for picLightBody_un
    nikdisplay.o(.text) refers to font.o(.constdata) for picTempratureWarn
    nikdisplay.o(.text) refers to font.o(.constdata) for picLinkCls
    nikdisplay.o(.text) refers to font.o(.constdata) for picVoiceOn
    nikdisplay.o(.text) refers to font.o(.constdata) for picVoiceOff
    nikdisplay.o(.text) refers to font.o(.constdata) for picLowBat
    nikdisplay.o(.data) refers to nikdisplay.o(.conststring) for .conststring
    nikdisplay.o(.data) refers to nikdisplay.o(.text) for BtnNullBack
    nikdisplay.o(.data) refers to font.o(.constdata) for picBtnZoom
    nikdisplay.o(.data) refers to font.o(.constdata) for picBtnZoomBack
    nikdisplay.o(.data) refers to font.o(.constdata) for picBtnFlash
    nikdisplay.o(.data) refers to font.o(.constdata) for picSnrSubBack
    nikdisplay.o(.data) refers to font.o(.constdata) for picSnrSubMyMenuSel
    nikdisplay.o(.data) refers to font.o(.constdata) for picBtnFlashMode
    nikdisplay.o(.data) refers to font.o(.constdata) for picBtn_M
    nikdisplay.o(.data) refers to nikdisplay.o(.text) for BtnM
    nikdisplay.o(.data) refers to font.o(.constdata) for picBtnFno
    nikdisplay.o(.data) refers to nikdisplay.o(.text) for BtnFno
    nikdisplay.o(.data) refers to font.o(.constdata) for picBtnModeling
    nikdisplay.o(.data) refers to nikdisplay.o(.text) for BtnPilot
    nikdisplay.o(.data) refers to font.o(.constdata) for picBtnSel
    nikdisplay.o(.data) refers to nikdisplay.o(.text) for BtnSel
    nikdisplay.o(.data) refers to font.o(.constdata) for picBtnMsc
    nikdisplay.o(.data) refers to nikdisplay.o(.text) for BtnMsc
    nikdisplay.o(.data) refers to font.o(.constdata) for picBtnCh
    nikdisplay.o(.data) refers to nikdisplay.o(.text) for BtnCh
    nikdisplay.o(.data) refers to font.o(.constdata) for picBtnCmp
    nikdisplay.o(.data) refers to nikdisplay.o(.text) for BtnCmp
    nikdisplay.o(.data) refers to font.o(.constdata) for picBtnHead
    nikdisplay.o(.data) refers to nikdisplay.o(.text) for BtnHead
    nikdisplay.o(.data) refers to font.o(.constdata) for picBtn_m
    nikdisplay.o(.data) refers to nikdisplay.o(.text) for Btnm
    nikdisplay.o(.data) refers to font.o(.constdata) for picBtn_ft
    nikdisplay.o(.data) refers to nikdisplay.o(.text) for Btnm
    nikdisplay.o(.data) refers to font.o(.constdata) for picBtnTimesHz
    nikdisplay.o(.data) refers to nikdisplay.o(.text) for BtnTimesHz
    nikdisplay.o(.data) refers to font.o(.constdata) for picBtnPgUp
    nikdisplay.o(.data) refers to nikdisplay.o(.text) for BtnPaup
    nikdisplay.o(.data) refers to font.o(.constdata) for picBtnPgDn
    nikdisplay.o(.data) refers to nikdisplay.o(.text) for BtnPaDn
    nikdisplay.o(.data) refers to font.o(.constdata) for picBtnSnrSet_ALL
    nikdisplay.o(.data) refers to nikdisplay.o(.text) for BtnSnrSet
    nikdisplay.o(.data) refers to font.o(.constdata) for picBtnSnrSet_My
    nikdisplay.o(.data) refers to nikdisplay.o(.text) for BtnSnrSet
    nikdisplay.o(.data) refers to font.o(.constdata) for picBtnNext
    nikdisplay.o(.data) refers to nikdisplay.o(.text) for BtnSnrNext
    nikdisplay.o(.data) refers to font.o(.constdata) for picBtnFlashWeak
    nikdisplay.o(.data) refers to nikdisplay.o(.text) for BtnFlashWeakOn
    delay.o(.text) refers to delay.o(.data) for .data
    sys.o(.text) refers to sys.o(.emb_text) for WFI_SET
    sys.o(.text) refers to stm32f10x_rcc.o(.text) for RCC_DeInit
    sys.o(.text) refers to stm32f10x_flash.o(.text) for FLASH_SetLatency
    sys.o(.text) refers to stm32f10x_gpio.o(.text) for GPIO_Init
    sys.o(.text) refers to stm32f10x_exti.o(.text) for EXTI_ClearITPendingBit
    sys.o(.text) refers to misc.o(.text) for NVIC_PriorityGroupConfig
    sys.o(.text) refers to main.o(.text) for KeyAdcDisable
    sys.o(.text) refers to stm32f10x_spi.o(.text) for SPI_I2S_DeInit
    sys.o(.text) refers to stm32f10x_usart.o(.text) for USART_DeInit
    sys.o(.text) refers to delay.o(.text) for delay_ms
    sys.o(.text) refers to stm32f10x_pwr.o(.text) for PWR_EnterSTOPMode
    sys.o(.text) refers to main.o(.data) for g_comStatue
    sys.o(.text) refers to keyproc.o(.data) for g_SettingIndex
    usart.o(.text) refers to ffltui.o(.text) for __aeabi_ui2f
    usart.o(.text) refers to fdiv.o(.text) for __aeabi_fdiv
    usart.o(.text) refers to ffixui.o(.text) for __aeabi_f2uiz
    usart.o(.text) refers to fadd.o(.text) for __aeabi_frsub
    usart.o(.text) refers to fscalb.o(.text) for __ARM_scalbnf
    led.o(.text) refers to sys.o(.text) for Ex_NVIC_Config
    led.o(.text) refers to delay.o(.text) for delay_ms
    led.o(.text) refers to stm32f10x_gpio.o(.text) for GPIO_Init
    key.o(.text) refers to sys.o(.text) for JTAG_Set
    key.o(.text) refers to delay.o(.text) for delay_ms
    key.o(.text) refers to key.o(.data) for .data
    spi.o(.text) refers to sys.o(.text) for MY_NVIC_Init
    spi.o(.text) refers to nikdisplay.o(.text) for CodeSearch
    spi.o(.text) refers to usart.o(.text) for noprintf
    spi.o(.text) refers to moto.o(.text) for GetMotoStdIndex
    spi.o(.text) refers to keyproc.o(.text) for GetMotoDest
    spi.o(.text) refers to spi.o(.data) for .data
    spi.o(.text) refers to spi.o(.bss) for .bss
    spi.o(.text) refers to nikdisplay.o(.data) for g_dspUpdateFlag
    spi.o(.text) refers to spi.o(.constdata) for .constdata
    spi.o(.text) refers to nikdisplay.o(.constdata) for cmrApertVal
    spi.o(.text) refers to moto.o(.constdata) for focLenScape
    spi.o(.text) refers to timer.o(.text) for Timer4_Init
    spi.o(.text) refers to keyproc.o(.data) for g_SettingIndex
    spi.o(.text) refers to main.o(.data) for mstPara
    spi.o(.text) refers to main.o(.bss) for mainPara
    spi.o(.text) refers to timer.o(.data) for g_tmHandleFlag
    spi.o(.text) refers to os_task.o(.text) for OSTaskResume
    spi.o(.text) refers to flash.o(.text) for BuildWlmRptCode
    spi.o(.text) refers to flash.o(.data) for ttl_pre2_flag
    spi.o(.text) refers to keyproc.o(.data) for g_mstEnFlag
    spi.o(.text) refers to keyproc.o(.data) for g_mstFlaEnable
    spi.o(.text) refers to main.o(.data) for g_comAck
    spi.o(.text) refers to delay.o(.text) for delay_us
    spi.o(.text) refers to main.o(.text) for GetBatteryAdc
    spi.o(.text) refers to os_cpu_a.o(.text) for OS_ENTER_CRITICAL
    timer.o(.text) refers to sys.o(.text) for Ex_NVIC_Disable
    timer.o(.text) refers to spi.o(.text) for RstComPara
    timer.o(.text) refers to os_task.o(.text) for OSTaskResume
    timer.o(.text) refers to moto.o(.text) for GetMotoStdIndex
    timer.o(.text) refers to flash.o(.text) for LightSlaveProc
    timer.o(.text) refers to os_time.o(.text) for OSTimeDlyHMSM
    timer.o(.text) refers to timer.o(.data) for .data
    timer.o(.text) refers to main.o(.data) for g_comStatue
    timer.o(.text) refers to spi.o(.bss) for cmrPara
    timer.o(.text) refers to nikdisplay.o(.data) for g_dspCmpMod
    timer.o(.text) refers to moto.o(.constdata) for focLenScape
    lcddriver.o(.text) refers to delay.o(.text) for delay_ms
    lcddriver.o(.text) refers to memseta.o(.text) for __aeabi_memset
    lcddriver.o(.text) refers to memcpya.o(.text) for __aeabi_memcpy
    lcddriver.o(.text) refers to nikdisplay.o(.text) for AreaScroll
    lcddriver.o(.text) refers to stmflash.o(.bss) for STMFLASH_BUF
    lcddriver.o(.text) refers to font.o(.constdata) for font_isoNum
    lcddriver.o(.text) refers to font.o(.constdata) for font_apertNum
    lcddriver.o(.text) refers to font.o(.constdata) for font_scaleNum
    stmflash.o(.text) refers to delay.o(.text) for delay_us
    stmflash.o(.text) refers to stmflash.o(.bss) for .bss
    os_core.o(.text) refers to os_time.o(.text) for OSTimeDly
    os_core.o(.text) refers to os_cpu_a.o(.text) for OS_ENTER_CRITICAL
    os_core.o(.text) refers to os_cpu_c.o(.text) for OSTaskStatHook
    os_core.o(.text) refers to os_flag.o(.text) for OS_FlagInit
    os_core.o(.text) refers to os_mem.o(.text) for OS_MemInit
    os_core.o(.text) refers to os_q.o(.text) for OS_QInit
    os_core.o(.text) refers to os_task.o(.text) for OSTaskCreate
    os_core.o(.text) refers to os_tmr.o(.text) for OSTmr_Init
    os_core.o(.text) refers to os_core.o(.data) for .data
    os_core.o(.text) refers to os_core.o(.bss) for .bss
    os_core.o(.text) refers to os_core.o(.constdata) for .constdata
    os_flag.o(.text) refers to os_cpu_a.o(.text) for OS_ENTER_CRITICAL
    os_flag.o(.text) refers to os_core.o(.text) for OS_Sched
    os_flag.o(.text) refers to os_core.o(.data) for OSIntNesting
    os_flag.o(.text) refers to os_core.o(.data) for OSFlagFreeList
    os_flag.o(.text) refers to os_core.o(.bss) for OSFlagTbl
    os_mbox.o(.text) refers to os_cpu_a.o(.text) for OS_ENTER_CRITICAL
    os_mbox.o(.text) refers to os_core.o(.text) for OS_EventWaitListInit
    os_mbox.o(.text) refers to os_core.o(.data) for OSIntNesting
    os_mem.o(.text) refers to os_cpu_a.o(.text) for OS_ENTER_CRITICAL
    os_mem.o(.text) refers to os_core.o(.data) for OSMemFreeList
    os_mem.o(.text) refers to os_core.o(.bss) for OSMemTbl
    os_mutex.o(.text) refers to os_cpu_a.o(.text) for OS_ENTER_CRITICAL
    os_mutex.o(.text) refers to os_core.o(.text) for OS_EventWaitListInit
    os_mutex.o(.text) refers to os_core.o(.data) for OSIntNesting
    os_mutex.o(.text) refers to os_core.o(.bss) for OSTCBPrioTbl
    os_mutex.o(.text) refers to os_core.o(.constdata) for OSMapTbl
    os_q.o(.text) refers to os_cpu_a.o(.text) for OS_ENTER_CRITICAL
    os_q.o(.text) refers to os_core.o(.text) for OS_EventWaitListInit
    os_q.o(.text) refers to os_core.o(.data) for OSIntNesting
    os_q.o(.text) refers to os_core.o(.data) for OSQFreeList
    os_q.o(.text) refers to os_core.o(.bss) for OSQTbl
    os_sem.o(.text) refers to os_cpu_a.o(.text) for OS_ENTER_CRITICAL
    os_sem.o(.text) refers to os_core.o(.text) for OS_EventWaitListInit
    os_sem.o(.text) refers to os_core.o(.data) for OSIntNesting
    os_task.o(.text) refers to os_cpu_a.o(.text) for OS_ENTER_CRITICAL
    os_task.o(.text) refers to os_core.o(.text) for OS_Sched
    os_task.o(.text) refers to os_cpu_c.o(.text) for OSTaskStkInit
    os_task.o(.text) refers to os_flag.o(.text) for OS_FlagUnlink
    os_task.o(.text) refers to memcpya.o(.text) for __aeabi_memcpy4
    os_task.o(.text) refers to os_core.o(.bss) for OSTCBPrioTbl
    os_task.o(.text) refers to os_core.o(.constdata) for OSMapTbl
    os_task.o(.text) refers to os_core.o(.data) for OSTCBCur
    os_time.o(.text) refers to os_cpu_a.o(.text) for OS_ENTER_CRITICAL
    os_time.o(.text) refers to os_core.o(.text) for OS_Sched
    os_time.o(.text) refers to os_core.o(.data) for OSTCBCur
    os_time.o(.text) refers to os_core.o(.bss) for OSTCBPrioTbl
    os_tmr.o(.text) refers to os_sem.o(.text) for OSSemPost
    os_tmr.o(.text) refers to os_core.o(.text) for OS_MemClr
    os_tmr.o(.text) refers to os_core.o(.data) for OSIntNesting
    os_tmr.o(.text) refers to os_core.o(.data) for OSTmrFreeList
    os_tmr.o(.text) refers to os_core.o(.data) for OSTmrUsed
    os_tmr.o(.text) refers to os_core.o(.data) for OSTmrFree
    os_tmr.o(.text) refers to os_core.o(.bss) for OSTmrWheelTbl
    os_tmr.o(.text) refers to os_core.o(.data) for OSTmrTime
    os_tmr.o(.text) refers to os_core.o(.data) for OSTmrSemSignal
    os_tmr.o(.text) refers to os_core.o(.bss) for OSTmrTbl
    os_tmr.o(.text) refers to os_task.o(.text) for OSTaskCreate
    os_tmr.o(.text) refers to os_core.o(.data) for OSTmrSem
    os_tmr.o(.text) refers to os_core.o(.bss) for OSTmrTaskStk
    os_cpu_a.o(.text) refers to os_cpu_c.o(.data) for OSInterrputSum
    os_cpu_a.o(.text) refers to os_core.o(.data) for OSRunning
    os_cpu_a.o(.text) refers to os_cpu_c.o(.text) for OSTaskSwHook
    stm32f10x_adc.o(.text) refers to stm32f10x_rcc.o(.text) for RCC_APB2PeriphResetCmd
    stm32f10x_bkp.o(.text) refers to stm32f10x_rcc.o(.text) for RCC_BackupResetCmd
    stm32f10x_can.o(.text) refers to stm32f10x_rcc.o(.text) for RCC_APB1PeriphResetCmd
    stm32f10x_cec.o(.text) refers to stm32f10x_rcc.o(.text) for RCC_APB1PeriphResetCmd
    stm32f10x_dac.o(.text) refers to stm32f10x_rcc.o(.text) for RCC_APB1PeriphResetCmd
    stm32f10x_gpio.o(.text) refers to stm32f10x_rcc.o(.text) for RCC_APB2PeriphResetCmd
    stm32f10x_i2c.o(.text) refers to stm32f10x_rcc.o(.text) for RCC_APB1PeriphResetCmd
    stm32f10x_pwr.o(.text) refers to stm32f10x_rcc.o(.text) for RCC_APB1PeriphResetCmd
    stm32f10x_rcc.o(.text) refers to stm32f10x_rcc.o(.data) for .data
    stm32f10x_spi.o(.text) refers to stm32f10x_rcc.o(.text) for RCC_APB2PeriphResetCmd
    stm32f10x_tim.o(.text) refers to stm32f10x_rcc.o(.text) for RCC_APB1PeriphResetCmd
    stm32f10x_usart.o(.text) refers to stm32f10x_rcc.o(.text) for RCC_APB2PeriphResetCmd
    stm32f10x_wwdg.o(.text) refers to stm32f10x_rcc.o(.text) for RCC_APB1PeriphResetCmd
    entry.o(.ARM.Collect$$$$00000000) refers (Special) to entry10a.o(.ARM.Collect$$$$0000000D) for __rt_final_cpp
    entry.o(.ARM.Collect$$$$00000000) refers (Special) to entry11a.o(.ARM.Collect$$$$0000000F) for __rt_final_exit
    entry.o(.ARM.Collect$$$$00000000) refers (Special) to entry7b.o(.ARM.Collect$$$$00000008) for _main_clock
    entry.o(.ARM.Collect$$$$00000000) refers (Special) to entry8b.o(.ARM.Collect$$$$0000000A) for _main_cpp_init
    entry.o(.ARM.Collect$$$$00000000) refers (Special) to entry9a.o(.ARM.Collect$$$$0000000B) for _main_init
    entry.o(.ARM.Collect$$$$00000000) refers (Special) to entry5.o(.ARM.Collect$$$$00000004) for _main_scatterload
    entry.o(.ARM.Collect$$$$00000000) refers (Special) to entry2.o(.ARM.Collect$$$$00000001) for _main_stk
    fadd.o(.text) refers (Special) to iusefp.o(.text) for __I$use$fp
    fadd.o(.text) refers to fepilogue.o(.text) for _float_epilogue
    fmul.o(.text) refers (Special) to iusefp.o(.text) for __I$use$fp
    fdiv.o(.text) refers (Special) to iusefp.o(.text) for __I$use$fp
    fdiv.o(.text) refers to fepilogue.o(.text) for _float_round
    fscalb.o(.text) refers (Special) to iusefp.o(.text) for __I$use$fp
    ffltui.o(.text) refers (Special) to iusefp.o(.text) for __I$use$fp
    ffltui.o(.text) refers to fepilogue.o(.text) for _float_epilogue
    ffixi.o(.text) refers (Special) to iusefp.o(.text) for __I$use$fp
    ffixui.o(.text) refers (Special) to iusefp.o(.text) for __I$use$fp
    cfcmple.o(.text) refers (Special) to iusefp.o(.text) for __I$use$fp
    entry2.o(.ARM.Collect$$$$00000001) refers to entry2.o(.ARM.Collect$$$$00002712) for __lit__00000000
    entry2.o(.ARM.Collect$$$$00002712) refers to stm32f10x.o(STACK) for __initial_sp
    entry2.o(__vectab_stack_and_reset_area) refers to stm32f10x.o(STACK) for __initial_sp
    entry2.o(__vectab_stack_and_reset_area) refers to entry.o(.ARM.Collect$$$$00000000) for __main
    entry5.o(.ARM.Collect$$$$00000004) refers to init.o(.text) for __scatterload
    entry9a.o(.ARM.Collect$$$$0000000B) refers to main.o(.text) for main
    entry9b.o(.ARM.Collect$$$$0000000C) refers to main.o(.text) for main
    init.o(.text) refers to entry5.o(.ARM.Collect$$$$00000004) for __main_after_scatterload


==============================================================================

Removing Unused input sections from the image.

    Removing stm32f10x.o(HEAP), (0 bytes).
    Removing flash.o(.data), (4 bytes).
    Removing main.o(.bss), (34 bytes).
    Removing main.o(.constdata), (10 bytes).
    Removing main.o(.data), (18 bytes).
    Removing main.o(.data), (4 bytes).
    Removing main.o(.data), (4 bytes).
    Removing main.o(.data), (4 bytes).
    Removing main.o(.data), (4 bytes).
    Removing main.o(.data), (4 bytes).
    Removing main.o(.data), (4 bytes).
    Removing nikdisplay.o(.data), (20 bytes).
    Removing nikdisplay.o(.data), (20 bytes).
    Removing nikdisplay.o(.data), (20 bytes).
    Removing nikdisplay.o(.data), (20 bytes).
    Removing nikdisplay.o(.data), (20 bytes).
    Removing nikdisplay.o(.data), (20 bytes).
    Removing nikdisplay.o(.data), (20 bytes).
    Removing nikdisplay.o(.data), (20 bytes).
    Removing nikdisplay.o(.data), (20 bytes).
    Removing nikdisplay.o(.data), (20 bytes).
    Removing nikdisplay.o(.data), (20 bytes).
    Removing nikdisplay.o(.data), (20 bytes).
    Removing nikdisplay.o(.data), (20 bytes).
    Removing nikdisplay.o(.data), (20 bytes).
    Removing nikdisplay.o(.data), (20 bytes).
    Removing nikdisplay.o(.data), (20 bytes).
    Removing nikdisplay.o(.data), (20 bytes).
    Removing usart.o(.data), (4 bytes).
    Removing key.o(.text), (228 bytes).
    Removing key.o(.data), (1 bytes).
    Removing spi.o(.bss), (20 bytes).
    Removing spi.o(.bss), (20 bytes).
    Removing spi.o(.constdata), (46 bytes).
    Removing spi.o(.data), (1 bytes).
    Removing spi.o(.data), (1 bytes).
    Removing spi.o(.data), (1 bytes).
    Removing spi.o(.data), (1 bytes).
    Removing spi.o(.data), (1 bytes).
    Removing spi.o(.data), (1 bytes).
    Removing spi.o(.data), (1 bytes).
    Removing spi.o(.data), (1 bytes).
    Removing font.o(.constdata), (60 bytes).
    Removing font.o(.constdata), (22 bytes).
    Removing font.o(.constdata), (44 bytes).
    Removing font.o(.constdata), (12 bytes).
    Removing font.o(.constdata), (12 bytes).
    Removing font.o(.constdata), (32 bytes).
    Removing font.o(.constdata), (18 bytes).
    Removing font.o(.constdata), (34 bytes).
    Removing font.o(.constdata), (14 bytes).
    Removing font.o(.constdata), (20 bytes).
    Removing font.o(.constdata), (26 bytes).
    Removing font.o(.constdata), (70 bytes).
    Removing font.o(.constdata), (26 bytes).
    Removing font.o(.constdata), (34 bytes).
    Removing font.o(.constdata), (22 bytes).
    Removing font.o(.constdata), (14 bytes).
    Removing font.o(.constdata), (14 bytes).
    Removing font.o(.constdata), (14 bytes).
    Removing font.o(.constdata), (56 bytes).
    Removing font.o(.constdata), (56 bytes).
    Removing font.o(.constdata), (66 bytes).
    Removing font.o(.constdata), (66 bytes).
    Removing font.o(.constdata), (20 bytes).
    Removing font.o(.constdata), (20 bytes).
    Removing font.o(.constdata), (60 bytes).
    Removing font.o(.constdata), (96 bytes).
    Removing font.o(.constdata), (26 bytes).
    Removing font.o(.constdata), (5 bytes).
    Removing font.o(.constdata), (26 bytes).
    Removing font.o(.constdata), (26 bytes).
    Removing font.o(.constdata), (4 bytes).
    Removing font.o(.constdata), (26 bytes).
    Removing font.o(.constdata), (4 bytes).
    Removing font.o(.constdata), (20 bytes).
    Removing font.o(.constdata), (26 bytes).
    Removing font.o(.constdata), (20 bytes).
    Removing font.o(.constdata), (70 bytes).
    Removing font.o(.constdata), (76 bytes).
    Removing font.o(.constdata), (7 bytes).
    Removing font.o(.constdata), (48 bytes).
    Removing font.o(.constdata), (60 bytes).
    Removing font.o(.constdata), (26 bytes).
    Removing font.o(.constdata), (300 bytes).
    Removing font.o(.constdata), (66 bytes).
    Removing font.o(.constdata), (100 bytes).
    Removing font.o(.constdata), (22 bytes).
    Removing font.o(.constdata), (54 bytes).
    Removing font.o(.constdata), (30 bytes).
    Removing font.o(.constdata), (30 bytes).
    Removing font.o(.constdata), (12 bytes).
    Removing font.o(.constdata), (12 bytes).
    Removing font.o(.constdata), (5 bytes).
    Removing font.o(.constdata), (5 bytes).
    Removing font.o(.constdata), (84 bytes).
    Removing font.o(.constdata), (26 bytes).
    Removing font.o(.constdata), (18 bytes).
    Removing font.o(.constdata), (129 bytes).
    Removing font.o(.constdata), (156 bytes).
    Removing font.o(.constdata), (39 bytes).
    Removing font.o(.constdata), (138 bytes).
    Removing font.o(.constdata), (147 bytes).
    Removing os_mbox.o(.text), (620 bytes).
    Removing os_mutex.o(.text), (1016 bytes).
    Removing core_cm3.o(.emb_text), (32 bytes).
    Removing stm32f10x_bkp.o(.text), (152 bytes).
    Removing stm32f10x_can.o(.text), (1800 bytes).
    Removing stm32f10x_cec.o(.text), (248 bytes).
    Removing stm32f10x_crc.o(.text), (64 bytes).
    Removing stm32f10x_dac.o(.text), (252 bytes).
    Removing stm32f10x_dbgmcu.o(.text), (40 bytes).
    Removing stm32f10x_dma.o(.text), (456 bytes).
    Removing stm32f10x_fsmc.o(.text), (1148 bytes).
    Removing stm32f10x_i2c.o(.text), (808 bytes).
    Removing stm32f10x_iwdg.o(.text), (60 bytes).
    Removing stm32f10x_rtc.o(.text), (272 bytes).
    Removing stm32f10x_sdio.o(.text), (428 bytes).
    Removing stm32f10x_tim.o(.text), (2804 bytes).
    Removing stm32f10x_wwdg.o(.text), (124 bytes).

120 unused section(s) (total 13852 bytes) removed from the image.

==============================================================================

Image Symbol Table

    Local Symbols

    Symbol Name                              Value     Ov Type        Size  Object(Section)

    ../clib/../cmprslib/zerorunl2.c          0x00000000   Number         0  __dczerorl2.o ABSOLUTE
    ../clib/microlib/init/entry.s            0x00000000   Number         0  entry11a.o ABSOLUTE
    ../clib/microlib/init/entry.s            0x00000000   Number         0  entry.o ABSOLUTE
    ../clib/microlib/init/entry.s            0x00000000   Number         0  entry10b.o ABSOLUTE
    ../clib/microlib/init/entry.s            0x00000000   Number         0  entry9a.o ABSOLUTE
    ../clib/microlib/init/entry.s            0x00000000   Number         0  entry8a.o ABSOLUTE
    ../clib/microlib/init/entry.s            0x00000000   Number         0  entry10a.o ABSOLUTE
    ../clib/microlib/init/entry.s            0x00000000   Number         0  entry7b.o ABSOLUTE
    ../clib/microlib/init/entry.s            0x00000000   Number         0  entry9b.o ABSOLUTE
    ../clib/microlib/init/entry.s            0x00000000   Number         0  entry7a.o ABSOLUTE
    ../clib/microlib/init/entry.s            0x00000000   Number         0  entry5.o ABSOLUTE
    ../clib/microlib/init/entry.s            0x00000000   Number         0  entry11b.o ABSOLUTE
    ../clib/microlib/init/entry.s            0x00000000   Number         0  entry8b.o ABSOLUTE
    ../clib/microlib/init/entry.s            0x00000000   Number         0  entry2.o ABSOLUTE
    ../clib/microlib/string/memcpy.c         0x00000000   Number         0  memcpya.o ABSOLUTE
    ../clib/microlib/string/memcpy.c         0x00000000   Number         0  memcpyb.o ABSOLUTE
    ../clib/microlib/string/memset.c         0x00000000   Number         0  memseta.o ABSOLUTE
    ../clib/microlib/stubs.s                 0x00000000   Number         0  iusefp.o ABSOLUTE
    ../clib/microlib/stubs.s                 0x00000000   Number         0  useno.o ABSOLUTE
    ../fplib/microlib/fpadd.c                0x00000000   Number         0  fadd.o ABSOLUTE
    ../fplib/microlib/fpdiv.c                0x00000000   Number         0  fdiv.o ABSOLUTE
    ../fplib/microlib/fpepilogue.c           0x00000000   Number         0  fepilogue.o ABSOLUTE
    ../fplib/microlib/fpfix.c                0x00000000   Number         0  ffixui.o ABSOLUTE
    ../fplib/microlib/fpfix.c                0x00000000   Number         0  ffixi.o ABSOLUTE
    ../fplib/microlib/fpflt.c                0x00000000   Number         0  ffltui.o ABSOLUTE
    ../fplib/microlib/fpmul.c                0x00000000   Number         0  fmul.o ABSOLUTE
    ../fplib/microlib/fpscalb.c              0x00000000   Number         0  fscalb.o ABSOLUTE
    ..\APP\KeyProc.c                         0x00000000   Number         0  keyproc.o ABSOLUTE
    ..\APP\NikDisplay.c                      0x00000000   Number         0  nikdisplay.o ABSOLUTE
    ..\APP\STM32F10x.s                       0x00000000   Number         0  stm32f10x.o ABSOLUTE
    ..\APP\flash.c                           0x00000000   Number         0  flash.o ABSOLUTE
    ..\APP\main.c                            0x00000000   Number         0  main.o ABSOLUTE
    ..\APP\menu.c                            0x00000000   Number         0  menu.o ABSOLUTE
    ..\APP\moto.c                            0x00000000   Number         0  moto.o ABSOLUTE
    ..\HARDWARE\KEY\key.c                    0x00000000   Number         0  key.o ABSOLUTE
    ..\HARDWARE\LCD\Font.c                   0x00000000   Number         0  font.o ABSOLUTE
    ..\HARDWARE\LCD\LcdDriver.c              0x00000000   Number         0  lcddriver.o ABSOLUTE
    ..\HARDWARE\LED\led.c                    0x00000000   Number         0  led.o ABSOLUTE
    ..\HARDWARE\SPI\spi.c                    0x00000000   Number         0  spi.o ABSOLUTE
    ..\HARDWARE\STMFLASH\stmflash.c          0x00000000   Number         0  stmflash.o ABSOLUTE
    ..\HARDWARE\TIMER\timer.c                0x00000000   Number         0  timer.o ABSOLUTE
    ..\Libraries\CMSIS\CM3\CoreSupport\core_cm3.c 0x00000000   Number         0  core_cm3.o ABSOLUTE
    ..\Libraries\STM32F10x_StdPeriph_Driver\src\misc.c 0x00000000   Number         0  misc.o ABSOLUTE
    ..\Libraries\STM32F10x_StdPeriph_Driver\src\stm32f10x_adc.c 0x00000000   Number         0  stm32f10x_adc.o ABSOLUTE
    ..\Libraries\STM32F10x_StdPeriph_Driver\src\stm32f10x_bkp.c 0x00000000   Number         0  stm32f10x_bkp.o ABSOLUTE
    ..\Libraries\STM32F10x_StdPeriph_Driver\src\stm32f10x_can.c 0x00000000   Number         0  stm32f10x_can.o ABSOLUTE
    ..\Libraries\STM32F10x_StdPeriph_Driver\src\stm32f10x_cec.c 0x00000000   Number         0  stm32f10x_cec.o ABSOLUTE
    ..\Libraries\STM32F10x_StdPeriph_Driver\src\stm32f10x_crc.c 0x00000000   Number         0  stm32f10x_crc.o ABSOLUTE
    ..\Libraries\STM32F10x_StdPeriph_Driver\src\stm32f10x_dac.c 0x00000000   Number         0  stm32f10x_dac.o ABSOLUTE
    ..\Libraries\STM32F10x_StdPeriph_Driver\src\stm32f10x_dbgmcu.c 0x00000000   Number         0  stm32f10x_dbgmcu.o ABSOLUTE
    ..\Libraries\STM32F10x_StdPeriph_Driver\src\stm32f10x_dma.c 0x00000000   Number         0  stm32f10x_dma.o ABSOLUTE
    ..\Libraries\STM32F10x_StdPeriph_Driver\src\stm32f10x_exti.c 0x00000000   Number         0  stm32f10x_exti.o ABSOLUTE
    ..\Libraries\STM32F10x_StdPeriph_Driver\src\stm32f10x_flash.c 0x00000000   Number         0  stm32f10x_flash.o ABSOLUTE
    ..\Libraries\STM32F10x_StdPeriph_Driver\src\stm32f10x_fsmc.c 0x00000000   Number         0  stm32f10x_fsmc.o ABSOLUTE
    ..\Libraries\STM32F10x_StdPeriph_Driver\src\stm32f10x_gpio.c 0x00000000   Number         0  stm32f10x_gpio.o ABSOLUTE
    ..\Libraries\STM32F10x_StdPeriph_Driver\src\stm32f10x_i2c.c 0x00000000   Number         0  stm32f10x_i2c.o ABSOLUTE
    ..\Libraries\STM32F10x_StdPeriph_Driver\src\stm32f10x_iwdg.c 0x00000000   Number         0  stm32f10x_iwdg.o ABSOLUTE
    ..\Libraries\STM32F10x_StdPeriph_Driver\src\stm32f10x_pwr.c 0x00000000   Number         0  stm32f10x_pwr.o ABSOLUTE
    ..\Libraries\STM32F10x_StdPeriph_Driver\src\stm32f10x_rcc.c 0x00000000   Number         0  stm32f10x_rcc.o ABSOLUTE
    ..\Libraries\STM32F10x_StdPeriph_Driver\src\stm32f10x_rtc.c 0x00000000   Number         0  stm32f10x_rtc.o ABSOLUTE
    ..\Libraries\STM32F10x_StdPeriph_Driver\src\stm32f10x_sdio.c 0x00000000   Number         0  stm32f10x_sdio.o ABSOLUTE
    ..\Libraries\STM32F10x_StdPeriph_Driver\src\stm32f10x_spi.c 0x00000000   Number         0  stm32f10x_spi.o ABSOLUTE
    ..\Libraries\STM32F10x_StdPeriph_Driver\src\stm32f10x_tim.c 0x00000000   Number         0  stm32f10x_tim.o ABSOLUTE
    ..\Libraries\STM32F10x_StdPeriph_Driver\src\stm32f10x_usart.c 0x00000000   Number         0  stm32f10x_usart.o ABSOLUTE
    ..\Libraries\STM32F10x_StdPeriph_Driver\src\stm32f10x_wwdg.c 0x00000000   Number         0  stm32f10x_wwdg.o ABSOLUTE
    ..\SYSTEM\delay\delay.c                  0x00000000   Number         0  delay.o ABSOLUTE
    ..\SYSTEM\sys\sys.c                      0x00000000   Number         0  sys.o ABSOLUTE
    ..\SYSTEM\usart\usart.c                  0x00000000   Number         0  usart.o ABSOLUTE
    ..\UCOSII\CORE\OS_CORE.C                 0x00000000   Number         0  os_core.o ABSOLUTE
    ..\UCOSII\CORE\OS_FLAG.C                 0x00000000   Number         0  os_flag.o ABSOLUTE
    ..\UCOSII\CORE\OS_MBOX.C                 0x00000000   Number         0  os_mbox.o ABSOLUTE
    ..\UCOSII\CORE\OS_MEM.C                  0x00000000   Number         0  os_mem.o ABSOLUTE
    ..\UCOSII\CORE\OS_MUTEX.C                0x00000000   Number         0  os_mutex.o ABSOLUTE
    ..\UCOSII\CORE\OS_Q.C                    0x00000000   Number         0  os_q.o ABSOLUTE
    ..\UCOSII\CORE\OS_SEM.C                  0x00000000   Number         0  os_sem.o ABSOLUTE
    ..\UCOSII\CORE\OS_TASK.C                 0x00000000   Number         0  os_task.o ABSOLUTE
    ..\UCOSII\CORE\OS_TIME.C                 0x00000000   Number         0  os_time.o ABSOLUTE
    ..\UCOSII\CORE\os_tmr.c                  0x00000000   Number         0  os_tmr.o ABSOLUTE
    ..\UCOSII\PORT\os_cpu_a.asm              0x00000000   Number         0  os_cpu_a.o ABSOLUTE
    ..\UCOSII\PORT\os_cpu_c.c                0x00000000   Number         0  os_cpu_c.o ABSOLUTE
    ..\\Libraries\\CMSIS\\CM3\\CoreSupport\\core_cm3.c 0x00000000   Number         0  core_cm3.o ABSOLUTE
    ..\\SYSTEM\\sys\\sys.c                   0x00000000   Number         0  sys.o ABSOLUTE
    cfcmple.s                                0x00000000   Number         0  cfcmple.o ABSOLUTE
    dc.s                                     0x00000000   Number         0  dc.o ABSOLUTE
    handlers.s                               0x00000000   Number         0  handlers.o ABSOLUTE
    init.s                                   0x00000000   Number         0  init.o ABSOLUTE
    RESET                                    0x08005000   Section      236  stm32f10x.o(RESET)
    .ARM.Collect$$$$00000000                 0x080050ec   Section        0  entry.o(.ARM.Collect$$$$00000000)
    .ARM.Collect$$$$00000001                 0x080050ec   Section        4  entry2.o(.ARM.Collect$$$$00000001)
    .ARM.Collect$$$$00000004                 0x080050f0   Section        4  entry5.o(.ARM.Collect$$$$00000004)
    .ARM.Collect$$$$00000008                 0x080050f4   Section        0  entry7b.o(.ARM.Collect$$$$00000008)
    .ARM.Collect$$$$0000000A                 0x080050f4   Section        0  entry8b.o(.ARM.Collect$$$$0000000A)
    .ARM.Collect$$$$0000000B                 0x080050f4   Section        8  entry9a.o(.ARM.Collect$$$$0000000B)
    .ARM.Collect$$$$0000000D                 0x080050fc   Section        0  entry10a.o(.ARM.Collect$$$$0000000D)
    .ARM.Collect$$$$0000000F                 0x080050fc   Section        0  entry11a.o(.ARM.Collect$$$$0000000F)
    .ARM.Collect$$$$00002712                 0x080050fc   Section        4  entry2.o(.ARM.Collect$$$$00002712)
    __lit__00000000                          0x080050fc   Data           4  entry2.o(.ARM.Collect$$$$00002712)
    .emb_text                                0x08005100   Section        2  sys.o(.emb_text)
    .text                                    0x08005104   Section       28  stm32f10x.o(.text)
    .text                                    0x08005120   Section        0  flash.o(.text)
    .text                                    0x08006dc8   Section        0  keyproc.o(.text)
    .text                                    0x0800835c   Section        0  main.o(.text)
    .text                                    0x08008de8   Section        0  menu.o(.text)
    .text                                    0x0800a0a4   Section        0  moto.o(.text)
    .text                                    0x0800a58c   Section        0  nikdisplay.o(.text)
    .text                                    0x0800e494   Section        0  delay.o(.text)
    .text                                    0x0800e53c   Section        0  sys.o(.text)
    .text                                    0x0800ead4   Section        0  usart.o(.text)
    .text                                    0x0800eb88   Section        0  led.o(.text)
    .text                                    0x0800efd0   Section        0  spi.o(.text)
    .text                                    0x08010438   Section        0  timer.o(.text)
    .text                                    0x08010740   Section        0  lcddriver.o(.text)
    .text                                    0x08010c5c   Section        0  stmflash.o(.text)
    .text                                    0x08010e54   Section        0  os_core.o(.text)
    .text                                    0x08011344   Section        0  os_flag.o(.text)
    OS_FlagTaskRdy                           0x08011453   Thumb Code    64  os_flag.o(.text)
    OS_FlagBlock                             0x08011537   Thumb Code    76  os_flag.o(.text)
    .text                                    0x080117b8   Section        0  os_mem.o(.text)
    .text                                    0x0801191c   Section        0  os_q.o(.text)
    .text                                    0x08011d3c   Section        0  os_sem.o(.text)
    .text                                    0x08011f40   Section        0  os_task.o(.text)
    .text                                    0x08012348   Section        0  os_time.o(.text)
    .text                                    0x08012498   Section        0  os_tmr.o(.text)
    OSTmr_Free                               0x08012531   Thumb Code    46  os_tmr.o(.text)
    OSTmr_Unlink                             0x0801255f   Thumb Code    58  os_tmr.o(.text)
    OSTmr_Link                               0x080126d3   Thumb Code    66  os_tmr.o(.text)
    OSTmr_Task                               0x0801281f   Thumb Code   106  os_tmr.o(.text)
    OSTmr_Unlock                             0x08012923   Thumb Code     8  os_tmr.o(.text)
    OSTmr_Lock                               0x0801292b   Thumb Code    16  os_tmr.o(.text)
    .text                                    0x08012960   Section        0  os_cpu_c.o(.text)
    .text                                    0x080129e8   Section      220  os_cpu_a.o(.text)
    .text                                    0x08012ac4   Section        0  misc.o(.text)
    .text                                    0x08012b74   Section        0  stm32f10x_adc.o(.text)
    .text                                    0x08012ea4   Section        0  stm32f10x_exti.o(.text)
    .text                                    0x08012f8c   Section        0  stm32f10x_flash.o(.text)
    .text                                    0x08013408   Section        0  stm32f10x_gpio.o(.text)
    .text                                    0x08013674   Section        0  stm32f10x_pwr.o(.text)
    .text                                    0x08013748   Section        0  stm32f10x_rcc.o(.text)
    .text                                    0x080139fc   Section        0  stm32f10x_spi.o(.text)
    .text                                    0x08013c70   Section        0  stm32f10x_usart.o(.text)
    .text                                    0x08013f98   Section        0  memcpya.o(.text)
    .text                                    0x08013fbc   Section        0  memseta.o(.text)
    .text                                    0x08013fe0   Section        0  fadd.o(.text)
    .text                                    0x08014090   Section        0  fmul.o(.text)
    .text                                    0x080140f4   Section        0  fdiv.o(.text)
    .text                                    0x08014170   Section        0  fscalb.o(.text)
    .text                                    0x08014188   Section        0  ffltui.o(.text)
    .text                                    0x08014192   Section        0  ffixi.o(.text)
    .text                                    0x080141c4   Section        0  ffixui.o(.text)
    .text                                    0x080141ec   Section       20  cfcmple.o(.text)
    .text                                    0x08014200   Section        0  fepilogue.o(.text)
    .text                                    0x08014200   Section        0  iusefp.o(.text)
    .text                                    0x08014270   Section       36  init.o(.text)
    .text                                    0x08014294   Section        0  __dczerorl2.o(.text)
    i.__scatterload_copy                     0x080142ea   Section       14  handlers.o(i.__scatterload_copy)
    i.__scatterload_null                     0x080142f8   Section        2  handlers.o(i.__scatterload_null)
    i.__scatterload_zeroinit                 0x080142fa   Section       14  handlers.o(i.__scatterload_zeroinit)
    .constdata                               0x08014308   Section      224  flash.o(.constdata)
    .constdata                               0x080143e8   Section        3  menu.o(.constdata)
    .constdata                               0x080143ec   Section      224  menu.o(.constdata)
    .constdata                               0x080144cc   Section       48  moto.o(.constdata)
    .constdata                               0x080144fc   Section     1184  nikdisplay.o(.constdata)
    .constdata                               0x0801499c   Section       88  nikdisplay.o(.constdata)
    .constdata                               0x080149f4   Section      659  spi.o(.constdata)
    .constdata                               0x08014c87   Section       34  font.o(.constdata)
    .constdata                               0x08014ca9   Section       50  font.o(.constdata)
    .constdata                               0x08014cdb   Section       62  font.o(.constdata)
    .constdata                               0x08014d19   Section       38  font.o(.constdata)
    .constdata                               0x08014d3f   Section       68  font.o(.constdata)
    .constdata                               0x08014d83   Section       44  font.o(.constdata)
    .constdata                               0x08014daf   Section       46  font.o(.constdata)
    .constdata                               0x08014ddd   Section       56  font.o(.constdata)
    .constdata                               0x08014e15   Section       80  font.o(.constdata)
    .constdata                               0x08014e65   Section      128  font.o(.constdata)
    .constdata                               0x08014ee5   Section       60  font.o(.constdata)
    .constdata                               0x08014f21   Section      100  font.o(.constdata)
    .constdata                               0x08014f85   Section      160  font.o(.constdata)
    .constdata                               0x08015025   Section       14  font.o(.constdata)
    .constdata                               0x08015033   Section      200  font.o(.constdata)
    .constdata                               0x080150fb   Section      120  font.o(.constdata)
    .constdata                               0x08015173   Section      120  font.o(.constdata)
    .constdata                               0x080151eb   Section        4  font.o(.constdata)
    .constdata                               0x080151ef   Section        4  font.o(.constdata)
    .constdata                               0x080151f3   Section       22  font.o(.constdata)
    .constdata                               0x08015209   Section       34  font.o(.constdata)
    .constdata                               0x0801522b   Section       56  font.o(.constdata)
    .constdata                               0x08015263   Section      144  font.o(.constdata)
    .constdata                               0x080152f3   Section       10  font.o(.constdata)
    .constdata                               0x080152fd   Section       10  font.o(.constdata)
    .constdata                               0x08015307   Section       14  font.o(.constdata)
    .constdata                               0x08015315   Section       18  font.o(.constdata)
    .constdata                               0x08015327   Section       40  font.o(.constdata)
    .constdata                               0x0801534f   Section       16  font.o(.constdata)
    .constdata                               0x0801535f   Section       40  font.o(.constdata)
    .constdata                               0x08015387   Section        6  font.o(.constdata)
    .constdata                               0x0801538d   Section       16  font.o(.constdata)
    .constdata                               0x0801539d   Section       30  font.o(.constdata)
    .constdata                               0x080153bb   Section       42  font.o(.constdata)
    .constdata                               0x080153e5   Section      216  font.o(.constdata)
    .constdata                               0x080154bd   Section      216  font.o(.constdata)
    .constdata                               0x08015595   Section      224  font.o(.constdata)
    .constdata                               0x08015675   Section      226  font.o(.constdata)
    .constdata                               0x08015757   Section       22  font.o(.constdata)
    .constdata                               0x0801576d   Section        9  font.o(.constdata)
    .constdata                               0x08015776   Section       11  font.o(.constdata)
    .constdata                               0x08015781   Section        6  font.o(.constdata)
    .constdata                               0x08015787   Section        6  font.o(.constdata)
    .constdata                               0x0801578d   Section       14  font.o(.constdata)
    .constdata                               0x0801579b   Section       50  font.o(.constdata)
    .constdata                               0x080157cd   Section       52  font.o(.constdata)
    .constdata                               0x08015801   Section       26  font.o(.constdata)
    .constdata                               0x0801581b   Section       14  font.o(.constdata)
    .constdata                               0x08015829   Section      100  font.o(.constdata)
    .constdata                               0x0801588d   Section       14  font.o(.constdata)
    .constdata                               0x0801589b   Section        6  font.o(.constdata)
    .constdata                               0x080158a1   Section       20  font.o(.constdata)
    .constdata                               0x080158b5   Section       26  font.o(.constdata)
    .constdata                               0x080158cf   Section        8  font.o(.constdata)
    .constdata                               0x080158d7   Section        6  font.o(.constdata)
    .constdata                               0x080158dd   Section        6  font.o(.constdata)
    .constdata                               0x080158e3   Section       22  font.o(.constdata)
    .constdata                               0x080158f9   Section       44  font.o(.constdata)
    .constdata                               0x08015925   Section        8  font.o(.constdata)
    .constdata                               0x0801592d   Section        8  font.o(.constdata)
    .constdata                               0x08015935   Section       39  font.o(.constdata)
    .constdata                               0x0801595c   Section       26  font.o(.constdata)
    .constdata                               0x08015976   Section       26  font.o(.constdata)
    .constdata                               0x08015990   Section     1352  font.o(.constdata)
    .constdata                               0x08015ed8   Section       32  font.o(.constdata)
    .constdata                               0x08015ef8   Section       32  font.o(.constdata)
    .constdata                               0x08015f18   Section      132  font.o(.constdata)
    .constdata                               0x08015f9c   Section       30  font.o(.constdata)
    .constdata                               0x08015fba   Section       30  font.o(.constdata)
    .constdata                               0x08015fd8   Section       30  font.o(.constdata)
    .constdata                               0x08015ff6   Section       30  font.o(.constdata)
    .constdata                               0x08016014   Section        4  font.o(.constdata)
    .constdata                               0x08016018   Section        6  font.o(.constdata)
    .constdata                               0x0801601e   Section        6  font.o(.constdata)
    .constdata                               0x08016024   Section       30  font.o(.constdata)
    .constdata                               0x08016042   Section       54  font.o(.constdata)
    .constdata                               0x08016078   Section       40  font.o(.constdata)
    .constdata                               0x080160a0   Section       22  font.o(.constdata)
    .constdata                               0x080160b6   Section       22  font.o(.constdata)
    .constdata                               0x080160cc   Section       22  font.o(.constdata)
    .constdata                               0x080160e2   Section       22  font.o(.constdata)
    .constdata                               0x080160f8   Section       22  font.o(.constdata)
    .constdata                               0x0801610e   Section       22  font.o(.constdata)
    .constdata                               0x08016124   Section       54  font.o(.constdata)
    .constdata                               0x0801615a   Section       18  font.o(.constdata)
    .constdata                               0x0801616c   Section       38  font.o(.constdata)
    .constdata                               0x08016192   Section       22  font.o(.constdata)
    .constdata                               0x080161a8   Section       18  font.o(.constdata)
    .constdata                               0x080161ba   Section      160  font.o(.constdata)
    .constdata                               0x0801625a   Section       66  font.o(.constdata)
    .constdata                               0x0801629c   Section       88  font.o(.constdata)
    .constdata                               0x080162f4   Section       72  font.o(.constdata)
    .constdata                               0x0801633c   Section       56  font.o(.constdata)
    .constdata                               0x08016374   Section       56  font.o(.constdata)
    .constdata                               0x080163ac   Section       48  font.o(.constdata)
    .constdata                               0x080163dc   Section       42  font.o(.constdata)
    .constdata                               0x08016406   Section       20  font.o(.constdata)
    .constdata                               0x0801641a   Section       11  font.o(.constdata)
    .constdata                               0x08016425   Section        4  font.o(.constdata)
    .constdata                               0x08016429   Section       16  font.o(.constdata)
    .constdata                               0x08016439   Section       28  font.o(.constdata)
    .constdata                               0x08016455   Section       60  font.o(.constdata)
    .constdata                               0x08016491   Section       32  font.o(.constdata)
    .constdata                               0x080164b1   Section       26  font.o(.constdata)
    .constdata                               0x080164cb   Section       14  font.o(.constdata)
    .constdata                               0x080164d9   Section       14  font.o(.constdata)
    .constdata                               0x080164e7   Section      132  font.o(.constdata)
    .constdata                               0x0801656b   Section       45  font.o(.constdata)
    .constdata                               0x08016598   Section       30  font.o(.constdata)
    .constdata                               0x080165b6   Section       16  font.o(.constdata)
    .constdata                               0x080165c6   Section       16  font.o(.constdata)
    .constdata                               0x080165d6   Section      372  font.o(.constdata)
    .constdata                               0x0801674a   Section       44  font.o(.constdata)
    .constdata                               0x08016776   Section       18  font.o(.constdata)
    .constdata                               0x08016788   Section      135  font.o(.constdata)
    .constdata                               0x0801680f   Section       26  font.o(.constdata)
    .constdata                               0x08016829   Section       26  font.o(.constdata)
    .constdata                               0x08016843   Section       26  font.o(.constdata)
    .constdata                               0x0801685d   Section        9  font.o(.constdata)
    .constdata                               0x08016866   Section        9  font.o(.constdata)
    .constdata                               0x0801686f   Section        9  font.o(.constdata)
    .constdata                               0x08016878   Section      135  font.o(.constdata)
    .constdata                               0x080168ff   Section      135  font.o(.constdata)
    .constdata                               0x08016986   Section      135  font.o(.constdata)
    .constdata                               0x08016a0d   Section      129  font.o(.constdata)
    .constdata                               0x08016a8e   Section       45  font.o(.constdata)
    .constdata                               0x08016abb   Section      105  font.o(.constdata)
    .constdata                               0x08016b24   Section      141  font.o(.constdata)
    .constdata                               0x08016bb1   Section       60  font.o(.constdata)
    .constdata                               0x08016bed   Section      141  font.o(.constdata)
    .constdata                               0x08016c7a   Section      144  font.o(.constdata)
    .constdata                               0x08016d0a   Section      150  font.o(.constdata)
    .constdata                               0x08016da0   Section       84  font.o(.constdata)
    .constdata                               0x08016df4   Section       60  font.o(.constdata)
    .constdata                               0x08016e30   Section       81  font.o(.constdata)
    .constdata                               0x08016e81   Section       93  font.o(.constdata)
    .constdata                               0x08016ede   Section       78  font.o(.constdata)
    .constdata                               0x08016f2c   Section      144  font.o(.constdata)
    .constdata                               0x08016fbc   Section       12  font.o(.constdata)
    .constdata                               0x08016fc8   Section       12  font.o(.constdata)
    .constdata                               0x08016fd4   Section       12  font.o(.constdata)
    .constdata                               0x08016fe0   Section       12  font.o(.constdata)
    .constdata                               0x08016fec   Section       70  font.o(.constdata)
    .constdata                               0x08017032   Section       38  font.o(.constdata)
    .constdata                               0x08017058   Section       54  font.o(.constdata)
    .constdata                               0x0801708e   Section       64  font.o(.constdata)
    .constdata                               0x080170ce   Section       90  font.o(.constdata)
    .constdata                               0x08017128   Section      264  os_core.o(.constdata)
    .conststring                             0x08017230   Section        1  nikdisplay.o(.conststring)
    .data                                    0x20000000   Section        8  flash.o(.data)
    .data                                    0x20000008   Section        1  flash.o(.data)
    .data                                    0x20000009   Section        1  flash.o(.data)
    .data                                    0x2000000c   Section       48  keyproc.o(.data)
    s_keyLock                                0x20000014   Data           1  keyproc.o(.data)
    pilotEn                                  0x20000015   Data           1  keyproc.o(.data)
    short_once                               0x20000016   Data           1  keyproc.o(.data)
    long_once                                0x20000017   Data           1  keyproc.o(.data)
    keyIndexRsv                              0x20000018   Data           1  keyproc.o(.data)
    ckTimes                                  0x20000019   Data           1  keyproc.o(.data)
    lowbatCnt                                0x2000001a   Data           1  keyproc.o(.data)
    du                                       0x2000001c   Data           2  keyproc.o(.data)
    ts                                       0x2000001e   Data           2  keyproc.o(.data)
    keytimedata                              0x20000034   Data           4  keyproc.o(.data)
    adSum                                    0x20000038   Data           4  keyproc.o(.data)
    .data                                    0x2000003c   Section        1  keyproc.o(.data)
    .data                                    0x2000003d   Section        1  keyproc.o(.data)
    .data                                    0x2000003e   Section        1  keyproc.o(.data)
    .data                                    0x2000003f   Section        1  main.o(.data)
    .data                                    0x20000040   Section       52  main.o(.data)
    upSensor                                 0x20000045   Data           1  main.o(.data)
    dnSensor                                 0x20000046   Data           1  main.o(.data)
    togTmr                                   0x20000047   Data           1  main.o(.data)
    togflag                                  0x20000048   Data           1  main.o(.data)
    cnt                                      0x20000049   Data           1  main.o(.data)
    tempWarn                                 0x2000004a   Data           1  main.o(.data)
    exitCnt                                  0x2000004b   Data           1  main.o(.data)
    tempAdSum                                0x20000060   Data           4  main.o(.data)
    .data                                    0x20000074   Section        1  main.o(.data)
    .data                                    0x20000075   Section        1  main.o(.data)
    .data                                    0x20000076   Section        1  main.o(.data)
    .data                                    0x20000077   Section       34  main.o(.data)
    .data                                    0x20000099   Section        1  main.o(.data)
    .data                                    0x2000009c   Section        8  main.o(.data)
    .data                                    0x200000a4   Section        8  menu.o(.data)
    .data                                    0x200000ac   Section        1  menu.o(.data)
    .data                                    0x200000ad   Section        1  menu.o(.data)
    .data                                    0x200000ae   Section        1  menu.o(.data)
    .data                                    0x200000b0   Section       12  menu.o(.data)
    .data                                    0x200000bc   Section       12  menu.o(.data)
    .data                                    0x200000c8   Section       12  menu.o(.data)
    .data                                    0x200000d4   Section       12  menu.o(.data)
    .data                                    0x200000e0   Section       12  menu.o(.data)
    .data                                    0x200000ec   Section       12  menu.o(.data)
    .data                                    0x200000f8   Section       12  menu.o(.data)
    .data                                    0x20000104   Section       12  menu.o(.data)
    .data                                    0x20000110   Section       12  menu.o(.data)
    .data                                    0x2000011c   Section       12  menu.o(.data)
    .data                                    0x20000128   Section       12  menu.o(.data)
    .data                                    0x20000134   Section       12  menu.o(.data)
    .data                                    0x20000140   Section       12  menu.o(.data)
    .data                                    0x2000014c   Section       12  menu.o(.data)
    .data                                    0x20000158   Section       10  moto.o(.data)
    s_chargeCon                              0x20000159   Data           1  moto.o(.data)
    s_chargeLock                             0x2000015a   Data           1  moto.o(.data)
    ref_flag                                 0x2000015c   Data           1  moto.o(.data)
    mModRsv                                  0x2000015d   Data           1  moto.o(.data)
    i                                        0x2000015e   Data           1  moto.o(.data)
    .data                                    0x20000164   Section      308  nikdisplay.o(.data)
    .data                                    0x20000298   Section        4  delay.o(.data)
    .data                                    0x2000029c   Section      114  spi.o(.data)
    .data                                    0x2000030e   Section        1  spi.o(.data)
    .data                                    0x2000030f   Section        1  spi.o(.data)
    .data                                    0x20000310   Section        1  timer.o(.data)
    .data                                    0x20000314   Section       56  os_core.o(.data)
    .data                                    0x2000034c   Section        4  os_core.o(.data)
    .data                                    0x20000350   Section        4  os_core.o(.data)
    .data                                    0x20000354   Section        4  os_core.o(.data)
    .data                                    0x20000358   Section        2  os_core.o(.data)
    .data                                    0x2000035a   Section        2  os_core.o(.data)
    .data                                    0x2000035c   Section        4  os_core.o(.data)
    .data                                    0x20000360   Section        4  os_core.o(.data)
    .data                                    0x20000364   Section        4  os_core.o(.data)
    .data                                    0x20000368   Section        4  os_core.o(.data)
    .data                                    0x2000036c   Section        4  os_cpu_c.o(.data)
    .data                                    0x20000370   Section       20  stm32f10x_rcc.o(.data)
    ADCPrescTable                            0x20000370   Data           4  stm32f10x_rcc.o(.data)
    APBAHBPrescTable                         0x20000374   Data          16  stm32f10x_rcc.o(.data)
    .bss                                     0x20000384   Section       92  flash.o(.bss)
    .bss                                     0x200003e0   Section     2448  main.o(.bss)
    .bss                                     0x20000d70   Section       84  nikdisplay.o(.bss)
    .bss                                     0x20000dc4   Section      184  spi.o(.bss)
    .bss                                     0x20000e7c   Section     2400  stmflash.o(.bss)
    .bss                                     0x200017dc   Section     4668  os_core.o(.bss)
    .bss                                     0x20002a18   Section       60  os_core.o(.bss)
    .bss                                     0x20002a54   Section      100  os_core.o(.bss)
    .bss                                     0x20002ab8   Section       48  os_core.o(.bss)
    .bss                                     0x20002ae8   Section      576  os_core.o(.bss)
    .bss                                     0x20002d28   Section      512  os_core.o(.bss)
    .bss                                     0x20002f28   Section       64  os_core.o(.bss)
    STACK                                    0x20002f68   Section      512  stm32f10x.o(STACK)

    Global Symbols

    Symbol Name                              Value     Ov Type        Size  Object(Section)

    BuildAttributes$$THM_ISAv4$P$D$K$B$S$PE$A:L22UL41UL21$X:L11$S22US41US21$IEEE1$IW$USESV6$~STKCKD$USESV7$~SHL$OTIME$ROPI$EBA8$MICROLIB$REQ8$PRES8$EABIv2 0x00000000   Number         0  anon$$obj.o ABSOLUTE
    __ARM_use_no_argv                        0x00000000   Number         0  main.o ABSOLUTE
    __use_no_errno                           0x00000000   Number         0  useno.o ABSOLUTE
    __use_no_exception_handling              0x00000000   Number         0  useno.o ABSOLUTE
    __use_no_fp                              0x00000000   Number         0  useno.o ABSOLUTE
    __use_no_heap                            0x00000000   Number         0  useno.o ABSOLUTE
    __use_no_heap_region                     0x00000000   Number         0  useno.o ABSOLUTE
    __use_no_semihosting                     0x00000000   Number         0  useno.o ABSOLUTE
    __use_no_semihosting_swi                 0x00000000   Number         0  useno.o ABSOLUTE
    __use_no_signal_handling                 0x00000000   Number         0  useno.o ABSOLUTE
    __cpp_initialize__aeabi_                  - Undefined Weak Reference
    __cxa_finalize                            - Undefined Weak Reference
    _clock_init                               - Undefined Weak Reference
    _microlib_exit                            - Undefined Weak Reference
    __Vectors                                0x08005000   Data           4  stm32f10x.o(RESET)
    __main                                   0x080050ed   Thumb Code     0  entry.o(.ARM.Collect$$$$00000000)
    _main_stk                                0x080050ed   Thumb Code     0  entry2.o(.ARM.Collect$$$$00000001)
    _main_scatterload                        0x080050f1   Thumb Code     0  entry5.o(.ARM.Collect$$$$00000004)
    __main_after_scatterload                 0x080050f5   Thumb Code     0  entry5.o(.ARM.Collect$$$$00000004)
    _main_clock                              0x080050f5   Thumb Code     0  entry7b.o(.ARM.Collect$$$$00000008)
    _main_cpp_init                           0x080050f5   Thumb Code     0  entry8b.o(.ARM.Collect$$$$0000000A)
    _main_init                               0x080050f5   Thumb Code     0  entry9a.o(.ARM.Collect$$$$0000000B)
    __rt_final_cpp                           0x080050fd   Thumb Code     0  entry10a.o(.ARM.Collect$$$$0000000D)
    __rt_final_exit                          0x080050fd   Thumb Code     0  entry11a.o(.ARM.Collect$$$$0000000F)
    WFI_SET                                  0x08005101   Thumb Code     2  sys.o(.emb_text)
    Reset_Handler                            0x08005105   Thumb Code     4  stm32f10x.o(.text)
    NMI_Handler                              0x08005109   Thumb Code     2  stm32f10x.o(.text)
    HardFault_Handler                        0x0800510b   Thumb Code     2  stm32f10x.o(.text)
    MemManage_Handler                        0x0800510d   Thumb Code     2  stm32f10x.o(.text)
    BusFault_Handler                         0x0800510f   Thumb Code     2  stm32f10x.o(.text)
    UsageFault_Handler                       0x08005111   Thumb Code     2  stm32f10x.o(.text)
    SVC_Handler                              0x08005113   Thumb Code     2  stm32f10x.o(.text)
    DebugMon_Handler                         0x08005115   Thumb Code     2  stm32f10x.o(.text)
    ADC_IRQHandler                           0x0800511b   Thumb Code     0  stm32f10x.o(.text)
    CAN_RX1_IRQHandler                       0x0800511b   Thumb Code     0  stm32f10x.o(.text)
    CAN_SCE_IRQHandler                       0x0800511b   Thumb Code     0  stm32f10x.o(.text)
    DMAChannel1_IRQHandler                   0x0800511b   Thumb Code     0  stm32f10x.o(.text)
    DMAChannel2_IRQHandler                   0x0800511b   Thumb Code     0  stm32f10x.o(.text)
    DMAChannel3_IRQHandler                   0x0800511b   Thumb Code     0  stm32f10x.o(.text)
    DMAChannel4_IRQHandler                   0x0800511b   Thumb Code     0  stm32f10x.o(.text)
    DMAChannel5_IRQHandler                   0x0800511b   Thumb Code     0  stm32f10x.o(.text)
    DMAChannel6_IRQHandler                   0x0800511b   Thumb Code     0  stm32f10x.o(.text)
    DMAChannel7_IRQHandler                   0x0800511b   Thumb Code     0  stm32f10x.o(.text)
    EXTI0_IRQHandler                         0x0800511b   Thumb Code     0  stm32f10x.o(.text)
    FLASH_IRQHandler                         0x0800511b   Thumb Code     0  stm32f10x.o(.text)
    I2C1_ER_IRQHandler                       0x0800511b   Thumb Code     0  stm32f10x.o(.text)
    I2C1_EV_IRQHandler                       0x0800511b   Thumb Code     0  stm32f10x.o(.text)
    I2C2_ER_IRQHandler                       0x0800511b   Thumb Code     0  stm32f10x.o(.text)
    I2C2_EV_IRQHandler                       0x0800511b   Thumb Code     0  stm32f10x.o(.text)
    PVD_IRQHandler                           0x0800511b   Thumb Code     0  stm32f10x.o(.text)
    RCC_IRQHandler                           0x0800511b   Thumb Code     0  stm32f10x.o(.text)
    RTCAlarm_IRQHandler                      0x0800511b   Thumb Code     0  stm32f10x.o(.text)
    RTC_IRQHandler                           0x0800511b   Thumb Code     0  stm32f10x.o(.text)
    SPI2_IRQHandler                          0x0800511b   Thumb Code     0  stm32f10x.o(.text)
    TAMPER_IRQHandler                        0x0800511b   Thumb Code     0  stm32f10x.o(.text)
    TIM1_BRK_IRQHandler                      0x0800511b   Thumb Code     0  stm32f10x.o(.text)
    TIM1_CC_IRQHandler                       0x0800511b   Thumb Code     0  stm32f10x.o(.text)
    TIM1_TRG_COM_IRQHandler                  0x0800511b   Thumb Code     0  stm32f10x.o(.text)
    TIM1_UP_IRQHandler                       0x0800511b   Thumb Code     0  stm32f10x.o(.text)
    USART1_IRQHandler                        0x0800511b   Thumb Code     0  stm32f10x.o(.text)
    USART2_IRQHandler                        0x0800511b   Thumb Code     0  stm32f10x.o(.text)
    USART3_IRQHandler                        0x0800511b   Thumb Code     0  stm32f10x.o(.text)
    USBWakeUp_IRQHandler                     0x0800511b   Thumb Code     0  stm32f10x.o(.text)
    USB_HP_CAN_TX_IRQHandler                 0x0800511b   Thumb Code     0  stm32f10x.o(.text)
    USB_LP_CAN_RX0_IRQHandler                0x0800511b   Thumb Code     0  stm32f10x.o(.text)
    WWDG_IRQHandler                          0x0800511b   Thumb Code     0  stm32f10x.o(.text)
    SlaveSetPre2Timer                        0x08005121   Thumb Code    24  flash.o(.text)
    LightSlaveParaClear                      0x08005139   Thumb Code    66  flash.o(.text)
    SlaveStopPre2Timer                       0x0800517b   Thumb Code    22  flash.o(.text)
    LightSlaveProc                           0x08005191   Thumb Code   328  flash.o(.text)
    WLS_ExposeTimeCal                        0x080052d9   Thumb Code   100  flash.o(.text)
    ExposeTimeCal                            0x0800533d   Thumb Code   286  flash.o(.text)
    Nik_AutoShotSet                          0x0800545b   Thumb Code    26  flash.o(.text)
    SlaveModeConvert                         0x08005475   Thumb Code    32  flash.o(.text)
    SlaveFlashParaSet                        0x08005495   Thumb Code   190  flash.o(.text)
    SlaveGetFlashCode                        0x08005553   Thumb Code    62  flash.o(.text)
    SlaveFlashProc                           0x08005591   Thumb Code     2  flash.o(.text)
    SlaveRcvStateRst                         0x08005593   Thumb Code    30  flash.o(.text)
    ParseCmdStart                            0x080055b1   Thumb Code    72  flash.o(.text)
    ParseCmdPreFlash                         0x080055f9   Thumb Code    50  flash.o(.text)
    ParseCmdReadyFront                       0x0800562b   Thumb Code    36  flash.o(.text)
    ParseCmdReadyRear                        0x0800564f   Thumb Code    28  flash.o(.text)
    ParseCmdFlashLock                        0x0800566b   Thumb Code    14  flash.o(.text)
    ParseCmdHpSynFlash                       0x08005679   Thumb Code    72  flash.o(.text)
    ParseCmdHpSynFlashLock                   0x080056c1   Thumb Code    14  flash.o(.text)
    ParseCmdRearFlash                        0x080056cf   Thumb Code    30  flash.o(.text)
    ParseCmdPilot                            0x080056ed   Thumb Code    40  flash.o(.text)
    SlaveRptTimes                            0x08005715   Thumb Code    22  flash.o(.text)
    MstTimesConvert                          0x0800572b   Thumb Code    30  flash.o(.text)
    SlaveRptFrq                              0x08005749   Thumb Code    26  flash.o(.text)
    MstFrqConvert                            0x08005763   Thumb Code    28  flash.o(.text)
    SlaveRptFlash                            0x0800577f   Thumb Code    86  flash.o(.text)
    ParseMstCmd                              0x080057d5   Thumb Code    70  flash.o(.text)
    IIcDelay                                 0x0800581b   Thumb Code    12  flash.o(.text)
    hp_IIcAck                                0x08005827   Thumb Code    58  flash.o(.text)
    hp_IIcStart                              0x08005861   Thumb Code    58  flash.o(.text)
    hp_IIcStop                               0x0800589b   Thumb Code    54  flash.o(.text)
    hp_IicSendByte                           0x080058d1   Thumb Code   152  flash.o(.text)
    HpIicSendByte                            0x08005969   Thumb Code     2  flash.o(.text)
    HpExpCodeSend                            0x0800596b   Thumb Code    36  flash.o(.text)
    TakeOnCharge                             0x0800598f   Thumb Code     4  flash.o(.text)
    FlashBaseFiber                           0x08005993   Thumb Code   126  flash.o(.text)
    WLM_SHOT_ONCE                            0x08005a11   Thumb Code    28  flash.o(.text)
    TURN_ON_TRIGER                           0x08005a2d   Thumb Code    48  flash.o(.text)
    HP_SHOT_ONCE                             0x08005a5d   Thumb Code   106  flash.o(.text)
    ExtModFlash                              0x08005ac7   Thumb Code   154  flash.o(.text)
    WlmFlaADSet                              0x08005b61   Thumb Code    88  flash.o(.text)
    TakePreflash                             0x08005bb9   Thumb Code    50  flash.o(.text)
    SlaveTakePreflash                        0x08005beb   Thumb Code   100  flash.o(.text)
    TurnOnChargeLed                          0x08005c4f   Thumb Code    44  flash.o(.text)
    OutputSwitch                             0x08005c7b   Thumb Code    28  flash.o(.text)
    HpExpCalc                                0x08005c97   Thumb Code    64  flash.o(.text)
    CalcCmpPower                             0x08005cd7   Thumb Code    30  flash.o(.text)
    HwTriger                                 0x08005cf5   Thumb Code    12  flash.o(.text)
    HighSpeedTriger                          0x08005d01   Thumb Code   196  flash.o(.text)
    ReStdPara                                0x08005dc5   Thumb Code    38  flash.o(.text)
    ExtaModSet                               0x08005deb   Thumb Code   356  flash.o(.text)
    GetApertIndex                            0x08005f4f   Thumb Code     4  flash.o(.text)
    GetIsoIndex                              0x08005f53   Thumb Code     4  flash.o(.text)
    SetRptFlashTimer                         0x08005f57   Thumb Code    28  flash.o(.text)
    RptFlashPrepear                          0x08005f73   Thumb Code    16  flash.o(.text)
    ExtmApertIndex                           0x08005f83   Thumb Code    26  flash.o(.text)
    ExtmIsoIndex                             0x08005f9d   Thumb Code    28  flash.o(.text)
    ExtmModSet                               0x08005fb9   Thumb Code   114  flash.o(.text)
    FlashInResMode                           0x0800602b   Thumb Code   574  flash.o(.text)
    CalcWithCmp                              0x08006269   Thumb Code    86  flash.o(.text)
    CalcRptFlashTimes                        0x080062bf   Thumb Code   112  flash.o(.text)
    RptFlashCom                              0x0800632f   Thumb Code    38  flash.o(.text)
    SlaveAutoFlash                           0x08006355   Thumb Code   130  flash.o(.text)
    WLM_COMMAND_TRIGER                       0x080063d7   Thumb Code   150  flash.o(.text)
    TakeFlash                                0x0800646d   Thumb Code   334  flash.o(.text)
    TakeRptFlash                             0x080065bb   Thumb Code   164  flash.o(.text)
    SlaveTakeFlash                           0x0800665f   Thumb Code    38  flash.o(.text)
    WlmCmdSet                                0x08006685   Thumb Code     8  flash.o(.text)
    WLM_HEAD_TRIGER                          0x0800668d   Thumb Code   266  flash.o(.text)
    WlmCmdHeadSend                           0x08006797   Thumb Code    26  flash.o(.text)
    WLM_SendChanhead                         0x080067b1   Thumb Code    86  flash.o(.text)
    WLM_SendData                             0x08006807   Thumb Code    88  flash.o(.text)
    SingleFlashSet                           0x0800685f   Thumb Code    30  flash.o(.text)
    EXTI4_IRQHandler                         0x0800687d   Thumb Code    52  flash.o(.text)
    BuildWlmFlaCode                          0x080068b1   Thumb Code   142  flash.o(.text)
    BuildWlmRptCode                          0x0800693f   Thumb Code   158  flash.o(.text)
    BuildRptFlashCmd                         0x080069dd   Thumb Code   166  flash.o(.text)
    BuildRealFlashCmd                        0x08006a83   Thumb Code   800  flash.o(.text)
    NikRptFlashProc                          0x08006da3   Thumb Code    32  flash.o(.text)
    BUZZER_ON                                0x08006dc9   Thumb Code    64  keyproc.o(.text)
    BzOff                                    0x08006e09   Thumb Code   142  keyproc.o(.text)
    SlaveBuzzer                              0x08006e97   Thumb Code    26  keyproc.o(.text)
    GetKeyAdc                                0x08006eb1   Thumb Code    52  keyproc.o(.text)
    KeyValid                                 0x08006ee5   Thumb Code    24  keyproc.o(.text)
    KeyReArmed                               0x08006efd   Thumb Code    20  keyproc.o(.text)
    ReadPilot                                0x08006f11   Thumb Code    54  keyproc.o(.text)
    ResetKeyInt                              0x08006f47   Thumb Code     6  keyproc.o(.text)
    ReadKey                                  0x08006f4d   Thumb Code   770  keyproc.o(.text)
    BkLiteOn                                 0x0800724f   Thumb Code    62  keyproc.o(.text)
    ModeSw                                   0x0800728d   Thumb Code    84  keyproc.o(.text)
    FuncModuleSw                             0x080072e1   Thumb Code    62  keyproc.o(.text)
    DspRfOnlyScr                             0x0800731f   Thumb Code    74  keyproc.o(.text)
    DspZoomStatue                            0x08007369   Thumb Code     2  keyproc.o(.text)
    Su4ModCheck                              0x0800736b   Thumb Code     2  keyproc.o(.text)
    Mode                                     0x0800736d   Thumb Code   234  keyproc.o(.text)
    GetMotoDest                              0x08007457   Thumb Code     2  keyproc.o(.text)
    ModeClear                                0x08007459   Thumb Code    36  keyproc.o(.text)
    ExposeAddSub                             0x0800747d   Thumb Code   262  keyproc.o(.text)
    SnrAllMenuSubAdd                         0x08007583   Thumb Code   130  keyproc.o(.text)
    ShiftMyMenubits                          0x08007605   Thumb Code     2  keyproc.o(.text)
    GetStartNowDst                           0x08007607   Thumb Code   158  keyproc.o(.text)
    GeMyMenuDspIndex                         0x080076a5   Thumb Code    38  keyproc.o(.text)
    GetMyMenuNext                            0x080076cb   Thumb Code    46  keyproc.o(.text)
    SnrMyMenuSubAdd                          0x080076f9   Thumb Code    14  keyproc.o(.text)
    SnrMenuSubAdd                            0x08007707   Thumb Code     2  keyproc.o(.text)
    ApertAddSub                              0x08007709   Thumb Code    66  keyproc.o(.text)
    SnrSubAddSub                             0x0800774b   Thumb Code     2  keyproc.o(.text)
    SnrMyMenuAddSub                          0x0800774d   Thumb Code    84  keyproc.o(.text)
    GN_MSubAdd                               0x080077a1   Thumb Code    58  keyproc.o(.text)
    RptFrqShift                              0x080077db   Thumb Code   100  keyproc.o(.text)
    RptTimesShift                            0x0800783f   Thumb Code    94  keyproc.o(.text)
    RmtGrAddSub                              0x0800789d   Thumb Code    52  keyproc.o(.text)
    RmtChAddSub                              0x080078d1   Thumb Code    52  keyproc.o(.text)
    MstArrAddSub                             0x08007905   Thumb Code    48  keyproc.o(.text)
    MstRspArrModAddSub                       0x08007935   Thumb Code    98  keyproc.o(.text)
    MstRspArrParaAddSub                      0x08007997   Thumb Code   350  keyproc.o(.text)
    MstRptParaSetAddSub                      0x08007af5   Thumb Code   318  keyproc.o(.text)
    MstChaAddSub                             0x08007c33   Thumb Code    50  keyproc.o(.text)
    MotoShift                                0x08007c65   Thumb Code   116  keyproc.o(.text)
    ModeSubAdd                               0x08007cd9   Thumb Code   180  keyproc.o(.text)
    KeySubAdd                                0x08007d8d   Thumb Code    96  keyproc.o(.text)
    SnrMenuLevelEnter                        0x08007ded   Thumb Code    30  keyproc.o(.text)
    KeyOk                                    0x08007e0b   Thumb Code   108  keyproc.o(.text)
    SnrMenuEnterExit                         0x08007e77   Thumb Code    32  keyproc.o(.text)
    KeyLock                                  0x08007e97   Thumb Code    34  keyproc.o(.text)
    StartCamera                              0x08007eb9   Thumb Code   194  keyproc.o(.text)
    Pilot                                    0x08007f7b   Thumb Code     2  keyproc.o(.text)
    KeyProcess                               0x08007f7d   Thumb Code   296  keyproc.o(.text)
    ChargeBuzzer                             0x080080a5   Thumb Code    24  keyproc.o(.text)
    ChkVoltage                               0x080080bd   Thumb Code   228  keyproc.o(.text)
    DspUpdate                                0x080081a1   Thumb Code   122  keyproc.o(.text)
    TaskKeyScan                              0x0800821b   Thumb Code    28  keyproc.o(.text)
    EXTI1_IRQHandler                         0x08008237   Thumb Code     8  keyproc.o(.text)
    EXTI15_10_IRQHandler                     0x0800823f   Thumb Code   206  keyproc.o(.text)
    KeyAdcInit                               0x0800835d   Thumb Code   204  main.o(.text)
    KeyAdcEnable                             0x08008429   Thumb Code     8  main.o(.text)
    KeyAdcDisable                            0x08008431   Thumb Code     8  main.o(.text)
    GolbalParaInit                           0x08008439   Thumb Code    56  main.o(.text)
    UserInit                                 0x08008471   Thumb Code   292  main.o(.text)
    GetBatteryAdc                            0x08008595   Thumb Code    54  main.o(.text)
    CheckBattery                             0x080085cb   Thumb Code    92  main.o(.text)
    BkLiteAutoOff                            0x08008627   Thumb Code    92  main.o(.text)
    TaskVoltageCheck                         0x08008683   Thumb Code    14  main.o(.text)
    FlashTimesCheck                          0x08008691   Thumb Code   104  main.o(.text)
    TempCheck                                0x080086f9   Thumb Code   266  main.o(.text)
    TempMonitorProc                          0x08008803   Thumb Code    12  main.o(.text)
    AfValidOnCheck                           0x0800880f   Thumb Code    52  main.o(.text)
    PowerDownWakeProc                        0x08008843   Thumb Code    72  main.o(.text)
    PowerDownProc                            0x0800888b   Thumb Code    54  main.o(.text)
    SleepTimerProc                           0x080088c1   Thumb Code   284  main.o(.text)
    CmrLinkWatchDog                          0x080089dd   Thumb Code    68  main.o(.text)
    LightSlaveToggle                         0x08008a21   Thumb Code    64  main.o(.text)
    SensorMonitor                            0x08008a61   Thumb Code   106  main.o(.text)
    SlvPilotFlash                            0x08008acb   Thumb Code    80  main.o(.text)
    TaskMonitor                              0x08008b1b   Thumb Code    72  main.o(.text)
    TaskStart                                0x08008b63   Thumb Code   268  main.o(.text)
    SysTick_Configuration                    0x08008c6f   Thumb Code    50  main.o(.text)
    main                                     0x08008ca1   Thumb Code   172  main.o(.text)
    LedTestToggle                            0x08008d4d   Thumb Code    22  main.o(.text)
    CalcSum                                  0x08008d63   Thumb Code    26  main.o(.text)
    SavePara                                 0x08008d7d   Thumb Code     2  main.o(.text)
    SysTick_Handler                          0x08008d7f   Thumb Code    38  main.o(.text)
    CopyToRamCenter                          0x08008de9   Thumb Code    38  menu.o(.text)
    SnrMenuSetFrame                          0x08008e0f   Thumb Code     2  menu.o(.text)
    DspSnrCalcBufMask                        0x08008e11   Thumb Code    42  menu.o(.text)
    CopyToDest                               0x08008e3b   Thumb Code   326  menu.o(.text)
    BufferScroll                             0x08008f81   Thumb Code   184  menu.o(.text)
    BufAngleCut                              0x08009039   Thumb Code    38  menu.o(.text)
    DspMyMenuSelIcon                         0x0800905f   Thumb Code   122  menu.o(.text)
    DspMyMenuSelect                          0x080090d9   Thumb Code     2  menu.o(.text)
    DspMySnrMenu                             0x080090db   Thumb Code     4  menu.o(.text)
    SubAreaHigh                              0x080090df   Thumb Code    64  menu.o(.text)
    SubCopyItems                             0x0800911f   Thumb Code    90  menu.o(.text)
    SubDspMode                               0x08009179   Thumb Code   164  menu.o(.text)
    DspSubMenu                               0x0800921d   Thumb Code    44  menu.o(.text)
    SubMenuHandle                            0x08009249   Thumb Code     2  menu.o(.text)
    SubMenuSetProc                           0x0800924b   Thumb Code     2  menu.o(.text)
    CopyDataToScreen                         0x0800924d   Thumb Code    72  menu.o(.text)
    CopyMenuIcon                             0x08009295   Thumb Code   624  menu.o(.text)
    DspMenuPage123                           0x08009505   Thumb Code   834  menu.o(.text)
    SnrProgressBar                           0x08009847   Thumb Code   176  menu.o(.text)
    DspMenuLabel                             0x080098f7   Thumb Code   298  menu.o(.text)
    DspAllSnrMenu                            0x08009a21   Thumb Code    30  menu.o(.text)
    GetMyMenuNum                             0x08009a3f   Thumb Code    28  menu.o(.text)
    DspSnrMenu                               0x08009a5b   Thumb Code    10  menu.o(.text)
    SnrSubCharGetIndex                       0x08009a65   Thumb Code    36  menu.o(.text)
    CalcBufMask                              0x08009a89   Thumb Code    18  menu.o(.text)
    BufXOR                                   0x08009a9b   Thumb Code    20  menu.o(.text)
    BufAngleCutEx                            0x08009aaf   Thumb Code    36  menu.o(.text)
    SnrSubMaskBuf                            0x08009ad3   Thumb Code   190  menu.o(.text)
    SnrSubStrCopyToBuf                       0x08009b91   Thumb Code   506  menu.o(.text)
    DspSnrSubStr                             0x08009d8b   Thumb Code   314  menu.o(.text)
    DspSnrSubStrEx                           0x08009ec5   Thumb Code   190  menu.o(.text)
    SubDspApert                              0x08009f83   Thumb Code     2  menu.o(.text)
    SubDspFxDx                               0x08009f85   Thumb Code     2  menu.o(.text)
    SubDspAf                                 0x08009f87   Thumb Code     2  menu.o(.text)
    SubDspIso                                0x08009f89   Thumb Code     2  menu.o(.text)
    SubDspReset0                             0x08009f8b   Thumb Code     2  menu.o(.text)
    SubDspChan                               0x08009f8d   Thumb Code     2  menu.o(.text)
    SubDspLinkMode                           0x08009f8f   Thumb Code     2  menu.o(.text)
    SubDspPair                               0x08009f91   Thumb Code     2  menu.o(.text)
    SubDspPin                                0x08009f93   Thumb Code     2  menu.o(.text)
    SubDspName                               0x08009f95   Thumb Code     2  menu.o(.text)
    SubDspMft                                0x08009f97   Thumb Code     2  menu.o(.text)
    SubDspVer                                0x08009f99   Thumb Code     2  menu.o(.text)
    SubDspReset1                             0x08009f9b   Thumb Code     2  menu.o(.text)
    SmHandle_ReflectPad                      0x08009f9d   Thumb Code    24  menu.o(.text)
    SubSetProcExit                           0x08009fb5   Thumb Code    32  menu.o(.text)
    SubSetProc_Apert                         0x08009fd5   Thumb Code     2  menu.o(.text)
    SubSetProc_2                             0x08009fd7   Thumb Code     2  menu.o(.text)
    SubSetProc_3                             0x08009fd9   Thumb Code     2  menu.o(.text)
    SubSetProc_4                             0x08009fdb   Thumb Code     2  menu.o(.text)
    SubSetProc_5                             0x08009fdd   Thumb Code     2  menu.o(.text)
    SubSetProc_6                             0x08009fdf   Thumb Code     2  menu.o(.text)
    SubSetProc_7                             0x08009fe1   Thumb Code     2  menu.o(.text)
    SubSetProc_8                             0x08009fe3   Thumb Code     2  menu.o(.text)
    SubSetProc_Af                            0x08009fe5   Thumb Code    12  menu.o(.text)
    SubSetProc_10                            0x08009ff1   Thumb Code     2  menu.o(.text)
    SubSetProc_11                            0x08009ff3   Thumb Code    22  menu.o(.text)
    SubSetProc_12                            0x0800a009   Thumb Code     2  menu.o(.text)
    SubSetProc_13                            0x0800a00b   Thumb Code    14  menu.o(.text)
    SubSetProc_14                            0x0800a019   Thumb Code     2  menu.o(.text)
    SubSetProc_15                            0x0800a01b   Thumb Code     2  menu.o(.text)
    SubSetProc_16                            0x0800a01d   Thumb Code     2  menu.o(.text)
    SubSetProc_17                            0x0800a01f   Thumb Code    14  menu.o(.text)
    SubSetProc_18                            0x0800a02d   Thumb Code     2  menu.o(.text)
    SubSetProc_Reset                         0x0800a02f   Thumb Code    66  menu.o(.text)
    CheckZmAdc                               0x0800a0a5   Thumb Code    52  moto.o(.text)
    GetZoomAdc                               0x0800a0d9   Thumb Code   100  moto.o(.text)
    GetZoomByAdc                             0x0800a13d   Thumb Code    28  moto.o(.text)
    LockCharge                               0x0800a159   Thumb Code    26  moto.o(.text)
    ReleaseCharge                            0x0800a173   Thumb Code    22  moto.o(.text)
    SetChargeEnable                          0x0800a189   Thumb Code    24  moto.o(.text)
    SetChargeDisable                         0x0800a1a1   Thumb Code    24  moto.o(.text)
    MotoReset                                0x0800a1b9   Thumb Code    40  moto.o(.text)
    GetMotoIndex                             0x0800a1e1   Thumb Code    36  moto.o(.text)
    MotoLocation                             0x0800a205   Thumb Code   348  moto.o(.text)
    MotoDrvPinSet                            0x0800a361   Thumb Code    56  moto.o(.text)
    MotoInvalidMove                          0x0800a399   Thumb Code    86  moto.o(.text)
    MotoProc                                 0x0800a3ef   Thumb Code   316  moto.o(.text)
    TaskMotoProc                             0x0800a52b   Thumb Code    14  moto.o(.text)
    MotoTickDriver                           0x0800a539   Thumb Code    24  moto.o(.text)
    GetMotoStdIndex                          0x0800a551   Thumb Code    46  moto.o(.text)
    LoadModIcon                              0x0800a58d   Thumb Code   130  nikdisplay.o(.text)
    DspResModIcon                            0x0800a60f   Thumb Code    54  nikdisplay.o(.text)
    DspClsFlash                              0x0800a645   Thumb Code    22  nikdisplay.o(.text)
    DspSu4ResModIcon                         0x0800a65b   Thumb Code   118  nikdisplay.o(.text)
    DspManuExp1                              0x0800a6d1   Thumb Code   428  nikdisplay.o(.text)
    CalcExp2Ret                              0x0800a87d   Thumb Code    44  nikdisplay.o(.text)
    DspManuExp2OrCmp                         0x0800a8a9   Thumb Code   506  nikdisplay.o(.text)
    DspIsoAuto                               0x0800aaa3   Thumb Code    94  nikdisplay.o(.text)
    DspIsoValue                              0x0800ab01   Thumb Code   280  nikdisplay.o(.text)
    CopyDataMaskToBuf                        0x0800ac19   Thumb Code    24  nikdisplay.o(.text)
    DspRptTimesHz                            0x0800ac31   Thumb Code   852  nikdisplay.o(.text)
    DspMstRptTimesHz                         0x0800af85   Thumb Code   858  nikdisplay.o(.text)
    DspScale_ft                              0x0800b2df   Thumb Code    20  nikdisplay.o(.text)
    DspScale_m                               0x0800b2f3   Thumb Code    20  nikdisplay.o(.text)
    m2feet                                   0x0800b307   Thumb Code    16  nikdisplay.o(.text)
    DspScaleNum                              0x0800b317   Thumb Code   384  nikdisplay.o(.text)
    CalcScale                                0x0800b497   Thumb Code    96  nikdisplay.o(.text)
    DrawScaleRuler                           0x0800b4f7   Thumb Code   174  nikdisplay.o(.text)
    CalcAvailScale                           0x0800b5a5   Thumb Code   186  nikdisplay.o(.text)
    CalcAvailScaleHp                         0x0800b65f   Thumb Code   294  nikdisplay.o(.text)
    CalcAvailScaleMinMax                     0x0800b785   Thumb Code   276  nikdisplay.o(.text)
    GetParaStdIndex                          0x0800b899   Thumb Code    26  nikdisplay.o(.text)
    GetIsoStdIndex                           0x0800b8b3   Thumb Code    28  nikdisplay.o(.text)
    ParaScaleCalc                            0x0800b8cf   Thumb Code   222  nikdisplay.o(.text)
    TtlAutoDrawScale                         0x0800b9ad   Thumb Code   230  nikdisplay.o(.text)
    SetTtlScr                                0x0800ba93   Thumb Code   346  nikdisplay.o(.text)
    SetAutoScr                               0x0800bbed   Thumb Code   282  nikdisplay.o(.text)
    CodeSearch                               0x0800bd07   Thumb Code    24  nikdisplay.o(.text)
    DspGrScaleNum                            0x0800bd1f   Thumb Code  1352  nikdisplay.o(.text)
    GnCalcScale                              0x0800c267   Thumb Code    30  nikdisplay.o(.text)
    GrDrawScaleRuler                         0x0800c285   Thumb Code   264  nikdisplay.o(.text)
    GrDrawScale                              0x0800c38d   Thumb Code   156  nikdisplay.o(.text)
    SetGnScr                                 0x0800c429   Thumb Code   152  nikdisplay.o(.text)
    ManuRptDrawScale                         0x0800c4c1   Thumb Code   182  nikdisplay.o(.text)
    SetManuScr                               0x0800c577   Thumb Code   214  nikdisplay.o(.text)
    SetMultiScr                              0x0800c64d   Thumb Code   184  nikdisplay.o(.text)
    ModPasteScr                              0x0800c705   Thumb Code    64  nikdisplay.o(.text)
    DisplayRmtGr                             0x0800c745   Thumb Code   508  nikdisplay.o(.text)
    DisplayRmtCh                             0x0800c941   Thumb Code   434  nikdisplay.o(.text)
    DisplayRmtSu4Mod                         0x0800caf3   Thumb Code   230  nikdisplay.o(.text)
    LightSlaveSU4                            0x0800cbd9   Thumb Code    64  nikdisplay.o(.text)
    LightSlaveMultiMod                       0x0800cc19   Thumb Code    90  nikdisplay.o(.text)
    LightSlaveScr                            0x0800cc73   Thumb Code     2  nikdisplay.o(.text)
    AreaScroll                               0x0800cc75   Thumb Code   120  nikdisplay.o(.text)
    DspMstRspArrHead                         0x0800cced   Thumb Code   338  nikdisplay.o(.text)
    DspMstRspArrMod                          0x0800ce3f   Thumb Code   294  nikdisplay.o(.text)
    DspMstRspArrManuExp                      0x0800cf65   Thumb Code  1264  nikdisplay.o(.text)
    DspMstRspArrTtlAutoCmp                   0x0800d455   Thumb Code    54  nikdisplay.o(.text)
    LightMasterMultiMod                      0x0800d48b   Thumb Code   212  nikdisplay.o(.text)
    MstRptArrOnOff                           0x0800d55f   Thumb Code   152  nikdisplay.o(.text)
    MstRptArrPara                            0x0800d5f7   Thumb Code   122  nikdisplay.o(.text)
    LightMasterRptMod                        0x0800d671   Thumb Code   196  nikdisplay.o(.text)
    LightMasterSU4                           0x0800d735   Thumb Code    14  nikdisplay.o(.text)
    LightMasterScr                           0x0800d743   Thumb Code     2  nikdisplay.o(.text)
    DspMotoFxDxM                             0x0800d745   Thumb Code    62  nikdisplay.o(.text)
    BufFramed                                0x0800d783   Thumb Code    50  nikdisplay.o(.text)
    isMotoMax                                0x0800d7b5   Thumb Code    12  nikdisplay.o(.text)
    isMotoMin                                0x0800d7c1   Thumb Code    12  nikdisplay.o(.text)
    DisplayFocLen                            0x0800d7cd   Thumb Code   574  nikdisplay.o(.text)
    DspApertValue                            0x0800da0b   Thumb Code   488  nikdisplay.o(.text)
    BtnZoom                                  0x0800dbf3   Thumb Code    98  nikdisplay.o(.text)
    BtnZoomBack                              0x0800dc55   Thumb Code    26  nikdisplay.o(.text)
    BtnMsetSub                               0x0800dc6f   Thumb Code     2  nikdisplay.o(.text)
    BtnM                                     0x0800dc71   Thumb Code    14  nikdisplay.o(.text)
    WordSearch                               0x0800dc7f   Thumb Code    72  nikdisplay.o(.text)
    BtnFno                                   0x0800dcc7   Thumb Code    64  nikdisplay.o(.text)
    BtnPilot                                 0x0800dd07   Thumb Code     4  nikdisplay.o(.text)
    BtnSel                                   0x0800dd0b   Thumb Code    50  nikdisplay.o(.text)
    BtnMsc                                   0x0800dd3d   Thumb Code    28  nikdisplay.o(.text)
    BtnCh                                    0x0800dd59   Thumb Code    46  nikdisplay.o(.text)
    BtnFlashMode                             0x0800dd87   Thumb Code    30  nikdisplay.o(.text)
    BtnFlashWeakOn                           0x0800dda5   Thumb Code    18  nikdisplay.o(.text)
    BtnFlashWeakOff                          0x0800ddb7   Thumb Code    18  nikdisplay.o(.text)
    BtnNullBack                              0x0800ddc9   Thumb Code    24  nikdisplay.o(.text)
    CmpSubAdd                                0x0800dde1   Thumb Code   144  nikdisplay.o(.text)
    BtnCmp                                   0x0800de71   Thumb Code    50  nikdisplay.o(.text)
    BtnHead                                  0x0800dea3   Thumb Code     4  nikdisplay.o(.text)
    Btnm                                     0x0800dea7   Thumb Code    52  nikdisplay.o(.text)
    BtnTimesHz                               0x0800dedb   Thumb Code    32  nikdisplay.o(.text)
    BtnPaup                                  0x0800defb   Thumb Code    32  nikdisplay.o(.text)
    BtnPaDn                                  0x0800df1b   Thumb Code    32  nikdisplay.o(.text)
    BtnSnrSet                                0x0800df3b   Thumb Code    34  nikdisplay.o(.text)
    BtnSnrNext                               0x0800df5d   Thumb Code     2  nikdisplay.o(.text)
    BtnMyMenuBack                            0x0800df5f   Thumb Code    22  nikdisplay.o(.text)
    BtnMyMenuSel                             0x0800df75   Thumb Code    36  nikdisplay.o(.text)
    AddButtons                               0x0800df99   Thumb Code    26  nikdisplay.o(.text)
    BuildFuncMenu                            0x0800dfb3   Thumb Code     2  nikdisplay.o(.text)
    BuildSnrMenu                             0x0800dfb5   Thumb Code     2  nikdisplay.o(.text)
    BuildSnrSubMenu                          0x0800dfb7   Thumb Code     2  nikdisplay.o(.text)
    DisplayButton                            0x0800dfb9   Thumb Code   130  nikdisplay.o(.text)
    InsertList                               0x0800e03b   Thumb Code    68  nikdisplay.o(.text)
    KeyMenuSw                                0x0800e07f   Thumb Code    98  nikdisplay.o(.text)
    BuildMyMenuSetMenu                       0x0800e0e1   Thumb Code    36  nikdisplay.o(.text)
    LoadButtons                              0x0800e105   Thumb Code     2  nikdisplay.o(.text)
    LoadMotoSetMenu                          0x0800e107   Thumb Code    60  nikdisplay.o(.text)
    GetMotoIncremental                       0x0800e143   Thumb Code    38  nikdisplay.o(.text)
    DspMstChan                               0x0800e169   Thumb Code   120  nikdisplay.o(.text)
    DspLightBody                             0x0800e1e1   Thumb Code   172  nikdisplay.o(.text)
    DspTempWarning                           0x0800e28d   Thumb Code    24  nikdisplay.o(.text)
    DspNikonCls                              0x0800e2a5   Thumb Code    42  nikdisplay.o(.text)
    DspVoiceOff                              0x0800e2cf   Thumb Code    54  nikdisplay.o(.text)
    DspFunctions                             0x0800e305   Thumb Code    50  nikdisplay.o(.text)
    LoadLowBatIcon                           0x0800e337   Thumb Code    62  nikdisplay.o(.text)
    BuildRfOnlyMenu                          0x0800e375   Thumb Code    32  nikdisplay.o(.text)
    BuildStbyMenu                            0x0800e395   Thumb Code    34  nikdisplay.o(.text)
    BuildKeyLockMenu                         0x0800e3b7   Thumb Code    34  nikdisplay.o(.text)
    MultiMaxTimes                            0x0800e3d9   Thumb Code    80  nikdisplay.o(.text)
    delay_init                               0x0800e495   Thumb Code    38  delay.o(.text)
    delay_ms                                 0x0800e4bb   Thumb Code    50  delay.o(.text)
    delay_us                                 0x0800e4ed   Thumb Code    50  delay.o(.text)
    delay_seconds                            0x0800e51f   Thumb Code    24  delay.o(.text)
    MY_NVIC_SetVectorTable                   0x0800e53d   Thumb Code    12  sys.o(.text)
    MY_NVIC_PriorityGroupConfig              0x0800e549   Thumb Code    28  sys.o(.text)
    MY_NVIC_Init                             0x0800e565   Thumb Code   122  sys.o(.text)
    Ex_NVIC_Config                           0x0800e5df   Thumb Code   120  sys.o(.text)
    Ex_NVIC_Enable                           0x0800e657   Thumb Code    16  sys.o(.text)
    Ex_NVIC_Disable                          0x0800e667   Thumb Code    16  sys.o(.text)
    MYRCC_DeInit                             0x0800e677   Thumb Code    66  sys.o(.text)
    Sys_Standby                              0x0800e6b9   Thumb Code    52  sys.o(.text)
    Sys_Soft_Reset                           0x0800e6ed   Thumb Code    12  sys.o(.text)
    JTAG_Set                                 0x0800e6f9   Thumb Code    30  sys.o(.text)
    Stm32_Clock_Init                         0x0800e717   Thumb Code   102  sys.o(.text)
    RCC_Configuration                        0x0800e77d   Thumb Code   108  sys.o(.text)
    SetMstPwrOnExti                          0x0800e7e9   Thumb Code   142  sys.o(.text)
    SleepWakeIntSet                          0x0800e877   Thumb Code   256  sys.o(.text)
    SetPwrOnExti                             0x0800e977   Thumb Code   142  sys.o(.text)
    LowPow_Init                              0x0800ea05   Thumb Code   154  sys.o(.text)
    EXTI3_IRQHandler                         0x0800ea9f   Thumb Code    10  sys.o(.text)
    _sys_exit                                0x0800ead5   Thumb Code     2  usart.o(.text)
    fputc                                    0x0800ead7   Thumb Code    18  usart.o(.text)
    uart_init                                0x0800eae9   Thumb Code   138  usart.o(.text)
    noprintf                                 0x0800eb73   Thumb Code     4  usart.o(.text)
    Flash_Interrupt_init                     0x0800eb89   Thumb Code    68  led.o(.text)
    PortInit                                 0x0800ebcd   Thumb Code   492  led.o(.text)
    InitKeyInt                               0x0800edb9   Thumb Code    66  led.o(.text)
    PWM_Init                                 0x0800edfb   Thumb Code   134  led.o(.text)
    PortUninit                               0x0800ee81   Thumb Code   210  led.o(.text)
    SPIx_Init                                0x0800efd1   Thumb Code   158  spi.o(.text)
    Delay                                    0x0800f06f   Thumb Code    10  spi.o(.text)
    SPIx_Enable                              0x0800f079   Thumb Code    12  spi.o(.text)
    SPIx_Disable                             0x0800f085   Thumb Code    12  spi.o(.text)
    SPIx_Rst                                 0x0800f091   Thumb Code    20  spi.o(.text)
    ClkSynSend                               0x0800f0a5   Thumb Code    88  spi.o(.text)
    ClkSynRcv                                0x0800f0fd   Thumb Code    98  spi.o(.text)
    VerCodeCal                               0x0800f15f   Thumb Code    24  spi.o(.text)
    SetBkLightInfo                           0x0800f177   Thumb Code    34  spi.o(.text)
    CmrLedCtrl                               0x0800f199   Thumb Code    84  spi.o(.text)
    GetCmrInfo                               0x0800f1ed   Thumb Code   622  spi.o(.text)
    LiteBlockSend                            0x0800f45b   Thumb Code    16  spi.o(.text)
    CameraBlockRcv                           0x0800f46b   Thumb Code    14  spi.o(.text)
    ComSpiDataClear                          0x0800f479   Thumb Code    22  spi.o(.text)
    SetSpiComModeOff                         0x0800f48f   Thumb Code   214  spi.o(.text)
    SpiComModeCode                           0x0800f565   Thumb Code    30  spi.o(.text)
    SpiComParaCode                           0x0800f583   Thumb Code    68  spi.o(.text)
    SetSpiComModeMstSu4                      0x0800f5c7   Thumb Code   100  spi.o(.text)
    SetSpiComModeMst                         0x0800f62b   Thumb Code   128  spi.o(.text)
    GetMstRptModCode                         0x0800f6ab   Thumb Code    26  spi.o(.text)
    GetMstRptParaCode                        0x0800f6c5   Thumb Code    48  spi.o(.text)
    SetSpiComMstRpt                          0x0800f6f5   Thumb Code    84  spi.o(.text)
    SetSpiComData                            0x0800f749   Thumb Code    76  spi.o(.text)
    SetSBOInt                                0x0800f795   Thumb Code    58  spi.o(.text)
    SetNssInt                                0x0800f7cf   Thumb Code    58  spi.o(.text)
    SetComRstTime                            0x0800f809   Thumb Code    64  spi.o(.text)
    ClearComWaitTimeout                      0x0800f849   Thumb Code    12  spi.o(.text)
    ClearComRstTime                          0x0800f855   Thumb Code    22  spi.o(.text)
    RstComPara                               0x0800f86b   Thumb Code    16  spi.o(.text)
    SetSBOPullup                             0x0800f87b   Thumb Code    28  spi.o(.text)
    PreFlashSet                              0x0800f897   Thumb Code    18  spi.o(.text)
    PreFlash2Set                             0x0800f8a9   Thumb Code    18  spi.o(.text)
    PreFlash3Set                             0x0800f8bb   Thumb Code    10  spi.o(.text)
    MstSetCheckEnable                        0x0800f8c5   Thumb Code    30  spi.o(.text)
    MstCmdPrepear                            0x0800f8e3   Thumb Code    26  spi.o(.text)
    MstPreFlaCmd                             0x0800f8fd   Thumb Code    12  spi.o(.text)
    MstCmdPreFlaSignal                       0x0800f909   Thumb Code    12  spi.o(.text)
    CameraCmdHandle                          0x0800f915   Thumb Code   192  spi.o(.text)
    CameraCmdReply                           0x0800f9d5   Thumb Code   460  spi.o(.text)
    NikComInit                               0x0800fba1   Thumb Code    68  spi.o(.text)
    FlashFinishHandle                        0x0800fbe5   Thumb Code     8  spi.o(.text)
    NikComProc                               0x0800fbed   Thumb Code  1328  spi.o(.text)
    ComDataSR                                0x0801011d   Thumb Code    24  spi.o(.text)
    ComDataHandleProc                        0x08010135   Thumb Code    30  spi.o(.text)
    EXTI2_IRQHandler                         0x08010153   Thumb Code    48  spi.o(.text)
    EXTI9_5_IRQHandler                       0x08010183   Thumb Code   218  spi.o(.text)
    CameraCmdFlagSet                         0x0801025d   Thumb Code    92  spi.o(.text)
    CameraCmdRearHandle                      0x080102b9   Thumb Code   198  spi.o(.text)
    SpiSrIntProc                             0x0801037f   Thumb Code   114  spi.o(.text)
    SPI1_IRQHandler                          0x080103f1   Thumb Code    24  spi.o(.text)
    TIM4_IRQHandler                          0x08010439   Thumb Code   164  timer.o(.text)
    Timer4_Init                              0x080104dd   Thumb Code    74  timer.o(.text)
    Timer4_Update                            0x08010527   Thumb Code    32  timer.o(.text)
    TIM2_IRQHandler                          0x08010547   Thumb Code    52  timer.o(.text)
    Timer2_Init                              0x0801057b   Thumb Code    56  timer.o(.text)
    TmCaptureInit                            0x080105b3   Thumb Code   154  timer.o(.text)
    StopCapture                              0x0801064d   Thumb Code    46  timer.o(.text)
    StartCapture                             0x0801067b   Thumb Code    48  timer.o(.text)
    DisableUpdateEvent                       0x080106ab   Thumb Code    14  timer.o(.text)
    TIM3_IRQHandler                          0x080106b9   Thumb Code    70  timer.o(.text)
    TmTickHandle                             0x080106ff   Thumb Code     2  timer.o(.text)
    TaskTimerTickCom                         0x08010701   Thumb Code    14  timer.o(.text)
    LCD_Writ_Bus                             0x08010741   Thumb Code    34  lcddriver.o(.text)
    LCD_WRITE_CMD                            0x08010763   Thumb Code    38  lcddriver.o(.text)
    LCD_WRITE_BYTE                           0x08010789   Thumb Code    38  lcddriver.o(.text)
    AreaSet                                  0x080107af   Thumb Code    74  lcddriver.o(.text)
    ST75256_Init                             0x080107f9   Thumb Code   244  lcddriver.o(.text)
    LcdPortInit                              0x080108ed   Thumb Code   198  lcddriver.o(.text)
    LCD_Init                                 0x080109b3   Thumb Code    12  lcddriver.o(.text)
    DisplayOff                               0x080109bf   Thumb Code     4  lcddriver.o(.text)
    DisplayPicture                           0x080109c3   Thumb Code    82  lcddriver.o(.text)
    LcdCopyToRam                             0x08010a15   Thumb Code    40  lcddriver.o(.text)
    DisplayPictureEx                         0x08010a3d   Thumb Code   150  lcddriver.o(.text)
    CalcArrayMask                            0x08010ad3   Thumb Code    26  lcddriver.o(.text)
    SetContrast                              0x08010aed   Thumb Code    42  lcddriver.o(.text)
    Lcd_test                                 0x08010b17   Thumb Code    54  lcddriver.o(.text)
    LCD_Clear                                0x08010b4d   Thumb Code    78  lcddriver.o(.text)
    LcdClearFeild                            0x08010b9b   Thumb Code    44  lcddriver.o(.text)
    DspClearAllPara                          0x08010bc7   Thumb Code    10  lcddriver.o(.text)
    LcdLoadPicture                           0x08010bd1   Thumb Code    24  lcddriver.o(.text)
    DspParaNum                               0x08010be9   Thumb Code   102  lcddriver.o(.text)
    STMFLASH_Unlock                          0x08010c5d   Thumb Code    12  stmflash.o(.text)
    STMFLASH_Lock                            0x08010c69   Thumb Code    12  stmflash.o(.text)
    STMFLASH_GetStatus                       0x08010c75   Thumb Code    32  stmflash.o(.text)
    STMFLASH_WaitDone                        0x08010c95   Thumb Code    36  stmflash.o(.text)
    STMFLASH_ErasePage                       0x08010cb9   Thumb Code    58  stmflash.o(.text)
    STMFLASH_WriteHalfWord                   0x08010cf3   Thumb Code    48  stmflash.o(.text)
    STMFLASH_ReadHalfWord                    0x08010d23   Thumb Code     4  stmflash.o(.text)
    STMFLASH_Write_NoCheck                   0x08010d27   Thumb Code    38  stmflash.o(.text)
    STMFLASH_Read                            0x08010d4d   Thumb Code    26  stmflash.o(.text)
    STMFLASH_Write                           0x08010d67   Thumb Code   210  stmflash.o(.text)
    Test_Write                               0x08010e39   Thumb Code    12  stmflash.o(.text)
    OS_TaskStat                              0x08010e55   Thumb Code    96  os_core.o(.text)
    OS_TaskIdle                              0x08010eb5   Thumb Code    24  os_core.o(.text)
    OSInit                                   0x08010ecd   Thumb Code   192  os_core.o(.text)
    OSIntEnter                               0x08010f8d   Thumb Code    20  os_core.o(.text)
    OSIntExit                                0x08010fa1   Thumb Code    88  os_core.o(.text)
    OSSchedLock                              0x08010ff9   Thumb Code    34  os_core.o(.text)
    OS_Sched                                 0x0801101b   Thumb Code    70  os_core.o(.text)
    OSSchedUnlock                            0x08011061   Thumb Code    50  os_core.o(.text)
    OSStart                                  0x08011093   Thumb Code    48  os_core.o(.text)
    OSStatInit                               0x080110c3   Thumb Code    50  os_core.o(.text)
    OSTimeTick                               0x080110f5   Thumb Code   106  os_core.o(.text)
    OSVersion                                0x0801115f   Thumb Code     4  os_core.o(.text)
    OS_Dummy                                 0x08011163   Thumb Code     2  os_core.o(.text)
    OS_EventTaskRdy                          0x08011165   Thumb Code    88  os_core.o(.text)
    OS_EventTaskWait                         0x080111bd   Thumb Code    66  os_core.o(.text)
    OS_EventTO                               0x080111ff   Thumb Code    46  os_core.o(.text)
    OS_EventWaitListInit                     0x0801122d   Thumb Code    32  os_core.o(.text)
    OS_TCBInit                               0x0801124d   Thumb Code   148  os_core.o(.text)
    OS_MemClr                                0x080112e1   Thumb Code    18  os_core.o(.text)
    OS_MemCopy                               0x080112f3   Thumb Code    20  os_core.o(.text)
    OS_StrLen                                0x08011307   Thumb Code    20  os_core.o(.text)
    OS_StrCopy                               0x0801131b   Thumb Code    28  os_core.o(.text)
    OSFlagAccept                             0x08011345   Thumb Code   174  os_flag.o(.text)
    OSFlagCreate                             0x080113f3   Thumb Code    64  os_flag.o(.text)
    OS_FlagUnlink                            0x08011433   Thumb Code    32  os_flag.o(.text)
    OSFlagDel                                0x08011493   Thumb Code   164  os_flag.o(.text)
    OSFlagPend                               0x08011583   Thumb Code   282  os_flag.o(.text)
    OSFlagPost                               0x0801169d   Thumb Code   178  os_flag.o(.text)
    OSFlagQuery                              0x0801174f   Thumb Code    44  os_flag.o(.text)
    OS_FlagInit                              0x0801177b   Thumb Code    38  os_flag.o(.text)
    OSMemCreate                              0x080117b9   Thumb Code   112  os_mem.o(.text)
    OSMemGet                                 0x08011829   Thumb Code    56  os_mem.o(.text)
    OSMemPut                                 0x08011861   Thumb Code    58  os_mem.o(.text)
    OSMemQuery                               0x0801189b   Thumb Code    58  os_mem.o(.text)
    OS_MemInit                               0x080118d5   Thumb Code    62  os_mem.o(.text)
    OSQAccept                                0x0801191d   Thumb Code    62  os_q.o(.text)
    OSQCreate                                0x0801195b   Thumb Code   110  os_q.o(.text)
    OSQDel                                   0x080119c9   Thumb Code   186  os_q.o(.text)
    OSQFlush                                 0x08011a83   Thumb Code    44  os_q.o(.text)
    OSQPend                                  0x08011aaf   Thumb Code   158  os_q.o(.text)
    OSQPost                                  0x08011b4d   Thumb Code   108  os_q.o(.text)
    OSQPostFront                             0x08011bb9   Thumb Code   106  os_q.o(.text)
    OSQPostOpt                               0x08011c23   Thumb Code   156  os_q.o(.text)
    OSQQuery                                 0x08011cbf   Thumb Code    70  os_q.o(.text)
    OS_QInit                                 0x08011d05   Thumb Code    34  os_q.o(.text)
    OSSemAccept                              0x08011d3d   Thumb Code    36  os_sem.o(.text)
    OSSemCreate                              0x08011d61   Thumb Code    54  os_sem.o(.text)
    OSSemDel                                 0x08011d97   Thumb Code   156  os_sem.o(.text)
    OSSemPend                                0x08011e33   Thumb Code   124  os_sem.o(.text)
    OSSemPost                                0x08011eaf   Thumb Code    78  os_sem.o(.text)
    OSSemQuery                               0x08011efd   Thumb Code    56  os_sem.o(.text)
    OSTaskChangePrio                         0x08011f41   Thumb Code   252  os_task.o(.text)
    OSTaskCreate                             0x0801203d   Thumb Code   134  os_task.o(.text)
    OSTaskDel                                0x080120c3   Thumb Code   242  os_task.o(.text)
    OSTaskDelReq                             0x080121b5   Thumb Code    68  os_task.o(.text)
    OSTaskResume                             0x080121f9   Thumb Code   104  os_task.o(.text)
    OSTaskSuspend                            0x08012261   Thumb Code   120  os_task.o(.text)
    OSTaskQuery                              0x080122d9   Thumb Code    66  os_task.o(.text)
    OSTimeDly                                0x08012349   Thumb Code    58  os_time.o(.text)
    OSTimeDlyHMSM                            0x08012383   Thumb Code   120  os_time.o(.text)
    OSTimeDlyResume                          0x080123fb   Thumb Code    98  os_time.o(.text)
    OSTimeGet                                0x0801245d   Thumb Code    18  os_time.o(.text)
    OSTimeSet                                0x0801246f   Thumb Code    20  os_time.o(.text)
    OSTmrCreate                              0x08012499   Thumb Code   142  os_tmr.o(.text)
    OSTmrReload                              0x08012527   Thumb Code    10  os_tmr.o(.text)
    OSTmrDel                                 0x08012599   Thumb Code   102  os_tmr.o(.text)
    OSTmrRemainGet                           0x080125ff   Thumb Code   134  os_tmr.o(.text)
    OSTmrStateGet                            0x08012685   Thumb Code    78  os_tmr.o(.text)
    OSTmrStart                               0x08012715   Thumb Code   104  os_tmr.o(.text)
    OSTmrStop                                0x0801277d   Thumb Code   154  os_tmr.o(.text)
    OSTmrSignal                              0x08012817   Thumb Code     8  os_tmr.o(.text)
    OSTmr_Init                               0x08012889   Thumb Code   154  os_tmr.o(.text)
    OSTaskStkInit                            0x08012961   Thumb Code   116  os_cpu_c.o(.text)
    OSInitHookBegin                          0x080129d5   Thumb Code     2  os_cpu_c.o(.text)
    OSInitHookEnd                            0x080129d7   Thumb Code     2  os_cpu_c.o(.text)
    OSTaskCreateHook                         0x080129d9   Thumb Code     2  os_cpu_c.o(.text)
    OSTaskDelHook                            0x080129db   Thumb Code     2  os_cpu_c.o(.text)
    OSTaskSwHook                             0x080129dd   Thumb Code     2  os_cpu_c.o(.text)
    OSTaskStatHook                           0x080129df   Thumb Code     2  os_cpu_c.o(.text)
    OSTCBInitHook                            0x080129e1   Thumb Code     2  os_cpu_c.o(.text)
    OSTimeTickHook                           0x080129e3   Thumb Code     2  os_cpu_c.o(.text)
    OSTaskIdleHook                           0x080129e5   Thumb Code     2  os_cpu_c.o(.text)
    OS_ENTER_CRITICAL                        0x080129e9   Thumb Code     0  os_cpu_a.o(.text)
    OS_EXIT_CRITICAL                         0x080129fb   Thumb Code     0  os_cpu_a.o(.text)
    OSStartHighRdy                           0x08012a17   Thumb Code     0  os_cpu_a.o(.text)
    OSCtxSw                                  0x08012a39   Thumb Code     0  os_cpu_a.o(.text)
    OSIntCtxSw                               0x08012a47   Thumb Code     0  os_cpu_a.o(.text)
    PendSV_Handler                           0x08012a57   Thumb Code     0  os_cpu_a.o(.text)
    ItDisAll                                 0x08012a99   Thumb Code     0  os_cpu_a.o(.text)
    NVIC_PriorityGroupConfig                 0x08012ac5   Thumb Code    10  misc.o(.text)
    NVIC_Init                                0x08012acf   Thumb Code    94  misc.o(.text)
    NVIC_SetVectorTable                      0x08012b2d   Thumb Code    14  misc.o(.text)
    NVIC_SystemLPConfig                      0x08012b3b   Thumb Code    20  misc.o(.text)
    SysTick_CLKSourceConfig                  0x08012b4f   Thumb Code    24  misc.o(.text)
    ADC_DeInit                               0x08012b75   Thumb Code    56  stm32f10x_adc.o(.text)
    ADC_Init                                 0x08012bad   Thumb Code    62  stm32f10x_adc.o(.text)
    ADC_StructInit                           0x08012beb   Thumb Code    18  stm32f10x_adc.o(.text)
    ADC_Cmd                                  0x08012bfd   Thumb Code    20  stm32f10x_adc.o(.text)
    ADC_DMACmd                               0x08012c11   Thumb Code    20  stm32f10x_adc.o(.text)
    ADC_ITConfig                             0x08012c25   Thumb Code    18  stm32f10x_adc.o(.text)
    ADC_ResetCalibration                     0x08012c37   Thumb Code    10  stm32f10x_adc.o(.text)
    ADC_GetResetCalibrationStatus            0x08012c41   Thumb Code    14  stm32f10x_adc.o(.text)
    ADC_StartCalibration                     0x08012c4f   Thumb Code    10  stm32f10x_adc.o(.text)
    ADC_GetCalibrationStatus                 0x08012c59   Thumb Code    14  stm32f10x_adc.o(.text)
    ADC_SoftwareStartConvCmd                 0x08012c67   Thumb Code    20  stm32f10x_adc.o(.text)
    ADC_GetSoftwareStartConvStatus           0x08012c7b   Thumb Code    14  stm32f10x_adc.o(.text)
    ADC_DiscModeChannelCountConfig           0x08012c89   Thumb Code    16  stm32f10x_adc.o(.text)
    ADC_DiscModeCmd                          0x08012c99   Thumb Code    20  stm32f10x_adc.o(.text)
    ADC_RegularChannelConfig                 0x08012cad   Thumb Code   116  stm32f10x_adc.o(.text)
    ADC_ExternalTrigConvCmd                  0x08012d21   Thumb Code    20  stm32f10x_adc.o(.text)
    ADC_GetConversionValue                   0x08012d35   Thumb Code     6  stm32f10x_adc.o(.text)
    ADC_GetDualModeConversionValue           0x08012d3b   Thumb Code     8  stm32f10x_adc.o(.text)
    ADC_AutoInjectedConvCmd                  0x08012d43   Thumb Code    20  stm32f10x_adc.o(.text)
    ADC_InjectedDiscModeCmd                  0x08012d57   Thumb Code    20  stm32f10x_adc.o(.text)
    ADC_ExternalTrigInjectedConvConfig       0x08012d6b   Thumb Code    12  stm32f10x_adc.o(.text)
    ADC_ExternalTrigInjectedConvCmd          0x08012d77   Thumb Code    20  stm32f10x_adc.o(.text)
    ADC_SoftwareStartInjectedConvCmd         0x08012d8b   Thumb Code    20  stm32f10x_adc.o(.text)
    ADC_GetSoftwareStartInjectedConvCmdStatus 0x08012d9f   Thumb Code    14  stm32f10x_adc.o(.text)
    ADC_InjectedChannelConfig                0x08012dad   Thumb Code    74  stm32f10x_adc.o(.text)
    ADC_InjectedSequencerLengthConfig        0x08012df7   Thumb Code    16  stm32f10x_adc.o(.text)
    ADC_SetInjectedOffset                    0x08012e07   Thumb Code    10  stm32f10x_adc.o(.text)
    ADC_GetInjectedConversionValue           0x08012e11   Thumb Code    14  stm32f10x_adc.o(.text)
    ADC_AnalogWatchdogCmd                    0x08012e1f   Thumb Code    12  stm32f10x_adc.o(.text)
    ADC_AnalogWatchdogThresholdsConfig       0x08012e2b   Thumb Code     6  stm32f10x_adc.o(.text)
    ADC_AnalogWatchdogSingleChannelConfig    0x08012e31   Thumb Code    12  stm32f10x_adc.o(.text)
    ADC_TempSensorVrefintCmd                 0x08012e3d   Thumb Code    24  stm32f10x_adc.o(.text)
    ADC_GetFlagStatus                        0x08012e55   Thumb Code    14  stm32f10x_adc.o(.text)
    ADC_ClearFlag                            0x08012e63   Thumb Code     6  stm32f10x_adc.o(.text)
    ADC_GetITStatus                          0x08012e69   Thumb Code    28  stm32f10x_adc.o(.text)
    ADC_ClearITPendingBit                    0x08012e85   Thumb Code     8  stm32f10x_adc.o(.text)
    EXTI_DeInit                              0x08012ea5   Thumb Code    28  stm32f10x_exti.o(.text)
    EXTI_Init                                0x08012ec1   Thumb Code   108  stm32f10x_exti.o(.text)
    EXTI_StructInit                          0x08012f2d   Thumb Code    14  stm32f10x_exti.o(.text)
    EXTI_GenerateSWInterrupt                 0x08012f3b   Thumb Code    12  stm32f10x_exti.o(.text)
    EXTI_GetFlagStatus                       0x08012f47   Thumb Code    18  stm32f10x_exti.o(.text)
    EXTI_ClearFlag                           0x08012f59   Thumb Code     8  stm32f10x_exti.o(.text)
    EXTI_GetITStatus                         0x08012f61   Thumb Code    28  stm32f10x_exti.o(.text)
    EXTI_ClearITPendingBit                   0x08012f7d   Thumb Code     8  stm32f10x_exti.o(.text)
    FLASH_SetLatency                         0x08012f8d   Thumb Code    14  stm32f10x_flash.o(.text)
    FLASH_HalfCycleAccessCmd                 0x08012f9b   Thumb Code    18  stm32f10x_flash.o(.text)
    FLASH_PrefetchBufferCmd                  0x08012fad   Thumb Code    18  stm32f10x_flash.o(.text)
    FLASH_Unlock                             0x08012fbf   Thumb Code    12  stm32f10x_flash.o(.text)
    FLASH_UnlockBank1                        0x08012fcb   Thumb Code    12  stm32f10x_flash.o(.text)
    FLASH_Lock                               0x08012fd7   Thumb Code    12  stm32f10x_flash.o(.text)
    FLASH_LockBank1                          0x08012fe3   Thumb Code    12  stm32f10x_flash.o(.text)
    FLASH_GetBank1Status                     0x08012fef   Thumb Code    34  stm32f10x_flash.o(.text)
    FLASH_WaitForLastOperation               0x08013011   Thumb Code    36  stm32f10x_flash.o(.text)
    FLASH_ErasePage                          0x08013035   Thumb Code    56  stm32f10x_flash.o(.text)
    FLASH_EraseAllPages                      0x0801306d   Thumb Code    52  stm32f10x_flash.o(.text)
    FLASH_WaitForLastBank1Operation          0x080130a1   Thumb Code    36  stm32f10x_flash.o(.text)
    FLASH_EraseAllBank1Pages                 0x080130c5   Thumb Code    52  stm32f10x_flash.o(.text)
    FLASH_GetReadOutProtectionStatus         0x080130f9   Thumb Code    14  stm32f10x_flash.o(.text)
    FLASH_EraseOptionBytes                   0x08013107   Thumb Code   108  stm32f10x_flash.o(.text)
    FLASH_ProgramWord                        0x08013173   Thumb Code    72  stm32f10x_flash.o(.text)
    FLASH_ProgramHalfWord                    0x080131bb   Thumb Code    48  stm32f10x_flash.o(.text)
    FLASH_ProgramOptionByteData              0x080131eb   Thumb Code    62  stm32f10x_flash.o(.text)
    FLASH_EnableWriteProtection              0x08013229   Thumb Code   150  stm32f10x_flash.o(.text)
    FLASH_ReadOutProtection                  0x080132bf   Thumb Code   118  stm32f10x_flash.o(.text)
    FLASH_UserOptionByteConfig               0x08013335   Thumb Code    92  stm32f10x_flash.o(.text)
    FLASH_GetUserOptionByte                  0x08013391   Thumb Code     8  stm32f10x_flash.o(.text)
    FLASH_GetWriteProtectionOptionByte       0x08013399   Thumb Code     6  stm32f10x_flash.o(.text)
    FLASH_GetPrefetchBufferStatus            0x0801339f   Thumb Code    14  stm32f10x_flash.o(.text)
    FLASH_ITConfig                           0x080133ad   Thumb Code    18  stm32f10x_flash.o(.text)
    FLASH_GetFlagStatus                      0x080133bf   Thumb Code    28  stm32f10x_flash.o(.text)
    FLASH_ClearFlag                          0x080133db   Thumb Code     6  stm32f10x_flash.o(.text)
    FLASH_GetStatus                          0x080133e1   Thumb Code    34  stm32f10x_flash.o(.text)
    GPIO_DeInit                              0x08013409   Thumb Code   152  stm32f10x_gpio.o(.text)
    GPIO_AFIODeInit                          0x080134a1   Thumb Code    22  stm32f10x_gpio.o(.text)
    GPIO_Init                                0x080134b7   Thumb Code   164  stm32f10x_gpio.o(.text)
    GPIO_StructInit                          0x0801355b   Thumb Code    16  stm32f10x_gpio.o(.text)
    GPIO_ReadInputDataBit                    0x0801356b   Thumb Code    14  stm32f10x_gpio.o(.text)
    GPIO_ReadInputData                       0x08013579   Thumb Code     6  stm32f10x_gpio.o(.text)
    GPIO_ReadOutputDataBit                   0x0801357f   Thumb Code    14  stm32f10x_gpio.o(.text)
    GPIO_ReadOutputData                      0x0801358d   Thumb Code     6  stm32f10x_gpio.o(.text)
    GPIO_SetBits                             0x08013593   Thumb Code     4  stm32f10x_gpio.o(.text)
    GPIO_ResetBits                           0x08013597   Thumb Code     4  stm32f10x_gpio.o(.text)
    GPIO_WriteBit                            0x0801359b   Thumb Code    10  stm32f10x_gpio.o(.text)
    GPIO_Write                               0x080135a5   Thumb Code     4  stm32f10x_gpio.o(.text)
    GPIO_PinLockConfig                       0x080135a9   Thumb Code    16  stm32f10x_gpio.o(.text)
    GPIO_EventOutputConfig                   0x080135b9   Thumb Code    22  stm32f10x_gpio.o(.text)
    GPIO_EventOutputCmd                      0x080135cf   Thumb Code     6  stm32f10x_gpio.o(.text)
    GPIO_PinRemapConfig                      0x080135d5   Thumb Code    82  stm32f10x_gpio.o(.text)
    GPIO_EXTILineConfig                      0x08013627   Thumb Code    34  stm32f10x_gpio.o(.text)
    GPIO_ETH_MediaInterfaceConfig            0x08013649   Thumb Code     8  stm32f10x_gpio.o(.text)
    PWR_DeInit                               0x08013675   Thumb Code    24  stm32f10x_pwr.o(.text)
    PWR_BackupAccessCmd                      0x0801368d   Thumb Code     6  stm32f10x_pwr.o(.text)
    PWR_PVDCmd                               0x08013693   Thumb Code     6  stm32f10x_pwr.o(.text)
    PWR_PVDLevelConfig                       0x08013699   Thumb Code    14  stm32f10x_pwr.o(.text)
    PWR_WakeUpPinCmd                         0x080136a7   Thumb Code     8  stm32f10x_pwr.o(.text)
    PWR_EnterSLEEPMode                       0x080136af   Thumb Code    40  stm32f10x_pwr.o(.text)
    PWR_EnterSTOPMode                        0x080136d7   Thumb Code    42  stm32f10x_pwr.o(.text)
    PWR_EnterSTANDBYMode                     0x08013701   Thumb Code    32  stm32f10x_pwr.o(.text)
    PWR_GetFlagStatus                        0x08013721   Thumb Code    16  stm32f10x_pwr.o(.text)
    PWR_ClearFlag                            0x08013731   Thumb Code    12  stm32f10x_pwr.o(.text)
    RCC_DeInit                               0x08013749   Thumb Code    50  stm32f10x_rcc.o(.text)
    RCC_HSEConfig                            0x0801377b   Thumb Code    48  stm32f10x_rcc.o(.text)
    RCC_GetFlagStatus                        0x080137ab   Thumb Code    42  stm32f10x_rcc.o(.text)
    RCC_WaitForHSEStartUp                    0x080137d5   Thumb Code    44  stm32f10x_rcc.o(.text)
    RCC_AdjustHSICalibrationValue            0x08013801   Thumb Code    16  stm32f10x_rcc.o(.text)
    RCC_HSICmd                               0x08013811   Thumb Code     6  stm32f10x_rcc.o(.text)
    RCC_PLLConfig                            0x08013817   Thumb Code    16  stm32f10x_rcc.o(.text)
    RCC_PLLCmd                               0x08013827   Thumb Code     6  stm32f10x_rcc.o(.text)
    RCC_SYSCLKConfig                         0x0801382d   Thumb Code    14  stm32f10x_rcc.o(.text)
    RCC_GetSYSCLKSource                      0x0801383b   Thumb Code    10  stm32f10x_rcc.o(.text)
    RCC_HCLKConfig                           0x08013845   Thumb Code    14  stm32f10x_rcc.o(.text)
    RCC_PCLK1Config                          0x08013853   Thumb Code    14  stm32f10x_rcc.o(.text)
    RCC_PCLK2Config                          0x08013861   Thumb Code    16  stm32f10x_rcc.o(.text)
    RCC_ITConfig                             0x08013871   Thumb Code    18  stm32f10x_rcc.o(.text)
    RCC_USBCLKConfig                         0x08013883   Thumb Code     8  stm32f10x_rcc.o(.text)
    RCC_ADCCLKConfig                         0x0801388b   Thumb Code    14  stm32f10x_rcc.o(.text)
    RCC_LSEConfig                            0x08013899   Thumb Code    28  stm32f10x_rcc.o(.text)
    RCC_LSICmd                               0x080138b5   Thumb Code     6  stm32f10x_rcc.o(.text)
    RCC_RTCCLKConfig                         0x080138bb   Thumb Code    10  stm32f10x_rcc.o(.text)
    RCC_RTCCLKCmd                            0x080138c5   Thumb Code     8  stm32f10x_rcc.o(.text)
    RCC_GetClocksFreq                        0x080138cd   Thumb Code   128  stm32f10x_rcc.o(.text)
    RCC_AHBPeriphClockCmd                    0x0801394d   Thumb Code    18  stm32f10x_rcc.o(.text)
    RCC_APB2PeriphClockCmd                   0x0801395f   Thumb Code    18  stm32f10x_rcc.o(.text)
    RCC_APB1PeriphClockCmd                   0x08013971   Thumb Code    18  stm32f10x_rcc.o(.text)
    RCC_APB2PeriphResetCmd                   0x08013983   Thumb Code    18  stm32f10x_rcc.o(.text)
    RCC_APB1PeriphResetCmd                   0x08013995   Thumb Code    18  stm32f10x_rcc.o(.text)
    RCC_BackupResetCmd                       0x080139a7   Thumb Code     8  stm32f10x_rcc.o(.text)
    RCC_ClockSecuritySystemCmd               0x080139af   Thumb Code     6  stm32f10x_rcc.o(.text)
    RCC_MCOConfig                            0x080139b5   Thumb Code     6  stm32f10x_rcc.o(.text)
    RCC_ClearFlag                            0x080139bb   Thumb Code    12  stm32f10x_rcc.o(.text)
    RCC_GetITStatus                          0x080139c7   Thumb Code    16  stm32f10x_rcc.o(.text)
    RCC_ClearITPendingBit                    0x080139d7   Thumb Code     6  stm32f10x_rcc.o(.text)
    SPI_I2S_DeInit                           0x080139fd   Thumb Code    72  stm32f10x_spi.o(.text)
    SPI_Init                                 0x08013a45   Thumb Code    56  stm32f10x_spi.o(.text)
    I2S_Init                                 0x08013a7d   Thumb Code   152  stm32f10x_spi.o(.text)
    SPI_StructInit                           0x08013b15   Thumb Code    24  stm32f10x_spi.o(.text)
    I2S_StructInit                           0x08013b2d   Thumb Code    18  stm32f10x_spi.o(.text)
    SPI_Cmd                                  0x08013b3f   Thumb Code    20  stm32f10x_spi.o(.text)
    I2S_Cmd                                  0x08013b53   Thumb Code    20  stm32f10x_spi.o(.text)
    SPI_I2S_ITConfig                         0x08013b67   Thumb Code    24  stm32f10x_spi.o(.text)
    SPI_I2S_DMACmd                           0x08013b7f   Thumb Code    16  stm32f10x_spi.o(.text)
    SPI_I2S_SendData                         0x08013b8f   Thumb Code     4  stm32f10x_spi.o(.text)
    SPI_I2S_ReceiveData                      0x08013b93   Thumb Code     4  stm32f10x_spi.o(.text)
    SPI_NSSInternalSoftwareConfig            0x08013b97   Thumb Code    24  stm32f10x_spi.o(.text)
    SPI_SSOutputCmd                          0x08013baf   Thumb Code    20  stm32f10x_spi.o(.text)
    SPI_DataSizeConfig                       0x08013bc3   Thumb Code    16  stm32f10x_spi.o(.text)
    SPI_TransmitCRC                          0x08013bd3   Thumb Code    10  stm32f10x_spi.o(.text)
    SPI_CalculateCRC                         0x08013bdd   Thumb Code    20  stm32f10x_spi.o(.text)
    SPI_GetCRC                               0x08013bf1   Thumb Code    12  stm32f10x_spi.o(.text)
    SPI_GetCRCPolynomial                     0x08013bfd   Thumb Code     4  stm32f10x_spi.o(.text)
    SPI_BiDirectionalLineConfig              0x08013c01   Thumb Code    22  stm32f10x_spi.o(.text)
    SPI_I2S_GetFlagStatus                    0x08013c17   Thumb Code    14  stm32f10x_spi.o(.text)
    SPI_I2S_ClearFlag                        0x08013c25   Thumb Code     6  stm32f10x_spi.o(.text)
    SPI_I2S_GetITStatus                      0x08013c2b   Thumb Code    42  stm32f10x_spi.o(.text)
    SPI_I2S_ClearITPendingBit                0x08013c55   Thumb Code    14  stm32f10x_spi.o(.text)
    USART_DeInit                             0x08013c71   Thumb Code    96  stm32f10x_usart.o(.text)
    USART_Init                               0x08013cd1   Thumb Code   166  stm32f10x_usart.o(.text)
    USART_StructInit                         0x08013d77   Thumb Code    22  stm32f10x_usart.o(.text)
    USART_ClockInit                          0x08013d8d   Thumb Code    30  stm32f10x_usart.o(.text)
    USART_ClockStructInit                    0x08013dab   Thumb Code    12  stm32f10x_usart.o(.text)
    USART_Cmd                                0x08013db7   Thumb Code    20  stm32f10x_usart.o(.text)
    USART_ITConfig                           0x08013dcb   Thumb Code    48  stm32f10x_usart.o(.text)
    USART_DMACmd                             0x08013dfb   Thumb Code    16  stm32f10x_usart.o(.text)
    USART_SetAddress                         0x08013e0b   Thumb Code    16  stm32f10x_usart.o(.text)
    USART_WakeUpConfig                       0x08013e1b   Thumb Code    16  stm32f10x_usart.o(.text)
    USART_ReceiverWakeUpCmd                  0x08013e2b   Thumb Code    20  stm32f10x_usart.o(.text)
    USART_LINBreakDetectLengthConfig         0x08013e3f   Thumb Code    16  stm32f10x_usart.o(.text)
    USART_LINCmd                             0x08013e4f   Thumb Code    20  stm32f10x_usart.o(.text)
    USART_SendData                           0x08013e63   Thumb Code     8  stm32f10x_usart.o(.text)
    USART_ReceiveData                        0x08013e6b   Thumb Code     8  stm32f10x_usart.o(.text)
    USART_SendBreak                          0x08013e73   Thumb Code    10  stm32f10x_usart.o(.text)
    USART_SetGuardTime                       0x08013e7d   Thumb Code    16  stm32f10x_usart.o(.text)
    USART_SetPrescaler                       0x08013e8d   Thumb Code    16  stm32f10x_usart.o(.text)
    USART_SmartCardCmd                       0x08013e9d   Thumb Code    20  stm32f10x_usart.o(.text)
    USART_SmartCardNACKCmd                   0x08013eb1   Thumb Code    20  stm32f10x_usart.o(.text)
    USART_HalfDuplexCmd                      0x08013ec5   Thumb Code    20  stm32f10x_usart.o(.text)
    USART_OverSampling8Cmd                   0x08013ed9   Thumb Code    20  stm32f10x_usart.o(.text)
    USART_OneBitMethodCmd                    0x08013eed   Thumb Code    20  stm32f10x_usart.o(.text)
    USART_IrDAConfig                         0x08013f01   Thumb Code    16  stm32f10x_usart.o(.text)
    USART_IrDACmd                            0x08013f11   Thumb Code    20  stm32f10x_usart.o(.text)
    USART_GetFlagStatus                      0x08013f25   Thumb Code    14  stm32f10x_usart.o(.text)
    USART_ClearFlag                          0x08013f33   Thumb Code     6  stm32f10x_usart.o(.text)
    USART_GetITStatus                        0x08013f39   Thumb Code    62  stm32f10x_usart.o(.text)
    USART_ClearITPendingBit                  0x08013f77   Thumb Code    12  stm32f10x_usart.o(.text)
    __aeabi_memcpy                           0x08013f99   Thumb Code    36  memcpya.o(.text)
    __aeabi_memcpy4                          0x08013f99   Thumb Code     0  memcpya.o(.text)
    __aeabi_memcpy8                          0x08013f99   Thumb Code     0  memcpya.o(.text)
    __aeabi_memset                           0x08013fbd   Thumb Code    14  memseta.o(.text)
    __aeabi_memset4                          0x08013fbd   Thumb Code     0  memseta.o(.text)
    __aeabi_memset8                          0x08013fbd   Thumb Code     0  memseta.o(.text)
    __aeabi_memclr                           0x08013fcb   Thumb Code     4  memseta.o(.text)
    __aeabi_memclr4                          0x08013fcb   Thumb Code     0  memseta.o(.text)
    __aeabi_memclr8                          0x08013fcb   Thumb Code     0  memseta.o(.text)
    _memset$wrapper                          0x08013fcf   Thumb Code    18  memseta.o(.text)
    __aeabi_fadd                             0x08013fe1   Thumb Code   164  fadd.o(.text)
    __aeabi_fsub                             0x08014085   Thumb Code     6  fadd.o(.text)
    __aeabi_frsub                            0x0801408b   Thumb Code     6  fadd.o(.text)
    __aeabi_fmul                             0x08014091   Thumb Code   100  fmul.o(.text)
    __aeabi_fdiv                             0x080140f5   Thumb Code   124  fdiv.o(.text)
    __ARM_scalbnf                            0x08014171   Thumb Code    24  fscalb.o(.text)
    scalbnf                                  0x08014171   Thumb Code     0  fscalb.o(.text)
    __aeabi_ui2f                             0x08014189   Thumb Code    10  ffltui.o(.text)
    __aeabi_f2iz                             0x08014193   Thumb Code    50  ffixi.o(.text)
    __aeabi_f2uiz                            0x080141c5   Thumb Code    40  ffixui.o(.text)
    __aeabi_cfcmpeq                          0x080141ed   Thumb Code     0  cfcmple.o(.text)
    __aeabi_cfcmple                          0x080141ed   Thumb Code    20  cfcmple.o(.text)
    __I$use$fp                               0x08014201   Thumb Code     0  iusefp.o(.text)
    _float_round                             0x08014201   Thumb Code    18  fepilogue.o(.text)
    _float_epilogue                          0x08014213   Thumb Code    92  fepilogue.o(.text)
    __scatterload                            0x08014271   Thumb Code    28  init.o(.text)
    __scatterload_rt2                        0x08014271   Thumb Code     0  init.o(.text)
    __decompress                             0x08014295   Thumb Code     0  __dczerorl2.o(.text)
    __decompress1                            0x08014295   Thumb Code    86  __dczerorl2.o(.text)
    __scatterload_copy                       0x080142eb   Thumb Code    14  handlers.o(i.__scatterload_copy)
    __scatterload_null                       0x080142f9   Thumb Code     2  handlers.o(i.__scatterload_null)
    __scatterload_zeroinit                   0x080142fb   Thumb Code    14  handlers.o(i.__scatterload_zeroinit)
    g_expTime                                0x08014308   Data          62  flash.o(.constdata)
    g_hpExpCode                              0x08014346   Data          44  flash.o(.constdata)
    g_extExpCode                             0x08014372   Data          56  flash.o(.constdata)
    g_flaExpCode                             0x080143aa   Data          62  flash.o(.constdata)
    g_snrPageCnt                             0x080143e8   Data           3  menu.o(.constdata)
    g_snrMenuP1                              0x080143ec   Data          96  menu.o(.constdata)
    g_snrMenuP2                              0x0801444c   Data          80  menu.o(.constdata)
    g_snrMenuP3                              0x0801449c   Data          48  menu.o(.constdata)
    MotoDrv_Forward                          0x080144cc   Data           4  moto.o(.constdata)
    MotoDrv_Backward                         0x080144d0   Data           4  moto.o(.constdata)
    focLenScape                              0x080144d4   Data          13  moto.o(.constdata)
    focLenCoordinate                         0x080144e2   Data          26  moto.o(.constdata)
    apertValue                               0x080144fc   Data          68  nikdisplay.o(.constdata)
    isoValue                                 0x08014540   Data         232  nikdisplay.o(.constdata)
    gn_min                                   0x08014628   Data         136  nikdisplay.o(.constdata)
    gn_max                                   0x080146b0   Data         204  nikdisplay.o(.constdata)
    g_gnByExp                                0x0801477c   Data         272  nikdisplay.o(.constdata)
    g_gnByExpHp                              0x0801488c   Data         272  nikdisplay.o(.constdata)
    cmrApertVal                              0x0801499c   Data          88  nikdisplay.o(.constdata)
    apert_code                               0x080149f4   Data          44  spi.o(.constdata)
    cmrIsoVal                                0x08014a20   Data         184  spi.o(.constdata)
    cmrIsoValExt                             0x08014ad8   Data         124  spi.o(.constdata)
    nShutter                                 0x08014b54   Data         156  spi.o(.constdata)
    focLen_code                              0x08014bf0   Data          55  spi.o(.constdata)
    focLen_val                               0x08014c27   Data          55  spi.o(.constdata)
    output_calc                              0x08014c5e   Data          22  spi.o(.constdata)
    cmp_calc                                 0x08014c74   Data          19  spi.o(.constdata)
    pic_mod_a                                0x08014c87   Data          34  font.o(.constdata)
    pic_mod_gn                               0x08014ca9   Data          50  font.o(.constdata)
    pic_mod_ttl                              0x08014cdb   Data          62  font.o(.constdata)
    pic_mod_m                                0x08014d19   Data          38  font.o(.constdata)
    pic_mod_rpt                              0x08014d3f   Data          68  font.o(.constdata)
    pic_mod_bl                               0x08014d83   Data          44  font.o(.constdata)
    pic_mod_fp                               0x08014daf   Data          46  font.o(.constdata)
    pic_mod_ak                               0x08014ddd   Data          56  font.o(.constdata)
    pic_mod_afill                            0x08014e15   Data          80  font.o(.constdata)
    pic_mod_rfOnly                           0x08014e65   Data         128  font.o(.constdata)
    pic_mod_Only                             0x08014ee5   Data          60  font.o(.constdata)
    font_isoNum                              0x08014f21   Data         100  font.o(.constdata)
    font_apertNum                            0x08014f85   Data         160  font.o(.constdata)
    font_mExpApart                           0x08015025   Data          14  font.o(.constdata)
    font_scaleNum                            0x08015033   Data         200  font.o(.constdata)
    font_exp2Num                             0x080150fb   Data         120  font.o(.constdata)
    font_gnScaleSmNum                        0x08015173   Data         120  font.o(.constdata)
    picExp2Dot                               0x080151eb   Data           4  font.o(.constdata)
    picGnSmDot                               0x080151ef   Data           4  font.o(.constdata)
    picEv                                    0x080151f3   Data          22  font.o(.constdata)
    picIso                                   0x08015209   Data          34  font.o(.constdata)
    picIsoAuto                               0x0801522b   Data          56  font.o(.constdata)
    picStby                                  0x08015263   Data         144  font.o(.constdata)
    picCmpAdd                                0x080152f3   Data          10  font.o(.constdata)
    picCmpSub                                0x080152fd   Data          10  font.o(.constdata)
    picGnFoc                                 0x08015307   Data          14  font.o(.constdata)
    picGnFocMask                             0x08015315   Data          18  font.o(.constdata)
    picMultiTimes                            0x08015327   Data          40  font.o(.constdata)
    picMultiHz                               0x0801534f   Data          16  font.o(.constdata)
    picMstRptTimes                           0x0801535f   Data          40  font.o(.constdata)
    picMultiTmsHz                            0x08015387   Data           6  font.o(.constdata)
    picMstRptHz                              0x0801538d   Data          16  font.o(.constdata)
    picMstRptOn                              0x0801539d   Data          30  font.o(.constdata)
    picMstRptOff                             0x080153bb   Data          42  font.o(.constdata)
    picScale_m                               0x080153e5   Data         216  font.o(.constdata)
    picScale_ft                              0x080154bd   Data         216  font.o(.constdata)
    picGnScale_ft                            0x08015595   Data         224  font.o(.constdata)
    picGnScale_m                             0x08015675   Data         226  font.o(.constdata)
    picZoomModZoom                           0x08015757   Data          22  font.o(.constdata)
    picZoomModM                              0x0801576d   Data           9  font.o(.constdata)
    picMm                                    0x08015776   Data          11  font.o(.constdata)
    picZoomMin                               0x08015781   Data           6  font.o(.constdata)
    picZoomMax                               0x08015787   Data           6  font.o(.constdata)
    picApert_F                               0x0801578d   Data          14  font.o(.constdata)
    picBtnZoom                               0x0801579b   Data          50  font.o(.constdata)
    picBtnZoomBack                           0x080157cd   Data          52  font.o(.constdata)
    picBtnFlashMode                          0x08015801   Data          26  font.o(.constdata)
    picBtnFlash                              0x0801581b   Data          14  font.o(.constdata)
    picBtnLock                               0x08015829   Data         100  font.o(.constdata)
    picCurse                                 0x0801588d   Data          14  font.o(.constdata)
    fontScaleDot                             0x0801589b   Data           6  font.o(.constdata)
    fontScale_m                              0x080158a1   Data          20  font.o(.constdata)
    fontScale_ft                             0x080158b5   Data          26  font.o(.constdata)
    fontScale_div                            0x080158cf   Data           8  font.o(.constdata)
    fontGn_Arrow_Left                        0x080158d7   Data           6  font.o(.constdata)
    fontGn_Arrow_Right                       0x080158dd   Data           6  font.o(.constdata)
    picSnrSubBack                            0x080158e3   Data          22  font.o(.constdata)
    picSnrSubMyMenuSel                       0x080158f9   Data          44  font.o(.constdata)
    picSnrSubArrow                           0x08015925   Data           8  font.o(.constdata)
    picSnrSubArrowEx                         0x0801592d   Data           8  font.o(.constdata)
    picSnrFrame                              0x08015935   Data          39  font.o(.constdata)
    picSnrSubMyMenu_sel                      0x0801595c   Data          26  font.o(.constdata)
    picSnrSubMyMenu_unsel                    0x08015976   Data          26  font.o(.constdata)
    fontSnrSubChar                           0x08015990   Data        1352  font.o(.constdata)
    picRmtIcon                               0x08015ed8   Data          32  font.o(.constdata)
    picMstIcon                               0x08015ef8   Data          32  font.o(.constdata)
    picRmtTitle                              0x08015f18   Data         132  font.o(.constdata)
    picRmtGrMsk                              0x08015f9c   Data          30  font.o(.constdata)
    picRmtGr                                 0x08015fba   Data          30  font.o(.constdata)
    picRmtChMsk                              0x08015fd8   Data          30  font.o(.constdata)
    picRmtCh                                 0x08015ff6   Data          30  font.o(.constdata)
    picRmtDot                                0x08016014   Data           4  font.o(.constdata)
    picRmtLeft                               0x08016018   Data           6  font.o(.constdata)
    picRmtRight                              0x0801601e   Data           6  font.o(.constdata)
    fontRmtGr                                0x08016024   Data          30  font.o(.constdata)
    fontRmtGrSel                             0x08016042   Data          54  font.o(.constdata)
    fontRmtCh                                0x08016078   Data          40  font.o(.constdata)
    picMstFrame                              0x080160a0   Data          22  font.o(.constdata)
    picMstGrm                                0x080160b6   Data          22  font.o(.constdata)
    picMstGra                                0x080160cc   Data          22  font.o(.constdata)
    picMstGrb                                0x080160e2   Data          22  font.o(.constdata)
    picMstGrc                                0x080160f8   Data          22  font.o(.constdata)
    picMstModM                               0x0801610e   Data          22  font.o(.constdata)
    picMstModTtl                             0x08016124   Data          54  font.o(.constdata)
    picMstModAuto                            0x0801615a   Data          18  font.o(.constdata)
    picMstModOff                             0x0801616c   Data          38  font.o(.constdata)
    picMstExpHead                            0x08016192   Data          22  font.o(.constdata)
    picMstEv                                 0x080161a8   Data          18  font.o(.constdata)
    fontMstManuExp                           0x080161ba   Data         160  font.o(.constdata)
    fontSu4                                  0x0801625a   Data          66  font.o(.constdata)
    picRmtSu4ModOff                          0x0801629c   Data          88  font.o(.constdata)
    picRmtSu4ModAuto                         0x080162f4   Data          72  font.o(.constdata)
    picChFrameMask                           0x0801633c   Data          56  font.o(.constdata)
    picChFrame                               0x08016374   Data          56  font.o(.constdata)
    fontMstCh                                0x080163ac   Data          48  font.o(.constdata)
    picLightBody_up                          0x080163dc   Data          42  font.o(.constdata)
    picLightBody_un                          0x08016406   Data          20  font.o(.constdata)
    picLightBody_af                          0x0801641a   Data          11  font.o(.constdata)
    picLightBody_bk                          0x08016425   Data           4  font.o(.constdata)
    picLightBody_fr_parallel                 0x08016429   Data          16  font.o(.constdata)
    picLightBody_fr_reflect                  0x08016439   Data          28  font.o(.constdata)
    picTempratureWarn                        0x08016455   Data          60  font.o(.constdata)
    picVoiceOff                              0x08016491   Data          32  font.o(.constdata)
    picVoiceOn                               0x080164b1   Data          26  font.o(.constdata)
    picHeadUp                                0x080164cb   Data          14  font.o(.constdata)
    picHeadDn                                0x080164d9   Data          14  font.o(.constdata)
    picLowBat                                0x080164e7   Data         132  font.o(.constdata)
    picLinkCls                               0x0801656b   Data          45  font.o(.constdata)
    picLinkFla                               0x08016598   Data          30  font.o(.constdata)
    picScaleOver                             0x080165b6   Data          16  font.o(.constdata)
    picScaleUnder                            0x080165c6   Data          16  font.o(.constdata)
    picReset                                 0x080165d6   Data         372  font.o(.constdata)
    picZoomFixedFrame                        0x0801674a   Data          44  font.o(.constdata)
    picBtnFlashWeak                          0x08016776   Data          18  font.o(.constdata)
    picMenuLabel                             0x08016788   Data         135  font.o(.constdata)
    picMenuLabel_f1                          0x0801680f   Data          26  font.o(.constdata)
    picMenuLabel_f2                          0x08016829   Data          26  font.o(.constdata)
    picMenuLabel_f3                          0x08016843   Data          26  font.o(.constdata)
    picMenuLabel_s1                          0x0801685d   Data           9  font.o(.constdata)
    picMenuLabel_s2                          0x08016866   Data           9  font.o(.constdata)
    picMenuLabel_s3                          0x0801686f   Data           9  font.o(.constdata)
    picMenuLabel_1                           0x08016878   Data         135  font.o(.constdata)
    picMenuLabel_2                           0x080168ff   Data         135  font.o(.constdata)
    picMenuLabel_3                           0x08016986   Data         135  font.o(.constdata)
    picMenuMode                              0x08016a0d   Data         129  font.o(.constdata)
    picMenuAuto                              0x08016a8e   Data          45  font.o(.constdata)
    picMenuFxDx                              0x08016abb   Data         105  font.o(.constdata)
    picMenuAf                                0x08016b24   Data         141  font.o(.constdata)
    picMenuIso                               0x08016bb1   Data          60  font.o(.constdata)
    picMenuReset0                            0x08016bed   Data         141  font.o(.constdata)
    picMenuChan                              0x08016c7a   Data         144  font.o(.constdata)
    picMenuLinkMode                          0x08016d0a   Data         150  font.o(.constdata)
    picMenuPair                              0x08016da0   Data          84  font.o(.constdata)
    picMenuPin                               0x08016df4   Data          60  font.o(.constdata)
    picMenuName                              0x08016e30   Data          81  font.o(.constdata)
    picMenuMft                               0x08016e81   Data          93  font.o(.constdata)
    picMenuVer                               0x08016ede   Data          78  font.o(.constdata)
    picMenuReset1                            0x08016f2c   Data         144  font.o(.constdata)
    picMenuShadowLeft_1                      0x08016fbc   Data          12  font.o(.constdata)
    picMenuShadowLeft_2                      0x08016fc8   Data          12  font.o(.constdata)
    picMenuShadowRight_1                     0x08016fd4   Data          12  font.o(.constdata)
    picMenuShadowRight_2                     0x08016fe0   Data          12  font.o(.constdata)
    picSubModRpt                             0x08016fec   Data          70  font.o(.constdata)
    picSubModManu                            0x08017032   Data          38  font.o(.constdata)
    picSubModGn                              0x08017058   Data          54  font.o(.constdata)
    picSubModAuto                            0x0801708e   Data          64  font.o(.constdata)
    picSubModFunc                            0x080170ce   Data          90  font.o(.constdata)
    OSMapTbl                                 0x08017128   Data           8  os_core.o(.constdata)
    OSUnMapTbl                               0x08017130   Data         256  os_core.o(.constdata)
    Region$$Table$$Base                      0x08017234   Number         0  anon$$obj.o(Region$$Table)
    Region$$Table$$Limit                     0x08017254   Number         0  anon$$obj.o(Region$$Table)
    ttl_pre2_flag                            0x20000000   Data           1  flash.o(.data)
    g_signalFlash                            0x20000001   Data           1  flash.o(.data)
    g_buzzerOn                               0x20000002   Data           1  flash.o(.data)
    wl_preIndex                              0x20000003   Data           1  flash.o(.data)
    g_wtch_wt1                               0x20000004   Data           2  flash.o(.data)
    g_wtch_wt2                               0x20000006   Data           2  flash.o(.data)
    g_slaveBzEn                              0x20000008   Data           1  flash.o(.data)
    g_slaveBzCnt                             0x20000009   Data           1  flash.o(.data)
    g_keyDir                                 0x2000000c   Data           1  keyproc.o(.data)
    g_chargeOk                               0x2000000d   Data           1  keyproc.o(.data)
    g_SettingIndex                           0x2000000e   Data           1  keyproc.o(.data)
    g_menuLevel                              0x2000000f   Data           1  keyproc.o(.data)
    g_mstSetRsv                              0x20000010   Data           1  keyproc.o(.data)
    g_mstSetting                             0x20000011   Data           1  keyproc.o(.data)
    g_shadowKey                              0x20000012   Data           1  keyproc.o(.data)
    g_stbyStatue                             0x20000013   Data           1  keyproc.o(.data)
    g_chargeflag                             0x2000001b   Data           1  keyproc.o(.data)
    g_mpIndex                                0x20000020   Data           3  keyproc.o(.data)
    g_modeRsv                                0x20000023   Data           3  keyproc.o(.data)
    gWSleepCounter                           0x20000028   Data           4  keyproc.o(.data)
    pMenuList                                0x2000002c   Data           4  keyproc.o(.data)
    g_bzDuration                             0x20000030   Data           4  keyproc.o(.data)
    g_mstFlaEnable                           0x2000003c   Data           1  keyproc.o(.data)
    g_mstEnFlag                              0x2000003d   Data           1  keyproc.o(.data)
    g_rptPilotFlag                           0x2000003e   Data           1  keyproc.o(.data)
    g_bzCount                                0x2000003f   Data           1  main.o(.data)
    g_keyAdcEnable                           0x20000040   Data           1  main.o(.data)
    g_isSlaveVoice                           0x20000041   Data           1  main.o(.data)
    g_motoInvalidCounter                     0x20000042   Data           1  main.o(.data)
    g_upDnSensor                             0x20000043   Data           1  main.o(.data)
    g_comStatue                              0x20000044   Data           1  main.o(.data)
    slvPilotSet                              0x2000004c   Data           2  main.o(.data)
    bkParas                                  0x2000004e   Data           3  main.o(.data)
    mstPara                                  0x20000054   Data           4  main.o(.data)
    g_cmdMode                                0x20000058   Data           4  main.o(.data)
    g_expAccHotWarnValue                     0x2000005c   Data           4  main.o(.data)
    g_bkTmr                                  0x20000064   Data           4  main.o(.data)
    g_bzTmr                                  0x20000068   Data           4  main.o(.data)
    pSnrSet                                  0x2000006c   Data           4  main.o(.data)
    TASK_RPTFLASH_STK                        0x20000070   Data           4  main.o(.data)
    g_expTTLPara1                            0x20000074   Data           1  main.o(.data)
    g_expTTLPara2                            0x20000075   Data           1  main.o(.data)
    g_isReflectPulled                        0x20000076   Data           1  main.o(.data)
    g_GnScale                                0x20000077   Data          34  main.o(.data)
    g_comAck                                 0x20000099   Data           1  main.o(.data)
    flashPara                                0x2000009c   Data           8  main.o(.data)
    g_snrIndex                               0x200000a4   Data           1  menu.o(.data)
    g_snrSubIndex                            0x200000a5   Data           1  menu.o(.data)
    g_snrPageIndex                           0x200000a6   Data           1  menu.o(.data)
    g_snrMyMenuBits                          0x200000a8   Data           4  menu.o(.data)
    g_snrStart                               0x200000ac   Data           1  menu.o(.data)
    g_snrMyMenuSelStart                      0x200000ad   Data           1  menu.o(.data)
    g_snrMyMenuSelIndex                      0x200000ae   Data           1  menu.o(.data)
    snrSubMode                               0x200000b0   Data          12  menu.o(.data)
    snrSubApert                              0x200000bc   Data          12  menu.o(.data)
    snrSubFxDx                               0x200000c8   Data          12  menu.o(.data)
    snrSubAf                                 0x200000d4   Data          12  menu.o(.data)
    snrSubIso                                0x200000e0   Data          12  menu.o(.data)
    snrSubReset0                             0x200000ec   Data          12  menu.o(.data)
    snrSubChan                               0x200000f8   Data          12  menu.o(.data)
    snrSubLinkMode                           0x20000104   Data          12  menu.o(.data)
    snrSubPair                               0x20000110   Data          12  menu.o(.data)
    snrSubPin                                0x2000011c   Data          12  menu.o(.data)
    snrSubName                               0x20000128   Data          12  menu.o(.data)
    snrSubMft                                0x20000134   Data          12  menu.o(.data)
    snrSubVer                                0x20000140   Data          12  menu.o(.data)
    snrSubReset1                             0x2000014c   Data          12  menu.o(.data)
    g_moto_error                             0x20000158   Data           1  moto.o(.data)
    g_chargeShadow                           0x2000015b   Data           1  moto.o(.data)
    g_flectDestRsv                           0x20000160   Data           2  moto.o(.data)
    g_menuId                                 0x20000164   Data           1  nikdisplay.o(.data)
    g_allMyMenuSw                            0x20000165   Data           1  nikdisplay.o(.data)
    g_flashMode                              0x20000166   Data           1  nikdisplay.o(.data)
    g_cmrFxOrDx                              0x20000167   Data           1  nikdisplay.o(.data)
    g_isSoftLightCoverOn                     0x20000168   Data           1  nikdisplay.o(.data)
    g_dspCmpMod                              0x20000169   Data           1  nikdisplay.o(.data)
    g_dspUpdateFlag                          0x2000016a   Data           2  nikdisplay.o(.data)
    nikMaxCalc                               0x2000016c   Data         140  nikdisplay.o(.data)
    btnNull                                  0x200001f8   Data          20  nikdisplay.o(.data)
    btnNullBack                              0x2000020c   Data          20  nikdisplay.o(.data)
    btnZoom                                  0x20000220   Data          20  nikdisplay.o(.data)
    btnZoomBack                              0x20000234   Data          20  nikdisplay.o(.data)
    btnPilot                                 0x20000248   Data          20  nikdisplay.o(.data)
    btnMyMenuBack                            0x2000025c   Data          20  nikdisplay.o(.data)
    btnMyMenuSel                             0x20000270   Data          20  nikdisplay.o(.data)
    btnFlashMode                             0x20000284   Data          20  nikdisplay.o(.data)
    fac_us                                   0x20000298   Data           1  delay.o(.data)
    fac_ms                                   0x2000029a   Data           2  delay.o(.data)
    g_rcvBufIndex                            0x2000029c   Data           1  spi.o(.data)
    g_srFlag                                 0x2000029d   Data           1  spi.o(.data)
    g_srMod                                  0x2000029e   Data           1  spi.o(.data)
    g_spiBuf                                 0x2000029f   Data           1  spi.o(.data)
    g_cmdCode                                0x200002a0   Data           1  spi.o(.data)
    g_datRcvFlag                             0x200002a1   Data           1  spi.o(.data)
    g_isAfOn                                 0x200002a2   Data           1  spi.o(.data)
    g_afOnCnt                                0x200002a3   Data           1  spi.o(.data)
    g_cmdSrFlag                              0x200002a4   Data           1  spi.o(.data)
    g_srTotal                                0x200002a5   Data           1  spi.o(.data)
    g_srIndex                                0x200002a6   Data           1  spi.o(.data)
    g_isComStop                              0x200002a7   Data           1  spi.o(.data)
    g_flaLockFlag                            0x200002a8   Data           1  spi.o(.data)
    g_isHotProtect                           0x200002a9   Data           1  spi.o(.data)
    g_isAutoStby                             0x200002aa   Data           1  spi.o(.data)
    macData4                                 0x200002ab   Data           3  spi.o(.data)
    macData5                                 0x200002ae   Data           3  spi.o(.data)
    sendRecord                               0x200002b1   Data           3  spi.o(.data)
    g_pSendRcv                               0x200002b4   Data           4  spi.o(.data)
    macData1                                 0x200002b8   Data          18  spi.o(.data)
    macData2                                 0x200002ca   Data          22  spi.o(.data)
    macData3                                 0x200002e0   Data          46  spi.o(.data)
    g_isFlashWeak                            0x2000030e   Data           1  spi.o(.data)
    g_FlashWeakLevels                        0x2000030f   Data           1  spi.o(.data)
    g_tmHandleFlag                           0x20000310   Data           1  timer.o(.data)
    OSCPUUsage                               0x20000314   Data           1  os_core.o(.data)
    OSStatRdy                                0x20000315   Data           1  os_core.o(.data)
    OSIntNesting                             0x20000316   Data           1  os_core.o(.data)
    OSIntExitY                               0x20000317   Data           1  os_core.o(.data)
    OSLockNesting                            0x20000318   Data           1  os_core.o(.data)
    OSPrioCur                                0x20000319   Data           1  os_core.o(.data)
    OSPrioHighRdy                            0x2000031a   Data           1  os_core.o(.data)
    OSRdyGrp                                 0x2000031b   Data           1  os_core.o(.data)
    OSRunning                                0x2000031c   Data           1  os_core.o(.data)
    OSTaskCtr                                0x2000031d   Data           1  os_core.o(.data)
    OSRdyTbl                                 0x2000031e   Data           3  os_core.o(.data)
    OSCtxSwCtr                               0x20000324   Data           4  os_core.o(.data)
    OSEventFreeList                          0x20000328   Data           4  os_core.o(.data)
    OSIdleCtrMax                             0x2000032c   Data           4  os_core.o(.data)
    OSIdleCtrRun                             0x20000330   Data           4  os_core.o(.data)
    OSIdleCtr                                0x20000334   Data           4  os_core.o(.data)
    OSTCBCur                                 0x20000338   Data           4  os_core.o(.data)
    OSTCBFreeList                            0x2000033c   Data           4  os_core.o(.data)
    OSTCBHighRdy                             0x20000340   Data           4  os_core.o(.data)
    OSTCBList                                0x20000344   Data           4  os_core.o(.data)
    OSTime                                   0x20000348   Data           4  os_core.o(.data)
    OSFlagFreeList                           0x2000034c   Data           4  os_core.o(.data)
    OSMemFreeList                            0x20000350   Data           4  os_core.o(.data)
    OSQFreeList                              0x20000354   Data           4  os_core.o(.data)
    OSTmrFree                                0x20000358   Data           2  os_core.o(.data)
    OSTmrUsed                                0x2000035a   Data           2  os_core.o(.data)
    OSTmrTime                                0x2000035c   Data           4  os_core.o(.data)
    OSTmrSem                                 0x20000360   Data           4  os_core.o(.data)
    OSTmrSemSignal                           0x20000364   Data           4  os_core.o(.data)
    OSTmrFreeList                            0x20000368   Data           4  os_core.o(.data)
    OSInterrputSum                           0x2000036c   Data           4  os_cpu_c.o(.data)
    nikWireless                              0x20000384   Data          92  flash.o(.bss)
    mainPara                                 0x200003e0   Data         112  main.o(.bss)
    rptSet                                   0x20000450   Data          32  main.o(.bss)
    TASK_LED1_STK                            0x20000470   Data         512  main.o(.bss)
    TASK_VOLTAGE_STK                         0x20000670   Data         256  main.o(.bss)
    TASK_COMPROC_STK                         0x20000770   Data         512  main.o(.bss)
    TASK_KEYPROC_STK                         0x20000970   Data         512  main.o(.bss)
    TASK_START_STK                           0x20000b70   Data         256  main.o(.bss)
    TASK_MOTOTICK_STK                        0x20000c70   Data         256  main.o(.bss)
    funcMenu                                 0x20000d70   Data          84  nikdisplay.o(.bss)
    wlSet                                    0x20000dc4   Data          10  spi.o(.bss)
    motoSet                                  0x20000dd0   Data          40  spi.o(.bss)
    receive_arrary                           0x20000df8   Data         100  spi.o(.bss)
    cmrPara                                  0x20000e5c   Data          32  spi.o(.bss)
    STMFLASH_BUF                             0x20000e7c   Data        2400  stmflash.o(.bss)
    OSEventTbl                               0x200017dc   Data          24  os_core.o(.bss)
    OSTaskStatStk                            0x200017f4   Data        2048  os_core.o(.bss)
    OSTaskIdleStk                            0x20001ff4   Data        2048  os_core.o(.bss)
    OSTCBPrioTbl                             0x200027f4   Data          80  os_core.o(.bss)
    OSTCBTbl                                 0x20002844   Data         468  os_core.o(.bss)
    OSFlagTbl                                0x20002a18   Data          60  os_core.o(.bss)
    OSMemTbl                                 0x20002a54   Data         100  os_core.o(.bss)
    OSQTbl                                   0x20002ab8   Data          48  os_core.o(.bss)
    OSTmrTbl                                 0x20002ae8   Data         576  os_core.o(.bss)
    OSTmrTaskStk                             0x20002d28   Data         512  os_core.o(.bss)
    OSTmrWheelTbl                            0x20002f28   Data          64  os_core.o(.bss)
    __initial_sp                             0x20003168   Data           0  stm32f10x.o(STACK)



==============================================================================

Memory Map of the image

  Image Entry point : 0x080050ed

  Load Region LR_IROM1 (Base: 0x08005000, Size: 0x000125d8, Max: 0x00020000, ABSOLUTE, COMPRESSED[0x000123d4])

    Execution Region ER_IROM1 (Base: 0x08005000, Size: 0x00012254, Max: 0x00020000, ABSOLUTE)

    Base Addr    Size         Type   Attr      Idx    E Section Name        Object

    0x08005000   0x000000ec   Data   RO            3    RESET               stm32f10x.o
    0x080050ec   0x00000000   Code   RO         1298  * .ARM.Collect$$$$00000000  mc_w.l(entry.o)
    0x080050ec   0x00000004   Code   RO         1323    .ARM.Collect$$$$00000001  mc_w.l(entry2.o)
    0x080050f0   0x00000004   Code   RO         1326    .ARM.Collect$$$$00000004  mc_w.l(entry5.o)
    0x080050f4   0x00000000   Code   RO         1328    .ARM.Collect$$$$00000008  mc_w.l(entry7b.o)
    0x080050f4   0x00000000   Code   RO         1330    .ARM.Collect$$$$0000000A  mc_w.l(entry8b.o)
    0x080050f4   0x00000008   Code   RO         1331    .ARM.Collect$$$$0000000B  mc_w.l(entry9a.o)
    0x080050fc   0x00000000   Code   RO         1333    .ARM.Collect$$$$0000000D  mc_w.l(entry10a.o)
    0x080050fc   0x00000000   Code   RO         1335    .ARM.Collect$$$$0000000F  mc_w.l(entry11a.o)
    0x080050fc   0x00000004   Code   RO         1324    .ARM.Collect$$$$00002712  mc_w.l(entry2.o)
    0x08005100   0x00000002   Code   RO          377    .emb_text           sys.o
    0x08005102   0x00000002   PAD
    0x08005104   0x0000001c   Code   RO            4    .text               stm32f10x.o
    0x08005120   0x00001ca8   Code   RO           10    .text               flash.o
    0x08006dc8   0x00001594   Code   RO          175    .text               keyproc.o
    0x0800835c   0x00000a8c   Code   RO          211    .text               main.o
    0x08008de8   0x000012bc   Code   RO          258    .text               menu.o
    0x0800a0a4   0x000004e8   Code   RO          297    .text               moto.o
    0x0800a58c   0x00003f08   Code   RO          321    .text               nikdisplay.o
    0x0800e494   0x000000a8   Code   RO          362    .text               delay.o
    0x0800e53c   0x00000598   Code   RO          378    .text               sys.o
    0x0800ead4   0x000000b4   Code   RO          404    .text               usart.o
    0x0800eb88   0x00000448   Code   RO          433    .text               led.o
    0x0800efd0   0x00001468   Code   RO          468    .text               spi.o
    0x08010438   0x00000308   Code   RO          518    .text               timer.o
    0x08010740   0x0000051c   Code   RO          547    .text               lcddriver.o
    0x08010c5c   0x000001f8   Code   RO          805    .text               stmflash.o
    0x08010e54   0x000004f0   Code   RO          824    .text               os_core.o
    0x08011344   0x00000474   Code   RO          859    .text               os_flag.o
    0x080117b8   0x00000164   Code   RO          884    .text               os_mem.o
    0x0801191c   0x00000420   Code   RO          908    .text               os_q.o
    0x08011d3c   0x00000204   Code   RO          920    .text               os_sem.o
    0x08011f40   0x00000408   Code   RO          932    .text               os_task.o
    0x08012348   0x00000150   Code   RO          944    .text               os_time.o
    0x08012498   0x000004c8   Code   RO          956    .text               os_tmr.o
    0x08012960   0x00000086   Code   RO          982    .text               os_cpu_c.o
    0x080129e6   0x00000002   PAD
    0x080129e8   0x000000dc   Code   RO         1004    .text               os_cpu_a.o
    0x08012ac4   0x000000b0   Code   RO         1017    .text               misc.o
    0x08012b74   0x00000330   Code   RO         1029    .text               stm32f10x_adc.o
    0x08012ea4   0x000000e8   Code   RO         1125    .text               stm32f10x_exti.o
    0x08012f8c   0x0000047c   Code   RO         1137    .text               stm32f10x_flash.o
    0x08013408   0x0000026c   Code   RO         1162    .text               stm32f10x_gpio.o
    0x08013674   0x000000d4   Code   RO         1198    .text               stm32f10x_pwr.o
    0x08013748   0x000002b4   Code   RO         1210    .text               stm32f10x_rcc.o
    0x080139fc   0x00000274   Code   RO         1249    .text               stm32f10x_spi.o
    0x08013c70   0x00000328   Code   RO         1274    .text               stm32f10x_usart.o
    0x08013f98   0x00000024   Code   RO         1301    .text               mc_w.l(memcpya.o)
    0x08013fbc   0x00000024   Code   RO         1303    .text               mc_w.l(memseta.o)
    0x08013fe0   0x000000b0   Code   RO         1307    .text               mf_w.l(fadd.o)
    0x08014090   0x00000064   Code   RO         1309    .text               mf_w.l(fmul.o)
    0x080140f4   0x0000007c   Code   RO         1311    .text               mf_w.l(fdiv.o)
    0x08014170   0x00000018   Code   RO         1313    .text               mf_w.l(fscalb.o)
    0x08014188   0x0000000a   Code   RO         1315    .text               mf_w.l(ffltui.o)
    0x08014192   0x00000032   Code   RO         1317    .text               mf_w.l(ffixi.o)
    0x080141c4   0x00000028   Code   RO         1319    .text               mf_w.l(ffixui.o)
    0x080141ec   0x00000014   Code   RO         1321    .text               mf_w.l(cfcmple.o)
    0x08014200   0x00000000   Code   RO         1337    .text               mc_w.l(iusefp.o)
    0x08014200   0x0000006e   Code   RO         1338    .text               mf_w.l(fepilogue.o)
    0x0801426e   0x00000002   PAD
    0x08014270   0x00000024   Code   RO         1340    .text               mc_w.l(init.o)
    0x08014294   0x00000056   Code   RO         1350    .text               mc_w.l(__dczerorl2.o)
    0x080142ea   0x0000000e   Code   RO         1344    i.__scatterload_copy  mc_w.l(handlers.o)
    0x080142f8   0x00000002   Code   RO         1345    i.__scatterload_null  mc_w.l(handlers.o)
    0x080142fa   0x0000000e   Code   RO         1346    i.__scatterload_zeroinit  mc_w.l(handlers.o)
    0x08014308   0x000000e0   Data   RO           12    .constdata          flash.o
    0x080143e8   0x00000003   Data   RO          259    .constdata          menu.o
    0x080143eb   0x00000001   PAD
    0x080143ec   0x000000e0   Data   RO          260    .constdata          menu.o
    0x080144cc   0x00000030   Data   RO          298    .constdata          moto.o
    0x080144fc   0x000004a0   Data   RO          323    .constdata          nikdisplay.o
    0x0801499c   0x00000058   Data   RO          324    .constdata          nikdisplay.o
    0x080149f4   0x00000293   Data   RO          472    .constdata          spi.o
    0x08014c87   0x00000022   Data   RO          586    .constdata          font.o
    0x08014ca9   0x00000032   Data   RO          587    .constdata          font.o
    0x08014cdb   0x0000003e   Data   RO          588    .constdata          font.o
    0x08014d19   0x00000026   Data   RO          589    .constdata          font.o
    0x08014d3f   0x00000044   Data   RO          590    .constdata          font.o
    0x08014d83   0x0000002c   Data   RO          591    .constdata          font.o
    0x08014daf   0x0000002e   Data   RO          592    .constdata          font.o
    0x08014ddd   0x00000038   Data   RO          593    .constdata          font.o
    0x08014e15   0x00000050   Data   RO          594    .constdata          font.o
    0x08014e65   0x00000080   Data   RO          595    .constdata          font.o
    0x08014ee5   0x0000003c   Data   RO          596    .constdata          font.o
    0x08014f21   0x00000064   Data   RO          597    .constdata          font.o
    0x08014f85   0x000000a0   Data   RO          598    .constdata          font.o
    0x08015025   0x0000000e   Data   RO          599    .constdata          font.o
    0x08015033   0x000000c8   Data   RO          600    .constdata          font.o
    0x080150fb   0x00000078   Data   RO          601    .constdata          font.o
    0x08015173   0x00000078   Data   RO          602    .constdata          font.o
    0x080151eb   0x00000004   Data   RO          603    .constdata          font.o
    0x080151ef   0x00000004   Data   RO          604    .constdata          font.o
    0x080151f3   0x00000016   Data   RO          605    .constdata          font.o
    0x08015209   0x00000022   Data   RO          606    .constdata          font.o
    0x0801522b   0x00000038   Data   RO          607    .constdata          font.o
    0x08015263   0x00000090   Data   RO          609    .constdata          font.o
    0x080152f3   0x0000000a   Data   RO          611    .constdata          font.o
    0x080152fd   0x0000000a   Data   RO          612    .constdata          font.o
    0x08015307   0x0000000e   Data   RO          613    .constdata          font.o
    0x08015315   0x00000012   Data   RO          614    .constdata          font.o
    0x08015327   0x00000028   Data   RO          615    .constdata          font.o
    0x0801534f   0x00000010   Data   RO          616    .constdata          font.o
    0x0801535f   0x00000028   Data   RO          617    .constdata          font.o
    0x08015387   0x00000006   Data   RO          618    .constdata          font.o
    0x0801538d   0x00000010   Data   RO          619    .constdata          font.o
    0x0801539d   0x0000001e   Data   RO          620    .constdata          font.o
    0x080153bb   0x0000002a   Data   RO          621    .constdata          font.o
    0x080153e5   0x000000d8   Data   RO          622    .constdata          font.o
    0x080154bd   0x000000d8   Data   RO          623    .constdata          font.o
    0x08015595   0x000000e0   Data   RO          624    .constdata          font.o
    0x08015675   0x000000e2   Data   RO          625    .constdata          font.o
    0x08015757   0x00000016   Data   RO          629    .constdata          font.o
    0x0801576d   0x00000009   Data   RO          630    .constdata          font.o
    0x08015776   0x0000000b   Data   RO          631    .constdata          font.o
    0x08015781   0x00000006   Data   RO          632    .constdata          font.o
    0x08015787   0x00000006   Data   RO          633    .constdata          font.o
    0x0801578d   0x0000000e   Data   RO          634    .constdata          font.o
    0x0801579b   0x00000032   Data   RO          635    .constdata          font.o
    0x080157cd   0x00000034   Data   RO          636    .constdata          font.o
    0x08015801   0x0000001a   Data   RO          637    .constdata          font.o
    0x0801581b   0x0000000e   Data   RO          640    .constdata          font.o
    0x08015829   0x00000064   Data   RO          648    .constdata          font.o
    0x0801588d   0x0000000e   Data   RO          655    .constdata          font.o
    0x0801589b   0x00000006   Data   RO          656    .constdata          font.o
    0x080158a1   0x00000014   Data   RO          657    .constdata          font.o
    0x080158b5   0x0000001a   Data   RO          658    .constdata          font.o
    0x080158cf   0x00000008   Data   RO          659    .constdata          font.o
    0x080158d7   0x00000006   Data   RO          660    .constdata          font.o
    0x080158dd   0x00000006   Data   RO          661    .constdata          font.o
    0x080158e3   0x00000016   Data   RO          662    .constdata          font.o
    0x080158f9   0x0000002c   Data   RO          663    .constdata          font.o
    0x08015925   0x00000008   Data   RO          686    .constdata          font.o
    0x0801592d   0x00000008   Data   RO          687    .constdata          font.o
    0x08015935   0x00000027   Data   RO          697    .constdata          font.o
    0x0801595c   0x0000001a   Data   RO          700    .constdata          font.o
    0x08015976   0x0000001a   Data   RO          701    .constdata          font.o
    0x08015990   0x00000548   Data   RO          704    .constdata          font.o
    0x08015ed8   0x00000020   Data   RO          705    .constdata          font.o
    0x08015ef8   0x00000020   Data   RO          706    .constdata          font.o
    0x08015f18   0x00000084   Data   RO          707    .constdata          font.o
    0x08015f9c   0x0000001e   Data   RO          708    .constdata          font.o
    0x08015fba   0x0000001e   Data   RO          709    .constdata          font.o
    0x08015fd8   0x0000001e   Data   RO          710    .constdata          font.o
    0x08015ff6   0x0000001e   Data   RO          711    .constdata          font.o
    0x08016014   0x00000004   Data   RO          712    .constdata          font.o
    0x08016018   0x00000006   Data   RO          713    .constdata          font.o
    0x0801601e   0x00000006   Data   RO          714    .constdata          font.o
    0x08016024   0x0000001e   Data   RO          715    .constdata          font.o
    0x08016042   0x00000036   Data   RO          716    .constdata          font.o
    0x08016078   0x00000028   Data   RO          717    .constdata          font.o
    0x080160a0   0x00000016   Data   RO          718    .constdata          font.o
    0x080160b6   0x00000016   Data   RO          719    .constdata          font.o
    0x080160cc   0x00000016   Data   RO          720    .constdata          font.o
    0x080160e2   0x00000016   Data   RO          721    .constdata          font.o
    0x080160f8   0x00000016   Data   RO          722    .constdata          font.o
    0x0801610e   0x00000016   Data   RO          723    .constdata          font.o
    0x08016124   0x00000036   Data   RO          724    .constdata          font.o
    0x0801615a   0x00000012   Data   RO          725    .constdata          font.o
    0x0801616c   0x00000026   Data   RO          726    .constdata          font.o
    0x08016192   0x00000016   Data   RO          727    .constdata          font.o
    0x080161a8   0x00000012   Data   RO          728    .constdata          font.o
    0x080161ba   0x000000a0   Data   RO          729    .constdata          font.o
    0x0801625a   0x00000042   Data   RO          730    .constdata          font.o
    0x0801629c   0x00000058   Data   RO          731    .constdata          font.o
    0x080162f4   0x00000048   Data   RO          732    .constdata          font.o
    0x0801633c   0x00000038   Data   RO          733    .constdata          font.o
    0x08016374   0x00000038   Data   RO          734    .constdata          font.o
    0x080163ac   0x00000030   Data   RO          735    .constdata          font.o
    0x080163dc   0x0000002a   Data   RO          736    .constdata          font.o
    0x08016406   0x00000014   Data   RO          737    .constdata          font.o
    0x0801641a   0x0000000b   Data   RO          738    .constdata          font.o
    0x08016425   0x00000004   Data   RO          739    .constdata          font.o
    0x08016429   0x00000010   Data   RO          740    .constdata          font.o
    0x08016439   0x0000001c   Data   RO          741    .constdata          font.o
    0x08016455   0x0000003c   Data   RO          742    .constdata          font.o
    0x08016491   0x00000020   Data   RO          743    .constdata          font.o
    0x080164b1   0x0000001a   Data   RO          744    .constdata          font.o
    0x080164cb   0x0000000e   Data   RO          745    .constdata          font.o
    0x080164d9   0x0000000e   Data   RO          746    .constdata          font.o
    0x080164e7   0x00000084   Data   RO          747    .constdata          font.o
    0x0801656b   0x0000002d   Data   RO          748    .constdata          font.o
    0x08016598   0x0000001e   Data   RO          749    .constdata          font.o
    0x080165b6   0x00000010   Data   RO          751    .constdata          font.o
    0x080165c6   0x00000010   Data   RO          752    .constdata          font.o
    0x080165d6   0x00000174   Data   RO          753    .constdata          font.o
    0x0801674a   0x0000002c   Data   RO          754    .constdata          font.o
    0x08016776   0x00000012   Data   RO          755    .constdata          font.o
    0x08016788   0x00000087   Data   RO          756    .constdata          font.o
    0x0801680f   0x0000001a   Data   RO          757    .constdata          font.o
    0x08016829   0x0000001a   Data   RO          758    .constdata          font.o
    0x08016843   0x0000001a   Data   RO          759    .constdata          font.o
    0x0801685d   0x00000009   Data   RO          760    .constdata          font.o
    0x08016866   0x00000009   Data   RO          761    .constdata          font.o
    0x0801686f   0x00000009   Data   RO          762    .constdata          font.o
    0x08016878   0x00000087   Data   RO          763    .constdata          font.o
    0x080168ff   0x00000087   Data   RO          764    .constdata          font.o
    0x08016986   0x00000087   Data   RO          765    .constdata          font.o
    0x08016a0d   0x00000081   Data   RO          766    .constdata          font.o
    0x08016a8e   0x0000002d   Data   RO          767    .constdata          font.o
    0x08016abb   0x00000069   Data   RO          768    .constdata          font.o
    0x08016b24   0x0000008d   Data   RO          769    .constdata          font.o
    0x08016bb1   0x0000003c   Data   RO          770    .constdata          font.o
    0x08016bed   0x0000008d   Data   RO          771    .constdata          font.o
    0x08016c7a   0x00000090   Data   RO          772    .constdata          font.o
    0x08016d0a   0x00000096   Data   RO          773    .constdata          font.o
    0x08016da0   0x00000054   Data   RO          774    .constdata          font.o
    0x08016df4   0x0000003c   Data   RO          775    .constdata          font.o
    0x08016e30   0x00000051   Data   RO          776    .constdata          font.o
    0x08016e81   0x0000005d   Data   RO          782    .constdata          font.o
    0x08016ede   0x0000004e   Data   RO          783    .constdata          font.o
    0x08016f2c   0x00000090   Data   RO          784    .constdata          font.o
    0x08016fbc   0x0000000c   Data   RO          785    .constdata          font.o
    0x08016fc8   0x0000000c   Data   RO          786    .constdata          font.o
    0x08016fd4   0x0000000c   Data   RO          787    .constdata          font.o
    0x08016fe0   0x0000000c   Data   RO          788    .constdata          font.o
    0x08016fec   0x00000046   Data   RO          789    .constdata          font.o
    0x08017032   0x00000026   Data   RO          790    .constdata          font.o
    0x08017058   0x00000036   Data   RO          791    .constdata          font.o
    0x0801708e   0x00000040   Data   RO          792    .constdata          font.o
    0x080170ce   0x0000005a   Data   RO          793    .constdata          font.o
    0x08017128   0x00000108   Data   RO          832    .constdata          os_core.o
    0x08017230   0x00000001   Data   RO          325    .conststring        nikdisplay.o
    0x08017231   0x00000003   PAD
    0x08017234   0x00000020   Data   RO         1342    Region$$Table       anon$$obj.o


    Execution Region RW_IRAM1 (Base: 0x20000000, Size: 0x00003168, Max: 0x00005000, ABSOLUTE, COMPRESSED[0x00000180])

    Base Addr    Size         Type   Attr      Idx    E Section Name        Object

    0x20000000   0x00000008   Data   RW           13    .data               flash.o
    0x20000008   0x00000001   Data   RW           14    .data               flash.o
    0x20000009   0x00000001   Data   RW           15    .data               flash.o
    0x2000000a   0x00000002   PAD
    0x2000000c   0x00000030   Data   RW          176    .data               keyproc.o
    0x2000003c   0x00000001   Data   RW          177    .data               keyproc.o
    0x2000003d   0x00000001   Data   RW          178    .data               keyproc.o
    0x2000003e   0x00000001   Data   RW          179    .data               keyproc.o
    0x2000003f   0x00000001   Data   RW          215    .data               main.o
    0x20000040   0x00000034   Data   RW          216    .data               main.o
    0x20000074   0x00000001   Data   RW          217    .data               main.o
    0x20000075   0x00000001   Data   RW          218    .data               main.o
    0x20000076   0x00000001   Data   RW          219    .data               main.o
    0x20000077   0x00000022   Data   RW          221    .data               main.o
    0x20000099   0x00000001   Data   RW          222    .data               main.o
    0x2000009a   0x00000002   PAD
    0x2000009c   0x00000008   Data   RW          229    .data               main.o
    0x200000a4   0x00000008   Data   RW          261    .data               menu.o
    0x200000ac   0x00000001   Data   RW          262    .data               menu.o
    0x200000ad   0x00000001   Data   RW          263    .data               menu.o
    0x200000ae   0x00000001   Data   RW          264    .data               menu.o
    0x200000af   0x00000001   PAD
    0x200000b0   0x0000000c   Data   RW          265    .data               menu.o
    0x200000bc   0x0000000c   Data   RW          266    .data               menu.o
    0x200000c8   0x0000000c   Data   RW          267    .data               menu.o
    0x200000d4   0x0000000c   Data   RW          268    .data               menu.o
    0x200000e0   0x0000000c   Data   RW          269    .data               menu.o
    0x200000ec   0x0000000c   Data   RW          270    .data               menu.o
    0x200000f8   0x0000000c   Data   RW          271    .data               menu.o
    0x20000104   0x0000000c   Data   RW          272    .data               menu.o
    0x20000110   0x0000000c   Data   RW          273    .data               menu.o
    0x2000011c   0x0000000c   Data   RW          274    .data               menu.o
    0x20000128   0x0000000c   Data   RW          275    .data               menu.o
    0x20000134   0x0000000c   Data   RW          276    .data               menu.o
    0x20000140   0x0000000c   Data   RW          277    .data               menu.o
    0x2000014c   0x0000000c   Data   RW          278    .data               menu.o
    0x20000158   0x0000000a   Data   RW          299    .data               moto.o
    0x20000162   0x00000002   PAD
    0x20000164   0x00000134   Data   RW          326    .data               nikdisplay.o
    0x20000298   0x00000004   Data   RW          363    .data               delay.o
    0x2000029c   0x00000072   Data   RW          480    .data               spi.o
    0x2000030e   0x00000001   Data   RW          481    .data               spi.o
    0x2000030f   0x00000001   Data   RW          482    .data               spi.o
    0x20000310   0x00000001   Data   RW          519    .data               timer.o
    0x20000311   0x00000003   PAD
    0x20000314   0x00000038   Data   RW          833    .data               os_core.o
    0x2000034c   0x00000004   Data   RW          834    .data               os_core.o
    0x20000350   0x00000004   Data   RW          835    .data               os_core.o
    0x20000354   0x00000004   Data   RW          836    .data               os_core.o
    0x20000358   0x00000002   Data   RW          837    .data               os_core.o
    0x2000035a   0x00000002   Data   RW          838    .data               os_core.o
    0x2000035c   0x00000004   Data   RW          839    .data               os_core.o
    0x20000360   0x00000004   Data   RW          840    .data               os_core.o
    0x20000364   0x00000004   Data   RW          841    .data               os_core.o
    0x20000368   0x00000004   Data   RW          842    .data               os_core.o
    0x2000036c   0x00000004   Data   RW          983    .data               os_cpu_c.o
    0x20000370   0x00000014   Data   RW         1211    .data               stm32f10x_rcc.o
    0x20000384   0x0000005c   Zero   RW           11    .bss                flash.o
    0x200003e0   0x00000990   Zero   RW          212    .bss                main.o
    0x20000d70   0x00000054   Zero   RW          322    .bss                nikdisplay.o
    0x20000dc4   0x000000b8   Zero   RW          471    .bss                spi.o
    0x20000e7c   0x00000960   Zero   RW          806    .bss                stmflash.o
    0x200017dc   0x0000123c   Zero   RW          825    .bss                os_core.o
    0x20002a18   0x0000003c   Zero   RW          826    .bss                os_core.o
    0x20002a54   0x00000064   Zero   RW          827    .bss                os_core.o
    0x20002ab8   0x00000030   Zero   RW          828    .bss                os_core.o
    0x20002ae8   0x00000240   Zero   RW          829    .bss                os_core.o
    0x20002d28   0x00000200   Zero   RW          830    .bss                os_core.o
    0x20002f28   0x00000040   Zero   RW          831    .bss                os_core.o
    0x20002f68   0x00000200   Zero   RW            1    STACK               stm32f10x.o


==============================================================================

Image component sizes


      Code (inc. data)   RO Data    RW Data    ZI Data      Debug   Object Name

       168          6          0          4          0       1573   delay.o
      7336        406        224         10         92     305579   flash.o
         0          0       9377          0          0      12029   font.o
      5524        490          0         51          0      35676   keyproc.o
      1308         56          0          0          0       5223   lcddriver.o
      1096        126          0          0          0       1699   led.o
      2700        294          0         99       2448      23680   main.o
      4796        204        227        179          0      17590   menu.o
       176         14          0          0          0       1985   misc.o
      1256         54         48         10          0       5939   moto.o
     16136        866       1273        308         84      38114   nikdisplay.o
      1264         34        264         88       6028      13879   os_core.o
       220         40          0          0          0        356   os_cpu_a.o
       134          0          0          4          0       9977   os_cpu_c.o
      1140         24          0          0          0       5756   os_flag.o
       356         10          0          0          0       2622   os_mem.o
      1056         22          0          0          0       4996   os_q.o
       516         12          0          0          0       2918   os_sem.o
      1032         46          0          0          0       4274   os_task.o
       336         22          0          0          0       1834   os_time.o
      1224         72          0          0          0      12631   os_tmr.o
      5224        334        659        116        184      30262   spi.o
        28          4        236          0        512        804   stm32f10x.o
       816         24          0          0          0      11373   stm32f10x_adc.o
       232          8          0          0          0       2483   stm32f10x_exti.o
      1148         22          0          0          0       9388   stm32f10x_flash.o
       620         36          0          0          0       5945   stm32f10x_gpio.o
       212         12          0          0          0       2274   stm32f10x_pwr.o
       692         32          0         20          0       9128   stm32f10x_rcc.o
       628         14          0          0          0       7086   stm32f10x_spi.o
       808         22          0          0          0       8864   stm32f10x_usart.o
       504         16          0          0       2400       4349   stmflash.o
      1434         88          0          0          0       5516   sys.o
       776         50          0          1          0       2781   timer.o
       180         18          0          0          0       2796   usart.o

    ----------------------------------------------------------------------
     61080       3478      12344        900      11748     611379   Object Totals
         0          0         32          0          0          0   (incl. Generated)
         4          0          4         10          0          0   (incl. Padding)

    ----------------------------------------------------------------------

      Code (inc. data)   RO Data    RW Data    ZI Data      Debug   Library Member Name

        86          0          0          0          0          0   __dczerorl2.o
         0          0          0          0          0          0   entry.o
         0          0          0          0          0          0   entry10a.o
         0          0          0          0          0          0   entry11a.o
         8          4          0          0          0          0   entry2.o
         4          0          0          0          0          0   entry5.o
         0          0          0          0          0          0   entry7b.o
         0          0          0          0          0          0   entry8b.o
         8          4          0          0          0          0   entry9a.o
        30          0          0          0          0          0   handlers.o
        36          8          0          0          0         68   init.o
         0          0          0          0          0          0   iusefp.o
        36          0          0          0          0         68   memcpya.o
        36          0          0          0          0        108   memseta.o
        20          0          0          0          0         68   cfcmple.o
       176          0          0          0          0        140   fadd.o
       124          0          0          0          0         88   fdiv.o
       110          0          0          0          0        168   fepilogue.o
        50          0          0          0          0         68   ffixi.o
        40          0          0          0          0         68   ffixui.o
        10          0          0          0          0         68   ffltui.o
       100          0          0          0          0         76   fmul.o
        24          0          0          0          0         68   fscalb.o

    ----------------------------------------------------------------------
       900         16          0          0          0       1056   Library Totals
         2          0          0          0          0          0   (incl. Padding)

    ----------------------------------------------------------------------

      Code (inc. data)   RO Data    RW Data    ZI Data      Debug   Library Name

       244         16          0          0          0        244   mc_w.l
       654          0          0          0          0        812   mf_w.l

    ----------------------------------------------------------------------
       900         16          0          0          0       1056   Library Totals

    ----------------------------------------------------------------------

==============================================================================


      Code (inc. data)   RO Data    RW Data    ZI Data      Debug   

     61980       3494      12344        900      11748     606115   Grand Totals
     61980       3494      12344        384      11748     606115   ELF Image Totals (compressed)
     61980       3494      12344        384          0          0   ROM Totals

==============================================================================

    Total RO  Size (Code + RO Data)                74324 (  72.58kB)
    Total RW  Size (RW Data + ZI Data)             12648 (  12.35kB)
    Total ROM Size (Code + RO Data + RW Data)      74708 (  72.96kB)

==============================================================================

